ARM GAS  /tmp/cclwjtNS.s 			page 1


   1              		.syntax unified
   2              		.cpu cortex-m3
   3              		.fpu softvfp
   4              		.eabi_attribute 20, 1
   5              		.eabi_attribute 21, 1
   6              		.eabi_attribute 23, 3
   7              		.eabi_attribute 24, 1
   8              		.eabi_attribute 25, 1
   9              		.eabi_attribute 26, 1
  10              		.eabi_attribute 30, 2
  11              		.eabi_attribute 34, 1
  12              		.eabi_attribute 18, 4
  13              		.thumb
  14              		.file	"adc.c"
  15              		.text
  16              	.Ltext0:
  17              		.cfi_sections	.debug_frame
  18              		.section	.text.adcInit,"ax",%progbits
  19              		.align	2
  20              		.p2align 4,,15
  21              		.global	adcInit
  22              		.thumb
  23              		.thumb_func
  24              		.type	adcInit, %function
  25              	adcInit:
  26              	.LFB207:
  27              		.file 1 "/home/peter/ChibiOS_16.1.4/os/hal/src/adc.c"
  28              		.loc 1 56 0
  29              		.cfi_startproc
  30              		@ args = 0, pretend = 0, frame = 0
  31              		@ frame_needed = 0, uses_anonymous_args = 0
  32              		@ link register save eliminated.
  33              		.loc 1 58 0
  34 0000 FFF7FEBF 		b	adc_lld_init
  35              	.LVL0:
  36              		.cfi_endproc
  37              	.LFE207:
  38              		.size	adcInit, .-adcInit
  39 0004 AFF30080 		.section	.text.adcObjectInit,"ax",%progbits
  39      AFF30080 
  39      AFF30080 
  40              		.align	2
  41              		.p2align 4,,15
  42              		.global	adcObjectInit
  43              		.thumb
  44              		.thumb_func
  45              		.type	adcObjectInit, %function
  46              	adcObjectInit:
  47              	.LFB208:
  48              		.loc 1 68 0
  49              		.cfi_startproc
  50              		@ args = 0, pretend = 0, frame = 0
  51              		@ frame_needed = 0, uses_anonymous_args = 0
  52              		@ link register save eliminated.
  53              	.LVL1:
  54              		.loc 1 71 0
  55 0000 0023     		movs	r3, #0
ARM GAS  /tmp/cclwjtNS.s 			page 2


  56              		.loc 1 70 0
  57 0002 0122     		movs	r2, #1
  58 0004 0270     		strb	r2, [r0]
  59              		.loc 1 71 0
  60 0006 4360     		str	r3, [r0, #4]
  61              		.loc 1 72 0
  62 0008 8360     		str	r3, [r0, #8]
  63              		.loc 1 73 0
  64 000a C360     		str	r3, [r0, #12]
  65              		.loc 1 74 0
  66 000c 0361     		str	r3, [r0, #16]
  67              		.loc 1 76 0
  68 000e 4361     		str	r3, [r0, #20]
  69              	.LVL2:
  70              	.LBB105:
  71              	.LBB106:
  72              		.file 2 "/home/peter/ChibiOS_16.1.4/os/hal/osal/rt/osal.h"
  73              		.loc 2 887 0
  74 0010 1830     		adds	r0, r0, #24
  75              	.LVL3:
  76 0012 FFF7FEBF 		b	chMtxObjectInit
  77              	.LVL4:
  78              	.LBE106:
  79              	.LBE105:
  80              		.cfi_endproc
  81              	.LFE208:
  82              		.size	adcObjectInit, .-adcObjectInit
  83 0016 00BFAFF3 		.section	.text.adcStart,"ax",%progbits
  83      0080AFF3 
  83      0080
  84              		.align	2
  85              		.p2align 4,,15
  86              		.global	adcStart
  87              		.thumb
  88              		.thumb_func
  89              		.type	adcStart, %function
  90              	adcStart:
  91              	.LFB209:
  92              		.loc 1 95 0
  93              		.cfi_startproc
  94              		@ args = 0, pretend = 0, frame = 0
  95              		@ frame_needed = 0, uses_anonymous_args = 0
  96              	.LVL5:
  97 0000 10B5     		push	{r4, lr}
  98              		.cfi_def_cfa_offset 8
  99              		.cfi_offset 4, -8
 100              		.cfi_offset 14, -4
 101              	.LBB107:
 102              	.LBB108:
 103              	.LBB109:
 104              	.LBB110:
 105              	.LBB111:
 106              		.file 3 "/home/peter/ChibiOS_16.1.4/os/ext/CMSIS/include/core_cmFunc.h"
 107              		.loc 3 548 0
 108 0002 2023     		movs	r3, #32
 109              	.LBE111:
 110              	.LBE110:
ARM GAS  /tmp/cclwjtNS.s 			page 3


 111              	.LBE109:
 112              	.LBE108:
 113              	.LBE107:
 114              		.loc 1 95 0
 115 0004 0446     		mov	r4, r0
 116              	.LBB116:
 117              	.LBB115:
 118              	.LBB114:
 119              	.LBB113:
 120              	.LBB112:
 121              		.loc 3 548 0
 122              	@ 548 "/home/peter/ChibiOS_16.1.4/os/ext/CMSIS/include/core_cmFunc.h" 1
 123 0006 83F31188 		MSR basepri, r3
 124              	@ 0 "" 2
 125              		.thumb
 126              	.LBE112:
 127              	.LBE113:
 128              	.LBE114:
 129              	.LBE115:
 130              	.LBE116:
 131              		.loc 1 102 0
 132 000a 4160     		str	r1, [r0, #4]
 133              		.loc 1 103 0
 134 000c FFF7FEFF 		bl	adc_lld_start
 135              	.LVL6:
 136              		.loc 1 104 0
 137 0010 0223     		movs	r3, #2
 138 0012 2370     		strb	r3, [r4]
 139              	.LVL7:
 140              	.LBB117:
 141              	.LBB118:
 142              	.LBB119:
 143              	.LBB120:
 144              	.LBB121:
 145              	.LBB122:
 146              		.loc 3 548 0
 147 0014 0023     		movs	r3, #0
 148              	@ 548 "/home/peter/ChibiOS_16.1.4/os/ext/CMSIS/include/core_cmFunc.h" 1
 149 0016 83F31188 		MSR basepri, r3
 150              	@ 0 "" 2
 151              		.thumb
 152 001a 10BD     		pop	{r4, pc}
 153              	.LBE122:
 154              	.LBE121:
 155              	.LBE120:
 156              	.LBE119:
 157              	.LBE118:
 158              	.LBE117:
 159              		.cfi_endproc
 160              	.LFE209:
 161              		.size	adcStart, .-adcStart
 162 001c AFF30080 		.section	.text.adcStop,"ax",%progbits
 163              		.align	2
 164              		.p2align 4,,15
 165              		.global	adcStop
 166              		.thumb
 167              		.thumb_func
ARM GAS  /tmp/cclwjtNS.s 			page 4


 168              		.type	adcStop, %function
 169              	adcStop:
 170              	.LFB210:
 171              		.loc 1 115 0
 172              		.cfi_startproc
 173              		@ args = 0, pretend = 0, frame = 0
 174              		@ frame_needed = 0, uses_anonymous_args = 0
 175              	.LVL8:
 176 0000 10B5     		push	{r4, lr}
 177              		.cfi_def_cfa_offset 8
 178              		.cfi_offset 4, -8
 179              		.cfi_offset 14, -4
 180              	.LBB123:
 181              	.LBB124:
 182              	.LBB125:
 183              	.LBB126:
 184              	.LBB127:
 185              		.loc 3 548 0
 186 0002 2023     		movs	r3, #32
 187              	.LBE127:
 188              	.LBE126:
 189              	.LBE125:
 190              	.LBE124:
 191              	.LBE123:
 192              		.loc 1 115 0
 193 0004 0446     		mov	r4, r0
 194              	.LBB132:
 195              	.LBB131:
 196              	.LBB130:
 197              	.LBB129:
 198              	.LBB128:
 199              		.loc 3 548 0
 200              	@ 548 "/home/peter/ChibiOS_16.1.4/os/ext/CMSIS/include/core_cmFunc.h" 1
 201 0006 83F31188 		MSR basepri, r3
 202              	@ 0 "" 2
 203              		.thumb
 204              	.LBE128:
 205              	.LBE129:
 206              	.LBE130:
 207              	.LBE131:
 208              	.LBE132:
 209              		.loc 1 122 0
 210 000a FFF7FEFF 		bl	adc_lld_stop
 211              	.LVL9:
 212              		.loc 1 123 0
 213 000e 0123     		movs	r3, #1
 214 0010 2370     		strb	r3, [r4]
 215              	.LVL10:
 216              	.LBB133:
 217              	.LBB134:
 218              	.LBB135:
 219              	.LBB136:
 220              	.LBB137:
 221              	.LBB138:
 222              		.loc 3 548 0
 223 0012 0023     		movs	r3, #0
 224              	@ 548 "/home/peter/ChibiOS_16.1.4/os/ext/CMSIS/include/core_cmFunc.h" 1
ARM GAS  /tmp/cclwjtNS.s 			page 5


 225 0014 83F31188 		MSR basepri, r3
 226              	@ 0 "" 2
 227              		.thumb
 228 0018 10BD     		pop	{r4, pc}
 229              	.LBE138:
 230              	.LBE137:
 231              	.LBE136:
 232              	.LBE135:
 233              	.LBE134:
 234              	.LBE133:
 235              		.cfi_endproc
 236              	.LFE210:
 237              		.size	adcStop, .-adcStop
 238 001a 00BFAFF3 		.section	.text.adcStartConversion,"ax",%progbits
 238      0080
 239              		.align	2
 240              		.p2align 4,,15
 241              		.global	adcStartConversion
 242              		.thumb
 243              		.thumb_func
 244              		.type	adcStartConversion, %function
 245              	adcStartConversion:
 246              	.LFB211:
 247              		.loc 1 146 0
 248              		.cfi_startproc
 249              		@ args = 0, pretend = 0, frame = 0
 250              		@ frame_needed = 0, uses_anonymous_args = 0
 251              	.LVL11:
 252 0000 38B5     		push	{r3, r4, r5, lr}
 253              		.cfi_def_cfa_offset 16
 254              		.cfi_offset 3, -16
 255              		.cfi_offset 4, -12
 256              		.cfi_offset 5, -8
 257              		.cfi_offset 14, -4
 258              	.LBB139:
 259              	.LBB140:
 260              	.LBB141:
 261              	.LBB142:
 262              	.LBB143:
 263              		.loc 3 548 0
 264 0002 2025     		movs	r5, #32
 265              	@ 548 "/home/peter/ChibiOS_16.1.4/os/ext/CMSIS/include/core_cmFunc.h" 1
 266 0004 85F31188 		MSR basepri, r5
 267              	@ 0 "" 2
 268              	.LVL12:
 269              		.thumb
 270              	.LBE143:
 271              	.LBE142:
 272              	.LBE141:
 273              	.LBE140:
 274              	.LBE139:
 275              	.LBB144:
 276              	.LBB145:
 277              		.loc 1 187 0
 278 0008 0325     		movs	r5, #3
 279              		.loc 1 185 0
 280 000a C360     		str	r3, [r0, #12]
ARM GAS  /tmp/cclwjtNS.s 			page 6


 281              		.loc 1 184 0
 282 000c 8260     		str	r2, [r0, #8]
 283              		.loc 1 186 0
 284 000e 0161     		str	r1, [r0, #16]
 285              		.loc 1 187 0
 286 0010 0570     		strb	r5, [r0]
 287              		.loc 1 188 0
 288 0012 FFF7FEFF 		bl	adc_lld_start_conversion
 289              	.LVL13:
 290              	.LBE145:
 291              	.LBE144:
 292              	.LBB146:
 293              	.LBB147:
 294              	.LBB148:
 295              	.LBB149:
 296              	.LBB150:
 297              	.LBB151:
 298              		.loc 3 548 0
 299 0016 0023     		movs	r3, #0
 300              	@ 548 "/home/peter/ChibiOS_16.1.4/os/ext/CMSIS/include/core_cmFunc.h" 1
 301 0018 83F31188 		MSR basepri, r3
 302              	@ 0 "" 2
 303              		.thumb
 304 001c 38BD     		pop	{r3, r4, r5, pc}
 305              	.LBE151:
 306              	.LBE150:
 307              	.LBE149:
 308              	.LBE148:
 309              	.LBE147:
 310              	.LBE146:
 311              		.cfi_endproc
 312              	.LFE211:
 313              		.size	adcStartConversion, .-adcStartConversion
 314 001e 00BF     		.section	.text.adcStartConversionI,"ax",%progbits
 315              		.align	2
 316              		.p2align 4,,15
 317              		.global	adcStartConversionI
 318              		.thumb
 319              		.thumb_func
 320              		.type	adcStartConversionI, %function
 321              	adcStartConversionI:
 322              	.LFB212:
 323              		.loc 1 174 0
 324              		.cfi_startproc
 325              		@ args = 0, pretend = 0, frame = 0
 326              		@ frame_needed = 0, uses_anonymous_args = 0
 327              		@ link register save eliminated.
 328              	.LVL14:
 329 0000 30B4     		push	{r4, r5}
 330              		.cfi_def_cfa_offset 8
 331              		.cfi_offset 4, -8
 332              		.cfi_offset 5, -4
 333              		.loc 1 187 0
 334 0002 0325     		movs	r5, #3
 335 0004 0570     		strb	r5, [r0]
 336              		.loc 1 184 0
 337 0006 8260     		str	r2, [r0, #8]
ARM GAS  /tmp/cclwjtNS.s 			page 7


 338              		.loc 1 185 0
 339 0008 C360     		str	r3, [r0, #12]
 340              		.loc 1 186 0
 341 000a 0161     		str	r1, [r0, #16]
 342              		.loc 1 189 0
 343 000c 30BC     		pop	{r4, r5}
 344              		.cfi_restore 5
 345              		.cfi_restore 4
 346              		.cfi_def_cfa_offset 0
 347              		.loc 1 188 0
 348 000e FFF7FEBF 		b	adc_lld_start_conversion
 349              	.LVL15:
 350              		.cfi_endproc
 351              	.LFE212:
 352              		.size	adcStartConversionI, .-adcStartConversionI
 353 0012 00BFAFF3 		.section	.text.adcStopConversion,"ax",%progbits
 353      0080AFF3 
 353      0080AFF3 
 353      0080
 354              		.align	2
 355              		.p2align 4,,15
 356              		.global	adcStopConversion
 357              		.thumb
 358              		.thumb_func
 359              		.type	adcStopConversion, %function
 360              	adcStopConversion:
 361              	.LFB213:
 362              		.loc 1 201 0
 363              		.cfi_startproc
 364              		@ args = 0, pretend = 0, frame = 0
 365              		@ frame_needed = 0, uses_anonymous_args = 0
 366              	.LVL16:
 367              	.LBB152:
 368              	.LBB153:
 369              	.LBB154:
 370              	.LBB155:
 371              	.LBB156:
 372              		.loc 3 548 0
 373 0000 2022     		movs	r2, #32
 374              	@ 548 "/home/peter/ChibiOS_16.1.4/os/ext/CMSIS/include/core_cmFunc.h" 1
 375 0002 82F31188 		MSR basepri, r2
 376              	@ 0 "" 2
 377              		.thumb
 378              	.LBE156:
 379              	.LBE155:
 380              	.LBE154:
 381              	.LBE153:
 382              	.LBE152:
 383              		.loc 1 208 0
 384 0006 0278     		ldrb	r2, [r0]	@ zero_extendqisi2
 385 0008 022A     		cmp	r2, #2
 386 000a 11D0     		beq	.L17
 387              		.loc 1 201 0
 388 000c 10B5     		push	{r4, lr}
 389              		.cfi_def_cfa_offset 8
 390              		.cfi_offset 4, -8
 391              		.cfi_offset 14, -4
ARM GAS  /tmp/cclwjtNS.s 			page 8


 392 000e 0446     		mov	r4, r0
 393              		.loc 1 209 0
 394 0010 FFF7FEFF 		bl	adc_lld_stop_conversion
 395              	.LVL17:
 396              		.loc 1 211 0
 397 0014 2046     		mov	r0, r4
 398              		.loc 1 210 0
 399 0016 0022     		movs	r2, #0
 400              		.loc 1 211 0
 401 0018 0223     		movs	r3, #2
 402              		.loc 1 210 0
 403 001a 2261     		str	r2, [r4, #16]
 404              	.LBB157:
 405              	.LBB158:
 406              		.loc 2 743 0
 407 001c 6FF00101 		mvn	r1, #1
 408              	.LBE158:
 409              	.LBE157:
 410              		.loc 1 211 0
 411 0020 00F8143B 		strb	r3, [r0], #20
 412              	.LVL18:
 413              	.LBB160:
 414              	.LBB159:
 415              		.loc 2 743 0
 416 0024 FFF7FEFF 		bl	chThdResumeS
 417              	.LVL19:
 418              	.LBE159:
 419              	.LBE160:
 420              	.LBB161:
 421              	.LBB162:
 422              	.LBB163:
 423              	.LBB164:
 424              	.LBB165:
 425              	.LBB166:
 426              		.loc 3 548 0
 427 0028 0023     		movs	r3, #0
 428              	@ 548 "/home/peter/ChibiOS_16.1.4/os/ext/CMSIS/include/core_cmFunc.h" 1
 429 002a 83F31188 		MSR basepri, r3
 430              	@ 0 "" 2
 431              		.thumb
 432 002e 10BD     		pop	{r4, pc}
 433              	.LVL20:
 434              	.L17:
 435              		.cfi_def_cfa_offset 0
 436              		.cfi_restore 4
 437              		.cfi_restore 14
 438 0030 0023     		movs	r3, #0
 439              	@ 548 "/home/peter/ChibiOS_16.1.4/os/ext/CMSIS/include/core_cmFunc.h" 1
 440 0032 83F31188 		MSR basepri, r3
 441              	@ 0 "" 2
 442              		.thumb
 443 0036 7047     		bx	lr
 444              	.LBE166:
 445              	.LBE165:
 446              	.LBE164:
 447              	.LBE163:
 448              	.LBE162:
ARM GAS  /tmp/cclwjtNS.s 			page 9


 449              	.LBE161:
 450              		.cfi_endproc
 451              	.LFE213:
 452              		.size	adcStopConversion, .-adcStopConversion
 453 0038 AFF30080 		.section	.text.adcStopConversionI,"ax",%progbits
 453      AFF30080 
 454              		.align	2
 455              		.p2align 4,,15
 456              		.global	adcStopConversionI
 457              		.thumb
 458              		.thumb_func
 459              		.type	adcStopConversionI, %function
 460              	adcStopConversionI:
 461              	.LFB214:
 462              		.loc 1 227 0
 463              		.cfi_startproc
 464              		@ args = 0, pretend = 0, frame = 0
 465              		@ frame_needed = 0, uses_anonymous_args = 0
 466              	.LVL21:
 467              		.loc 1 236 0
 468 0000 0278     		ldrb	r2, [r0]	@ zero_extendqisi2
 469 0002 022A     		cmp	r2, #2
 470 0004 0FD0     		beq	.L22
 471              		.loc 1 227 0
 472 0006 10B5     		push	{r4, lr}
 473              		.cfi_def_cfa_offset 8
 474              		.cfi_offset 4, -8
 475              		.cfi_offset 14, -4
 476 0008 0446     		mov	r4, r0
 477              		.loc 1 237 0
 478 000a FFF7FEFF 		bl	adc_lld_stop_conversion
 479              	.LVL22:
 480              		.loc 1 239 0
 481 000e 2046     		mov	r0, r4
 482              		.loc 1 238 0
 483 0010 0022     		movs	r2, #0
 484              		.loc 1 239 0
 485 0012 0223     		movs	r3, #2
 486              		.loc 1 238 0
 487 0014 2261     		str	r2, [r4, #16]
 488              	.LBB167:
 489              	.LBB168:
 490              		.loc 2 728 0
 491 0016 6FF00101 		mvn	r1, #1
 492              	.LBE168:
 493              	.LBE167:
 494              		.loc 1 239 0
 495 001a 00F8143B 		strb	r3, [r0], #20
 496              	.LVL23:
 497              		.loc 1 242 0
 498 001e BDE81040 		pop	{r4, lr}
 499              		.cfi_restore 14
 500              		.cfi_restore 4
 501              		.cfi_def_cfa_offset 0
 502              	.LVL24:
 503              	.LBB170:
 504              	.LBB169:
ARM GAS  /tmp/cclwjtNS.s 			page 10


 505              		.loc 2 728 0
 506 0022 FFF7FEBF 		b	chThdResumeI
 507              	.LVL25:
 508              	.L22:
 509 0026 7047     		bx	lr
 510              	.LBE169:
 511              	.LBE170:
 512              		.cfi_endproc
 513              	.LFE214:
 514              		.size	adcStopConversionI, .-adcStopConversionI
 515 0028 AFF30080 		.section	.text.adcConvert,"ax",%progbits
 515      AFF30080 
 516              		.align	2
 517              		.p2align 4,,15
 518              		.global	adcConvert
 519              		.thumb
 520              		.thumb_func
 521              		.type	adcConvert, %function
 522              	adcConvert:
 523              	.LFB215:
 524              		.loc 1 271 0
 525              		.cfi_startproc
 526              		@ args = 0, pretend = 0, frame = 0
 527              		@ frame_needed = 0, uses_anonymous_args = 0
 528              	.LVL26:
 529 0000 70B5     		push	{r4, r5, r6, lr}
 530              		.cfi_def_cfa_offset 16
 531              		.cfi_offset 4, -16
 532              		.cfi_offset 5, -12
 533              		.cfi_offset 6, -8
 534              		.cfi_offset 14, -4
 535              	.LBB171:
 536              	.LBB172:
 537              	.LBB173:
 538              	.LBB174:
 539              	.LBB175:
 540              		.loc 3 548 0
 541 0002 2025     		movs	r5, #32
 542              	@ 548 "/home/peter/ChibiOS_16.1.4/os/ext/CMSIS/include/core_cmFunc.h" 1
 543 0004 85F31188 		MSR basepri, r5
 544              	@ 0 "" 2
 545              	.LVL27:
 546              		.thumb
 547              	.LBE175:
 548              	.LBE174:
 549              	.LBE173:
 550              	.LBE172:
 551              	.LBE171:
 552              	.LBB176:
 553              	.LBB177:
 554              		.loc 1 187 0
 555 0008 0546     		mov	r5, r0
 556 000a 0326     		movs	r6, #3
 557              		.loc 1 184 0
 558 000c 8260     		str	r2, [r0, #8]
 559              		.loc 1 185 0
 560 000e C360     		str	r3, [r0, #12]
ARM GAS  /tmp/cclwjtNS.s 			page 11


 561              		.loc 1 186 0
 562 0010 0161     		str	r1, [r0, #16]
 563              		.loc 1 187 0
 564 0012 05F8146B 		strb	r6, [r5], #20
 565              		.loc 1 188 0
 566 0016 FFF7FEFF 		bl	adc_lld_start_conversion
 567              	.LVL28:
 568              	.LBE177:
 569              	.LBE176:
 570              	.LBB178:
 571              	.LBB179:
 572              		.loc 2 688 0
 573 001a 2846     		mov	r0, r5
 574 001c FFF7FEFF 		bl	chThdSuspendS
 575              	.LVL29:
 576              	.LBE179:
 577              	.LBE178:
 578              	.LBB180:
 579              	.LBB181:
 580              	.LBB182:
 581              	.LBB183:
 582              	.LBB184:
 583              	.LBB185:
 584              		.loc 3 548 0
 585 0020 0023     		movs	r3, #0
 586              	@ 548 "/home/peter/ChibiOS_16.1.4/os/ext/CMSIS/include/core_cmFunc.h" 1
 587 0022 83F31188 		MSR basepri, r3
 588              	@ 0 "" 2
 589              		.thumb
 590              	.LBE185:
 591              	.LBE184:
 592              	.LBE183:
 593              	.LBE182:
 594              	.LBE181:
 595              	.LBE180:
 596              		.loc 1 280 0
 597 0026 70BD     		pop	{r4, r5, r6, pc}
 598              		.cfi_endproc
 599              	.LFE215:
 600              		.size	adcConvert, .-adcConvert
 601 0028 AFF30080 		.section	.text.adcAcquireBus,"ax",%progbits
 601      AFF30080 
 602              		.align	2
 603              		.p2align 4,,15
 604              		.global	adcAcquireBus
 605              		.thumb
 606              		.thumb_func
 607              		.type	adcAcquireBus, %function
 608              	adcAcquireBus:
 609              	.LFB216:
 610              		.loc 1 295 0
 611              		.cfi_startproc
 612              		@ args = 0, pretend = 0, frame = 0
 613              		@ frame_needed = 0, uses_anonymous_args = 0
 614              		@ link register save eliminated.
 615              	.LVL30:
 616              	.LBB186:
ARM GAS  /tmp/cclwjtNS.s 			page 12


 617              	.LBB187:
 618              		.loc 2 907 0
 619 0000 1830     		adds	r0, r0, #24
 620              	.LVL31:
 621 0002 FFF7FEBF 		b	chMtxLock
 622              	.LVL32:
 623              	.LBE187:
 624              	.LBE186:
 625              		.cfi_endproc
 626              	.LFE216:
 627              		.size	adcAcquireBus, .-adcAcquireBus
 628 0006 00BFAFF3 		.section	.text.adcReleaseBus,"ax",%progbits
 628      0080AFF3 
 628      0080
 629              		.align	2
 630              		.p2align 4,,15
 631              		.global	adcReleaseBus
 632              		.thumb
 633              		.thumb_func
 634              		.type	adcReleaseBus, %function
 635              	adcReleaseBus:
 636              	.LFB217:
 637              		.loc 1 311 0
 638              		.cfi_startproc
 639              		@ args = 0, pretend = 0, frame = 0
 640              		@ frame_needed = 0, uses_anonymous_args = 0
 641              		@ link register save eliminated.
 642              	.LVL33:
 643              	.LBB188:
 644              	.LBB189:
 645              		.loc 2 931 0
 646 0000 1830     		adds	r0, r0, #24
 647              	.LVL34:
 648 0002 FFF7FEBF 		b	chMtxUnlock
 649              	.LVL35:
 650              	.LBE189:
 651              	.LBE188:
 652              		.cfi_endproc
 653              	.LFE217:
 654              		.size	adcReleaseBus, .-adcReleaseBus
 655 0006 00BFAFF3 		.text
 655      0080AFF3 
 655      0080
 656              	.Letext0:
 657              		.file 4 "/usr/lib/gcc/arm-none-eabi/4.9.3/include/stddef.h"
 658              		.file 5 "/usr/include/newlib/machine/_default_types.h"
 659              		.file 6 "/usr/include/newlib/stdint.h"
 660              		.file 7 "/home/peter/ChibiOS_16.1.4/os/rt/ports/ARMCMx/compilers/GCC/chtypes.h"
 661              		.file 8 "/home/peter/ChibiOS_16.1.4/os/rt/include/chsystypes.h"
 662              		.file 9 "/home/peter/ChibiOS_16.1.4/os/rt/include/chschd.h"
 663              		.file 10 "/home/peter/ChibiOS_16.1.4/os/ext/CMSIS/ST/STM32F2xx/stm32f205xx.h"
 664              		.file 11 "/home/peter/ChibiOS_16.1.4/os/rt/ports/ARMCMx/chcore.h"
 665              		.file 12 "/home/peter/ChibiOS_16.1.4/os/rt/ports/ARMCMx/chcore_v7m.h"
 666              		.file 13 "/home/peter/ChibiOS_16.1.4/os/rt/include/chtm.h"
 667              		.file 14 "/home/peter/ChibiOS_16.1.4/os/rt/include/chsem.h"
 668              		.file 15 "/home/peter/ChibiOS_16.1.4/os/rt/include/chmtx.h"
 669              		.file 16 "/home/peter/ChibiOS_16.1.4/os/hal/ports/STM32/LLD/DMAv2/stm32_dma.h"
ARM GAS  /tmp/cclwjtNS.s 			page 13


 670              		.file 17 "/home/peter/ChibiOS_16.1.4/os/hal/include/adc.h"
 671              		.file 18 "/home/peter/ChibiOS_16.1.4/os/hal/ports/STM32/LLD/ADCv2/adc_lld.h"
 672              		.file 19 "/home/peter/ChibiOS_16.1.4/os/rt/include/chsys.h"
 673              		.file 20 "/home/peter/ChibiOS_16.1.4/os/rt/include/chthreads.h"
 674              		.file 21 "/home/peter/ChibiOS_16.1.4/os/ext/CMSIS/include/core_cm3.h"
 675              		.section	.debug_info,"",%progbits
 676              	.Ldebug_info0:
 677 0000 37150000 		.4byte	0x1537
 678 0004 0400     		.2byte	0x4
 679 0006 00000000 		.4byte	.Ldebug_abbrev0
 680 000a 04       		.byte	0x4
 681 000b 01       		.uleb128 0x1
 682 000c 96060000 		.4byte	.LASF202
 683 0010 01       		.byte	0x1
 684 0011 42010000 		.4byte	.LASF203
 685 0015 60000000 		.4byte	.Ldebug_ranges0+0x60
 686 0019 00000000 		.4byte	0
 687 001d 00000000 		.4byte	.Ldebug_line0
 688 0021 02       		.uleb128 0x2
 689 0022 04       		.byte	0x4
 690 0023 05       		.byte	0x5
 691 0024 696E7400 		.ascii	"int\000"
 692 0028 03       		.uleb128 0x3
 693 0029 31000000 		.4byte	.LASF2
 694 002d 04       		.byte	0x4
 695 002e D4       		.byte	0xd4
 696 002f 33000000 		.4byte	0x33
 697 0033 04       		.uleb128 0x4
 698 0034 04       		.byte	0x4
 699 0035 07       		.byte	0x7
 700 0036 0B030000 		.4byte	.LASF0
 701 003a 04       		.uleb128 0x4
 702 003b 01       		.byte	0x1
 703 003c 06       		.byte	0x6
 704 003d 7A010000 		.4byte	.LASF1
 705 0041 03       		.uleb128 0x3
 706 0042 58000000 		.4byte	.LASF3
 707 0046 05       		.byte	0x5
 708 0047 1D       		.byte	0x1d
 709 0048 4C000000 		.4byte	0x4c
 710 004c 04       		.uleb128 0x4
 711 004d 01       		.byte	0x1
 712 004e 08       		.byte	0x8
 713 004f 97050000 		.4byte	.LASF4
 714 0053 04       		.uleb128 0x4
 715 0054 02       		.byte	0x2
 716 0055 05       		.byte	0x5
 717 0056 E4030000 		.4byte	.LASF5
 718 005a 03       		.uleb128 0x3
 719 005b 6E070000 		.4byte	.LASF6
 720 005f 05       		.byte	0x5
 721 0060 2B       		.byte	0x2b
 722 0061 65000000 		.4byte	0x65
 723 0065 04       		.uleb128 0x4
 724 0066 02       		.byte	0x2
 725 0067 07       		.byte	0x7
 726 0068 57030000 		.4byte	.LASF7
ARM GAS  /tmp/cclwjtNS.s 			page 14


 727 006c 03       		.uleb128 0x3
 728 006d EE030000 		.4byte	.LASF8
 729 0071 05       		.byte	0x5
 730 0072 3F       		.byte	0x3f
 731 0073 77000000 		.4byte	0x77
 732 0077 04       		.uleb128 0x4
 733 0078 04       		.byte	0x4
 734 0079 05       		.byte	0x5
 735 007a D4010000 		.4byte	.LASF9
 736 007e 03       		.uleb128 0x3
 737 007f AF070000 		.4byte	.LASF10
 738 0083 05       		.byte	0x5
 739 0084 41       		.byte	0x41
 740 0085 89000000 		.4byte	0x89
 741 0089 04       		.uleb128 0x4
 742 008a 04       		.byte	0x4
 743 008b 07       		.byte	0x7
 744 008c 84060000 		.4byte	.LASF11
 745 0090 04       		.uleb128 0x4
 746 0091 08       		.byte	0x8
 747 0092 05       		.byte	0x5
 748 0093 36020000 		.4byte	.LASF12
 749 0097 03       		.uleb128 0x3
 750 0098 0A050000 		.4byte	.LASF13
 751 009c 05       		.byte	0x5
 752 009d 5B       		.byte	0x5b
 753 009e A2000000 		.4byte	0xa2
 754 00a2 04       		.uleb128 0x4
 755 00a3 08       		.byte	0x8
 756 00a4 07       		.byte	0x7
 757 00a5 AE000000 		.4byte	.LASF14
 758 00a9 03       		.uleb128 0x3
 759 00aa 88080000 		.4byte	.LASF15
 760 00ae 06       		.byte	0x6
 761 00af 15       		.byte	0x15
 762 00b0 41000000 		.4byte	0x41
 763 00b4 03       		.uleb128 0x3
 764 00b5 44020000 		.4byte	.LASF16
 765 00b9 06       		.byte	0x6
 766 00ba 21       		.byte	0x21
 767 00bb 5A000000 		.4byte	0x5a
 768 00bf 03       		.uleb128 0x3
 769 00c0 8F050000 		.4byte	.LASF17
 770 00c4 06       		.byte	0x6
 771 00c5 2C       		.byte	0x2c
 772 00c6 6C000000 		.4byte	0x6c
 773 00ca 03       		.uleb128 0x3
 774 00cb 49060000 		.4byte	.LASF18
 775 00cf 06       		.byte	0x6
 776 00d0 2D       		.byte	0x2d
 777 00d1 7E000000 		.4byte	0x7e
 778 00d5 03       		.uleb128 0x3
 779 00d6 38000000 		.4byte	.LASF19
 780 00da 06       		.byte	0x6
 781 00db 39       		.byte	0x39
 782 00dc 97000000 		.4byte	0x97
 783 00e0 03       		.uleb128 0x3
ARM GAS  /tmp/cclwjtNS.s 			page 15


 784 00e1 2B080000 		.4byte	.LASF20
 785 00e5 07       		.byte	0x7
 786 00e6 39       		.byte	0x39
 787 00e7 CA000000 		.4byte	0xca
 788 00eb 03       		.uleb128 0x3
 789 00ec B5030000 		.4byte	.LASF21
 790 00f0 07       		.byte	0x7
 791 00f1 3C       		.byte	0x3c
 792 00f2 A9000000 		.4byte	0xa9
 793 00f6 03       		.uleb128 0x3
 794 00f7 1C020000 		.4byte	.LASF22
 795 00fb 07       		.byte	0x7
 796 00fc 3D       		.byte	0x3d
 797 00fd A9000000 		.4byte	0xa9
 798 0101 03       		.uleb128 0x3
 799 0102 29050000 		.4byte	.LASF23
 800 0106 07       		.byte	0x7
 801 0107 3E       		.byte	0x3e
 802 0108 A9000000 		.4byte	0xa9
 803 010c 03       		.uleb128 0x3
 804 010d 7A060000 		.4byte	.LASF24
 805 0111 07       		.byte	0x7
 806 0112 3F       		.byte	0x3f
 807 0113 A9000000 		.4byte	0xa9
 808 0117 03       		.uleb128 0x3
 809 0118 5B050000 		.4byte	.LASF25
 810 011c 07       		.byte	0x7
 811 011d 40       		.byte	0x40
 812 011e CA000000 		.4byte	0xca
 813 0122 03       		.uleb128 0x3
 814 0123 91030000 		.4byte	.LASF26
 815 0127 07       		.byte	0x7
 816 0128 41       		.byte	0x41
 817 0129 BF000000 		.4byte	0xbf
 818 012d 03       		.uleb128 0x3
 819 012e D8030000 		.4byte	.LASF27
 820 0132 07       		.byte	0x7
 821 0133 43       		.byte	0x43
 822 0134 CA000000 		.4byte	0xca
 823 0138 03       		.uleb128 0x3
 824 0139 05030000 		.4byte	.LASF28
 825 013d 07       		.byte	0x7
 826 013e 45       		.byte	0x45
 827 013f BF000000 		.4byte	0xbf
 828 0143 03       		.uleb128 0x3
 829 0144 91070000 		.4byte	.LASF29
 830 0148 08       		.byte	0x8
 831 0149 33       		.byte	0x33
 832 014a CA000000 		.4byte	0xca
 833 014e 03       		.uleb128 0x3
 834 014f 79070000 		.4byte	.LASF30
 835 0153 08       		.byte	0x8
 836 0154 3F       		.byte	0x3f
 837 0155 59010000 		.4byte	0x159
 838 0159 05       		.uleb128 0x5
 839 015a 6A030000 		.4byte	.LASF51
 840 015e 44       		.byte	0x44
ARM GAS  /tmp/cclwjtNS.s 			page 16


 841 015f 09       		.byte	0x9
 842 0160 C2       		.byte	0xc2
 843 0161 52020000 		.4byte	0x252
 844 0165 06       		.uleb128 0x6
 845 0166 F0050000 		.4byte	.LASF31
 846 016a 09       		.byte	0x9
 847 016b C3       		.byte	0xc3
 848 016c 5D020000 		.4byte	0x25d
 849 0170 00       		.byte	0
 850 0171 06       		.uleb128 0x6
 851 0172 41050000 		.4byte	.LASF32
 852 0176 09       		.byte	0x9
 853 0177 C5       		.byte	0xc5
 854 0178 5D020000 		.4byte	0x25d
 855 017c 04       		.byte	0x4
 856 017d 06       		.uleb128 0x6
 857 017e 22010000 		.4byte	.LASF33
 858 0182 09       		.byte	0x9
 859 0183 C7       		.byte	0xc7
 860 0184 17010000 		.4byte	0x117
 861 0188 08       		.byte	0x8
 862 0189 06       		.uleb128 0x6
 863 018a 4D090000 		.4byte	.LASF34
 864 018e 09       		.byte	0x9
 865 018f C8       		.byte	0xc8
 866 0190 F7050000 		.4byte	0x5f7
 867 0194 0C       		.byte	0xc
 868 0195 06       		.uleb128 0x6
 869 0196 59020000 		.4byte	.LASF35
 870 019a 09       		.byte	0x9
 871 019b CA       		.byte	0xca
 872 019c 5D020000 		.4byte	0x25d
 873 01a0 10       		.byte	0x10
 874 01a1 06       		.uleb128 0x6
 875 01a2 B5040000 		.4byte	.LASF36
 876 01a6 09       		.byte	0x9
 877 01a7 CB       		.byte	0xcb
 878 01a8 5D020000 		.4byte	0x25d
 879 01ac 14       		.byte	0x14
 880 01ad 06       		.uleb128 0x6
 881 01ae E1080000 		.4byte	.LASF37
 882 01b2 09       		.byte	0x9
 883 01b3 D2       		.byte	0xd2
 884 01b4 76070000 		.4byte	0x776
 885 01b8 18       		.byte	0x18
 886 01b9 06       		.uleb128 0x6
 887 01ba C7050000 		.4byte	.LASF38
 888 01be 09       		.byte	0x9
 889 01bf DD       		.byte	0xdd
 890 01c0 F6000000 		.4byte	0xf6
 891 01c4 1C       		.byte	0x1c
 892 01c5 06       		.uleb128 0x6
 893 01c6 F7050000 		.4byte	.LASF39
 894 01ca 09       		.byte	0x9
 895 01cb E1       		.byte	0xe1
 896 01cc EB000000 		.4byte	0xeb
 897 01d0 1D       		.byte	0x1d
ARM GAS  /tmp/cclwjtNS.s 			page 17


 898 01d1 06       		.uleb128 0x6
 899 01d2 6F080000 		.4byte	.LASF40
 900 01d6 09       		.byte	0x9
 901 01d7 E6       		.byte	0xe6
 902 01d8 01010000 		.4byte	0x101
 903 01dc 1E       		.byte	0x1e
 904 01dd 06       		.uleb128 0x6
 905 01de CF050000 		.4byte	.LASF41
 906 01e2 09       		.byte	0x9
 907 01e3 EC       		.byte	0xec
 908 01e4 0C010000 		.4byte	0x10c
 909 01e8 1F       		.byte	0x1f
 910 01e9 07       		.uleb128 0x7
 911 01ea 705F7500 		.ascii	"p_u\000"
 912 01ee 09       		.byte	0x9
 913 01ef 3101     		.2byte	0x131
 914 01f1 B1060000 		.4byte	0x6b1
 915 01f5 20       		.byte	0x20
 916 01f6 08       		.uleb128 0x8
 917 01f7 4E040000 		.4byte	.LASF42
 918 01fb 09       		.byte	0x9
 919 01fc 3601     		.2byte	0x136
 920 01fe 63020000 		.4byte	0x263
 921 0202 24       		.byte	0x24
 922 0203 08       		.uleb128 0x8
 923 0204 35030000 		.4byte	.LASF43
 924 0208 09       		.byte	0x9
 925 0209 3C01     		.2byte	0x13c
 926 020b 87020000 		.4byte	0x287
 927 020f 28       		.byte	0x28
 928 0210 08       		.uleb128 0x8
 929 0211 12090000 		.4byte	.LASF44
 930 0215 09       		.byte	0x9
 931 0216 4001     		.2byte	0x140
 932 0218 22010000 		.4byte	0x122
 933 021c 30       		.byte	0x30
 934 021d 08       		.uleb128 0x8
 935 021e 39060000 		.4byte	.LASF45
 936 0222 09       		.byte	0x9
 937 0223 4601     		.2byte	0x146
 938 0225 2D010000 		.4byte	0x12d
 939 0229 34       		.byte	0x34
 940 022a 08       		.uleb128 0x8
 941 022b A5050000 		.4byte	.LASF46
 942 022f 09       		.byte	0x9
 943 0230 4D01     		.2byte	0x14d
 944 0232 70070000 		.4byte	0x770
 945 0236 38       		.byte	0x38
 946 0237 08       		.uleb128 0x8
 947 0238 9B070000 		.4byte	.LASF47
 948 023c 09       		.byte	0x9
 949 023d 5101     		.2byte	0x151
 950 023f 17010000 		.4byte	0x117
 951 0243 3C       		.byte	0x3c
 952 0244 08       		.uleb128 0x8
 953 0245 86010000 		.4byte	.LASF48
 954 0249 09       		.byte	0x9
ARM GAS  /tmp/cclwjtNS.s 			page 18


 955 024a 5801     		.2byte	0x158
 956 024c 3A030000 		.4byte	0x33a
 957 0250 40       		.byte	0x40
 958 0251 00       		.byte	0
 959 0252 03       		.uleb128 0x3
 960 0253 61040000 		.4byte	.LASF49
 961 0257 08       		.byte	0x8
 962 0258 44       		.byte	0x44
 963 0259 5D020000 		.4byte	0x25d
 964 025d 09       		.uleb128 0x9
 965 025e 04       		.byte	0x4
 966 025f 4E010000 		.4byte	0x14e
 967 0263 03       		.uleb128 0x3
 968 0264 19040000 		.4byte	.LASF50
 969 0268 08       		.byte	0x8
 970 0269 49       		.byte	0x49
 971 026a 6E020000 		.4byte	0x26e
 972 026e 05       		.uleb128 0x5
 973 026f 6A060000 		.4byte	.LASF52
 974 0273 04       		.byte	0x4
 975 0274 09       		.byte	0x9
 976 0275 B0       		.byte	0xb0
 977 0276 87020000 		.4byte	0x287
 978 027a 06       		.uleb128 0x6
 979 027b F0050000 		.4byte	.LASF31
 980 027f 09       		.byte	0x9
 981 0280 B1       		.byte	0xb1
 982 0281 5D020000 		.4byte	0x25d
 983 0285 00       		.byte	0
 984 0286 00       		.byte	0
 985 0287 03       		.uleb128 0x3
 986 0288 56080000 		.4byte	.LASF53
 987 028c 08       		.byte	0x8
 988 028d 50       		.byte	0x50
 989 028e 92020000 		.4byte	0x292
 990 0292 05       		.uleb128 0x5
 991 0293 11010000 		.4byte	.LASF54
 992 0297 08       		.byte	0x8
 993 0298 09       		.byte	0x9
 994 0299 B7       		.byte	0xb7
 995 029a B7020000 		.4byte	0x2b7
 996 029e 06       		.uleb128 0x6
 997 029f F0050000 		.4byte	.LASF31
 998 02a3 09       		.byte	0x9
 999 02a4 B8       		.byte	0xb8
 1000 02a5 5D020000 		.4byte	0x25d
 1001 02a9 00       		.byte	0
 1002 02aa 06       		.uleb128 0x6
 1003 02ab 41050000 		.4byte	.LASF32
 1004 02af 09       		.byte	0x9
 1005 02b0 B9       		.byte	0xb9
 1006 02b1 5D020000 		.4byte	0x25d
 1007 02b5 04       		.byte	0x4
 1008 02b6 00       		.byte	0
 1009 02b7 03       		.uleb128 0x3
 1010 02b8 12000000 		.4byte	.LASF55
 1011 02bc 08       		.byte	0x8
ARM GAS  /tmp/cclwjtNS.s 			page 19


 1012 02bd 57       		.byte	0x57
 1013 02be C2020000 		.4byte	0x2c2
 1014 02c2 0A       		.uleb128 0xa
 1015 02c3 CA030000 		.4byte	.LASF56
 1016 02c7 1C       		.byte	0x1c
 1017 02c8 09       		.byte	0x9
 1018 02c9 9001     		.2byte	0x190
 1019 02cb 1E030000 		.4byte	0x31e
 1020 02cf 08       		.uleb128 0x8
 1021 02d0 59060000 		.4byte	.LASF57
 1022 02d4 09       		.byte	0x9
 1023 02d5 9101     		.2byte	0x191
 1024 02d7 87020000 		.4byte	0x287
 1025 02db 00       		.byte	0
 1026 02dc 08       		.uleb128 0x8
 1027 02dd E2050000 		.4byte	.LASF58
 1028 02e1 09       		.byte	0x9
 1029 02e2 9201     		.2byte	0x192
 1030 02e4 17010000 		.4byte	0x117
 1031 02e8 08       		.byte	0x8
 1032 02e9 08       		.uleb128 0x8
 1033 02ea C2040000 		.4byte	.LASF59
 1034 02ee 09       		.byte	0x9
 1035 02ef 9401     		.2byte	0x194
 1036 02f1 F7050000 		.4byte	0x5f7
 1037 02f5 0C       		.byte	0xc
 1038 02f6 08       		.uleb128 0x8
 1039 02f7 97030000 		.4byte	.LASF60
 1040 02fb 09       		.byte	0x9
 1041 02fc 9701     		.2byte	0x197
 1042 02fe 5D020000 		.4byte	0x25d
 1043 0302 10       		.byte	0x10
 1044 0303 08       		.uleb128 0x8
 1045 0304 E5040000 		.4byte	.LASF61
 1046 0308 09       		.byte	0x9
 1047 0309 9801     		.2byte	0x198
 1048 030b 5D020000 		.4byte	0x25d
 1049 030f 14       		.byte	0x14
 1050 0310 08       		.uleb128 0x8
 1051 0311 DB040000 		.4byte	.LASF62
 1052 0315 09       		.byte	0x9
 1053 0316 9B01     		.2byte	0x19b
 1054 0318 5D020000 		.4byte	0x25d
 1055 031c 18       		.byte	0x18
 1056 031d 00       		.byte	0
 1057 031e 03       		.uleb128 0x3
 1058 031f A6070000 		.4byte	.LASF63
 1059 0323 08       		.byte	0x8
 1060 0324 5C       		.byte	0x5c
 1061 0325 29030000 		.4byte	0x329
 1062 0329 09       		.uleb128 0x9
 1063 032a 04       		.byte	0x4
 1064 032b 2F030000 		.4byte	0x32f
 1065 032f 0B       		.uleb128 0xb
 1066 0330 3A030000 		.4byte	0x33a
 1067 0334 0C       		.uleb128 0xc
 1068 0335 3A030000 		.4byte	0x33a
ARM GAS  /tmp/cclwjtNS.s 			page 20


 1069 0339 00       		.byte	0
 1070 033a 0D       		.uleb128 0xd
 1071 033b 04       		.byte	0x4
 1072 033c 03       		.uleb128 0x3
 1073 033d 31050000 		.4byte	.LASF64
 1074 0341 08       		.byte	0x8
 1075 0342 61       		.byte	0x61
 1076 0343 47030000 		.4byte	0x347
 1077 0347 0A       		.uleb128 0xa
 1078 0348 07080000 		.4byte	.LASF65
 1079 034c 14       		.byte	0x14
 1080 034d 09       		.byte	0x9
 1081 034e 6B01     		.2byte	0x16b
 1082 0350 96030000 		.4byte	0x396
 1083 0354 08       		.uleb128 0x8
 1084 0355 18030000 		.4byte	.LASF66
 1085 0359 09       		.byte	0x9
 1086 035a 6C01     		.2byte	0x16c
 1087 035c 88070000 		.4byte	0x788
 1088 0360 00       		.byte	0
 1089 0361 08       		.uleb128 0x8
 1090 0362 AD020000 		.4byte	.LASF67
 1091 0366 09       		.byte	0x9
 1092 0367 6D01     		.2byte	0x16d
 1093 0369 88070000 		.4byte	0x788
 1094 036d 04       		.byte	0x4
 1095 036e 08       		.uleb128 0x8
 1096 036f 61060000 		.4byte	.LASF68
 1097 0373 09       		.byte	0x9
 1098 0374 6E01     		.2byte	0x16e
 1099 0376 43010000 		.4byte	0x143
 1100 037a 08       		.byte	0x8
 1101 037b 08       		.uleb128 0x8
 1102 037c 53090000 		.4byte	.LASF69
 1103 0380 09       		.byte	0x9
 1104 0381 6F01     		.2byte	0x16f
 1105 0383 1E030000 		.4byte	0x31e
 1106 0387 0C       		.byte	0xc
 1107 0388 08       		.uleb128 0x8
 1108 0389 46080000 		.4byte	.LASF70
 1109 038d 09       		.byte	0x9
 1110 038e 7101     		.2byte	0x171
 1111 0390 3A030000 		.4byte	0x33a
 1112 0394 10       		.byte	0x10
 1113 0395 00       		.byte	0
 1114 0396 03       		.uleb128 0x3
 1115 0397 EE000000 		.4byte	.LASF71
 1116 039b 08       		.byte	0x8
 1117 039c 66       		.byte	0x66
 1118 039d A1030000 		.4byte	0x3a1
 1119 03a1 0A       		.uleb128 0xa
 1120 03a2 74040000 		.4byte	.LASF72
 1121 03a6 10       		.byte	0x10
 1122 03a7 09       		.byte	0x9
 1123 03a8 7B01     		.2byte	0x17b
 1124 03aa E3030000 		.4byte	0x3e3
 1125 03ae 08       		.uleb128 0x8
ARM GAS  /tmp/cclwjtNS.s 			page 21


 1126 03af 18030000 		.4byte	.LASF66
 1127 03b3 09       		.byte	0x9
 1128 03b4 7C01     		.2byte	0x17c
 1129 03b6 88070000 		.4byte	0x788
 1130 03ba 00       		.byte	0
 1131 03bb 08       		.uleb128 0x8
 1132 03bc AD020000 		.4byte	.LASF67
 1133 03c0 09       		.byte	0x9
 1134 03c1 7E01     		.2byte	0x17e
 1135 03c3 88070000 		.4byte	0x788
 1136 03c7 04       		.byte	0x4
 1137 03c8 08       		.uleb128 0x8
 1138 03c9 61060000 		.4byte	.LASF68
 1139 03cd 09       		.byte	0x9
 1140 03ce 8001     		.2byte	0x180
 1141 03d0 43010000 		.4byte	0x143
 1142 03d4 08       		.byte	0x8
 1143 03d5 08       		.uleb128 0x8
 1144 03d6 FB080000 		.4byte	.LASF73
 1145 03da 09       		.byte	0x9
 1146 03db 8201     		.2byte	0x182
 1147 03dd 8E070000 		.4byte	0x78e
 1148 03e1 0C       		.byte	0xc
 1149 03e2 00       		.byte	0
 1150 03e3 03       		.uleb128 0x3
 1151 03e4 76000000 		.4byte	.LASF74
 1152 03e8 08       		.byte	0x8
 1153 03e9 6B       		.byte	0x6b
 1154 03ea EE030000 		.4byte	0x3ee
 1155 03ee 0A       		.uleb128 0xa
 1156 03ef 79050000 		.4byte	.LASF75
 1157 03f3 04       		.byte	0x4
 1158 03f4 09       		.byte	0x9
 1159 03f5 A201     		.2byte	0x1a2
 1160 03f7 09040000 		.4byte	0x409
 1161 03fb 08       		.uleb128 0x8
 1162 03fc DB070000 		.4byte	.LASF76
 1163 0400 09       		.byte	0x9
 1164 0401 AA01     		.2byte	0x1aa
 1165 0403 93070000 		.4byte	0x793
 1166 0407 00       		.byte	0
 1167 0408 00       		.byte	0
 1168 0409 03       		.uleb128 0x3
 1169 040a A9030000 		.4byte	.LASF77
 1170 040e 08       		.byte	0x8
 1171 040f 70       		.byte	0x70
 1172 0410 14040000 		.4byte	0x414
 1173 0414 0E       		.uleb128 0xe
 1174 0415 2C020000 		.4byte	.LASF78
 1175 0419 5001     		.2byte	0x150
 1176 041b 09       		.byte	0x9
 1177 041c C201     		.2byte	0x1c2
 1178 041e 70040000 		.4byte	0x470
 1179 0422 08       		.uleb128 0x8
 1180 0423 82080000 		.4byte	.LASF79
 1181 0427 09       		.byte	0x9
 1182 0428 C601     		.2byte	0x1c6
ARM GAS  /tmp/cclwjtNS.s 			page 22


 1183 042a B7020000 		.4byte	0x2b7
 1184 042e 00       		.byte	0
 1185 042f 08       		.uleb128 0x8
 1186 0430 A1010000 		.4byte	.LASF80
 1187 0434 09       		.byte	0x9
 1188 0435 CA01     		.2byte	0x1ca
 1189 0437 96030000 		.4byte	0x396
 1190 043b 1C       		.byte	0x1c
 1191 043c 07       		.uleb128 0x7
 1192 043d 64626700 		.ascii	"dbg\000"
 1193 0441 09       		.byte	0x9
 1194 0442 CE01     		.2byte	0x1ce
 1195 0444 E3030000 		.4byte	0x3e3
 1196 0448 2C       		.byte	0x2c
 1197 0449 08       		.uleb128 0x8
 1198 044a DD000000 		.4byte	.LASF81
 1199 044e 09       		.byte	0x9
 1200 044f D201     		.2byte	0x1d2
 1201 0451 4E010000 		.4byte	0x14e
 1202 0455 30       		.byte	0x30
 1203 0456 07       		.uleb128 0x7
 1204 0457 746D00   		.ascii	"tm\000"
 1205 045a 09       		.byte	0x9
 1206 045b D701     		.2byte	0x1d7
 1207 045d A6060000 		.4byte	0x6a6
 1208 0461 74       		.byte	0x74
 1209 0462 08       		.uleb128 0x8
 1210 0463 F6020000 		.4byte	.LASF82
 1211 0467 09       		.byte	0x9
 1212 0468 E301     		.2byte	0x1e3
 1213 046a 98070000 		.4byte	0x798
 1214 046e 78       		.byte	0x78
 1215 046f 00       		.byte	0
 1216 0470 04       		.uleb128 0x4
 1217 0471 04       		.byte	0x4
 1218 0472 07       		.byte	0x7
 1219 0473 58040000 		.4byte	.LASF83
 1220 0477 0F       		.uleb128 0xf
 1221 0478 CA000000 		.4byte	0xca
 1222 047c 10       		.uleb128 0x10
 1223 047d 50       		.byte	0x50
 1224 047e 0A       		.byte	0xa
 1225 047f BE       		.byte	0xbe
 1226 0480 73050000 		.4byte	0x573
 1227 0484 11       		.uleb128 0x11
 1228 0485 535200   		.ascii	"SR\000"
 1229 0488 0A       		.byte	0xa
 1230 0489 C0       		.byte	0xc0
 1231 048a 77040000 		.4byte	0x477
 1232 048e 00       		.byte	0
 1233 048f 11       		.uleb128 0x11
 1234 0490 43523100 		.ascii	"CR1\000"
 1235 0494 0A       		.byte	0xa
 1236 0495 C1       		.byte	0xc1
 1237 0496 77040000 		.4byte	0x477
 1238 049a 04       		.byte	0x4
 1239 049b 11       		.uleb128 0x11
ARM GAS  /tmp/cclwjtNS.s 			page 23


 1240 049c 43523200 		.ascii	"CR2\000"
 1241 04a0 0A       		.byte	0xa
 1242 04a1 C2       		.byte	0xc2
 1243 04a2 77040000 		.4byte	0x477
 1244 04a6 08       		.byte	0x8
 1245 04a7 06       		.uleb128 0x6
 1246 04a8 C8040000 		.4byte	.LASF84
 1247 04ac 0A       		.byte	0xa
 1248 04ad C3       		.byte	0xc3
 1249 04ae 77040000 		.4byte	0x477
 1250 04b2 0C       		.byte	0xc
 1251 04b3 06       		.uleb128 0x6
 1252 04b4 CE040000 		.4byte	.LASF85
 1253 04b8 0A       		.byte	0xa
 1254 04b9 C4       		.byte	0xc4
 1255 04ba 77040000 		.4byte	0x477
 1256 04be 10       		.byte	0x10
 1257 04bf 06       		.uleb128 0x6
 1258 04c0 2D040000 		.4byte	.LASF86
 1259 04c4 0A       		.byte	0xa
 1260 04c5 C5       		.byte	0xc5
 1261 04c6 77040000 		.4byte	0x477
 1262 04ca 14       		.byte	0x14
 1263 04cb 06       		.uleb128 0x6
 1264 04cc 33040000 		.4byte	.LASF87
 1265 04d0 0A       		.byte	0xa
 1266 04d1 C6       		.byte	0xc6
 1267 04d2 77040000 		.4byte	0x477
 1268 04d6 18       		.byte	0x18
 1269 04d7 06       		.uleb128 0x6
 1270 04d8 08060000 		.4byte	.LASF88
 1271 04dc 0A       		.byte	0xa
 1272 04dd C7       		.byte	0xc7
 1273 04de 77040000 		.4byte	0x477
 1274 04e2 1C       		.byte	0x1c
 1275 04e3 06       		.uleb128 0x6
 1276 04e4 18060000 		.4byte	.LASF89
 1277 04e8 0A       		.byte	0xa
 1278 04e9 C8       		.byte	0xc8
 1279 04ea 77040000 		.4byte	0x477
 1280 04ee 20       		.byte	0x20
 1281 04ef 11       		.uleb128 0x11
 1282 04f0 48545200 		.ascii	"HTR\000"
 1283 04f4 0A       		.byte	0xa
 1284 04f5 C9       		.byte	0xc9
 1285 04f6 77040000 		.4byte	0x477
 1286 04fa 24       		.byte	0x24
 1287 04fb 11       		.uleb128 0x11
 1288 04fc 4C545200 		.ascii	"LTR\000"
 1289 0500 0A       		.byte	0xa
 1290 0501 CA       		.byte	0xca
 1291 0502 77040000 		.4byte	0x477
 1292 0506 28       		.byte	0x28
 1293 0507 06       		.uleb128 0x6
 1294 0508 ED040000 		.4byte	.LASF90
 1295 050c 0A       		.byte	0xa
 1296 050d CB       		.byte	0xcb
ARM GAS  /tmp/cclwjtNS.s 			page 24


 1297 050e 77040000 		.4byte	0x477
 1298 0512 2C       		.byte	0x2c
 1299 0513 06       		.uleb128 0x6
 1300 0514 F2040000 		.4byte	.LASF91
 1301 0518 0A       		.byte	0xa
 1302 0519 CC       		.byte	0xcc
 1303 051a 77040000 		.4byte	0x477
 1304 051e 30       		.byte	0x30
 1305 051f 06       		.uleb128 0x6
 1306 0520 F7040000 		.4byte	.LASF92
 1307 0524 0A       		.byte	0xa
 1308 0525 CD       		.byte	0xcd
 1309 0526 77040000 		.4byte	0x477
 1310 052a 34       		.byte	0x34
 1311 052b 06       		.uleb128 0x6
 1312 052c 29010000 		.4byte	.LASF93
 1313 0530 0A       		.byte	0xa
 1314 0531 CE       		.byte	0xce
 1315 0532 77040000 		.4byte	0x477
 1316 0536 38       		.byte	0x38
 1317 0537 06       		.uleb128 0x6
 1318 0538 B6080000 		.4byte	.LASF94
 1319 053c 0A       		.byte	0xa
 1320 053d CF       		.byte	0xcf
 1321 053e 77040000 		.4byte	0x477
 1322 0542 3C       		.byte	0x3c
 1323 0543 06       		.uleb128 0x6
 1324 0544 BB080000 		.4byte	.LASF95
 1325 0548 0A       		.byte	0xa
 1326 0549 D0       		.byte	0xd0
 1327 054a 77040000 		.4byte	0x477
 1328 054e 40       		.byte	0x40
 1329 054f 06       		.uleb128 0x6
 1330 0550 C0080000 		.4byte	.LASF96
 1331 0554 0A       		.byte	0xa
 1332 0555 D1       		.byte	0xd1
 1333 0556 77040000 		.4byte	0x477
 1334 055a 44       		.byte	0x44
 1335 055b 06       		.uleb128 0x6
 1336 055c BD040000 		.4byte	.LASF97
 1337 0560 0A       		.byte	0xa
 1338 0561 D2       		.byte	0xd2
 1339 0562 77040000 		.4byte	0x477
 1340 0566 48       		.byte	0x48
 1341 0567 11       		.uleb128 0x11
 1342 0568 445200   		.ascii	"DR\000"
 1343 056b 0A       		.byte	0xa
 1344 056c D3       		.byte	0xd3
 1345 056d 77040000 		.4byte	0x477
 1346 0571 4C       		.byte	0x4c
 1347 0572 00       		.byte	0
 1348 0573 03       		.uleb128 0x3
 1349 0574 4D020000 		.4byte	.LASF98
 1350 0578 0A       		.byte	0xa
 1351 0579 D4       		.byte	0xd4
 1352 057a 7C040000 		.4byte	0x47c
 1353 057e 12       		.uleb128 0x12
ARM GAS  /tmp/cclwjtNS.s 			page 25


 1354 057f 18       		.byte	0x18
 1355 0580 0A       		.byte	0xa
 1356 0581 5301     		.2byte	0x153
 1357 0583 D5050000 		.4byte	0x5d5
 1358 0587 07       		.uleb128 0x7
 1359 0588 435200   		.ascii	"CR\000"
 1360 058b 0A       		.byte	0xa
 1361 058c 5501     		.2byte	0x155
 1362 058e 77040000 		.4byte	0x477
 1363 0592 00       		.byte	0
 1364 0593 08       		.uleb128 0x8
 1365 0594 D6070000 		.4byte	.LASF99
 1366 0598 0A       		.byte	0xa
 1367 0599 5601     		.2byte	0x156
 1368 059b 77040000 		.4byte	0x477
 1369 059f 04       		.byte	0x4
 1370 05a0 07       		.uleb128 0x7
 1371 05a1 50415200 		.ascii	"PAR\000"
 1372 05a5 0A       		.byte	0xa
 1373 05a6 5701     		.2byte	0x157
 1374 05a8 77040000 		.4byte	0x477
 1375 05ac 08       		.byte	0x8
 1376 05ad 08       		.uleb128 0x8
 1377 05ae 53000000 		.4byte	.LASF100
 1378 05b2 0A       		.byte	0xa
 1379 05b3 5801     		.2byte	0x158
 1380 05b5 77040000 		.4byte	0x477
 1381 05b9 0C       		.byte	0xc
 1382 05ba 08       		.uleb128 0x8
 1383 05bb 33080000 		.4byte	.LASF101
 1384 05bf 0A       		.byte	0xa
 1385 05c0 5901     		.2byte	0x159
 1386 05c2 77040000 		.4byte	0x477
 1387 05c6 10       		.byte	0x10
 1388 05c7 07       		.uleb128 0x7
 1389 05c8 46435200 		.ascii	"FCR\000"
 1390 05cc 0A       		.byte	0xa
 1391 05cd 5A01     		.2byte	0x15a
 1392 05cf 77040000 		.4byte	0x477
 1393 05d3 14       		.byte	0x14
 1394 05d4 00       		.byte	0
 1395 05d5 13       		.uleb128 0x13
 1396 05d6 EC070000 		.4byte	.LASF102
 1397 05da 0A       		.byte	0xa
 1398 05db 5B01     		.2byte	0x15b
 1399 05dd 7E050000 		.4byte	0x57e
 1400 05e1 03       		.uleb128 0x3
 1401 05e2 A4020000 		.4byte	.LASF103
 1402 05e6 0B       		.byte	0xb
 1403 05e7 65       		.byte	0x65
 1404 05e8 3A030000 		.4byte	0x33a
 1405 05ec 03       		.uleb128 0x3
 1406 05ed 0E040000 		.4byte	.LASF104
 1407 05f1 0B       		.byte	0xb
 1408 05f2 6D       		.byte	0x6d
 1409 05f3 D5000000 		.4byte	0xd5
 1410 05f7 05       		.uleb128 0x5
ARM GAS  /tmp/cclwjtNS.s 			page 26


 1411 05f8 FF070000 		.4byte	.LASF105
 1412 05fc 04       		.byte	0x4
 1413 05fd 0B       		.byte	0xb
 1414 05fe 89       		.byte	0x89
 1415 05ff 10060000 		.4byte	0x610
 1416 0603 11       		.uleb128 0x11
 1417 0604 72313300 		.ascii	"r13\000"
 1418 0608 0B       		.byte	0xb
 1419 0609 8A       		.byte	0x8a
 1420 060a 8B060000 		.4byte	0x68b
 1421 060e 00       		.byte	0
 1422 060f 00       		.byte	0
 1423 0610 05       		.uleb128 0x5
 1424 0611 6A000000 		.4byte	.LASF106
 1425 0615 24       		.byte	0x24
 1426 0616 0C       		.byte	0xc
 1427 0617 FD       		.byte	0xfd
 1428 0618 8B060000 		.4byte	0x68b
 1429 061c 07       		.uleb128 0x7
 1430 061d 723400   		.ascii	"r4\000"
 1431 0620 0C       		.byte	0xc
 1432 0621 1001     		.2byte	0x110
 1433 0623 E1050000 		.4byte	0x5e1
 1434 0627 00       		.byte	0
 1435 0628 07       		.uleb128 0x7
 1436 0629 723500   		.ascii	"r5\000"
 1437 062c 0C       		.byte	0xc
 1438 062d 1101     		.2byte	0x111
 1439 062f E1050000 		.4byte	0x5e1
 1440 0633 04       		.byte	0x4
 1441 0634 07       		.uleb128 0x7
 1442 0635 723600   		.ascii	"r6\000"
 1443 0638 0C       		.byte	0xc
 1444 0639 1201     		.2byte	0x112
 1445 063b E1050000 		.4byte	0x5e1
 1446 063f 08       		.byte	0x8
 1447 0640 07       		.uleb128 0x7
 1448 0641 723700   		.ascii	"r7\000"
 1449 0644 0C       		.byte	0xc
 1450 0645 1301     		.2byte	0x113
 1451 0647 E1050000 		.4byte	0x5e1
 1452 064b 0C       		.byte	0xc
 1453 064c 07       		.uleb128 0x7
 1454 064d 723800   		.ascii	"r8\000"
 1455 0650 0C       		.byte	0xc
 1456 0651 1401     		.2byte	0x114
 1457 0653 E1050000 		.4byte	0x5e1
 1458 0657 10       		.byte	0x10
 1459 0658 07       		.uleb128 0x7
 1460 0659 723900   		.ascii	"r9\000"
 1461 065c 0C       		.byte	0xc
 1462 065d 1501     		.2byte	0x115
 1463 065f E1050000 		.4byte	0x5e1
 1464 0663 14       		.byte	0x14
 1465 0664 07       		.uleb128 0x7
 1466 0665 72313000 		.ascii	"r10\000"
 1467 0669 0C       		.byte	0xc
ARM GAS  /tmp/cclwjtNS.s 			page 27


 1468 066a 1601     		.2byte	0x116
 1469 066c E1050000 		.4byte	0x5e1
 1470 0670 18       		.byte	0x18
 1471 0671 07       		.uleb128 0x7
 1472 0672 72313100 		.ascii	"r11\000"
 1473 0676 0C       		.byte	0xc
 1474 0677 1701     		.2byte	0x117
 1475 0679 E1050000 		.4byte	0x5e1
 1476 067d 1C       		.byte	0x1c
 1477 067e 07       		.uleb128 0x7
 1478 067f 6C7200   		.ascii	"lr\000"
 1479 0682 0C       		.byte	0xc
 1480 0683 1801     		.2byte	0x118
 1481 0685 E1050000 		.4byte	0x5e1
 1482 0689 20       		.byte	0x20
 1483 068a 00       		.byte	0
 1484 068b 09       		.uleb128 0x9
 1485 068c 04       		.byte	0x4
 1486 068d 10060000 		.4byte	0x610
 1487 0691 10       		.uleb128 0x10
 1488 0692 04       		.byte	0x4
 1489 0693 0D       		.byte	0xd
 1490 0694 38       		.byte	0x38
 1491 0695 A6060000 		.4byte	0x6a6
 1492 0699 06       		.uleb128 0x6
 1493 069a E5070000 		.4byte	.LASF107
 1494 069e 0D       		.byte	0xd
 1495 069f 3C       		.byte	0x3c
 1496 06a0 E0000000 		.4byte	0xe0
 1497 06a4 00       		.byte	0
 1498 06a5 00       		.byte	0
 1499 06a6 03       		.uleb128 0x3
 1500 06a7 91040000 		.4byte	.LASF108
 1501 06ab 0D       		.byte	0xd
 1502 06ac 3D       		.byte	0x3d
 1503 06ad 91060000 		.4byte	0x691
 1504 06b1 14       		.uleb128 0x14
 1505 06b2 04       		.byte	0x4
 1506 06b3 09       		.byte	0x9
 1507 06b4 FA       		.byte	0xfa
 1508 06b5 0E070000 		.4byte	0x70e
 1509 06b9 15       		.uleb128 0x15
 1510 06ba 41000000 		.4byte	.LASF109
 1511 06be 09       		.byte	0x9
 1512 06bf 0101     		.2byte	0x101
 1513 06c1 22010000 		.4byte	0x122
 1514 06c5 15       		.uleb128 0x15
 1515 06c6 CD000000 		.4byte	.LASF110
 1516 06ca 09       		.byte	0x9
 1517 06cb 0801     		.2byte	0x108
 1518 06cd 22010000 		.4byte	0x122
 1519 06d1 15       		.uleb128 0x15
 1520 06d2 CD080000 		.4byte	.LASF111
 1521 06d6 09       		.byte	0x9
 1522 06d7 0F01     		.2byte	0x10f
 1523 06d9 3A030000 		.4byte	0x33a
 1524 06dd 15       		.uleb128 0x15
ARM GAS  /tmp/cclwjtNS.s 			page 28


 1525 06de 8B040000 		.4byte	.LASF112
 1526 06e2 09       		.byte	0x9
 1527 06e3 1601     		.2byte	0x116
 1528 06e5 0E070000 		.4byte	0x70e
 1529 06e9 15       		.uleb128 0x15
 1530 06ea 2E030000 		.4byte	.LASF113
 1531 06ee 09       		.byte	0x9
 1532 06ef 1E01     		.2byte	0x11e
 1533 06f1 39070000 		.4byte	0x739
 1534 06f5 15       		.uleb128 0x15
 1535 06f6 52060000 		.4byte	.LASF114
 1536 06fa 09       		.byte	0x9
 1537 06fb 2701     		.2byte	0x127
 1538 06fd 70070000 		.4byte	0x770
 1539 0701 15       		.uleb128 0x15
 1540 0702 E9050000 		.4byte	.LASF115
 1541 0706 09       		.byte	0x9
 1542 0707 2F01     		.2byte	0x12f
 1543 0709 2D010000 		.4byte	0x12d
 1544 070d 00       		.byte	0
 1545 070e 09       		.uleb128 0x9
 1546 070f 04       		.byte	0x4
 1547 0710 52020000 		.4byte	0x252
 1548 0714 05       		.uleb128 0x5
 1549 0715 2C060000 		.4byte	.LASF116
 1550 0719 0C       		.byte	0xc
 1551 071a 0E       		.byte	0xe
 1552 071b 34       		.byte	0x34
 1553 071c 39070000 		.4byte	0x739
 1554 0720 06       		.uleb128 0x6
 1555 0721 C5000000 		.4byte	.LASF117
 1556 0725 0E       		.byte	0xe
 1557 0726 35       		.byte	0x35
 1558 0727 87020000 		.4byte	0x287
 1559 072b 00       		.byte	0
 1560 072c 06       		.uleb128 0x6
 1561 072d 51030000 		.4byte	.LASF118
 1562 0731 0E       		.byte	0xe
 1563 0732 37       		.byte	0x37
 1564 0733 38010000 		.4byte	0x138
 1565 0737 08       		.byte	0x8
 1566 0738 00       		.byte	0
 1567 0739 09       		.uleb128 0x9
 1568 073a 04       		.byte	0x4
 1569 073b 14070000 		.4byte	0x714
 1570 073f 05       		.uleb128 0x5
 1571 0740 66080000 		.4byte	.LASF119
 1572 0744 10       		.byte	0x10
 1573 0745 0F       		.byte	0xf
 1574 0746 39       		.byte	0x39
 1575 0747 70070000 		.4byte	0x770
 1576 074b 06       		.uleb128 0x6
 1577 074c 8E010000 		.4byte	.LASF120
 1578 0750 0F       		.byte	0xf
 1579 0751 3A       		.byte	0x3a
 1580 0752 87020000 		.4byte	0x287
 1581 0756 00       		.byte	0
ARM GAS  /tmp/cclwjtNS.s 			page 29


 1582 0757 06       		.uleb128 0x6
 1583 0758 37090000 		.4byte	.LASF121
 1584 075c 0F       		.byte	0xf
 1585 075d 3C       		.byte	0x3c
 1586 075e 5D020000 		.4byte	0x25d
 1587 0762 08       		.byte	0x8
 1588 0763 06       		.uleb128 0x6
 1589 0764 D4040000 		.4byte	.LASF122
 1590 0768 0F       		.byte	0xf
 1591 0769 3E       		.byte	0x3e
 1592 076a B3070000 		.4byte	0x7b3
 1593 076e 0C       		.byte	0xc
 1594 076f 00       		.byte	0
 1595 0770 09       		.uleb128 0x9
 1596 0771 04       		.byte	0x4
 1597 0772 3F070000 		.4byte	0x73f
 1598 0776 09       		.uleb128 0x9
 1599 0777 04       		.byte	0x4
 1600 0778 7C070000 		.4byte	0x77c
 1601 077c 16       		.uleb128 0x16
 1602 077d 81070000 		.4byte	0x781
 1603 0781 04       		.uleb128 0x4
 1604 0782 01       		.byte	0x1
 1605 0783 08       		.byte	0x8
 1606 0784 52070000 		.4byte	.LASF123
 1607 0788 09       		.uleb128 0x9
 1608 0789 04       		.byte	0x4
 1609 078a 3C030000 		.4byte	0x33c
 1610 078e 0F       		.uleb128 0xf
 1611 078f 43010000 		.4byte	0x143
 1612 0793 0F       		.uleb128 0xf
 1613 0794 76070000 		.4byte	0x776
 1614 0798 17       		.uleb128 0x17
 1615 0799 EC050000 		.4byte	0x5ec
 1616 079d A8070000 		.4byte	0x7a8
 1617 07a1 18       		.uleb128 0x18
 1618 07a2 70040000 		.4byte	0x470
 1619 07a6 1A       		.byte	0x1a
 1620 07a7 00       		.byte	0
 1621 07a8 03       		.uleb128 0x3
 1622 07a9 2F090000 		.4byte	.LASF124
 1623 07ad 0F       		.byte	0xf
 1624 07ae 34       		.byte	0x34
 1625 07af 3F070000 		.4byte	0x73f
 1626 07b3 09       		.uleb128 0x9
 1627 07b4 04       		.byte	0x4
 1628 07b5 A8070000 		.4byte	0x7a8
 1629 07b9 12       		.uleb128 0x12
 1630 07ba 0C       		.byte	0xc
 1631 07bb 10       		.byte	0x10
 1632 07bc 6D01     		.2byte	0x16d
 1633 07be 04080000 		.4byte	0x804
 1634 07c2 08       		.uleb128 0x8
 1635 07c3 85000000 		.4byte	.LASF125
 1636 07c7 10       		.byte	0x10
 1637 07c8 6E01     		.2byte	0x16e
 1638 07ca 04080000 		.4byte	0x804
ARM GAS  /tmp/cclwjtNS.s 			page 30


 1639 07ce 00       		.byte	0
 1640 07cf 08       		.uleb128 0x8
 1641 07d0 44060000 		.4byte	.LASF126
 1642 07d4 10       		.byte	0x10
 1643 07d5 6F01     		.2byte	0x16f
 1644 07d7 0A080000 		.4byte	0x80a
 1645 07db 04       		.byte	0x4
 1646 07dc 08       		.uleb128 0x8
 1647 07dd 4A030000 		.4byte	.LASF127
 1648 07e1 10       		.byte	0x10
 1649 07e2 7001     		.2byte	0x170
 1650 07e4 A9000000 		.4byte	0xa9
 1651 07e8 08       		.byte	0x8
 1652 07e9 08       		.uleb128 0x8
 1653 07ea 9F030000 		.4byte	.LASF128
 1654 07ee 10       		.byte	0x10
 1655 07ef 7201     		.2byte	0x172
 1656 07f1 A9000000 		.4byte	0xa9
 1657 07f5 09       		.byte	0x9
 1658 07f6 08       		.uleb128 0x8
 1659 07f7 D6000000 		.4byte	.LASF129
 1660 07fb 10       		.byte	0x10
 1661 07fc 7301     		.2byte	0x173
 1662 07fe A9000000 		.4byte	0xa9
 1663 0802 0A       		.byte	0xa
 1664 0803 00       		.byte	0
 1665 0804 09       		.uleb128 0x9
 1666 0805 04       		.byte	0x4
 1667 0806 D5050000 		.4byte	0x5d5
 1668 080a 09       		.uleb128 0x9
 1669 080b 04       		.byte	0x4
 1670 080c 77040000 		.4byte	0x477
 1671 0810 13       		.uleb128 0x13
 1672 0811 48050000 		.4byte	.LASF130
 1673 0815 10       		.byte	0x10
 1674 0816 7401     		.2byte	0x174
 1675 0818 B9070000 		.4byte	0x7b9
 1676 081c 04       		.uleb128 0x4
 1677 081d 01       		.byte	0x1
 1678 081e 02       		.byte	0x2
 1679 081f 89050000 		.4byte	.LASF131
 1680 0823 19       		.uleb128 0x19
 1681 0824 01       		.byte	0x1
 1682 0825 11       		.byte	0x11
 1683 0826 46       		.byte	0x46
 1684 0827 50080000 		.4byte	0x850
 1685 082b 1A       		.uleb128 0x1a
 1686 082c 96010000 		.4byte	.LASF132
 1687 0830 00       		.sleb128 0
 1688 0831 1A       		.uleb128 0x1a
 1689 0832 A2040000 		.4byte	.LASF133
 1690 0836 01       		.sleb128 1
 1691 0837 1A       		.uleb128 0x1a
 1692 0838 74030000 		.4byte	.LASF134
 1693 083c 02       		.sleb128 2
 1694 083d 1A       		.uleb128 0x1a
 1695 083e EB020000 		.4byte	.LASF135
ARM GAS  /tmp/cclwjtNS.s 			page 31


 1696 0842 03       		.sleb128 3
 1697 0843 1A       		.uleb128 0x1a
 1698 0844 D4080000 		.4byte	.LASF136
 1699 0848 04       		.sleb128 4
 1700 0849 1A       		.uleb128 0x1a
 1701 084a BB010000 		.4byte	.LASF137
 1702 084e 05       		.sleb128 5
 1703 084f 00       		.byte	0
 1704 0850 03       		.uleb128 0x3
 1705 0851 48000000 		.4byte	.LASF138
 1706 0855 11       		.byte	0x11
 1707 0856 4D       		.byte	0x4d
 1708 0857 23080000 		.4byte	0x823
 1709 085b 13       		.uleb128 0x13
 1710 085c 81020000 		.4byte	.LASF139
 1711 0860 12       		.byte	0x12
 1712 0861 2E01     		.2byte	0x12e
 1713 0863 B4000000 		.4byte	0xb4
 1714 0867 13       		.uleb128 0x13
 1715 0868 E8080000 		.4byte	.LASF140
 1716 086c 12       		.byte	0x12
 1717 086d 3301     		.2byte	0x133
 1718 086f B4000000 		.4byte	0xb4
 1719 0873 1B       		.uleb128 0x1b
 1720 0874 01       		.byte	0x1
 1721 0875 12       		.byte	0x12
 1722 0876 3A01     		.2byte	0x13a
 1723 0878 89080000 		.4byte	0x889
 1724 087c 1A       		.uleb128 0x1a
 1725 087d DD010000 		.4byte	.LASF141
 1726 0881 00       		.sleb128 0
 1727 0882 1A       		.uleb128 0x1a
 1728 0883 D4020000 		.4byte	.LASF142
 1729 0887 01       		.sleb128 1
 1730 0888 00       		.byte	0
 1731 0889 13       		.uleb128 0x13
 1732 088a A3000000 		.4byte	.LASF143
 1733 088e 12       		.byte	0x12
 1734 088f 3D01     		.2byte	0x13d
 1735 0891 73080000 		.4byte	0x873
 1736 0895 13       		.uleb128 0x13
 1737 0896 40030000 		.4byte	.LASF144
 1738 089a 12       		.byte	0x12
 1739 089b 4201     		.2byte	0x142
 1740 089d A1080000 		.4byte	0x8a1
 1741 08a1 0A       		.uleb128 0xa
 1742 08a2 40030000 		.4byte	.LASF144
 1743 08a6 34       		.byte	0x34
 1744 08a7 12       		.byte	0x12
 1745 08a8 A601     		.2byte	0x1a6
 1746 08aa 31090000 		.4byte	0x931
 1747 08ae 08       		.uleb128 0x8
 1748 08af C5010000 		.4byte	.LASF145
 1749 08b3 12       		.byte	0x12
 1750 08b4 AA01     		.2byte	0x1aa
 1751 08b6 50080000 		.4byte	0x850
 1752 08ba 00       		.byte	0
ARM GAS  /tmp/cclwjtNS.s 			page 32


 1753 08bb 08       		.uleb128 0x8
 1754 08bc 57070000 		.4byte	.LASF146
 1755 08c0 12       		.byte	0x12
 1756 08c1 AE01     		.2byte	0x1ae
 1757 08c3 4E0A0000 		.4byte	0xa4e
 1758 08c7 04       		.byte	0x4
 1759 08c8 08       		.uleb128 0x8
 1760 08c9 46040000 		.4byte	.LASF147
 1761 08cd 12       		.byte	0x12
 1762 08ce B201     		.2byte	0x1b2
 1763 08d0 5E090000 		.4byte	0x95e
 1764 08d4 08       		.byte	0x8
 1765 08d5 08       		.uleb128 0x8
 1766 08d6 E8000000 		.4byte	.LASF148
 1767 08da 12       		.byte	0x12
 1768 08db B601     		.2byte	0x1b6
 1769 08dd 28000000 		.4byte	0x28
 1770 08e1 0C       		.byte	0xc
 1771 08e2 08       		.uleb128 0x8
 1772 08e3 28040000 		.4byte	.LASF149
 1773 08e7 12       		.byte	0x12
 1774 08e8 BA01     		.2byte	0x1ba
 1775 08ea 590A0000 		.4byte	0xa59
 1776 08ee 10       		.byte	0x10
 1777 08ef 08       		.uleb128 0x8
 1778 08f0 25020000 		.4byte	.LASF150
 1779 08f4 12       		.byte	0x12
 1780 08f5 BF01     		.2byte	0x1bf
 1781 08f7 52020000 		.4byte	0x252
 1782 08fb 14       		.byte	0x14
 1783 08fc 08       		.uleb128 0x8
 1784 08fd 63050000 		.4byte	.LASF151
 1785 0901 12       		.byte	0x12
 1786 0902 C501     		.2byte	0x1c5
 1787 0904 A8070000 		.4byte	0x7a8
 1788 0908 18       		.byte	0x18
 1789 0909 07       		.uleb128 0x7
 1790 090a 61646300 		.ascii	"adc\000"
 1791 090e 12       		.byte	0x12
 1792 090f CE01     		.2byte	0x1ce
 1793 0911 640A0000 		.4byte	0xa64
 1794 0915 28       		.byte	0x28
 1795 0916 08       		.uleb128 0x8
 1796 0917 B4010000 		.4byte	.LASF152
 1797 091b 12       		.byte	0x12
 1798 091c D201     		.2byte	0x1d2
 1799 091e 6A0A0000 		.4byte	0xa6a
 1800 0922 2C       		.byte	0x2c
 1801 0923 08       		.uleb128 0x8
 1802 0924 C5080000 		.4byte	.LASF153
 1803 0928 12       		.byte	0x12
 1804 0929 D601     		.2byte	0x1d6
 1805 092b CA000000 		.4byte	0xca
 1806 092f 30       		.byte	0x30
 1807 0930 00       		.byte	0
 1808 0931 13       		.uleb128 0x13
 1809 0932 68020000 		.4byte	.LASF154
ARM GAS  /tmp/cclwjtNS.s 			page 33


 1810 0936 12       		.byte	0x12
 1811 0937 4C01     		.2byte	0x14c
 1812 0939 3D090000 		.4byte	0x93d
 1813 093d 09       		.uleb128 0x9
 1814 093e 04       		.byte	0x4
 1815 093f 43090000 		.4byte	0x943
 1816 0943 0B       		.uleb128 0xb
 1817 0944 58090000 		.4byte	0x958
 1818 0948 0C       		.uleb128 0xc
 1819 0949 58090000 		.4byte	0x958
 1820 094d 0C       		.uleb128 0xc
 1821 094e 5E090000 		.4byte	0x95e
 1822 0952 0C       		.uleb128 0xc
 1823 0953 28000000 		.4byte	0x28
 1824 0957 00       		.byte	0
 1825 0958 09       		.uleb128 0x9
 1826 0959 04       		.byte	0x4
 1827 095a 95080000 		.4byte	0x895
 1828 095e 09       		.uleb128 0x9
 1829 095f 04       		.byte	0x4
 1830 0960 5B080000 		.4byte	0x85b
 1831 0964 13       		.uleb128 0x13
 1832 0965 09020000 		.4byte	.LASF155
 1833 0969 12       		.byte	0x12
 1834 096a 5501     		.2byte	0x155
 1835 096c 70090000 		.4byte	0x970
 1836 0970 09       		.uleb128 0x9
 1837 0971 04       		.byte	0x4
 1838 0972 76090000 		.4byte	0x976
 1839 0976 0B       		.uleb128 0xb
 1840 0977 86090000 		.4byte	0x986
 1841 097b 0C       		.uleb128 0xc
 1842 097c 58090000 		.4byte	0x958
 1843 0980 0C       		.uleb128 0xc
 1844 0981 89080000 		.4byte	0x889
 1845 0985 00       		.byte	0
 1846 0986 12       		.uleb128 0x12
 1847 0987 28       		.byte	0x28
 1848 0988 12       		.byte	0x12
 1849 0989 5F01     		.2byte	0x15f
 1850 098b 1F0A0000 		.4byte	0xa1f
 1851 098f 08       		.uleb128 0x8
 1852 0990 CB010000 		.4byte	.LASF156
 1853 0994 12       		.byte	0x12
 1854 0995 6301     		.2byte	0x163
 1855 0997 1C080000 		.4byte	0x81c
 1856 099b 00       		.byte	0
 1857 099c 08       		.uleb128 0x8
 1858 099d BD030000 		.4byte	.LASF157
 1859 09a1 12       		.byte	0x12
 1860 09a2 6701     		.2byte	0x167
 1861 09a4 67080000 		.4byte	0x867
 1862 09a8 02       		.byte	0x2
 1863 09a9 08       		.uleb128 0x8
 1864 09aa 61020000 		.4byte	.LASF158
 1865 09ae 12       		.byte	0x12
 1866 09af 6B01     		.2byte	0x16b
ARM GAS  /tmp/cclwjtNS.s 			page 34


 1867 09b1 31090000 		.4byte	0x931
 1868 09b5 04       		.byte	0x4
 1869 09b6 08       		.uleb128 0x8
 1870 09b7 D9050000 		.4byte	.LASF159
 1871 09bb 12       		.byte	0x12
 1872 09bc 6F01     		.2byte	0x16f
 1873 09be 64090000 		.4byte	0x964
 1874 09c2 08       		.byte	0x8
 1875 09c3 07       		.uleb128 0x7
 1876 09c4 63723100 		.ascii	"cr1\000"
 1877 09c8 12       		.byte	0x12
 1878 09c9 7601     		.2byte	0x176
 1879 09cb CA000000 		.4byte	0xca
 1880 09cf 0C       		.byte	0xc
 1881 09d0 07       		.uleb128 0x7
 1882 09d1 63723200 		.ascii	"cr2\000"
 1883 09d5 12       		.byte	0x12
 1884 09d6 7D01     		.2byte	0x17d
 1885 09d8 CA000000 		.4byte	0xca
 1886 09dc 10       		.byte	0x10
 1887 09dd 08       		.uleb128 0x8
 1888 09de 76080000 		.4byte	.LASF160
 1889 09e2 12       		.byte	0x12
 1890 09e3 8301     		.2byte	0x183
 1891 09e5 CA000000 		.4byte	0xca
 1892 09e9 14       		.byte	0x14
 1893 09ea 08       		.uleb128 0x8
 1894 09eb 7C080000 		.4byte	.LASF161
 1895 09ef 12       		.byte	0x12
 1896 09f0 8901     		.2byte	0x189
 1897 09f2 CA000000 		.4byte	0xca
 1898 09f6 18       		.byte	0x18
 1899 09f7 08       		.uleb128 0x8
 1900 09f8 82070000 		.4byte	.LASF162
 1901 09fc 12       		.byte	0x12
 1902 09fd 8E01     		.2byte	0x18e
 1903 09ff CA000000 		.4byte	0xca
 1904 0a03 1C       		.byte	0x1c
 1905 0a04 08       		.uleb128 0x8
 1906 0a05 87070000 		.4byte	.LASF163
 1907 0a09 12       		.byte	0x12
 1908 0a0a 9301     		.2byte	0x193
 1909 0a0c CA000000 		.4byte	0xca
 1910 0a10 20       		.byte	0x20
 1911 0a11 08       		.uleb128 0x8
 1912 0a12 8C070000 		.4byte	.LASF164
 1913 0a16 12       		.byte	0x12
 1914 0a17 9801     		.2byte	0x198
 1915 0a19 CA000000 		.4byte	0xca
 1916 0a1d 24       		.byte	0x24
 1917 0a1e 00       		.byte	0
 1918 0a1f 13       		.uleb128 0x13
 1919 0a20 A3080000 		.4byte	.LASF165
 1920 0a24 12       		.byte	0x12
 1921 0a25 9901     		.2byte	0x199
 1922 0a27 86090000 		.4byte	0x986
 1923 0a2b 12       		.uleb128 0x12
ARM GAS  /tmp/cclwjtNS.s 			page 35


 1924 0a2c 04       		.byte	0x4
 1925 0a2d 12       		.byte	0x12
 1926 0a2e 9F01     		.2byte	0x19f
 1927 0a30 420A0000 		.4byte	0xa42
 1928 0a34 08       		.uleb128 0x8
 1929 0a35 B5020000 		.4byte	.LASF166
 1930 0a39 12       		.byte	0x12
 1931 0a3a A001     		.2byte	0x1a0
 1932 0a3c CA000000 		.4byte	0xca
 1933 0a40 00       		.byte	0
 1934 0a41 00       		.byte	0
 1935 0a42 13       		.uleb128 0x13
 1936 0a43 9A020000 		.4byte	.LASF167
 1937 0a47 12       		.byte	0x12
 1938 0a48 A101     		.2byte	0x1a1
 1939 0a4a 2B0A0000 		.4byte	0xa2b
 1940 0a4e 09       		.uleb128 0x9
 1941 0a4f 04       		.byte	0x4
 1942 0a50 540A0000 		.4byte	0xa54
 1943 0a54 16       		.uleb128 0x16
 1944 0a55 420A0000 		.4byte	0xa42
 1945 0a59 09       		.uleb128 0x9
 1946 0a5a 04       		.byte	0x4
 1947 0a5b 5F0A0000 		.4byte	0xa5f
 1948 0a5f 16       		.uleb128 0x16
 1949 0a60 1F0A0000 		.4byte	0xa1f
 1950 0a64 09       		.uleb128 0x9
 1951 0a65 04       		.byte	0x4
 1952 0a66 73050000 		.4byte	0x573
 1953 0a6a 09       		.uleb128 0x9
 1954 0a6b 04       		.byte	0x4
 1955 0a6c 700A0000 		.4byte	0xa70
 1956 0a70 16       		.uleb128 0x16
 1957 0a71 10080000 		.4byte	0x810
 1958 0a75 1C       		.uleb128 0x1c
 1959 0a76 BA070000 		.4byte	.LASF171
 1960 0a7a 03       		.byte	0x3
 1961 0a7b 2202     		.2byte	0x222
 1962 0a7d 03       		.byte	0x3
 1963 0a7e 8F0A0000 		.4byte	0xa8f
 1964 0a82 1D       		.uleb128 0x1d
 1965 0a83 E5020000 		.4byte	.LASF174
 1966 0a87 03       		.byte	0x3
 1967 0a88 2202     		.2byte	0x222
 1968 0a8a CA000000 		.4byte	0xca
 1969 0a8e 00       		.byte	0
 1970 0a8f 1E       		.uleb128 0x1e
 1971 0a90 8C000000 		.4byte	.LASF168
 1972 0a94 0C       		.byte	0xc
 1973 0a95 C801     		.2byte	0x1c8
 1974 0a97 03       		.byte	0x3
 1975 0a98 1E       		.uleb128 0x1e
 1976 0a99 A8010000 		.4byte	.LASF169
 1977 0a9d 0C       		.byte	0xc
 1978 0a9e E001     		.2byte	0x1e0
 1979 0aa0 03       		.byte	0x3
 1980 0aa1 1E       		.uleb128 0x1e
ARM GAS  /tmp/cclwjtNS.s 			page 36


 1981 0aa2 0E060000 		.4byte	.LASF170
 1982 0aa6 13       		.byte	0x13
 1983 0aa7 5A01     		.2byte	0x15a
 1984 0aa9 03       		.byte	0x3
 1985 0aaa 1C       		.uleb128 0x1c
 1986 0aab 06090000 		.4byte	.LASF172
 1987 0aaf 13       		.byte	0x13
 1988 0ab0 6601     		.2byte	0x166
 1989 0ab2 03       		.byte	0x3
 1990 0ab3 C50A0000 		.4byte	0xac5
 1991 0ab7 1F       		.uleb128 0x1f
 1992 0ab8 FF050000 		.4byte	.LASF178
 1993 0abc D50A0000 		.4byte	0xad5
 1994 0ac0 06090000 		.4byte	.LASF172
 1995 0ac4 00       		.byte	0
 1996 0ac5 17       		.uleb128 0x17
 1997 0ac6 81070000 		.4byte	0x781
 1998 0aca D50A0000 		.4byte	0xad5
 1999 0ace 18       		.uleb128 0x18
 2000 0acf 70040000 		.4byte	0x470
 2001 0ad3 0B       		.byte	0xb
 2002 0ad4 00       		.byte	0
 2003 0ad5 16       		.uleb128 0x16
 2004 0ad6 C50A0000 		.4byte	0xac5
 2005 0ada 1C       		.uleb128 0x1c
 2006 0adb 2E010000 		.4byte	.LASF173
 2007 0adf 02       		.byte	0x2
 2008 0ae0 7403     		.2byte	0x374
 2009 0ae2 03       		.byte	0x3
 2010 0ae3 F30A0000 		.4byte	0xaf3
 2011 0ae7 20       		.uleb128 0x20
 2012 0ae8 6D7000   		.ascii	"mp\000"
 2013 0aeb 02       		.byte	0x2
 2014 0aec 7403     		.2byte	0x374
 2015 0aee B3070000 		.4byte	0x7b3
 2016 0af2 00       		.byte	0
 2017 0af3 1E       		.uleb128 0x1e
 2018 0af4 C8020000 		.4byte	.LASF175
 2019 0af8 02       		.byte	0x2
 2020 0af9 EB01     		.2byte	0x1eb
 2021 0afb 03       		.byte	0x3
 2022 0afc 1E       		.uleb128 0x1e
 2023 0afd 1E060000 		.4byte	.LASF176
 2024 0b01 02       		.byte	0x2
 2025 0b02 F601     		.2byte	0x1f6
 2026 0b04 03       		.byte	0x3
 2027 0b05 21       		.uleb128 0x21
 2028 0b06 15050000 		.4byte	.LASF179
 2029 0b0a 01       		.byte	0x1
 2030 0b0b AB       		.byte	0xab
 2031 0b0c 01       		.byte	0x1
 2032 0b0d 4B0B0000 		.4byte	0xb4b
 2033 0b11 22       		.uleb128 0x22
 2034 0b12 18090000 		.4byte	.LASF177
 2035 0b16 01       		.byte	0x1
 2036 0b17 AB       		.byte	0xab
 2037 0b18 58090000 		.4byte	0x958
ARM GAS  /tmp/cclwjtNS.s 			page 37


 2038 0b1c 22       		.uleb128 0x22
 2039 0b1d 28040000 		.4byte	.LASF149
 2040 0b21 01       		.byte	0x1
 2041 0b22 AC       		.byte	0xac
 2042 0b23 590A0000 		.4byte	0xa59
 2043 0b27 22       		.uleb128 0x22
 2044 0b28 46040000 		.4byte	.LASF147
 2045 0b2c 01       		.byte	0x1
 2046 0b2d AD       		.byte	0xad
 2047 0b2e 5E090000 		.4byte	0x95e
 2048 0b32 22       		.uleb128 0x22
 2049 0b33 E8000000 		.4byte	.LASF148
 2050 0b37 01       		.byte	0x1
 2051 0b38 AE       		.byte	0xae
 2052 0b39 28000000 		.4byte	0x28
 2053 0b3d 1F       		.uleb128 0x1f
 2054 0b3e FF050000 		.4byte	.LASF178
 2055 0b42 5B0B0000 		.4byte	0xb5b
 2056 0b46 15050000 		.4byte	.LASF179
 2057 0b4a 00       		.byte	0
 2058 0b4b 17       		.uleb128 0x17
 2059 0b4c 81070000 		.4byte	0x781
 2060 0b50 5B0B0000 		.4byte	0xb5b
 2061 0b54 18       		.uleb128 0x18
 2062 0b55 70040000 		.4byte	0x470
 2063 0b59 13       		.byte	0x13
 2064 0b5a 00       		.byte	0
 2065 0b5b 16       		.uleb128 0x16
 2066 0b5c 4B0B0000 		.4byte	0xb4b
 2067 0b60 1C       		.uleb128 0x1c
 2068 0b61 1F000000 		.4byte	.LASF180
 2069 0b65 02       		.byte	0x2
 2070 0b66 E502     		.2byte	0x2e5
 2071 0b68 03       		.byte	0x3
 2072 0b69 860B0000 		.4byte	0xb86
 2073 0b6d 20       		.uleb128 0x20
 2074 0b6e 74727000 		.ascii	"trp\000"
 2075 0b72 02       		.byte	0x2
 2076 0b73 E502     		.2byte	0x2e5
 2077 0b75 0E070000 		.4byte	0x70e
 2078 0b79 20       		.uleb128 0x20
 2079 0b7a 6D736700 		.ascii	"msg\000"
 2080 0b7e 02       		.byte	0x2
 2081 0b7f E502     		.2byte	0x2e5
 2082 0b81 22010000 		.4byte	0x122
 2083 0b85 00       		.byte	0
 2084 0b86 1C       		.uleb128 0x1c
 2085 0b87 00000000 		.4byte	.LASF181
 2086 0b8b 02       		.byte	0x2
 2087 0b8c D602     		.2byte	0x2d6
 2088 0b8e 03       		.byte	0x3
 2089 0b8f AC0B0000 		.4byte	0xbac
 2090 0b93 20       		.uleb128 0x20
 2091 0b94 74727000 		.ascii	"trp\000"
 2092 0b98 02       		.byte	0x2
 2093 0b99 D602     		.2byte	0x2d6
 2094 0b9b 0E070000 		.4byte	0x70e
ARM GAS  /tmp/cclwjtNS.s 			page 38


 2095 0b9f 20       		.uleb128 0x20
 2096 0ba0 6D736700 		.ascii	"msg\000"
 2097 0ba4 02       		.byte	0x2
 2098 0ba5 D602     		.2byte	0x2d6
 2099 0ba7 22010000 		.4byte	0x122
 2100 0bab 00       		.byte	0
 2101 0bac 23       		.uleb128 0x23
 2102 0bad 7E030000 		.4byte	.LASF204
 2103 0bb1 02       		.byte	0x2
 2104 0bb2 AE02     		.2byte	0x2ae
 2105 0bb4 22010000 		.4byte	0x122
 2106 0bb8 03       		.byte	0x3
 2107 0bb9 CA0B0000 		.4byte	0xbca
 2108 0bbd 20       		.uleb128 0x20
 2109 0bbe 74727000 		.ascii	"trp\000"
 2110 0bc2 02       		.byte	0x2
 2111 0bc3 AE02     		.2byte	0x2ae
 2112 0bc5 0E070000 		.4byte	0x70e
 2113 0bc9 00       		.byte	0
 2114 0bca 1C       		.uleb128 0x1c
 2115 0bcb C8070000 		.4byte	.LASF182
 2116 0bcf 02       		.byte	0x2
 2117 0bd0 8803     		.2byte	0x388
 2118 0bd2 03       		.byte	0x3
 2119 0bd3 E30B0000 		.4byte	0xbe3
 2120 0bd7 20       		.uleb128 0x20
 2121 0bd8 6D7000   		.ascii	"mp\000"
 2122 0bdb 02       		.byte	0x2
 2123 0bdc 8803     		.2byte	0x388
 2124 0bde B3070000 		.4byte	0x7b3
 2125 0be2 00       		.byte	0
 2126 0be3 1C       		.uleb128 0x1c
 2127 0be4 5E070000 		.4byte	.LASF183
 2128 0be8 02       		.byte	0x2
 2129 0be9 A003     		.2byte	0x3a0
 2130 0beb 03       		.byte	0x3
 2131 0bec FC0B0000 		.4byte	0xbfc
 2132 0bf0 20       		.uleb128 0x20
 2133 0bf1 6D7000   		.ascii	"mp\000"
 2134 0bf4 02       		.byte	0x2
 2135 0bf5 A003     		.2byte	0x3a0
 2136 0bf7 B3070000 		.4byte	0x7b3
 2137 0bfb 00       		.byte	0
 2138 0bfc 24       		.uleb128 0x24
 2139 0bfd F8030000 		.4byte	.LASF184
 2140 0c01 01       		.byte	0x1
 2141 0c02 38       		.byte	0x38
 2142 0c03 00000000 		.4byte	.LFB207
 2143 0c07 04000000 		.4byte	.LFE207-.LFB207
 2144 0c0b 01       		.uleb128 0x1
 2145 0c0c 9C       		.byte	0x9c
 2146 0c0d 1B0C0000 		.4byte	0xc1b
 2147 0c11 25       		.uleb128 0x25
 2148 0c12 04000000 		.4byte	.LVL0
 2149 0c16 7A140000 		.4byte	0x147a
 2150 0c1a 00       		.byte	0
 2151 0c1b 24       		.uleb128 0x24
ARM GAS  /tmp/cclwjtNS.s 			page 39


 2152 0c1c 20030000 		.4byte	.LASF185
 2153 0c20 01       		.byte	0x1
 2154 0c21 44       		.byte	0x44
 2155 0c22 00000000 		.4byte	.LFB208
 2156 0c26 16000000 		.4byte	.LFE208-.LFB208
 2157 0c2a 01       		.uleb128 0x1
 2158 0c2b 9C       		.byte	0x9c
 2159 0c2c 6C0C0000 		.4byte	0xc6c
 2160 0c30 26       		.uleb128 0x26
 2161 0c31 18090000 		.4byte	.LASF177
 2162 0c35 01       		.byte	0x1
 2163 0c36 44       		.byte	0x44
 2164 0c37 58090000 		.4byte	0x958
 2165 0c3b 00000000 		.4byte	.LLST0
 2166 0c3f 27       		.uleb128 0x27
 2167 0c40 DA0A0000 		.4byte	0xada
 2168 0c44 10000000 		.4byte	.LBB105
 2169 0c48 06000000 		.4byte	.LBE105-.LBB105
 2170 0c4c 01       		.byte	0x1
 2171 0c4d 4F       		.byte	0x4f
 2172 0c4e 28       		.uleb128 0x28
 2173 0c4f E70A0000 		.4byte	0xae7
 2174 0c53 2E000000 		.4byte	.LLST1
 2175 0c57 29       		.uleb128 0x29
 2176 0c58 16000000 		.4byte	.LVL4
 2177 0c5c 82140000 		.4byte	0x1482
 2178 0c60 2A       		.uleb128 0x2a
 2179 0c61 01       		.uleb128 0x1
 2180 0c62 50       		.byte	0x50
 2181 0c63 05       		.uleb128 0x5
 2182 0c64 F3       		.byte	0xf3
 2183 0c65 01       		.uleb128 0x1
 2184 0c66 50       		.byte	0x50
 2185 0c67 23       		.byte	0x23
 2186 0c68 18       		.uleb128 0x18
 2187 0c69 00       		.byte	0
 2188 0c6a 00       		.byte	0
 2189 0c6b 00       		.byte	0
 2190 0c6c 24       		.uleb128 0x24
 2191 0c6d 4D080000 		.4byte	.LASF186
 2192 0c71 01       		.byte	0x1
 2193 0c72 5F       		.byte	0x5f
 2194 0c73 00000000 		.4byte	.LFB209
 2195 0c77 1C000000 		.4byte	.LFE209-.LFB209
 2196 0c7b 01       		.uleb128 0x1
 2197 0c7c 9C       		.byte	0x9c
 2198 0c7d 620D0000 		.4byte	0xd62
 2199 0c81 26       		.uleb128 0x26
 2200 0c82 18090000 		.4byte	.LASF177
 2201 0c86 01       		.byte	0x1
 2202 0c87 5F       		.byte	0x5f
 2203 0c88 58090000 		.4byte	0x958
 2204 0c8c 5E000000 		.4byte	.LLST2
 2205 0c90 26       		.uleb128 0x26
 2206 0c91 57070000 		.4byte	.LASF146
 2207 0c95 01       		.byte	0x1
 2208 0c96 5F       		.byte	0x5f
ARM GAS  /tmp/cclwjtNS.s 			page 40


 2209 0c97 4E0A0000 		.4byte	0xa4e
 2210 0c9b 7C000000 		.4byte	.LLST3
 2211 0c9f 2B       		.uleb128 0x2b
 2212 0ca0 FF050000 		.4byte	.LASF178
 2213 0ca4 720D0000 		.4byte	0xd72
 2214 0ca8 2C       		.uleb128 0x2c
 2215 0ca9 F30A0000 		.4byte	0xaf3
 2216 0cad 02000000 		.4byte	.LBB107
 2217 0cb1 00000000 		.4byte	.Ldebug_ranges0+0
 2218 0cb5 01       		.byte	0x1
 2219 0cb6 63       		.byte	0x63
 2220 0cb7 F50C0000 		.4byte	0xcf5
 2221 0cbb 2D       		.uleb128 0x2d
 2222 0cbc A10A0000 		.4byte	0xaa1
 2223 0cc0 02000000 		.4byte	.LBB108
 2224 0cc4 00000000 		.4byte	.Ldebug_ranges0+0
 2225 0cc8 02       		.byte	0x2
 2226 0cc9 ED01     		.2byte	0x1ed
 2227 0ccb 2D       		.uleb128 0x2d
 2228 0ccc 8F0A0000 		.4byte	0xa8f
 2229 0cd0 02000000 		.4byte	.LBB109
 2230 0cd4 00000000 		.4byte	.Ldebug_ranges0+0
 2231 0cd8 13       		.byte	0x13
 2232 0cd9 5C01     		.2byte	0x15c
 2233 0cdb 2D       		.uleb128 0x2d
 2234 0cdc 750A0000 		.4byte	0xa75
 2235 0ce0 02000000 		.4byte	.LBB110
 2236 0ce4 00000000 		.4byte	.Ldebug_ranges0+0
 2237 0ce8 0C       		.byte	0xc
 2238 0ce9 D001     		.2byte	0x1d0
 2239 0ceb 2E       		.uleb128 0x2e
 2240 0cec 820A0000 		.4byte	0xa82
 2241 0cf0 20       		.byte	0x20
 2242 0cf1 00       		.byte	0
 2243 0cf2 00       		.byte	0
 2244 0cf3 00       		.byte	0
 2245 0cf4 00       		.byte	0
 2246 0cf5 2F       		.uleb128 0x2f
 2247 0cf6 FC0A0000 		.4byte	0xafc
 2248 0cfa 14000000 		.4byte	.LBB117
 2249 0cfe 08000000 		.4byte	.LBE117-.LBB117
 2250 0d02 01       		.byte	0x1
 2251 0d03 69       		.byte	0x69
 2252 0d04 510D0000 		.4byte	0xd51
 2253 0d08 30       		.uleb128 0x30
 2254 0d09 AA0A0000 		.4byte	0xaaa
 2255 0d0d 14000000 		.4byte	.LBB118
 2256 0d11 08000000 		.4byte	.LBE118-.LBB118
 2257 0d15 02       		.byte	0x2
 2258 0d16 F801     		.2byte	0x1f8
 2259 0d18 31       		.uleb128 0x31
 2260 0d19 14000000 		.4byte	.LBB119
 2261 0d1d 08000000 		.4byte	.LBE119-.LBB119
 2262 0d21 32       		.uleb128 0x32
 2263 0d22 B70A0000 		.4byte	0xab7
 2264 0d26 30       		.uleb128 0x30
 2265 0d27 980A0000 		.4byte	0xa98
ARM GAS  /tmp/cclwjtNS.s 			page 41


 2266 0d2b 14000000 		.4byte	.LBB120
 2267 0d2f 08000000 		.4byte	.LBE120-.LBB120
 2268 0d33 13       		.byte	0x13
 2269 0d34 7301     		.2byte	0x173
 2270 0d36 30       		.uleb128 0x30
 2271 0d37 750A0000 		.4byte	0xa75
 2272 0d3b 14000000 		.4byte	.LBB121
 2273 0d3f 08000000 		.4byte	.LBE121-.LBB121
 2274 0d43 0C       		.byte	0xc
 2275 0d44 E301     		.2byte	0x1e3
 2276 0d46 2E       		.uleb128 0x2e
 2277 0d47 820A0000 		.4byte	0xa82
 2278 0d4b 00       		.byte	0
 2279 0d4c 00       		.byte	0
 2280 0d4d 00       		.byte	0
 2281 0d4e 00       		.byte	0
 2282 0d4f 00       		.byte	0
 2283 0d50 00       		.byte	0
 2284 0d51 33       		.uleb128 0x33
 2285 0d52 10000000 		.4byte	.LVL6
 2286 0d56 93140000 		.4byte	0x1493
 2287 0d5a 2A       		.uleb128 0x2a
 2288 0d5b 01       		.uleb128 0x1
 2289 0d5c 50       		.byte	0x50
 2290 0d5d 02       		.uleb128 0x2
 2291 0d5e 74       		.byte	0x74
 2292 0d5f 00       		.sleb128 0
 2293 0d60 00       		.byte	0
 2294 0d61 00       		.byte	0
 2295 0d62 17       		.uleb128 0x17
 2296 0d63 81070000 		.4byte	0x781
 2297 0d67 720D0000 		.4byte	0xd72
 2298 0d6b 18       		.uleb128 0x18
 2299 0d6c 70040000 		.4byte	0x470
 2300 0d70 08       		.byte	0x8
 2301 0d71 00       		.byte	0
 2302 0d72 16       		.uleb128 0x16
 2303 0d73 620D0000 		.4byte	0xd62
 2304 0d77 24       		.uleb128 0x24
 2305 0d78 62000000 		.4byte	.LASF187
 2306 0d7c 01       		.byte	0x1
 2307 0d7d 73       		.byte	0x73
 2308 0d7e 00000000 		.4byte	.LFB210
 2309 0d82 1A000000 		.4byte	.LFE210-.LFB210
 2310 0d86 01       		.uleb128 0x1
 2311 0d87 9C       		.byte	0x9c
 2312 0d88 5E0E0000 		.4byte	0xe5e
 2313 0d8c 26       		.uleb128 0x26
 2314 0d8d 18090000 		.4byte	.LASF177
 2315 0d91 01       		.byte	0x1
 2316 0d92 73       		.byte	0x73
 2317 0d93 58090000 		.4byte	0x958
 2318 0d97 9D000000 		.4byte	.LLST4
 2319 0d9b 2B       		.uleb128 0x2b
 2320 0d9c FF050000 		.4byte	.LASF178
 2321 0da0 6E0E0000 		.4byte	0xe6e
 2322 0da4 2C       		.uleb128 0x2c
ARM GAS  /tmp/cclwjtNS.s 			page 42


 2323 0da5 F30A0000 		.4byte	0xaf3
 2324 0da9 02000000 		.4byte	.LBB123
 2325 0dad 18000000 		.4byte	.Ldebug_ranges0+0x18
 2326 0db1 01       		.byte	0x1
 2327 0db2 77       		.byte	0x77
 2328 0db3 F10D0000 		.4byte	0xdf1
 2329 0db7 2D       		.uleb128 0x2d
 2330 0db8 A10A0000 		.4byte	0xaa1
 2331 0dbc 02000000 		.4byte	.LBB124
 2332 0dc0 18000000 		.4byte	.Ldebug_ranges0+0x18
 2333 0dc4 02       		.byte	0x2
 2334 0dc5 ED01     		.2byte	0x1ed
 2335 0dc7 2D       		.uleb128 0x2d
 2336 0dc8 8F0A0000 		.4byte	0xa8f
 2337 0dcc 02000000 		.4byte	.LBB125
 2338 0dd0 18000000 		.4byte	.Ldebug_ranges0+0x18
 2339 0dd4 13       		.byte	0x13
 2340 0dd5 5C01     		.2byte	0x15c
 2341 0dd7 2D       		.uleb128 0x2d
 2342 0dd8 750A0000 		.4byte	0xa75
 2343 0ddc 02000000 		.4byte	.LBB126
 2344 0de0 18000000 		.4byte	.Ldebug_ranges0+0x18
 2345 0de4 0C       		.byte	0xc
 2346 0de5 D001     		.2byte	0x1d0
 2347 0de7 2E       		.uleb128 0x2e
 2348 0de8 820A0000 		.4byte	0xa82
 2349 0dec 20       		.byte	0x20
 2350 0ded 00       		.byte	0
 2351 0dee 00       		.byte	0
 2352 0def 00       		.byte	0
 2353 0df0 00       		.byte	0
 2354 0df1 2F       		.uleb128 0x2f
 2355 0df2 FC0A0000 		.4byte	0xafc
 2356 0df6 12000000 		.4byte	.LBB133
 2357 0dfa 08000000 		.4byte	.LBE133-.LBB133
 2358 0dfe 01       		.byte	0x1
 2359 0dff 7C       		.byte	0x7c
 2360 0e00 4D0E0000 		.4byte	0xe4d
 2361 0e04 30       		.uleb128 0x30
 2362 0e05 AA0A0000 		.4byte	0xaaa
 2363 0e09 12000000 		.4byte	.LBB134
 2364 0e0d 08000000 		.4byte	.LBE134-.LBB134
 2365 0e11 02       		.byte	0x2
 2366 0e12 F801     		.2byte	0x1f8
 2367 0e14 31       		.uleb128 0x31
 2368 0e15 12000000 		.4byte	.LBB135
 2369 0e19 08000000 		.4byte	.LBE135-.LBB135
 2370 0e1d 32       		.uleb128 0x32
 2371 0e1e B70A0000 		.4byte	0xab7
 2372 0e22 30       		.uleb128 0x30
 2373 0e23 980A0000 		.4byte	0xa98
 2374 0e27 12000000 		.4byte	.LBB136
 2375 0e2b 08000000 		.4byte	.LBE136-.LBB136
 2376 0e2f 13       		.byte	0x13
 2377 0e30 7301     		.2byte	0x173
 2378 0e32 30       		.uleb128 0x30
 2379 0e33 750A0000 		.4byte	0xa75
ARM GAS  /tmp/cclwjtNS.s 			page 43


 2380 0e37 12000000 		.4byte	.LBB137
 2381 0e3b 08000000 		.4byte	.LBE137-.LBB137
 2382 0e3f 0C       		.byte	0xc
 2383 0e40 E301     		.2byte	0x1e3
 2384 0e42 2E       		.uleb128 0x2e
 2385 0e43 820A0000 		.4byte	0xa82
 2386 0e47 00       		.byte	0
 2387 0e48 00       		.byte	0
 2388 0e49 00       		.byte	0
 2389 0e4a 00       		.byte	0
 2390 0e4b 00       		.byte	0
 2391 0e4c 00       		.byte	0
 2392 0e4d 33       		.uleb128 0x33
 2393 0e4e 0E000000 		.4byte	.LVL9
 2394 0e52 A5140000 		.4byte	0x14a5
 2395 0e56 2A       		.uleb128 0x2a
 2396 0e57 01       		.uleb128 0x1
 2397 0e58 50       		.byte	0x50
 2398 0e59 02       		.uleb128 0x2
 2399 0e5a 74       		.byte	0x74
 2400 0e5b 00       		.sleb128 0
 2401 0e5c 00       		.byte	0
 2402 0e5d 00       		.byte	0
 2403 0e5e 17       		.uleb128 0x17
 2404 0e5f 81070000 		.4byte	0x781
 2405 0e63 6E0E0000 		.4byte	0xe6e
 2406 0e67 18       		.uleb128 0x18
 2407 0e68 70040000 		.4byte	0x470
 2408 0e6c 07       		.byte	0x7
 2409 0e6d 00       		.byte	0
 2410 0e6e 16       		.uleb128 0x16
 2411 0e6f 5E0E0000 		.4byte	0xe5e
 2412 0e73 24       		.uleb128 0x24
 2413 0e74 18080000 		.4byte	.LASF188
 2414 0e78 01       		.byte	0x1
 2415 0e79 8F       		.byte	0x8f
 2416 0e7a 00000000 		.4byte	.LFB211
 2417 0e7e 1E000000 		.4byte	.LFE211-.LFB211
 2418 0e82 01       		.uleb128 0x1
 2419 0e83 9C       		.byte	0x9c
 2420 0e84 C20F0000 		.4byte	0xfc2
 2421 0e88 26       		.uleb128 0x26
 2422 0e89 18090000 		.4byte	.LASF177
 2423 0e8d 01       		.byte	0x1
 2424 0e8e 8F       		.byte	0x8f
 2425 0e8f 58090000 		.4byte	0x958
 2426 0e93 BB000000 		.4byte	.LLST5
 2427 0e97 26       		.uleb128 0x26
 2428 0e98 28040000 		.4byte	.LASF149
 2429 0e9c 01       		.byte	0x1
 2430 0e9d 90       		.byte	0x90
 2431 0e9e 590A0000 		.4byte	0xa59
 2432 0ea2 DC000000 		.4byte	.LLST6
 2433 0ea6 26       		.uleb128 0x26
 2434 0ea7 46040000 		.4byte	.LASF147
 2435 0eab 01       		.byte	0x1
 2436 0eac 91       		.byte	0x91
ARM GAS  /tmp/cclwjtNS.s 			page 44


 2437 0ead 5E090000 		.4byte	0x95e
 2438 0eb1 FD000000 		.4byte	.LLST7
 2439 0eb5 26       		.uleb128 0x26
 2440 0eb6 E8000000 		.4byte	.LASF148
 2441 0eba 01       		.byte	0x1
 2442 0ebb 92       		.byte	0x92
 2443 0ebc 28000000 		.4byte	0x28
 2444 0ec0 1E010000 		.4byte	.LLST8
 2445 0ec4 2F       		.uleb128 0x2f
 2446 0ec5 F30A0000 		.4byte	0xaf3
 2447 0ec9 02000000 		.4byte	.LBB139
 2448 0ecd 06000000 		.4byte	.LBE139-.LBB139
 2449 0ed1 01       		.byte	0x1
 2450 0ed2 94       		.byte	0x94
 2451 0ed3 110F0000 		.4byte	0xf11
 2452 0ed7 30       		.uleb128 0x30
 2453 0ed8 A10A0000 		.4byte	0xaa1
 2454 0edc 02000000 		.4byte	.LBB140
 2455 0ee0 06000000 		.4byte	.LBE140-.LBB140
 2456 0ee4 02       		.byte	0x2
 2457 0ee5 ED01     		.2byte	0x1ed
 2458 0ee7 30       		.uleb128 0x30
 2459 0ee8 8F0A0000 		.4byte	0xa8f
 2460 0eec 02000000 		.4byte	.LBB141
 2461 0ef0 06000000 		.4byte	.LBE141-.LBB141
 2462 0ef4 13       		.byte	0x13
 2463 0ef5 5C01     		.2byte	0x15c
 2464 0ef7 30       		.uleb128 0x30
 2465 0ef8 750A0000 		.4byte	0xa75
 2466 0efc 02000000 		.4byte	.LBB142
 2467 0f00 06000000 		.4byte	.LBE142-.LBB142
 2468 0f04 0C       		.byte	0xc
 2469 0f05 D001     		.2byte	0x1d0
 2470 0f07 2E       		.uleb128 0x2e
 2471 0f08 820A0000 		.4byte	0xa82
 2472 0f0c 20       		.byte	0x20
 2473 0f0d 00       		.byte	0
 2474 0f0e 00       		.byte	0
 2475 0f0f 00       		.byte	0
 2476 0f10 00       		.byte	0
 2477 0f11 2F       		.uleb128 0x2f
 2478 0f12 050B0000 		.4byte	0xb05
 2479 0f16 08000000 		.4byte	.LBB144
 2480 0f1a 0E000000 		.4byte	.LBE144-.LBB144
 2481 0f1e 01       		.byte	0x1
 2482 0f1f 95       		.byte	0x95
 2483 0f20 690F0000 		.4byte	0xf69
 2484 0f24 28       		.uleb128 0x28
 2485 0f25 320B0000 		.4byte	0xb32
 2486 0f29 3F010000 		.4byte	.LLST9
 2487 0f2d 28       		.uleb128 0x28
 2488 0f2e 270B0000 		.4byte	0xb27
 2489 0f32 60010000 		.4byte	.LLST10
 2490 0f36 28       		.uleb128 0x28
 2491 0f37 1C0B0000 		.4byte	0xb1c
 2492 0f3b 81010000 		.4byte	.LLST11
 2493 0f3f 28       		.uleb128 0x28
ARM GAS  /tmp/cclwjtNS.s 			page 45


 2494 0f40 110B0000 		.4byte	0xb11
 2495 0f44 A2010000 		.4byte	.LLST12
 2496 0f48 31       		.uleb128 0x31
 2497 0f49 08000000 		.4byte	.LBB145
 2498 0f4d 0E000000 		.4byte	.LBE145-.LBB145
 2499 0f51 32       		.uleb128 0x32
 2500 0f52 3D0B0000 		.4byte	0xb3d
 2501 0f56 33       		.uleb128 0x33
 2502 0f57 16000000 		.4byte	.LVL13
 2503 0f5b B7140000 		.4byte	0x14b7
 2504 0f5f 2A       		.uleb128 0x2a
 2505 0f60 01       		.uleb128 0x1
 2506 0f61 50       		.byte	0x50
 2507 0f62 03       		.uleb128 0x3
 2508 0f63 F3       		.byte	0xf3
 2509 0f64 01       		.uleb128 0x1
 2510 0f65 50       		.byte	0x50
 2511 0f66 00       		.byte	0
 2512 0f67 00       		.byte	0
 2513 0f68 00       		.byte	0
 2514 0f69 27       		.uleb128 0x27
 2515 0f6a FC0A0000 		.4byte	0xafc
 2516 0f6e 16000000 		.4byte	.LBB146
 2517 0f72 08000000 		.4byte	.LBE146-.LBB146
 2518 0f76 01       		.byte	0x1
 2519 0f77 96       		.byte	0x96
 2520 0f78 30       		.uleb128 0x30
 2521 0f79 AA0A0000 		.4byte	0xaaa
 2522 0f7d 16000000 		.4byte	.LBB147
 2523 0f81 08000000 		.4byte	.LBE147-.LBB147
 2524 0f85 02       		.byte	0x2
 2525 0f86 F801     		.2byte	0x1f8
 2526 0f88 31       		.uleb128 0x31
 2527 0f89 16000000 		.4byte	.LBB148
 2528 0f8d 08000000 		.4byte	.LBE148-.LBB148
 2529 0f91 32       		.uleb128 0x32
 2530 0f92 B70A0000 		.4byte	0xab7
 2531 0f96 30       		.uleb128 0x30
 2532 0f97 980A0000 		.4byte	0xa98
 2533 0f9b 16000000 		.4byte	.LBB149
 2534 0f9f 08000000 		.4byte	.LBE149-.LBB149
 2535 0fa3 13       		.byte	0x13
 2536 0fa4 7301     		.2byte	0x173
 2537 0fa6 30       		.uleb128 0x30
 2538 0fa7 750A0000 		.4byte	0xa75
 2539 0fab 16000000 		.4byte	.LBB150
 2540 0faf 08000000 		.4byte	.LBE150-.LBB150
 2541 0fb3 0C       		.byte	0xc
 2542 0fb4 E301     		.2byte	0x1e3
 2543 0fb6 2E       		.uleb128 0x2e
 2544 0fb7 820A0000 		.4byte	0xa82
 2545 0fbb 00       		.byte	0
 2546 0fbc 00       		.byte	0
 2547 0fbd 00       		.byte	0
 2548 0fbe 00       		.byte	0
 2549 0fbf 00       		.byte	0
 2550 0fc0 00       		.byte	0
ARM GAS  /tmp/cclwjtNS.s 			page 46


 2551 0fc1 00       		.byte	0
 2552 0fc2 34       		.uleb128 0x34
 2553 0fc3 050B0000 		.4byte	0xb05
 2554 0fc7 00000000 		.4byte	.LFB212
 2555 0fcb 12000000 		.4byte	.LFE212-.LFB212
 2556 0fcf 01       		.uleb128 0x1
 2557 0fd0 9C       		.byte	0x9c
 2558 0fd1 10100000 		.4byte	0x1010
 2559 0fd5 28       		.uleb128 0x28
 2560 0fd6 110B0000 		.4byte	0xb11
 2561 0fda C3010000 		.4byte	.LLST13
 2562 0fde 28       		.uleb128 0x28
 2563 0fdf 1C0B0000 		.4byte	0xb1c
 2564 0fe3 E4010000 		.4byte	.LLST14
 2565 0fe7 28       		.uleb128 0x28
 2566 0fe8 270B0000 		.4byte	0xb27
 2567 0fec 05020000 		.4byte	.LLST15
 2568 0ff0 28       		.uleb128 0x28
 2569 0ff1 320B0000 		.4byte	0xb32
 2570 0ff5 26020000 		.4byte	.LLST16
 2571 0ff9 32       		.uleb128 0x32
 2572 0ffa 3D0B0000 		.4byte	0xb3d
 2573 0ffe 29       		.uleb128 0x29
 2574 0fff 12000000 		.4byte	.LVL15
 2575 1003 B7140000 		.4byte	0x14b7
 2576 1007 2A       		.uleb128 0x2a
 2577 1008 01       		.uleb128 0x1
 2578 1009 50       		.byte	0x50
 2579 100a 03       		.uleb128 0x3
 2580 100b F3       		.byte	0xf3
 2581 100c 01       		.uleb128 0x1
 2582 100d 50       		.byte	0x50
 2583 100e 00       		.byte	0
 2584 100f 00       		.byte	0
 2585 1010 24       		.uleb128 0x24
 2586 1011 1D090000 		.4byte	.LASF189
 2587 1015 01       		.byte	0x1
 2588 1016 C9       		.byte	0xc9
 2589 1017 00000000 		.4byte	.LFB213
 2590 101b 38000000 		.4byte	.LFE213-.LFB213
 2591 101f 01       		.uleb128 0x1
 2592 1020 9C       		.byte	0x9c
 2593 1021 33110000 		.4byte	0x1133
 2594 1025 26       		.uleb128 0x26
 2595 1026 18090000 		.4byte	.LASF177
 2596 102a 01       		.byte	0x1
 2597 102b C9       		.byte	0xc9
 2598 102c 58090000 		.4byte	0x958
 2599 1030 47020000 		.4byte	.LLST17
 2600 1034 2B       		.uleb128 0x2b
 2601 1035 FF050000 		.4byte	.LASF178
 2602 1039 43110000 		.4byte	0x1143
 2603 103d 2F       		.uleb128 0x2f
 2604 103e F30A0000 		.4byte	0xaf3
 2605 1042 00000000 		.4byte	.LBB152
 2606 1046 06000000 		.4byte	.LBE152-.LBB152
 2607 104a 01       		.byte	0x1
ARM GAS  /tmp/cclwjtNS.s 			page 47


 2608 104b CD       		.byte	0xcd
 2609 104c 8A100000 		.4byte	0x108a
 2610 1050 30       		.uleb128 0x30
 2611 1051 A10A0000 		.4byte	0xaa1
 2612 1055 00000000 		.4byte	.LBB153
 2613 1059 06000000 		.4byte	.LBE153-.LBB153
 2614 105d 02       		.byte	0x2
 2615 105e ED01     		.2byte	0x1ed
 2616 1060 30       		.uleb128 0x30
 2617 1061 8F0A0000 		.4byte	0xa8f
 2618 1065 00000000 		.4byte	.LBB154
 2619 1069 06000000 		.4byte	.LBE154-.LBB154
 2620 106d 13       		.byte	0x13
 2621 106e 5C01     		.2byte	0x15c
 2622 1070 30       		.uleb128 0x30
 2623 1071 750A0000 		.4byte	0xa75
 2624 1075 00000000 		.4byte	.LBB155
 2625 1079 06000000 		.4byte	.LBE155-.LBB155
 2626 107d 0C       		.byte	0xc
 2627 107e D001     		.2byte	0x1d0
 2628 1080 2E       		.uleb128 0x2e
 2629 1081 820A0000 		.4byte	0xa82
 2630 1085 20       		.byte	0x20
 2631 1086 00       		.byte	0
 2632 1087 00       		.byte	0
 2633 1088 00       		.byte	0
 2634 1089 00       		.byte	0
 2635 108a 2C       		.uleb128 0x2c
 2636 108b 600B0000 		.4byte	0xb60
 2637 108f 1C000000 		.4byte	.LBB157
 2638 1093 30000000 		.4byte	.Ldebug_ranges0+0x30
 2639 1097 01       		.byte	0x1
 2640 1098 D4       		.byte	0xd4
 2641 1099 C6100000 		.4byte	0x10c6
 2642 109d 28       		.uleb128 0x28
 2643 109e 790B0000 		.4byte	0xb79
 2644 10a2 70020000 		.4byte	.LLST18
 2645 10a6 28       		.uleb128 0x28
 2646 10a7 6D0B0000 		.4byte	0xb6d
 2647 10ab 85020000 		.4byte	.LLST19
 2648 10af 33       		.uleb128 0x33
 2649 10b0 28000000 		.4byte	.LVL19
 2650 10b4 C9140000 		.4byte	0x14c9
 2651 10b8 2A       		.uleb128 0x2a
 2652 10b9 01       		.uleb128 0x1
 2653 10ba 51       		.byte	0x51
 2654 10bb 02       		.uleb128 0x2
 2655 10bc 09       		.byte	0x9
 2656 10bd FE       		.byte	0xfe
 2657 10be 2A       		.uleb128 0x2a
 2658 10bf 01       		.uleb128 0x1
 2659 10c0 50       		.byte	0x50
 2660 10c1 02       		.uleb128 0x2
 2661 10c2 74       		.byte	0x74
 2662 10c3 14       		.sleb128 20
 2663 10c4 00       		.byte	0
 2664 10c5 00       		.byte	0
ARM GAS  /tmp/cclwjtNS.s 			page 48


 2665 10c6 2F       		.uleb128 0x2f
 2666 10c7 FC0A0000 		.4byte	0xafc
 2667 10cb 28000000 		.4byte	.LBB161
 2668 10cf 10000000 		.4byte	.LBE161-.LBB161
 2669 10d3 01       		.byte	0x1
 2670 10d4 D6       		.byte	0xd6
 2671 10d5 22110000 		.4byte	0x1122
 2672 10d9 30       		.uleb128 0x30
 2673 10da AA0A0000 		.4byte	0xaaa
 2674 10de 28000000 		.4byte	.LBB162
 2675 10e2 10000000 		.4byte	.LBE162-.LBB162
 2676 10e6 02       		.byte	0x2
 2677 10e7 F801     		.2byte	0x1f8
 2678 10e9 31       		.uleb128 0x31
 2679 10ea 28000000 		.4byte	.LBB163
 2680 10ee 10000000 		.4byte	.LBE163-.LBB163
 2681 10f2 32       		.uleb128 0x32
 2682 10f3 B70A0000 		.4byte	0xab7
 2683 10f7 30       		.uleb128 0x30
 2684 10f8 980A0000 		.4byte	0xa98
 2685 10fc 28000000 		.4byte	.LBB164
 2686 1100 10000000 		.4byte	.LBE164-.LBB164
 2687 1104 13       		.byte	0x13
 2688 1105 7301     		.2byte	0x173
 2689 1107 30       		.uleb128 0x30
 2690 1108 750A0000 		.4byte	0xa75
 2691 110c 28000000 		.4byte	.LBB165
 2692 1110 10000000 		.4byte	.LBE165-.LBB165
 2693 1114 0C       		.byte	0xc
 2694 1115 E301     		.2byte	0x1e3
 2695 1117 2E       		.uleb128 0x2e
 2696 1118 820A0000 		.4byte	0xa82
 2697 111c 00       		.byte	0
 2698 111d 00       		.byte	0
 2699 111e 00       		.byte	0
 2700 111f 00       		.byte	0
 2701 1120 00       		.byte	0
 2702 1121 00       		.byte	0
 2703 1122 33       		.uleb128 0x33
 2704 1123 14000000 		.4byte	.LVL17
 2705 1127 DF140000 		.4byte	0x14df
 2706 112b 2A       		.uleb128 0x2a
 2707 112c 01       		.uleb128 0x1
 2708 112d 50       		.byte	0x50
 2709 112e 02       		.uleb128 0x2
 2710 112f 74       		.byte	0x74
 2711 1130 00       		.sleb128 0
 2712 1131 00       		.byte	0
 2713 1132 00       		.byte	0
 2714 1133 17       		.uleb128 0x17
 2715 1134 81070000 		.4byte	0x781
 2716 1138 43110000 		.4byte	0x1143
 2717 113c 18       		.uleb128 0x18
 2718 113d 70040000 		.4byte	0x470
 2719 1141 11       		.byte	0x11
 2720 1142 00       		.byte	0
 2721 1143 16       		.uleb128 0x16
ARM GAS  /tmp/cclwjtNS.s 			page 49


 2722 1144 33110000 		.4byte	0x1133
 2723 1148 24       		.uleb128 0x24
 2724 1149 90080000 		.4byte	.LASF190
 2725 114d 01       		.byte	0x1
 2726 114e E3       		.byte	0xe3
 2727 114f 00000000 		.4byte	.LFB214
 2728 1153 28000000 		.4byte	.LFE214-.LFB214
 2729 1157 01       		.uleb128 0x1
 2730 1158 9C       		.byte	0x9c
 2731 1159 C5110000 		.4byte	0x11c5
 2732 115d 26       		.uleb128 0x26
 2733 115e 18090000 		.4byte	.LASF177
 2734 1162 01       		.byte	0x1
 2735 1163 E3       		.byte	0xe3
 2736 1164 58090000 		.4byte	0x958
 2737 1168 9A020000 		.4byte	.LLST20
 2738 116c 2B       		.uleb128 0x2b
 2739 116d FF050000 		.4byte	.LASF178
 2740 1171 D5110000 		.4byte	0x11d5
 2741 1175 2C       		.uleb128 0x2c
 2742 1176 860B0000 		.4byte	0xb86
 2743 117a 16000000 		.4byte	.LBB167
 2744 117e 48000000 		.4byte	.Ldebug_ranges0+0x48
 2745 1182 01       		.byte	0x1
 2746 1183 F0       		.byte	0xf0
 2747 1184 B4110000 		.4byte	0x11b4
 2748 1188 28       		.uleb128 0x28
 2749 1189 9F0B0000 		.4byte	0xb9f
 2750 118d DE020000 		.4byte	.LLST21
 2751 1191 28       		.uleb128 0x28
 2752 1192 930B0000 		.4byte	0xb93
 2753 1196 F3020000 		.4byte	.LLST22
 2754 119a 29       		.uleb128 0x29
 2755 119b 26000000 		.4byte	.LVL25
 2756 119f F1140000 		.4byte	0x14f1
 2757 11a3 2A       		.uleb128 0x2a
 2758 11a4 01       		.uleb128 0x1
 2759 11a5 51       		.byte	0x51
 2760 11a6 02       		.uleb128 0x2
 2761 11a7 09       		.byte	0x9
 2762 11a8 FE       		.byte	0xfe
 2763 11a9 2A       		.uleb128 0x2a
 2764 11aa 01       		.uleb128 0x1
 2765 11ab 50       		.byte	0x50
 2766 11ac 05       		.uleb128 0x5
 2767 11ad F3       		.byte	0xf3
 2768 11ae 01       		.uleb128 0x1
 2769 11af 50       		.byte	0x50
 2770 11b0 23       		.byte	0x23
 2771 11b1 14       		.uleb128 0x14
 2772 11b2 00       		.byte	0
 2773 11b3 00       		.byte	0
 2774 11b4 33       		.uleb128 0x33
 2775 11b5 0E000000 		.4byte	.LVL22
 2776 11b9 DF140000 		.4byte	0x14df
 2777 11bd 2A       		.uleb128 0x2a
 2778 11be 01       		.uleb128 0x1
ARM GAS  /tmp/cclwjtNS.s 			page 50


 2779 11bf 50       		.byte	0x50
 2780 11c0 02       		.uleb128 0x2
 2781 11c1 74       		.byte	0x74
 2782 11c2 00       		.sleb128 0
 2783 11c3 00       		.byte	0
 2784 11c4 00       		.byte	0
 2785 11c5 17       		.uleb128 0x17
 2786 11c6 81070000 		.4byte	0x781
 2787 11ca D5110000 		.4byte	0x11d5
 2788 11ce 18       		.uleb128 0x18
 2789 11cf 70040000 		.4byte	0x470
 2790 11d3 12       		.byte	0x12
 2791 11d4 00       		.byte	0
 2792 11d5 16       		.uleb128 0x16
 2793 11d6 C5110000 		.4byte	0x11c5
 2794 11da 35       		.uleb128 0x35
 2795 11db 76020000 		.4byte	.LASF205
 2796 11df 01       		.byte	0x1
 2797 11e0 0C01     		.2byte	0x10c
 2798 11e2 22010000 		.4byte	0x122
 2799 11e6 00000000 		.4byte	.LFB215
 2800 11ea 28000000 		.4byte	.LFE215-.LFB215
 2801 11ee 01       		.uleb128 0x1
 2802 11ef 9C       		.byte	0x9c
 2803 11f0 75130000 		.4byte	0x1375
 2804 11f4 36       		.uleb128 0x36
 2805 11f5 18090000 		.4byte	.LASF177
 2806 11f9 01       		.byte	0x1
 2807 11fa 0C01     		.2byte	0x10c
 2808 11fc 58090000 		.4byte	0x958
 2809 1200 23030000 		.4byte	.LLST23
 2810 1204 36       		.uleb128 0x36
 2811 1205 28040000 		.4byte	.LASF149
 2812 1209 01       		.byte	0x1
 2813 120a 0D01     		.2byte	0x10d
 2814 120c 590A0000 		.4byte	0xa59
 2815 1210 43030000 		.4byte	.LLST24
 2816 1214 36       		.uleb128 0x36
 2817 1215 46040000 		.4byte	.LASF147
 2818 1219 01       		.byte	0x1
 2819 121a 0E01     		.2byte	0x10e
 2820 121c 5E090000 		.4byte	0x95e
 2821 1220 64030000 		.4byte	.LLST25
 2822 1224 36       		.uleb128 0x36
 2823 1225 E8000000 		.4byte	.LASF148
 2824 1229 01       		.byte	0x1
 2825 122a 0F01     		.2byte	0x10f
 2826 122c 28000000 		.4byte	0x28
 2827 1230 85030000 		.4byte	.LLST26
 2828 1234 37       		.uleb128 0x37
 2829 1235 6D736700 		.ascii	"msg\000"
 2830 1239 01       		.byte	0x1
 2831 123a 1001     		.2byte	0x110
 2832 123c 22010000 		.4byte	0x122
 2833 1240 2B       		.uleb128 0x2b
 2834 1241 FF050000 		.4byte	.LASF178
 2835 1245 85130000 		.4byte	0x1385
ARM GAS  /tmp/cclwjtNS.s 			page 51


 2836 1249 38       		.uleb128 0x38
 2837 124a F30A0000 		.4byte	0xaf3
 2838 124e 02000000 		.4byte	.LBB171
 2839 1252 06000000 		.4byte	.LBE171-.LBB171
 2840 1256 01       		.byte	0x1
 2841 1257 1201     		.2byte	0x112
 2842 1259 97120000 		.4byte	0x1297
 2843 125d 30       		.uleb128 0x30
 2844 125e A10A0000 		.4byte	0xaa1
 2845 1262 02000000 		.4byte	.LBB172
 2846 1266 06000000 		.4byte	.LBE172-.LBB172
 2847 126a 02       		.byte	0x2
 2848 126b ED01     		.2byte	0x1ed
 2849 126d 30       		.uleb128 0x30
 2850 126e 8F0A0000 		.4byte	0xa8f
 2851 1272 02000000 		.4byte	.LBB173
 2852 1276 06000000 		.4byte	.LBE173-.LBB173
 2853 127a 13       		.byte	0x13
 2854 127b 5C01     		.2byte	0x15c
 2855 127d 30       		.uleb128 0x30
 2856 127e 750A0000 		.4byte	0xa75
 2857 1282 02000000 		.4byte	.LBB174
 2858 1286 06000000 		.4byte	.LBE174-.LBB174
 2859 128a 0C       		.byte	0xc
 2860 128b D001     		.2byte	0x1d0
 2861 128d 2E       		.uleb128 0x2e
 2862 128e 820A0000 		.4byte	0xa82
 2863 1292 20       		.byte	0x20
 2864 1293 00       		.byte	0
 2865 1294 00       		.byte	0
 2866 1295 00       		.byte	0
 2867 1296 00       		.byte	0
 2868 1297 38       		.uleb128 0x38
 2869 1298 050B0000 		.4byte	0xb05
 2870 129c 08000000 		.4byte	.LBB176
 2871 12a0 12000000 		.4byte	.LBE176-.LBB176
 2872 12a4 01       		.byte	0x1
 2873 12a5 1401     		.2byte	0x114
 2874 12a7 EF120000 		.4byte	0x12ef
 2875 12ab 28       		.uleb128 0x28
 2876 12ac 320B0000 		.4byte	0xb32
 2877 12b0 A6030000 		.4byte	.LLST27
 2878 12b4 28       		.uleb128 0x28
 2879 12b5 270B0000 		.4byte	0xb27
 2880 12b9 C7030000 		.4byte	.LLST28
 2881 12bd 28       		.uleb128 0x28
 2882 12be 1C0B0000 		.4byte	0xb1c
 2883 12c2 E8030000 		.4byte	.LLST29
 2884 12c6 28       		.uleb128 0x28
 2885 12c7 110B0000 		.4byte	0xb11
 2886 12cb 09040000 		.4byte	.LLST30
 2887 12cf 31       		.uleb128 0x31
 2888 12d0 08000000 		.4byte	.LBB177
 2889 12d4 12000000 		.4byte	.LBE177-.LBB177
 2890 12d8 32       		.uleb128 0x32
 2891 12d9 3D0B0000 		.4byte	0xb3d
 2892 12dd 33       		.uleb128 0x33
ARM GAS  /tmp/cclwjtNS.s 			page 52


 2893 12de 1A000000 		.4byte	.LVL28
 2894 12e2 B7140000 		.4byte	0x14b7
 2895 12e6 2A       		.uleb128 0x2a
 2896 12e7 01       		.uleb128 0x1
 2897 12e8 50       		.byte	0x50
 2898 12e9 02       		.uleb128 0x2
 2899 12ea 75       		.byte	0x75
 2900 12eb 6C       		.sleb128 -20
 2901 12ec 00       		.byte	0
 2902 12ed 00       		.byte	0
 2903 12ee 00       		.byte	0
 2904 12ef 38       		.uleb128 0x38
 2905 12f0 AC0B0000 		.4byte	0xbac
 2906 12f4 1A000000 		.4byte	.LBB178
 2907 12f8 06000000 		.4byte	.LBE178-.LBB178
 2908 12fc 01       		.byte	0x1
 2909 12fd 1501     		.2byte	0x115
 2910 12ff 1B130000 		.4byte	0x131b
 2911 1303 39       		.uleb128 0x39
 2912 1304 BD0B0000 		.4byte	0xbbd
 2913 1308 01       		.uleb128 0x1
 2914 1309 55       		.byte	0x55
 2915 130a 33       		.uleb128 0x33
 2916 130b 20000000 		.4byte	.LVL29
 2917 130f 07150000 		.4byte	0x1507
 2918 1313 2A       		.uleb128 0x2a
 2919 1314 01       		.uleb128 0x1
 2920 1315 50       		.byte	0x50
 2921 1316 02       		.uleb128 0x2
 2922 1317 75       		.byte	0x75
 2923 1318 00       		.sleb128 0
 2924 1319 00       		.byte	0
 2925 131a 00       		.byte	0
 2926 131b 30       		.uleb128 0x30
 2927 131c FC0A0000 		.4byte	0xafc
 2928 1320 20000000 		.4byte	.LBB180
 2929 1324 06000000 		.4byte	.LBE180-.LBB180
 2930 1328 01       		.byte	0x1
 2931 1329 1601     		.2byte	0x116
 2932 132b 30       		.uleb128 0x30
 2933 132c AA0A0000 		.4byte	0xaaa
 2934 1330 20000000 		.4byte	.LBB181
 2935 1334 06000000 		.4byte	.LBE181-.LBB181
 2936 1338 02       		.byte	0x2
 2937 1339 F801     		.2byte	0x1f8
 2938 133b 31       		.uleb128 0x31
 2939 133c 20000000 		.4byte	.LBB182
 2940 1340 06000000 		.4byte	.LBE182-.LBB182
 2941 1344 32       		.uleb128 0x32
 2942 1345 B70A0000 		.4byte	0xab7
 2943 1349 30       		.uleb128 0x30
 2944 134a 980A0000 		.4byte	0xa98
 2945 134e 20000000 		.4byte	.LBB183
 2946 1352 06000000 		.4byte	.LBE183-.LBB183
 2947 1356 13       		.byte	0x13
 2948 1357 7301     		.2byte	0x173
 2949 1359 30       		.uleb128 0x30
ARM GAS  /tmp/cclwjtNS.s 			page 53


 2950 135a 750A0000 		.4byte	0xa75
 2951 135e 20000000 		.4byte	.LBB184
 2952 1362 06000000 		.4byte	.LBE184-.LBB184
 2953 1366 0C       		.byte	0xc
 2954 1367 E301     		.2byte	0x1e3
 2955 1369 2E       		.uleb128 0x2e
 2956 136a 820A0000 		.4byte	0xa82
 2957 136e 00       		.byte	0
 2958 136f 00       		.byte	0
 2959 1370 00       		.byte	0
 2960 1371 00       		.byte	0
 2961 1372 00       		.byte	0
 2962 1373 00       		.byte	0
 2963 1374 00       		.byte	0
 2964 1375 17       		.uleb128 0x17
 2965 1376 81070000 		.4byte	0x781
 2966 137a 85130000 		.4byte	0x1385
 2967 137e 18       		.uleb128 0x18
 2968 137f 70040000 		.4byte	0x470
 2969 1383 0A       		.byte	0xa
 2970 1384 00       		.byte	0
 2971 1385 16       		.uleb128 0x16
 2972 1386 75130000 		.4byte	0x1375
 2973 138a 3A       		.uleb128 0x3a
 2974 138b 3F090000 		.4byte	.LASF191
 2975 138f 01       		.byte	0x1
 2976 1390 2701     		.2byte	0x127
 2977 1392 00000000 		.4byte	.LFB216
 2978 1396 06000000 		.4byte	.LFE216-.LFB216
 2979 139a 01       		.uleb128 0x1
 2980 139b 9C       		.byte	0x9c
 2981 139c E7130000 		.4byte	0x13e7
 2982 13a0 36       		.uleb128 0x36
 2983 13a1 18090000 		.4byte	.LASF177
 2984 13a5 01       		.byte	0x1
 2985 13a6 2701     		.2byte	0x127
 2986 13a8 58090000 		.4byte	0x958
 2987 13ac 29040000 		.4byte	.LLST31
 2988 13b0 2B       		.uleb128 0x2b
 2989 13b1 FF050000 		.4byte	.LASF178
 2990 13b5 F7130000 		.4byte	0x13f7
 2991 13b9 30       		.uleb128 0x30
 2992 13ba CA0B0000 		.4byte	0xbca
 2993 13be 00000000 		.4byte	.LBB186
 2994 13c2 06000000 		.4byte	.LBE186-.LBB186
 2995 13c6 01       		.byte	0x1
 2996 13c7 2B01     		.2byte	0x12b
 2997 13c9 28       		.uleb128 0x28
 2998 13ca D70B0000 		.4byte	0xbd7
 2999 13ce 57040000 		.4byte	.LLST32
 3000 13d2 29       		.uleb128 0x29
 3001 13d3 06000000 		.4byte	.LVL32
 3002 13d7 1C150000 		.4byte	0x151c
 3003 13db 2A       		.uleb128 0x2a
 3004 13dc 01       		.uleb128 0x1
 3005 13dd 50       		.byte	0x50
 3006 13de 05       		.uleb128 0x5
ARM GAS  /tmp/cclwjtNS.s 			page 54


 3007 13df F3       		.byte	0xf3
 3008 13e0 01       		.uleb128 0x1
 3009 13e1 50       		.byte	0x50
 3010 13e2 23       		.byte	0x23
 3011 13e3 18       		.uleb128 0x18
 3012 13e4 00       		.byte	0
 3013 13e5 00       		.byte	0
 3014 13e6 00       		.byte	0
 3015 13e7 17       		.uleb128 0x17
 3016 13e8 81070000 		.4byte	0x781
 3017 13ec F7130000 		.4byte	0x13f7
 3018 13f0 18       		.uleb128 0x18
 3019 13f1 70040000 		.4byte	0x470
 3020 13f5 0D       		.byte	0xd
 3021 13f6 00       		.byte	0
 3022 13f7 16       		.uleb128 0x16
 3023 13f8 E7130000 		.4byte	0x13e7
 3024 13fc 3A       		.uleb128 0x3a
 3025 13fd 00040000 		.4byte	.LASF192
 3026 1401 01       		.byte	0x1
 3027 1402 3701     		.2byte	0x137
 3028 1404 00000000 		.4byte	.LFB217
 3029 1408 06000000 		.4byte	.LFE217-.LFB217
 3030 140c 01       		.uleb128 0x1
 3031 140d 9C       		.byte	0x9c
 3032 140e 59140000 		.4byte	0x1459
 3033 1412 36       		.uleb128 0x36
 3034 1413 18090000 		.4byte	.LASF177
 3035 1417 01       		.byte	0x1
 3036 1418 3701     		.2byte	0x137
 3037 141a 58090000 		.4byte	0x958
 3038 141e 87040000 		.4byte	.LLST33
 3039 1422 2B       		.uleb128 0x2b
 3040 1423 FF050000 		.4byte	.LASF178
 3041 1427 59140000 		.4byte	0x1459
 3042 142b 30       		.uleb128 0x30
 3043 142c E30B0000 		.4byte	0xbe3
 3044 1430 00000000 		.4byte	.LBB188
 3045 1434 06000000 		.4byte	.LBE188-.LBB188
 3046 1438 01       		.byte	0x1
 3047 1439 3B01     		.2byte	0x13b
 3048 143b 28       		.uleb128 0x28
 3049 143c F00B0000 		.4byte	0xbf0
 3050 1440 B5040000 		.4byte	.LLST34
 3051 1444 29       		.uleb128 0x29
 3052 1445 06000000 		.4byte	.LVL35
 3053 1449 2D150000 		.4byte	0x152d
 3054 144d 2A       		.uleb128 0x2a
 3055 144e 01       		.uleb128 0x1
 3056 144f 50       		.byte	0x50
 3057 1450 05       		.uleb128 0x5
 3058 1451 F3       		.byte	0xf3
 3059 1452 01       		.uleb128 0x1
 3060 1453 50       		.byte	0x50
 3061 1454 23       		.byte	0x23
 3062 1455 18       		.uleb128 0x18
 3063 1456 00       		.byte	0
ARM GAS  /tmp/cclwjtNS.s 			page 55


 3064 1457 00       		.byte	0
 3065 1458 00       		.byte	0
 3066 1459 16       		.uleb128 0x16
 3067 145a E7130000 		.4byte	0x13e7
 3068 145e 3B       		.uleb128 0x3b
 3069 145f 04010000 		.4byte	.LASF193
 3070 1463 15       		.byte	0x15
 3071 1464 5506     		.2byte	0x655
 3072 1466 6A140000 		.4byte	0x146a
 3073 146a 0F       		.uleb128 0xf
 3074 146b BF000000 		.4byte	0xbf
 3075 146f 3C       		.uleb128 0x3c
 3076 1470 636800   		.ascii	"ch\000"
 3077 1473 09       		.byte	0x9
 3078 1474 0902     		.2byte	0x209
 3079 1476 09040000 		.4byte	0x409
 3080 147a 3D       		.uleb128 0x3d
 3081 147b 39040000 		.4byte	.LASF206
 3082 147f 12       		.byte	0x12
 3083 1480 2902     		.2byte	0x229
 3084 1482 3E       		.uleb128 0x3e
 3085 1483 69050000 		.4byte	.LASF194
 3086 1487 0F       		.byte	0xf
 3087 1488 67       		.byte	0x67
 3088 1489 93140000 		.4byte	0x1493
 3089 148d 0C       		.uleb128 0xc
 3090 148e B3070000 		.4byte	0x7b3
 3091 1492 00       		.byte	0
 3092 1493 3F       		.uleb128 0x3f
 3093 1494 38080000 		.4byte	.LASF195
 3094 1498 12       		.byte	0x12
 3095 1499 2A02     		.2byte	0x22a
 3096 149b A5140000 		.4byte	0x14a5
 3097 149f 0C       		.uleb128 0xc
 3098 14a0 58090000 		.4byte	0x958
 3099 14a4 00       		.byte	0
 3100 14a5 3F       		.uleb128 0x3f
 3101 14a6 96000000 		.4byte	.LASF196
 3102 14aa 12       		.byte	0x12
 3103 14ab 2B02     		.2byte	0x22b
 3104 14ad B7140000 		.4byte	0x14b7
 3105 14b1 0C       		.uleb128 0xc
 3106 14b2 58090000 		.4byte	0x958
 3107 14b6 00       		.byte	0
 3108 14b7 3F       		.uleb128 0x3f
 3109 14b8 F0010000 		.4byte	.LASF197
 3110 14bc 12       		.byte	0x12
 3111 14bd 2C02     		.2byte	0x22c
 3112 14bf C9140000 		.4byte	0x14c9
 3113 14c3 0C       		.uleb128 0xc
 3114 14c4 58090000 		.4byte	0x958
 3115 14c8 00       		.byte	0
 3116 14c9 3E       		.uleb128 0x3e
 3117 14ca BB020000 		.4byte	.LASF198
 3118 14ce 14       		.byte	0x14
 3119 14cf 90       		.byte	0x90
 3120 14d0 DF140000 		.4byte	0x14df
ARM GAS  /tmp/cclwjtNS.s 			page 56


 3121 14d4 0C       		.uleb128 0xc
 3122 14d5 0E070000 		.4byte	0x70e
 3123 14d9 0C       		.uleb128 0xc
 3124 14da 22010000 		.4byte	0x122
 3125 14de 00       		.byte	0
 3126 14df 3F       		.uleb128 0x3f
 3127 14e0 AF050000 		.4byte	.LASF199
 3128 14e4 12       		.byte	0x12
 3129 14e5 2D02     		.2byte	0x22d
 3130 14e7 F1140000 		.4byte	0x14f1
 3131 14eb 0C       		.uleb128 0xc
 3132 14ec 58090000 		.4byte	0x958
 3133 14f0 00       		.byte	0
 3134 14f1 3E       		.uleb128 0x3e
 3135 14f2 8D020000 		.4byte	.LASF200
 3136 14f6 14       		.byte	0x14
 3137 14f7 8F       		.byte	0x8f
 3138 14f8 07150000 		.4byte	0x1507
 3139 14fc 0C       		.uleb128 0xc
 3140 14fd 0E070000 		.4byte	0x70e
 3141 1501 0C       		.uleb128 0xc
 3142 1502 22010000 		.4byte	0x122
 3143 1506 00       		.byte	0
 3144 1507 40       		.uleb128 0x40
 3145 1508 FC040000 		.4byte	.LASF207
 3146 150c 14       		.byte	0x14
 3147 150d 8D       		.byte	0x8d
 3148 150e 22010000 		.4byte	0x122
 3149 1512 1C150000 		.4byte	0x151c
 3150 1516 0C       		.uleb128 0xc
 3151 1517 0E070000 		.4byte	0x70e
 3152 151b 00       		.byte	0
 3153 151c 3E       		.uleb128 0x3e
 3154 151d AB040000 		.4byte	.LASF201
 3155 1521 0F       		.byte	0xf
 3156 1522 68       		.byte	0x68
 3157 1523 2D150000 		.4byte	0x152d
 3158 1527 0C       		.uleb128 0xc
 3159 1528 B3070000 		.4byte	0x7b3
 3160 152c 00       		.byte	0
 3161 152d 41       		.uleb128 0x41
 3162 152e 6E010000 		.4byte	.LASF208
 3163 1532 0F       		.byte	0xf
 3164 1533 6C       		.byte	0x6c
 3165 1534 0C       		.uleb128 0xc
 3166 1535 B3070000 		.4byte	0x7b3
 3167 1539 00       		.byte	0
 3168 153a 00       		.byte	0
 3169              		.section	.debug_abbrev,"",%progbits
 3170              	.Ldebug_abbrev0:
 3171 0000 01       		.uleb128 0x1
 3172 0001 11       		.uleb128 0x11
 3173 0002 01       		.byte	0x1
 3174 0003 25       		.uleb128 0x25
 3175 0004 0E       		.uleb128 0xe
 3176 0005 13       		.uleb128 0x13
 3177 0006 0B       		.uleb128 0xb
ARM GAS  /tmp/cclwjtNS.s 			page 57


 3178 0007 03       		.uleb128 0x3
 3179 0008 0E       		.uleb128 0xe
 3180 0009 55       		.uleb128 0x55
 3181 000a 17       		.uleb128 0x17
 3182 000b 11       		.uleb128 0x11
 3183 000c 01       		.uleb128 0x1
 3184 000d 10       		.uleb128 0x10
 3185 000e 17       		.uleb128 0x17
 3186 000f 00       		.byte	0
 3187 0010 00       		.byte	0
 3188 0011 02       		.uleb128 0x2
 3189 0012 24       		.uleb128 0x24
 3190 0013 00       		.byte	0
 3191 0014 0B       		.uleb128 0xb
 3192 0015 0B       		.uleb128 0xb
 3193 0016 3E       		.uleb128 0x3e
 3194 0017 0B       		.uleb128 0xb
 3195 0018 03       		.uleb128 0x3
 3196 0019 08       		.uleb128 0x8
 3197 001a 00       		.byte	0
 3198 001b 00       		.byte	0
 3199 001c 03       		.uleb128 0x3
 3200 001d 16       		.uleb128 0x16
 3201 001e 00       		.byte	0
 3202 001f 03       		.uleb128 0x3
 3203 0020 0E       		.uleb128 0xe
 3204 0021 3A       		.uleb128 0x3a
 3205 0022 0B       		.uleb128 0xb
 3206 0023 3B       		.uleb128 0x3b
 3207 0024 0B       		.uleb128 0xb
 3208 0025 49       		.uleb128 0x49
 3209 0026 13       		.uleb128 0x13
 3210 0027 00       		.byte	0
 3211 0028 00       		.byte	0
 3212 0029 04       		.uleb128 0x4
 3213 002a 24       		.uleb128 0x24
 3214 002b 00       		.byte	0
 3215 002c 0B       		.uleb128 0xb
 3216 002d 0B       		.uleb128 0xb
 3217 002e 3E       		.uleb128 0x3e
 3218 002f 0B       		.uleb128 0xb
 3219 0030 03       		.uleb128 0x3
 3220 0031 0E       		.uleb128 0xe
 3221 0032 00       		.byte	0
 3222 0033 00       		.byte	0
 3223 0034 05       		.uleb128 0x5
 3224 0035 13       		.uleb128 0x13
 3225 0036 01       		.byte	0x1
 3226 0037 03       		.uleb128 0x3
 3227 0038 0E       		.uleb128 0xe
 3228 0039 0B       		.uleb128 0xb
 3229 003a 0B       		.uleb128 0xb
 3230 003b 3A       		.uleb128 0x3a
 3231 003c 0B       		.uleb128 0xb
 3232 003d 3B       		.uleb128 0x3b
 3233 003e 0B       		.uleb128 0xb
 3234 003f 01       		.uleb128 0x1
ARM GAS  /tmp/cclwjtNS.s 			page 58


 3235 0040 13       		.uleb128 0x13
 3236 0041 00       		.byte	0
 3237 0042 00       		.byte	0
 3238 0043 06       		.uleb128 0x6
 3239 0044 0D       		.uleb128 0xd
 3240 0045 00       		.byte	0
 3241 0046 03       		.uleb128 0x3
 3242 0047 0E       		.uleb128 0xe
 3243 0048 3A       		.uleb128 0x3a
 3244 0049 0B       		.uleb128 0xb
 3245 004a 3B       		.uleb128 0x3b
 3246 004b 0B       		.uleb128 0xb
 3247 004c 49       		.uleb128 0x49
 3248 004d 13       		.uleb128 0x13
 3249 004e 38       		.uleb128 0x38
 3250 004f 0B       		.uleb128 0xb
 3251 0050 00       		.byte	0
 3252 0051 00       		.byte	0
 3253 0052 07       		.uleb128 0x7
 3254 0053 0D       		.uleb128 0xd
 3255 0054 00       		.byte	0
 3256 0055 03       		.uleb128 0x3
 3257 0056 08       		.uleb128 0x8
 3258 0057 3A       		.uleb128 0x3a
 3259 0058 0B       		.uleb128 0xb
 3260 0059 3B       		.uleb128 0x3b
 3261 005a 05       		.uleb128 0x5
 3262 005b 49       		.uleb128 0x49
 3263 005c 13       		.uleb128 0x13
 3264 005d 38       		.uleb128 0x38
 3265 005e 0B       		.uleb128 0xb
 3266 005f 00       		.byte	0
 3267 0060 00       		.byte	0
 3268 0061 08       		.uleb128 0x8
 3269 0062 0D       		.uleb128 0xd
 3270 0063 00       		.byte	0
 3271 0064 03       		.uleb128 0x3
 3272 0065 0E       		.uleb128 0xe
 3273 0066 3A       		.uleb128 0x3a
 3274 0067 0B       		.uleb128 0xb
 3275 0068 3B       		.uleb128 0x3b
 3276 0069 05       		.uleb128 0x5
 3277 006a 49       		.uleb128 0x49
 3278 006b 13       		.uleb128 0x13
 3279 006c 38       		.uleb128 0x38
 3280 006d 0B       		.uleb128 0xb
 3281 006e 00       		.byte	0
 3282 006f 00       		.byte	0
 3283 0070 09       		.uleb128 0x9
 3284 0071 0F       		.uleb128 0xf
 3285 0072 00       		.byte	0
 3286 0073 0B       		.uleb128 0xb
 3287 0074 0B       		.uleb128 0xb
 3288 0075 49       		.uleb128 0x49
 3289 0076 13       		.uleb128 0x13
 3290 0077 00       		.byte	0
 3291 0078 00       		.byte	0
ARM GAS  /tmp/cclwjtNS.s 			page 59


 3292 0079 0A       		.uleb128 0xa
 3293 007a 13       		.uleb128 0x13
 3294 007b 01       		.byte	0x1
 3295 007c 03       		.uleb128 0x3
 3296 007d 0E       		.uleb128 0xe
 3297 007e 0B       		.uleb128 0xb
 3298 007f 0B       		.uleb128 0xb
 3299 0080 3A       		.uleb128 0x3a
 3300 0081 0B       		.uleb128 0xb
 3301 0082 3B       		.uleb128 0x3b
 3302 0083 05       		.uleb128 0x5
 3303 0084 01       		.uleb128 0x1
 3304 0085 13       		.uleb128 0x13
 3305 0086 00       		.byte	0
 3306 0087 00       		.byte	0
 3307 0088 0B       		.uleb128 0xb
 3308 0089 15       		.uleb128 0x15
 3309 008a 01       		.byte	0x1
 3310 008b 27       		.uleb128 0x27
 3311 008c 19       		.uleb128 0x19
 3312 008d 01       		.uleb128 0x1
 3313 008e 13       		.uleb128 0x13
 3314 008f 00       		.byte	0
 3315 0090 00       		.byte	0
 3316 0091 0C       		.uleb128 0xc
 3317 0092 05       		.uleb128 0x5
 3318 0093 00       		.byte	0
 3319 0094 49       		.uleb128 0x49
 3320 0095 13       		.uleb128 0x13
 3321 0096 00       		.byte	0
 3322 0097 00       		.byte	0
 3323 0098 0D       		.uleb128 0xd
 3324 0099 0F       		.uleb128 0xf
 3325 009a 00       		.byte	0
 3326 009b 0B       		.uleb128 0xb
 3327 009c 0B       		.uleb128 0xb
 3328 009d 00       		.byte	0
 3329 009e 00       		.byte	0
 3330 009f 0E       		.uleb128 0xe
 3331 00a0 13       		.uleb128 0x13
 3332 00a1 01       		.byte	0x1
 3333 00a2 03       		.uleb128 0x3
 3334 00a3 0E       		.uleb128 0xe
 3335 00a4 0B       		.uleb128 0xb
 3336 00a5 05       		.uleb128 0x5
 3337 00a6 3A       		.uleb128 0x3a
 3338 00a7 0B       		.uleb128 0xb
 3339 00a8 3B       		.uleb128 0x3b
 3340 00a9 05       		.uleb128 0x5
 3341 00aa 01       		.uleb128 0x1
 3342 00ab 13       		.uleb128 0x13
 3343 00ac 00       		.byte	0
 3344 00ad 00       		.byte	0
 3345 00ae 0F       		.uleb128 0xf
 3346 00af 35       		.uleb128 0x35
 3347 00b0 00       		.byte	0
 3348 00b1 49       		.uleb128 0x49
ARM GAS  /tmp/cclwjtNS.s 			page 60


 3349 00b2 13       		.uleb128 0x13
 3350 00b3 00       		.byte	0
 3351 00b4 00       		.byte	0
 3352 00b5 10       		.uleb128 0x10
 3353 00b6 13       		.uleb128 0x13
 3354 00b7 01       		.byte	0x1
 3355 00b8 0B       		.uleb128 0xb
 3356 00b9 0B       		.uleb128 0xb
 3357 00ba 3A       		.uleb128 0x3a
 3358 00bb 0B       		.uleb128 0xb
 3359 00bc 3B       		.uleb128 0x3b
 3360 00bd 0B       		.uleb128 0xb
 3361 00be 01       		.uleb128 0x1
 3362 00bf 13       		.uleb128 0x13
 3363 00c0 00       		.byte	0
 3364 00c1 00       		.byte	0
 3365 00c2 11       		.uleb128 0x11
 3366 00c3 0D       		.uleb128 0xd
 3367 00c4 00       		.byte	0
 3368 00c5 03       		.uleb128 0x3
 3369 00c6 08       		.uleb128 0x8
 3370 00c7 3A       		.uleb128 0x3a
 3371 00c8 0B       		.uleb128 0xb
 3372 00c9 3B       		.uleb128 0x3b
 3373 00ca 0B       		.uleb128 0xb
 3374 00cb 49       		.uleb128 0x49
 3375 00cc 13       		.uleb128 0x13
 3376 00cd 38       		.uleb128 0x38
 3377 00ce 0B       		.uleb128 0xb
 3378 00cf 00       		.byte	0
 3379 00d0 00       		.byte	0
 3380 00d1 12       		.uleb128 0x12
 3381 00d2 13       		.uleb128 0x13
 3382 00d3 01       		.byte	0x1
 3383 00d4 0B       		.uleb128 0xb
 3384 00d5 0B       		.uleb128 0xb
 3385 00d6 3A       		.uleb128 0x3a
 3386 00d7 0B       		.uleb128 0xb
 3387 00d8 3B       		.uleb128 0x3b
 3388 00d9 05       		.uleb128 0x5
 3389 00da 01       		.uleb128 0x1
 3390 00db 13       		.uleb128 0x13
 3391 00dc 00       		.byte	0
 3392 00dd 00       		.byte	0
 3393 00de 13       		.uleb128 0x13
 3394 00df 16       		.uleb128 0x16
 3395 00e0 00       		.byte	0
 3396 00e1 03       		.uleb128 0x3
 3397 00e2 0E       		.uleb128 0xe
 3398 00e3 3A       		.uleb128 0x3a
 3399 00e4 0B       		.uleb128 0xb
 3400 00e5 3B       		.uleb128 0x3b
 3401 00e6 05       		.uleb128 0x5
 3402 00e7 49       		.uleb128 0x49
 3403 00e8 13       		.uleb128 0x13
 3404 00e9 00       		.byte	0
 3405 00ea 00       		.byte	0
ARM GAS  /tmp/cclwjtNS.s 			page 61


 3406 00eb 14       		.uleb128 0x14
 3407 00ec 17       		.uleb128 0x17
 3408 00ed 01       		.byte	0x1
 3409 00ee 0B       		.uleb128 0xb
 3410 00ef 0B       		.uleb128 0xb
 3411 00f0 3A       		.uleb128 0x3a
 3412 00f1 0B       		.uleb128 0xb
 3413 00f2 3B       		.uleb128 0x3b
 3414 00f3 0B       		.uleb128 0xb
 3415 00f4 01       		.uleb128 0x1
 3416 00f5 13       		.uleb128 0x13
 3417 00f6 00       		.byte	0
 3418 00f7 00       		.byte	0
 3419 00f8 15       		.uleb128 0x15
 3420 00f9 0D       		.uleb128 0xd
 3421 00fa 00       		.byte	0
 3422 00fb 03       		.uleb128 0x3
 3423 00fc 0E       		.uleb128 0xe
 3424 00fd 3A       		.uleb128 0x3a
 3425 00fe 0B       		.uleb128 0xb
 3426 00ff 3B       		.uleb128 0x3b
 3427 0100 05       		.uleb128 0x5
 3428 0101 49       		.uleb128 0x49
 3429 0102 13       		.uleb128 0x13
 3430 0103 00       		.byte	0
 3431 0104 00       		.byte	0
 3432 0105 16       		.uleb128 0x16
 3433 0106 26       		.uleb128 0x26
 3434 0107 00       		.byte	0
 3435 0108 49       		.uleb128 0x49
 3436 0109 13       		.uleb128 0x13
 3437 010a 00       		.byte	0
 3438 010b 00       		.byte	0
 3439 010c 17       		.uleb128 0x17
 3440 010d 01       		.uleb128 0x1
 3441 010e 01       		.byte	0x1
 3442 010f 49       		.uleb128 0x49
 3443 0110 13       		.uleb128 0x13
 3444 0111 01       		.uleb128 0x1
 3445 0112 13       		.uleb128 0x13
 3446 0113 00       		.byte	0
 3447 0114 00       		.byte	0
 3448 0115 18       		.uleb128 0x18
 3449 0116 21       		.uleb128 0x21
 3450 0117 00       		.byte	0
 3451 0118 49       		.uleb128 0x49
 3452 0119 13       		.uleb128 0x13
 3453 011a 2F       		.uleb128 0x2f
 3454 011b 0B       		.uleb128 0xb
 3455 011c 00       		.byte	0
 3456 011d 00       		.byte	0
 3457 011e 19       		.uleb128 0x19
 3458 011f 04       		.uleb128 0x4
 3459 0120 01       		.byte	0x1
 3460 0121 0B       		.uleb128 0xb
 3461 0122 0B       		.uleb128 0xb
 3462 0123 3A       		.uleb128 0x3a
ARM GAS  /tmp/cclwjtNS.s 			page 62


 3463 0124 0B       		.uleb128 0xb
 3464 0125 3B       		.uleb128 0x3b
 3465 0126 0B       		.uleb128 0xb
 3466 0127 01       		.uleb128 0x1
 3467 0128 13       		.uleb128 0x13
 3468 0129 00       		.byte	0
 3469 012a 00       		.byte	0
 3470 012b 1A       		.uleb128 0x1a
 3471 012c 28       		.uleb128 0x28
 3472 012d 00       		.byte	0
 3473 012e 03       		.uleb128 0x3
 3474 012f 0E       		.uleb128 0xe
 3475 0130 1C       		.uleb128 0x1c
 3476 0131 0D       		.uleb128 0xd
 3477 0132 00       		.byte	0
 3478 0133 00       		.byte	0
 3479 0134 1B       		.uleb128 0x1b
 3480 0135 04       		.uleb128 0x4
 3481 0136 01       		.byte	0x1
 3482 0137 0B       		.uleb128 0xb
 3483 0138 0B       		.uleb128 0xb
 3484 0139 3A       		.uleb128 0x3a
 3485 013a 0B       		.uleb128 0xb
 3486 013b 3B       		.uleb128 0x3b
 3487 013c 05       		.uleb128 0x5
 3488 013d 01       		.uleb128 0x1
 3489 013e 13       		.uleb128 0x13
 3490 013f 00       		.byte	0
 3491 0140 00       		.byte	0
 3492 0141 1C       		.uleb128 0x1c
 3493 0142 2E       		.uleb128 0x2e
 3494 0143 01       		.byte	0x1
 3495 0144 03       		.uleb128 0x3
 3496 0145 0E       		.uleb128 0xe
 3497 0146 3A       		.uleb128 0x3a
 3498 0147 0B       		.uleb128 0xb
 3499 0148 3B       		.uleb128 0x3b
 3500 0149 05       		.uleb128 0x5
 3501 014a 27       		.uleb128 0x27
 3502 014b 19       		.uleb128 0x19
 3503 014c 20       		.uleb128 0x20
 3504 014d 0B       		.uleb128 0xb
 3505 014e 01       		.uleb128 0x1
 3506 014f 13       		.uleb128 0x13
 3507 0150 00       		.byte	0
 3508 0151 00       		.byte	0
 3509 0152 1D       		.uleb128 0x1d
 3510 0153 05       		.uleb128 0x5
 3511 0154 00       		.byte	0
 3512 0155 03       		.uleb128 0x3
 3513 0156 0E       		.uleb128 0xe
 3514 0157 3A       		.uleb128 0x3a
 3515 0158 0B       		.uleb128 0xb
 3516 0159 3B       		.uleb128 0x3b
 3517 015a 05       		.uleb128 0x5
 3518 015b 49       		.uleb128 0x49
 3519 015c 13       		.uleb128 0x13
ARM GAS  /tmp/cclwjtNS.s 			page 63


 3520 015d 00       		.byte	0
 3521 015e 00       		.byte	0
 3522 015f 1E       		.uleb128 0x1e
 3523 0160 2E       		.uleb128 0x2e
 3524 0161 00       		.byte	0
 3525 0162 03       		.uleb128 0x3
 3526 0163 0E       		.uleb128 0xe
 3527 0164 3A       		.uleb128 0x3a
 3528 0165 0B       		.uleb128 0xb
 3529 0166 3B       		.uleb128 0x3b
 3530 0167 05       		.uleb128 0x5
 3531 0168 27       		.uleb128 0x27
 3532 0169 19       		.uleb128 0x19
 3533 016a 20       		.uleb128 0x20
 3534 016b 0B       		.uleb128 0xb
 3535 016c 00       		.byte	0
 3536 016d 00       		.byte	0
 3537 016e 1F       		.uleb128 0x1f
 3538 016f 34       		.uleb128 0x34
 3539 0170 00       		.byte	0
 3540 0171 03       		.uleb128 0x3
 3541 0172 0E       		.uleb128 0xe
 3542 0173 49       		.uleb128 0x49
 3543 0174 13       		.uleb128 0x13
 3544 0175 34       		.uleb128 0x34
 3545 0176 19       		.uleb128 0x19
 3546 0177 1C       		.uleb128 0x1c
 3547 0178 0E       		.uleb128 0xe
 3548 0179 00       		.byte	0
 3549 017a 00       		.byte	0
 3550 017b 20       		.uleb128 0x20
 3551 017c 05       		.uleb128 0x5
 3552 017d 00       		.byte	0
 3553 017e 03       		.uleb128 0x3
 3554 017f 08       		.uleb128 0x8
 3555 0180 3A       		.uleb128 0x3a
 3556 0181 0B       		.uleb128 0xb
 3557 0182 3B       		.uleb128 0x3b
 3558 0183 05       		.uleb128 0x5
 3559 0184 49       		.uleb128 0x49
 3560 0185 13       		.uleb128 0x13
 3561 0186 00       		.byte	0
 3562 0187 00       		.byte	0
 3563 0188 21       		.uleb128 0x21
 3564 0189 2E       		.uleb128 0x2e
 3565 018a 01       		.byte	0x1
 3566 018b 3F       		.uleb128 0x3f
 3567 018c 19       		.uleb128 0x19
 3568 018d 03       		.uleb128 0x3
 3569 018e 0E       		.uleb128 0xe
 3570 018f 3A       		.uleb128 0x3a
 3571 0190 0B       		.uleb128 0xb
 3572 0191 3B       		.uleb128 0x3b
 3573 0192 0B       		.uleb128 0xb
 3574 0193 27       		.uleb128 0x27
 3575 0194 19       		.uleb128 0x19
 3576 0195 20       		.uleb128 0x20
ARM GAS  /tmp/cclwjtNS.s 			page 64


 3577 0196 0B       		.uleb128 0xb
 3578 0197 01       		.uleb128 0x1
 3579 0198 13       		.uleb128 0x13
 3580 0199 00       		.byte	0
 3581 019a 00       		.byte	0
 3582 019b 22       		.uleb128 0x22
 3583 019c 05       		.uleb128 0x5
 3584 019d 00       		.byte	0
 3585 019e 03       		.uleb128 0x3
 3586 019f 0E       		.uleb128 0xe
 3587 01a0 3A       		.uleb128 0x3a
 3588 01a1 0B       		.uleb128 0xb
 3589 01a2 3B       		.uleb128 0x3b
 3590 01a3 0B       		.uleb128 0xb
 3591 01a4 49       		.uleb128 0x49
 3592 01a5 13       		.uleb128 0x13
 3593 01a6 00       		.byte	0
 3594 01a7 00       		.byte	0
 3595 01a8 23       		.uleb128 0x23
 3596 01a9 2E       		.uleb128 0x2e
 3597 01aa 01       		.byte	0x1
 3598 01ab 03       		.uleb128 0x3
 3599 01ac 0E       		.uleb128 0xe
 3600 01ad 3A       		.uleb128 0x3a
 3601 01ae 0B       		.uleb128 0xb
 3602 01af 3B       		.uleb128 0x3b
 3603 01b0 05       		.uleb128 0x5
 3604 01b1 27       		.uleb128 0x27
 3605 01b2 19       		.uleb128 0x19
 3606 01b3 49       		.uleb128 0x49
 3607 01b4 13       		.uleb128 0x13
 3608 01b5 20       		.uleb128 0x20
 3609 01b6 0B       		.uleb128 0xb
 3610 01b7 01       		.uleb128 0x1
 3611 01b8 13       		.uleb128 0x13
 3612 01b9 00       		.byte	0
 3613 01ba 00       		.byte	0
 3614 01bb 24       		.uleb128 0x24
 3615 01bc 2E       		.uleb128 0x2e
 3616 01bd 01       		.byte	0x1
 3617 01be 3F       		.uleb128 0x3f
 3618 01bf 19       		.uleb128 0x19
 3619 01c0 03       		.uleb128 0x3
 3620 01c1 0E       		.uleb128 0xe
 3621 01c2 3A       		.uleb128 0x3a
 3622 01c3 0B       		.uleb128 0xb
 3623 01c4 3B       		.uleb128 0x3b
 3624 01c5 0B       		.uleb128 0xb
 3625 01c6 27       		.uleb128 0x27
 3626 01c7 19       		.uleb128 0x19
 3627 01c8 11       		.uleb128 0x11
 3628 01c9 01       		.uleb128 0x1
 3629 01ca 12       		.uleb128 0x12
 3630 01cb 06       		.uleb128 0x6
 3631 01cc 40       		.uleb128 0x40
 3632 01cd 18       		.uleb128 0x18
 3633 01ce 9742     		.uleb128 0x2117
ARM GAS  /tmp/cclwjtNS.s 			page 65


 3634 01d0 19       		.uleb128 0x19
 3635 01d1 01       		.uleb128 0x1
 3636 01d2 13       		.uleb128 0x13
 3637 01d3 00       		.byte	0
 3638 01d4 00       		.byte	0
 3639 01d5 25       		.uleb128 0x25
 3640 01d6 898201   		.uleb128 0x4109
 3641 01d9 00       		.byte	0
 3642 01da 11       		.uleb128 0x11
 3643 01db 01       		.uleb128 0x1
 3644 01dc 9542     		.uleb128 0x2115
 3645 01de 19       		.uleb128 0x19
 3646 01df 31       		.uleb128 0x31
 3647 01e0 13       		.uleb128 0x13
 3648 01e1 00       		.byte	0
 3649 01e2 00       		.byte	0
 3650 01e3 26       		.uleb128 0x26
 3651 01e4 05       		.uleb128 0x5
 3652 01e5 00       		.byte	0
 3653 01e6 03       		.uleb128 0x3
 3654 01e7 0E       		.uleb128 0xe
 3655 01e8 3A       		.uleb128 0x3a
 3656 01e9 0B       		.uleb128 0xb
 3657 01ea 3B       		.uleb128 0x3b
 3658 01eb 0B       		.uleb128 0xb
 3659 01ec 49       		.uleb128 0x49
 3660 01ed 13       		.uleb128 0x13
 3661 01ee 02       		.uleb128 0x2
 3662 01ef 17       		.uleb128 0x17
 3663 01f0 00       		.byte	0
 3664 01f1 00       		.byte	0
 3665 01f2 27       		.uleb128 0x27
 3666 01f3 1D       		.uleb128 0x1d
 3667 01f4 01       		.byte	0x1
 3668 01f5 31       		.uleb128 0x31
 3669 01f6 13       		.uleb128 0x13
 3670 01f7 11       		.uleb128 0x11
 3671 01f8 01       		.uleb128 0x1
 3672 01f9 12       		.uleb128 0x12
 3673 01fa 06       		.uleb128 0x6
 3674 01fb 58       		.uleb128 0x58
 3675 01fc 0B       		.uleb128 0xb
 3676 01fd 59       		.uleb128 0x59
 3677 01fe 0B       		.uleb128 0xb
 3678 01ff 00       		.byte	0
 3679 0200 00       		.byte	0
 3680 0201 28       		.uleb128 0x28
 3681 0202 05       		.uleb128 0x5
 3682 0203 00       		.byte	0
 3683 0204 31       		.uleb128 0x31
 3684 0205 13       		.uleb128 0x13
 3685 0206 02       		.uleb128 0x2
 3686 0207 17       		.uleb128 0x17
 3687 0208 00       		.byte	0
 3688 0209 00       		.byte	0
 3689 020a 29       		.uleb128 0x29
 3690 020b 898201   		.uleb128 0x4109
ARM GAS  /tmp/cclwjtNS.s 			page 66


 3691 020e 01       		.byte	0x1
 3692 020f 11       		.uleb128 0x11
 3693 0210 01       		.uleb128 0x1
 3694 0211 9542     		.uleb128 0x2115
 3695 0213 19       		.uleb128 0x19
 3696 0214 31       		.uleb128 0x31
 3697 0215 13       		.uleb128 0x13
 3698 0216 00       		.byte	0
 3699 0217 00       		.byte	0
 3700 0218 2A       		.uleb128 0x2a
 3701 0219 8A8201   		.uleb128 0x410a
 3702 021c 00       		.byte	0
 3703 021d 02       		.uleb128 0x2
 3704 021e 18       		.uleb128 0x18
 3705 021f 9142     		.uleb128 0x2111
 3706 0221 18       		.uleb128 0x18
 3707 0222 00       		.byte	0
 3708 0223 00       		.byte	0
 3709 0224 2B       		.uleb128 0x2b
 3710 0225 34       		.uleb128 0x34
 3711 0226 00       		.byte	0
 3712 0227 03       		.uleb128 0x3
 3713 0228 0E       		.uleb128 0xe
 3714 0229 49       		.uleb128 0x49
 3715 022a 13       		.uleb128 0x13
 3716 022b 34       		.uleb128 0x34
 3717 022c 19       		.uleb128 0x19
 3718 022d 00       		.byte	0
 3719 022e 00       		.byte	0
 3720 022f 2C       		.uleb128 0x2c
 3721 0230 1D       		.uleb128 0x1d
 3722 0231 01       		.byte	0x1
 3723 0232 31       		.uleb128 0x31
 3724 0233 13       		.uleb128 0x13
 3725 0234 52       		.uleb128 0x52
 3726 0235 01       		.uleb128 0x1
 3727 0236 55       		.uleb128 0x55
 3728 0237 17       		.uleb128 0x17
 3729 0238 58       		.uleb128 0x58
 3730 0239 0B       		.uleb128 0xb
 3731 023a 59       		.uleb128 0x59
 3732 023b 0B       		.uleb128 0xb
 3733 023c 01       		.uleb128 0x1
 3734 023d 13       		.uleb128 0x13
 3735 023e 00       		.byte	0
 3736 023f 00       		.byte	0
 3737 0240 2D       		.uleb128 0x2d
 3738 0241 1D       		.uleb128 0x1d
 3739 0242 01       		.byte	0x1
 3740 0243 31       		.uleb128 0x31
 3741 0244 13       		.uleb128 0x13
 3742 0245 52       		.uleb128 0x52
 3743 0246 01       		.uleb128 0x1
 3744 0247 55       		.uleb128 0x55
 3745 0248 17       		.uleb128 0x17
 3746 0249 58       		.uleb128 0x58
 3747 024a 0B       		.uleb128 0xb
ARM GAS  /tmp/cclwjtNS.s 			page 67


 3748 024b 59       		.uleb128 0x59
 3749 024c 05       		.uleb128 0x5
 3750 024d 00       		.byte	0
 3751 024e 00       		.byte	0
 3752 024f 2E       		.uleb128 0x2e
 3753 0250 05       		.uleb128 0x5
 3754 0251 00       		.byte	0
 3755 0252 31       		.uleb128 0x31
 3756 0253 13       		.uleb128 0x13
 3757 0254 1C       		.uleb128 0x1c
 3758 0255 0B       		.uleb128 0xb
 3759 0256 00       		.byte	0
 3760 0257 00       		.byte	0
 3761 0258 2F       		.uleb128 0x2f
 3762 0259 1D       		.uleb128 0x1d
 3763 025a 01       		.byte	0x1
 3764 025b 31       		.uleb128 0x31
 3765 025c 13       		.uleb128 0x13
 3766 025d 11       		.uleb128 0x11
 3767 025e 01       		.uleb128 0x1
 3768 025f 12       		.uleb128 0x12
 3769 0260 06       		.uleb128 0x6
 3770 0261 58       		.uleb128 0x58
 3771 0262 0B       		.uleb128 0xb
 3772 0263 59       		.uleb128 0x59
 3773 0264 0B       		.uleb128 0xb
 3774 0265 01       		.uleb128 0x1
 3775 0266 13       		.uleb128 0x13
 3776 0267 00       		.byte	0
 3777 0268 00       		.byte	0
 3778 0269 30       		.uleb128 0x30
 3779 026a 1D       		.uleb128 0x1d
 3780 026b 01       		.byte	0x1
 3781 026c 31       		.uleb128 0x31
 3782 026d 13       		.uleb128 0x13
 3783 026e 11       		.uleb128 0x11
 3784 026f 01       		.uleb128 0x1
 3785 0270 12       		.uleb128 0x12
 3786 0271 06       		.uleb128 0x6
 3787 0272 58       		.uleb128 0x58
 3788 0273 0B       		.uleb128 0xb
 3789 0274 59       		.uleb128 0x59
 3790 0275 05       		.uleb128 0x5
 3791 0276 00       		.byte	0
 3792 0277 00       		.byte	0
 3793 0278 31       		.uleb128 0x31
 3794 0279 0B       		.uleb128 0xb
 3795 027a 01       		.byte	0x1
 3796 027b 11       		.uleb128 0x11
 3797 027c 01       		.uleb128 0x1
 3798 027d 12       		.uleb128 0x12
 3799 027e 06       		.uleb128 0x6
 3800 027f 00       		.byte	0
 3801 0280 00       		.byte	0
 3802 0281 32       		.uleb128 0x32
 3803 0282 34       		.uleb128 0x34
 3804 0283 00       		.byte	0
ARM GAS  /tmp/cclwjtNS.s 			page 68


 3805 0284 31       		.uleb128 0x31
 3806 0285 13       		.uleb128 0x13
 3807 0286 00       		.byte	0
 3808 0287 00       		.byte	0
 3809 0288 33       		.uleb128 0x33
 3810 0289 898201   		.uleb128 0x4109
 3811 028c 01       		.byte	0x1
 3812 028d 11       		.uleb128 0x11
 3813 028e 01       		.uleb128 0x1
 3814 028f 31       		.uleb128 0x31
 3815 0290 13       		.uleb128 0x13
 3816 0291 00       		.byte	0
 3817 0292 00       		.byte	0
 3818 0293 34       		.uleb128 0x34
 3819 0294 2E       		.uleb128 0x2e
 3820 0295 01       		.byte	0x1
 3821 0296 31       		.uleb128 0x31
 3822 0297 13       		.uleb128 0x13
 3823 0298 11       		.uleb128 0x11
 3824 0299 01       		.uleb128 0x1
 3825 029a 12       		.uleb128 0x12
 3826 029b 06       		.uleb128 0x6
 3827 029c 40       		.uleb128 0x40
 3828 029d 18       		.uleb128 0x18
 3829 029e 9742     		.uleb128 0x2117
 3830 02a0 19       		.uleb128 0x19
 3831 02a1 01       		.uleb128 0x1
 3832 02a2 13       		.uleb128 0x13
 3833 02a3 00       		.byte	0
 3834 02a4 00       		.byte	0
 3835 02a5 35       		.uleb128 0x35
 3836 02a6 2E       		.uleb128 0x2e
 3837 02a7 01       		.byte	0x1
 3838 02a8 3F       		.uleb128 0x3f
 3839 02a9 19       		.uleb128 0x19
 3840 02aa 03       		.uleb128 0x3
 3841 02ab 0E       		.uleb128 0xe
 3842 02ac 3A       		.uleb128 0x3a
 3843 02ad 0B       		.uleb128 0xb
 3844 02ae 3B       		.uleb128 0x3b
 3845 02af 05       		.uleb128 0x5
 3846 02b0 27       		.uleb128 0x27
 3847 02b1 19       		.uleb128 0x19
 3848 02b2 49       		.uleb128 0x49
 3849 02b3 13       		.uleb128 0x13
 3850 02b4 11       		.uleb128 0x11
 3851 02b5 01       		.uleb128 0x1
 3852 02b6 12       		.uleb128 0x12
 3853 02b7 06       		.uleb128 0x6
 3854 02b8 40       		.uleb128 0x40
 3855 02b9 18       		.uleb128 0x18
 3856 02ba 9742     		.uleb128 0x2117
 3857 02bc 19       		.uleb128 0x19
 3858 02bd 01       		.uleb128 0x1
 3859 02be 13       		.uleb128 0x13
 3860 02bf 00       		.byte	0
 3861 02c0 00       		.byte	0
ARM GAS  /tmp/cclwjtNS.s 			page 69


 3862 02c1 36       		.uleb128 0x36
 3863 02c2 05       		.uleb128 0x5
 3864 02c3 00       		.byte	0
 3865 02c4 03       		.uleb128 0x3
 3866 02c5 0E       		.uleb128 0xe
 3867 02c6 3A       		.uleb128 0x3a
 3868 02c7 0B       		.uleb128 0xb
 3869 02c8 3B       		.uleb128 0x3b
 3870 02c9 05       		.uleb128 0x5
 3871 02ca 49       		.uleb128 0x49
 3872 02cb 13       		.uleb128 0x13
 3873 02cc 02       		.uleb128 0x2
 3874 02cd 17       		.uleb128 0x17
 3875 02ce 00       		.byte	0
 3876 02cf 00       		.byte	0
 3877 02d0 37       		.uleb128 0x37
 3878 02d1 34       		.uleb128 0x34
 3879 02d2 00       		.byte	0
 3880 02d3 03       		.uleb128 0x3
 3881 02d4 08       		.uleb128 0x8
 3882 02d5 3A       		.uleb128 0x3a
 3883 02d6 0B       		.uleb128 0xb
 3884 02d7 3B       		.uleb128 0x3b
 3885 02d8 05       		.uleb128 0x5
 3886 02d9 49       		.uleb128 0x49
 3887 02da 13       		.uleb128 0x13
 3888 02db 00       		.byte	0
 3889 02dc 00       		.byte	0
 3890 02dd 38       		.uleb128 0x38
 3891 02de 1D       		.uleb128 0x1d
 3892 02df 01       		.byte	0x1
 3893 02e0 31       		.uleb128 0x31
 3894 02e1 13       		.uleb128 0x13
 3895 02e2 11       		.uleb128 0x11
 3896 02e3 01       		.uleb128 0x1
 3897 02e4 12       		.uleb128 0x12
 3898 02e5 06       		.uleb128 0x6
 3899 02e6 58       		.uleb128 0x58
 3900 02e7 0B       		.uleb128 0xb
 3901 02e8 59       		.uleb128 0x59
 3902 02e9 05       		.uleb128 0x5
 3903 02ea 01       		.uleb128 0x1
 3904 02eb 13       		.uleb128 0x13
 3905 02ec 00       		.byte	0
 3906 02ed 00       		.byte	0
 3907 02ee 39       		.uleb128 0x39
 3908 02ef 05       		.uleb128 0x5
 3909 02f0 00       		.byte	0
 3910 02f1 31       		.uleb128 0x31
 3911 02f2 13       		.uleb128 0x13
 3912 02f3 02       		.uleb128 0x2
 3913 02f4 18       		.uleb128 0x18
 3914 02f5 00       		.byte	0
 3915 02f6 00       		.byte	0
 3916 02f7 3A       		.uleb128 0x3a
 3917 02f8 2E       		.uleb128 0x2e
 3918 02f9 01       		.byte	0x1
ARM GAS  /tmp/cclwjtNS.s 			page 70


 3919 02fa 3F       		.uleb128 0x3f
 3920 02fb 19       		.uleb128 0x19
 3921 02fc 03       		.uleb128 0x3
 3922 02fd 0E       		.uleb128 0xe
 3923 02fe 3A       		.uleb128 0x3a
 3924 02ff 0B       		.uleb128 0xb
 3925 0300 3B       		.uleb128 0x3b
 3926 0301 05       		.uleb128 0x5
 3927 0302 27       		.uleb128 0x27
 3928 0303 19       		.uleb128 0x19
 3929 0304 11       		.uleb128 0x11
 3930 0305 01       		.uleb128 0x1
 3931 0306 12       		.uleb128 0x12
 3932 0307 06       		.uleb128 0x6
 3933 0308 40       		.uleb128 0x40
 3934 0309 18       		.uleb128 0x18
 3935 030a 9742     		.uleb128 0x2117
 3936 030c 19       		.uleb128 0x19
 3937 030d 01       		.uleb128 0x1
 3938 030e 13       		.uleb128 0x13
 3939 030f 00       		.byte	0
 3940 0310 00       		.byte	0
 3941 0311 3B       		.uleb128 0x3b
 3942 0312 34       		.uleb128 0x34
 3943 0313 00       		.byte	0
 3944 0314 03       		.uleb128 0x3
 3945 0315 0E       		.uleb128 0xe
 3946 0316 3A       		.uleb128 0x3a
 3947 0317 0B       		.uleb128 0xb
 3948 0318 3B       		.uleb128 0x3b
 3949 0319 05       		.uleb128 0x5
 3950 031a 49       		.uleb128 0x49
 3951 031b 13       		.uleb128 0x13
 3952 031c 3F       		.uleb128 0x3f
 3953 031d 19       		.uleb128 0x19
 3954 031e 3C       		.uleb128 0x3c
 3955 031f 19       		.uleb128 0x19
 3956 0320 00       		.byte	0
 3957 0321 00       		.byte	0
 3958 0322 3C       		.uleb128 0x3c
 3959 0323 34       		.uleb128 0x34
 3960 0324 00       		.byte	0
 3961 0325 03       		.uleb128 0x3
 3962 0326 08       		.uleb128 0x8
 3963 0327 3A       		.uleb128 0x3a
 3964 0328 0B       		.uleb128 0xb
 3965 0329 3B       		.uleb128 0x3b
 3966 032a 05       		.uleb128 0x5
 3967 032b 49       		.uleb128 0x49
 3968 032c 13       		.uleb128 0x13
 3969 032d 3F       		.uleb128 0x3f
 3970 032e 19       		.uleb128 0x19
 3971 032f 3C       		.uleb128 0x3c
 3972 0330 19       		.uleb128 0x19
 3973 0331 00       		.byte	0
 3974 0332 00       		.byte	0
 3975 0333 3D       		.uleb128 0x3d
ARM GAS  /tmp/cclwjtNS.s 			page 71


 3976 0334 2E       		.uleb128 0x2e
 3977 0335 00       		.byte	0
 3978 0336 3F       		.uleb128 0x3f
 3979 0337 19       		.uleb128 0x19
 3980 0338 03       		.uleb128 0x3
 3981 0339 0E       		.uleb128 0xe
 3982 033a 3A       		.uleb128 0x3a
 3983 033b 0B       		.uleb128 0xb
 3984 033c 3B       		.uleb128 0x3b
 3985 033d 05       		.uleb128 0x5
 3986 033e 27       		.uleb128 0x27
 3987 033f 19       		.uleb128 0x19
 3988 0340 3C       		.uleb128 0x3c
 3989 0341 19       		.uleb128 0x19
 3990 0342 00       		.byte	0
 3991 0343 00       		.byte	0
 3992 0344 3E       		.uleb128 0x3e
 3993 0345 2E       		.uleb128 0x2e
 3994 0346 01       		.byte	0x1
 3995 0347 3F       		.uleb128 0x3f
 3996 0348 19       		.uleb128 0x19
 3997 0349 03       		.uleb128 0x3
 3998 034a 0E       		.uleb128 0xe
 3999 034b 3A       		.uleb128 0x3a
 4000 034c 0B       		.uleb128 0xb
 4001 034d 3B       		.uleb128 0x3b
 4002 034e 0B       		.uleb128 0xb
 4003 034f 27       		.uleb128 0x27
 4004 0350 19       		.uleb128 0x19
 4005 0351 3C       		.uleb128 0x3c
 4006 0352 19       		.uleb128 0x19
 4007 0353 01       		.uleb128 0x1
 4008 0354 13       		.uleb128 0x13
 4009 0355 00       		.byte	0
 4010 0356 00       		.byte	0
 4011 0357 3F       		.uleb128 0x3f
 4012 0358 2E       		.uleb128 0x2e
 4013 0359 01       		.byte	0x1
 4014 035a 3F       		.uleb128 0x3f
 4015 035b 19       		.uleb128 0x19
 4016 035c 03       		.uleb128 0x3
 4017 035d 0E       		.uleb128 0xe
 4018 035e 3A       		.uleb128 0x3a
 4019 035f 0B       		.uleb128 0xb
 4020 0360 3B       		.uleb128 0x3b
 4021 0361 05       		.uleb128 0x5
 4022 0362 27       		.uleb128 0x27
 4023 0363 19       		.uleb128 0x19
 4024 0364 3C       		.uleb128 0x3c
 4025 0365 19       		.uleb128 0x19
 4026 0366 01       		.uleb128 0x1
 4027 0367 13       		.uleb128 0x13
 4028 0368 00       		.byte	0
 4029 0369 00       		.byte	0
 4030 036a 40       		.uleb128 0x40
 4031 036b 2E       		.uleb128 0x2e
 4032 036c 01       		.byte	0x1
ARM GAS  /tmp/cclwjtNS.s 			page 72


 4033 036d 3F       		.uleb128 0x3f
 4034 036e 19       		.uleb128 0x19
 4035 036f 03       		.uleb128 0x3
 4036 0370 0E       		.uleb128 0xe
 4037 0371 3A       		.uleb128 0x3a
 4038 0372 0B       		.uleb128 0xb
 4039 0373 3B       		.uleb128 0x3b
 4040 0374 0B       		.uleb128 0xb
 4041 0375 27       		.uleb128 0x27
 4042 0376 19       		.uleb128 0x19
 4043 0377 49       		.uleb128 0x49
 4044 0378 13       		.uleb128 0x13
 4045 0379 3C       		.uleb128 0x3c
 4046 037a 19       		.uleb128 0x19
 4047 037b 01       		.uleb128 0x1
 4048 037c 13       		.uleb128 0x13
 4049 037d 00       		.byte	0
 4050 037e 00       		.byte	0
 4051 037f 41       		.uleb128 0x41
 4052 0380 2E       		.uleb128 0x2e
 4053 0381 01       		.byte	0x1
 4054 0382 3F       		.uleb128 0x3f
 4055 0383 19       		.uleb128 0x19
 4056 0384 03       		.uleb128 0x3
 4057 0385 0E       		.uleb128 0xe
 4058 0386 3A       		.uleb128 0x3a
 4059 0387 0B       		.uleb128 0xb
 4060 0388 3B       		.uleb128 0x3b
 4061 0389 0B       		.uleb128 0xb
 4062 038a 27       		.uleb128 0x27
 4063 038b 19       		.uleb128 0x19
 4064 038c 3C       		.uleb128 0x3c
 4065 038d 19       		.uleb128 0x19
 4066 038e 00       		.byte	0
 4067 038f 00       		.byte	0
 4068 0390 00       		.byte	0
 4069              		.section	.debug_loc,"",%progbits
 4070              	.Ldebug_loc0:
 4071              	.LLST0:
 4072 0000 00000000 		.4byte	.LVL1
 4073 0004 12000000 		.4byte	.LVL3
 4074 0008 0100     		.2byte	0x1
 4075 000a 50       		.byte	0x50
 4076 000b 12000000 		.4byte	.LVL3
 4077 000f 15000000 		.4byte	.LVL4-1
 4078 0013 0300     		.2byte	0x3
 4079 0015 70       		.byte	0x70
 4080 0016 68       		.sleb128 -24
 4081 0017 9F       		.byte	0x9f
 4082 0018 15000000 		.4byte	.LVL4-1
 4083 001c 16000000 		.4byte	.LFE208
 4084 0020 0400     		.2byte	0x4
 4085 0022 F3       		.byte	0xf3
 4086 0023 01       		.uleb128 0x1
 4087 0024 50       		.byte	0x50
 4088 0025 9F       		.byte	0x9f
 4089 0026 00000000 		.4byte	0
ARM GAS  /tmp/cclwjtNS.s 			page 73


 4090 002a 00000000 		.4byte	0
 4091              	.LLST1:
 4092 002e 10000000 		.4byte	.LVL2
 4093 0032 12000000 		.4byte	.LVL3
 4094 0036 0300     		.2byte	0x3
 4095 0038 70       		.byte	0x70
 4096 0039 18       		.sleb128 24
 4097 003a 9F       		.byte	0x9f
 4098 003b 12000000 		.4byte	.LVL3
 4099 003f 15000000 		.4byte	.LVL4-1
 4100 0043 0100     		.2byte	0x1
 4101 0045 50       		.byte	0x50
 4102 0046 15000000 		.4byte	.LVL4-1
 4103 004a 16000000 		.4byte	.LFE208
 4104 004e 0600     		.2byte	0x6
 4105 0050 F3       		.byte	0xf3
 4106 0051 01       		.uleb128 0x1
 4107 0052 50       		.byte	0x50
 4108 0053 23       		.byte	0x23
 4109 0054 18       		.uleb128 0x18
 4110 0055 9F       		.byte	0x9f
 4111 0056 00000000 		.4byte	0
 4112 005a 00000000 		.4byte	0
 4113              	.LLST2:
 4114 005e 00000000 		.4byte	.LVL5
 4115 0062 0F000000 		.4byte	.LVL6-1
 4116 0066 0100     		.2byte	0x1
 4117 0068 50       		.byte	0x50
 4118 0069 0F000000 		.4byte	.LVL6-1
 4119 006d 1C000000 		.4byte	.LFE209
 4120 0071 0100     		.2byte	0x1
 4121 0073 54       		.byte	0x54
 4122 0074 00000000 		.4byte	0
 4123 0078 00000000 		.4byte	0
 4124              	.LLST3:
 4125 007c 00000000 		.4byte	.LVL5
 4126 0080 0F000000 		.4byte	.LVL6-1
 4127 0084 0100     		.2byte	0x1
 4128 0086 51       		.byte	0x51
 4129 0087 0F000000 		.4byte	.LVL6-1
 4130 008b 1C000000 		.4byte	.LFE209
 4131 008f 0400     		.2byte	0x4
 4132 0091 F3       		.byte	0xf3
 4133 0092 01       		.uleb128 0x1
 4134 0093 51       		.byte	0x51
 4135 0094 9F       		.byte	0x9f
 4136 0095 00000000 		.4byte	0
 4137 0099 00000000 		.4byte	0
 4138              	.LLST4:
 4139 009d 00000000 		.4byte	.LVL8
 4140 00a1 0D000000 		.4byte	.LVL9-1
 4141 00a5 0100     		.2byte	0x1
 4142 00a7 50       		.byte	0x50
 4143 00a8 0D000000 		.4byte	.LVL9-1
 4144 00ac 1A000000 		.4byte	.LFE210
 4145 00b0 0100     		.2byte	0x1
 4146 00b2 54       		.byte	0x54
ARM GAS  /tmp/cclwjtNS.s 			page 74


 4147 00b3 00000000 		.4byte	0
 4148 00b7 00000000 		.4byte	0
 4149              	.LLST5:
 4150 00bb 00000000 		.4byte	.LVL11
 4151 00bf 15000000 		.4byte	.LVL13-1
 4152 00c3 0100     		.2byte	0x1
 4153 00c5 50       		.byte	0x50
 4154 00c6 15000000 		.4byte	.LVL13-1
 4155 00ca 1E000000 		.4byte	.LFE211
 4156 00ce 0400     		.2byte	0x4
 4157 00d0 F3       		.byte	0xf3
 4158 00d1 01       		.uleb128 0x1
 4159 00d2 50       		.byte	0x50
 4160 00d3 9F       		.byte	0x9f
 4161 00d4 00000000 		.4byte	0
 4162 00d8 00000000 		.4byte	0
 4163              	.LLST6:
 4164 00dc 00000000 		.4byte	.LVL11
 4165 00e0 15000000 		.4byte	.LVL13-1
 4166 00e4 0100     		.2byte	0x1
 4167 00e6 51       		.byte	0x51
 4168 00e7 15000000 		.4byte	.LVL13-1
 4169 00eb 1E000000 		.4byte	.LFE211
 4170 00ef 0400     		.2byte	0x4
 4171 00f1 F3       		.byte	0xf3
 4172 00f2 01       		.uleb128 0x1
 4173 00f3 51       		.byte	0x51
 4174 00f4 9F       		.byte	0x9f
 4175 00f5 00000000 		.4byte	0
 4176 00f9 00000000 		.4byte	0
 4177              	.LLST7:
 4178 00fd 00000000 		.4byte	.LVL11
 4179 0101 15000000 		.4byte	.LVL13-1
 4180 0105 0100     		.2byte	0x1
 4181 0107 52       		.byte	0x52
 4182 0108 15000000 		.4byte	.LVL13-1
 4183 010c 1E000000 		.4byte	.LFE211
 4184 0110 0400     		.2byte	0x4
 4185 0112 F3       		.byte	0xf3
 4186 0113 01       		.uleb128 0x1
 4187 0114 52       		.byte	0x52
 4188 0115 9F       		.byte	0x9f
 4189 0116 00000000 		.4byte	0
 4190 011a 00000000 		.4byte	0
 4191              	.LLST8:
 4192 011e 00000000 		.4byte	.LVL11
 4193 0122 15000000 		.4byte	.LVL13-1
 4194 0126 0100     		.2byte	0x1
 4195 0128 53       		.byte	0x53
 4196 0129 15000000 		.4byte	.LVL13-1
 4197 012d 1E000000 		.4byte	.LFE211
 4198 0131 0400     		.2byte	0x4
 4199 0133 F3       		.byte	0xf3
 4200 0134 01       		.uleb128 0x1
 4201 0135 53       		.byte	0x53
 4202 0136 9F       		.byte	0x9f
 4203 0137 00000000 		.4byte	0
ARM GAS  /tmp/cclwjtNS.s 			page 75


 4204 013b 00000000 		.4byte	0
 4205              	.LLST9:
 4206 013f 08000000 		.4byte	.LVL12
 4207 0143 15000000 		.4byte	.LVL13-1
 4208 0147 0100     		.2byte	0x1
 4209 0149 53       		.byte	0x53
 4210 014a 15000000 		.4byte	.LVL13-1
 4211 014e 1E000000 		.4byte	.LFE211
 4212 0152 0400     		.2byte	0x4
 4213 0154 F3       		.byte	0xf3
 4214 0155 01       		.uleb128 0x1
 4215 0156 53       		.byte	0x53
 4216 0157 9F       		.byte	0x9f
 4217 0158 00000000 		.4byte	0
 4218 015c 00000000 		.4byte	0
 4219              	.LLST10:
 4220 0160 08000000 		.4byte	.LVL12
 4221 0164 15000000 		.4byte	.LVL13-1
 4222 0168 0100     		.2byte	0x1
 4223 016a 52       		.byte	0x52
 4224 016b 15000000 		.4byte	.LVL13-1
 4225 016f 1E000000 		.4byte	.LFE211
 4226 0173 0400     		.2byte	0x4
 4227 0175 F3       		.byte	0xf3
 4228 0176 01       		.uleb128 0x1
 4229 0177 52       		.byte	0x52
 4230 0178 9F       		.byte	0x9f
 4231 0179 00000000 		.4byte	0
 4232 017d 00000000 		.4byte	0
 4233              	.LLST11:
 4234 0181 08000000 		.4byte	.LVL12
 4235 0185 15000000 		.4byte	.LVL13-1
 4236 0189 0100     		.2byte	0x1
 4237 018b 51       		.byte	0x51
 4238 018c 15000000 		.4byte	.LVL13-1
 4239 0190 1E000000 		.4byte	.LFE211
 4240 0194 0400     		.2byte	0x4
 4241 0196 F3       		.byte	0xf3
 4242 0197 01       		.uleb128 0x1
 4243 0198 51       		.byte	0x51
 4244 0199 9F       		.byte	0x9f
 4245 019a 00000000 		.4byte	0
 4246 019e 00000000 		.4byte	0
 4247              	.LLST12:
 4248 01a2 08000000 		.4byte	.LVL12
 4249 01a6 15000000 		.4byte	.LVL13-1
 4250 01aa 0100     		.2byte	0x1
 4251 01ac 50       		.byte	0x50
 4252 01ad 15000000 		.4byte	.LVL13-1
 4253 01b1 1E000000 		.4byte	.LFE211
 4254 01b5 0400     		.2byte	0x4
 4255 01b7 F3       		.byte	0xf3
 4256 01b8 01       		.uleb128 0x1
 4257 01b9 50       		.byte	0x50
 4258 01ba 9F       		.byte	0x9f
 4259 01bb 00000000 		.4byte	0
 4260 01bf 00000000 		.4byte	0
ARM GAS  /tmp/cclwjtNS.s 			page 76


 4261              	.LLST13:
 4262 01c3 00000000 		.4byte	.LVL14
 4263 01c7 11000000 		.4byte	.LVL15-1
 4264 01cb 0100     		.2byte	0x1
 4265 01cd 50       		.byte	0x50
 4266 01ce 11000000 		.4byte	.LVL15-1
 4267 01d2 12000000 		.4byte	.LFE212
 4268 01d6 0400     		.2byte	0x4
 4269 01d8 F3       		.byte	0xf3
 4270 01d9 01       		.uleb128 0x1
 4271 01da 50       		.byte	0x50
 4272 01db 9F       		.byte	0x9f
 4273 01dc 00000000 		.4byte	0
 4274 01e0 00000000 		.4byte	0
 4275              	.LLST14:
 4276 01e4 00000000 		.4byte	.LVL14
 4277 01e8 11000000 		.4byte	.LVL15-1
 4278 01ec 0100     		.2byte	0x1
 4279 01ee 51       		.byte	0x51
 4280 01ef 11000000 		.4byte	.LVL15-1
 4281 01f3 12000000 		.4byte	.LFE212
 4282 01f7 0400     		.2byte	0x4
 4283 01f9 F3       		.byte	0xf3
 4284 01fa 01       		.uleb128 0x1
 4285 01fb 51       		.byte	0x51
 4286 01fc 9F       		.byte	0x9f
 4287 01fd 00000000 		.4byte	0
 4288 0201 00000000 		.4byte	0
 4289              	.LLST15:
 4290 0205 00000000 		.4byte	.LVL14
 4291 0209 11000000 		.4byte	.LVL15-1
 4292 020d 0100     		.2byte	0x1
 4293 020f 52       		.byte	0x52
 4294 0210 11000000 		.4byte	.LVL15-1
 4295 0214 12000000 		.4byte	.LFE212
 4296 0218 0400     		.2byte	0x4
 4297 021a F3       		.byte	0xf3
 4298 021b 01       		.uleb128 0x1
 4299 021c 52       		.byte	0x52
 4300 021d 9F       		.byte	0x9f
 4301 021e 00000000 		.4byte	0
 4302 0222 00000000 		.4byte	0
 4303              	.LLST16:
 4304 0226 00000000 		.4byte	.LVL14
 4305 022a 11000000 		.4byte	.LVL15-1
 4306 022e 0100     		.2byte	0x1
 4307 0230 53       		.byte	0x53
 4308 0231 11000000 		.4byte	.LVL15-1
 4309 0235 12000000 		.4byte	.LFE212
 4310 0239 0400     		.2byte	0x4
 4311 023b F3       		.byte	0xf3
 4312 023c 01       		.uleb128 0x1
 4313 023d 53       		.byte	0x53
 4314 023e 9F       		.byte	0x9f
 4315 023f 00000000 		.4byte	0
 4316 0243 00000000 		.4byte	0
 4317              	.LLST17:
ARM GAS  /tmp/cclwjtNS.s 			page 77


 4318 0247 00000000 		.4byte	.LVL16
 4319 024b 13000000 		.4byte	.LVL17-1
 4320 024f 0100     		.2byte	0x1
 4321 0251 50       		.byte	0x50
 4322 0252 13000000 		.4byte	.LVL17-1
 4323 0256 30000000 		.4byte	.LVL20
 4324 025a 0100     		.2byte	0x1
 4325 025c 54       		.byte	0x54
 4326 025d 30000000 		.4byte	.LVL20
 4327 0261 38000000 		.4byte	.LFE213
 4328 0265 0100     		.2byte	0x1
 4329 0267 50       		.byte	0x50
 4330 0268 00000000 		.4byte	0
 4331 026c 00000000 		.4byte	0
 4332              	.LLST18:
 4333 0270 24000000 		.4byte	.LVL18
 4334 0274 30000000 		.4byte	.LVL20
 4335 0278 0300     		.2byte	0x3
 4336 027a 09       		.byte	0x9
 4337 027b FE       		.byte	0xfe
 4338 027c 9F       		.byte	0x9f
 4339 027d 00000000 		.4byte	0
 4340 0281 00000000 		.4byte	0
 4341              	.LLST19:
 4342 0285 24000000 		.4byte	.LVL18
 4343 0289 30000000 		.4byte	.LVL20
 4344 028d 0300     		.2byte	0x3
 4345 028f 74       		.byte	0x74
 4346 0290 14       		.sleb128 20
 4347 0291 9F       		.byte	0x9f
 4348 0292 00000000 		.4byte	0
 4349 0296 00000000 		.4byte	0
 4350              	.LLST20:
 4351 029a 00000000 		.4byte	.LVL21
 4352 029e 0D000000 		.4byte	.LVL22-1
 4353 02a2 0100     		.2byte	0x1
 4354 02a4 50       		.byte	0x50
 4355 02a5 0D000000 		.4byte	.LVL22-1
 4356 02a9 22000000 		.4byte	.LVL24
 4357 02ad 0100     		.2byte	0x1
 4358 02af 54       		.byte	0x54
 4359 02b0 22000000 		.4byte	.LVL24
 4360 02b4 25000000 		.4byte	.LVL25-1
 4361 02b8 0300     		.2byte	0x3
 4362 02ba 70       		.byte	0x70
 4363 02bb 6C       		.sleb128 -20
 4364 02bc 9F       		.byte	0x9f
 4365 02bd 25000000 		.4byte	.LVL25-1
 4366 02c1 26000000 		.4byte	.LVL25
 4367 02c5 0400     		.2byte	0x4
 4368 02c7 F3       		.byte	0xf3
 4369 02c8 01       		.uleb128 0x1
 4370 02c9 50       		.byte	0x50
 4371 02ca 9F       		.byte	0x9f
 4372 02cb 26000000 		.4byte	.LVL25
 4373 02cf 28000000 		.4byte	.LFE214
 4374 02d3 0100     		.2byte	0x1
ARM GAS  /tmp/cclwjtNS.s 			page 78


 4375 02d5 50       		.byte	0x50
 4376 02d6 00000000 		.4byte	0
 4377 02da 00000000 		.4byte	0
 4378              	.LLST21:
 4379 02de 1E000000 		.4byte	.LVL23
 4380 02e2 26000000 		.4byte	.LVL25
 4381 02e6 0300     		.2byte	0x3
 4382 02e8 09       		.byte	0x9
 4383 02e9 FE       		.byte	0xfe
 4384 02ea 9F       		.byte	0x9f
 4385 02eb 00000000 		.4byte	0
 4386 02ef 00000000 		.4byte	0
 4387              	.LLST22:
 4388 02f3 1E000000 		.4byte	.LVL23
 4389 02f7 22000000 		.4byte	.LVL24
 4390 02fb 0300     		.2byte	0x3
 4391 02fd 74       		.byte	0x74
 4392 02fe 14       		.sleb128 20
 4393 02ff 9F       		.byte	0x9f
 4394 0300 22000000 		.4byte	.LVL24
 4395 0304 25000000 		.4byte	.LVL25-1
 4396 0308 0100     		.2byte	0x1
 4397 030a 50       		.byte	0x50
 4398 030b 25000000 		.4byte	.LVL25-1
 4399 030f 26000000 		.4byte	.LVL25
 4400 0313 0600     		.2byte	0x6
 4401 0315 F3       		.byte	0xf3
 4402 0316 01       		.uleb128 0x1
 4403 0317 50       		.byte	0x50
 4404 0318 23       		.byte	0x23
 4405 0319 14       		.uleb128 0x14
 4406 031a 9F       		.byte	0x9f
 4407 031b 00000000 		.4byte	0
 4408 031f 00000000 		.4byte	0
 4409              	.LLST23:
 4410 0323 00000000 		.4byte	.LVL26
 4411 0327 19000000 		.4byte	.LVL28-1
 4412 032b 0100     		.2byte	0x1
 4413 032d 50       		.byte	0x50
 4414 032e 19000000 		.4byte	.LVL28-1
 4415 0332 28000000 		.4byte	.LFE215
 4416 0336 0300     		.2byte	0x3
 4417 0338 75       		.byte	0x75
 4418 0339 6C       		.sleb128 -20
 4419 033a 9F       		.byte	0x9f
 4420 033b 00000000 		.4byte	0
 4421 033f 00000000 		.4byte	0
 4422              	.LLST24:
 4423 0343 00000000 		.4byte	.LVL26
 4424 0347 19000000 		.4byte	.LVL28-1
 4425 034b 0100     		.2byte	0x1
 4426 034d 51       		.byte	0x51
 4427 034e 19000000 		.4byte	.LVL28-1
 4428 0352 28000000 		.4byte	.LFE215
 4429 0356 0400     		.2byte	0x4
 4430 0358 F3       		.byte	0xf3
 4431 0359 01       		.uleb128 0x1
ARM GAS  /tmp/cclwjtNS.s 			page 79


 4432 035a 51       		.byte	0x51
 4433 035b 9F       		.byte	0x9f
 4434 035c 00000000 		.4byte	0
 4435 0360 00000000 		.4byte	0
 4436              	.LLST25:
 4437 0364 00000000 		.4byte	.LVL26
 4438 0368 19000000 		.4byte	.LVL28-1
 4439 036c 0100     		.2byte	0x1
 4440 036e 52       		.byte	0x52
 4441 036f 19000000 		.4byte	.LVL28-1
 4442 0373 28000000 		.4byte	.LFE215
 4443 0377 0400     		.2byte	0x4
 4444 0379 F3       		.byte	0xf3
 4445 037a 01       		.uleb128 0x1
 4446 037b 52       		.byte	0x52
 4447 037c 9F       		.byte	0x9f
 4448 037d 00000000 		.4byte	0
 4449 0381 00000000 		.4byte	0
 4450              	.LLST26:
 4451 0385 00000000 		.4byte	.LVL26
 4452 0389 19000000 		.4byte	.LVL28-1
 4453 038d 0100     		.2byte	0x1
 4454 038f 53       		.byte	0x53
 4455 0390 19000000 		.4byte	.LVL28-1
 4456 0394 28000000 		.4byte	.LFE215
 4457 0398 0400     		.2byte	0x4
 4458 039a F3       		.byte	0xf3
 4459 039b 01       		.uleb128 0x1
 4460 039c 53       		.byte	0x53
 4461 039d 9F       		.byte	0x9f
 4462 039e 00000000 		.4byte	0
 4463 03a2 00000000 		.4byte	0
 4464              	.LLST27:
 4465 03a6 08000000 		.4byte	.LVL27
 4466 03aa 19000000 		.4byte	.LVL28-1
 4467 03ae 0100     		.2byte	0x1
 4468 03b0 53       		.byte	0x53
 4469 03b1 19000000 		.4byte	.LVL28-1
 4470 03b5 28000000 		.4byte	.LFE215
 4471 03b9 0400     		.2byte	0x4
 4472 03bb F3       		.byte	0xf3
 4473 03bc 01       		.uleb128 0x1
 4474 03bd 53       		.byte	0x53
 4475 03be 9F       		.byte	0x9f
 4476 03bf 00000000 		.4byte	0
 4477 03c3 00000000 		.4byte	0
 4478              	.LLST28:
 4479 03c7 08000000 		.4byte	.LVL27
 4480 03cb 19000000 		.4byte	.LVL28-1
 4481 03cf 0100     		.2byte	0x1
 4482 03d1 52       		.byte	0x52
 4483 03d2 19000000 		.4byte	.LVL28-1
 4484 03d6 28000000 		.4byte	.LFE215
 4485 03da 0400     		.2byte	0x4
 4486 03dc F3       		.byte	0xf3
 4487 03dd 01       		.uleb128 0x1
 4488 03de 52       		.byte	0x52
ARM GAS  /tmp/cclwjtNS.s 			page 80


 4489 03df 9F       		.byte	0x9f
 4490 03e0 00000000 		.4byte	0
 4491 03e4 00000000 		.4byte	0
 4492              	.LLST29:
 4493 03e8 08000000 		.4byte	.LVL27
 4494 03ec 19000000 		.4byte	.LVL28-1
 4495 03f0 0100     		.2byte	0x1
 4496 03f2 51       		.byte	0x51
 4497 03f3 19000000 		.4byte	.LVL28-1
 4498 03f7 28000000 		.4byte	.LFE215
 4499 03fb 0400     		.2byte	0x4
 4500 03fd F3       		.byte	0xf3
 4501 03fe 01       		.uleb128 0x1
 4502 03ff 51       		.byte	0x51
 4503 0400 9F       		.byte	0x9f
 4504 0401 00000000 		.4byte	0
 4505 0405 00000000 		.4byte	0
 4506              	.LLST30:
 4507 0409 08000000 		.4byte	.LVL27
 4508 040d 19000000 		.4byte	.LVL28-1
 4509 0411 0100     		.2byte	0x1
 4510 0413 50       		.byte	0x50
 4511 0414 19000000 		.4byte	.LVL28-1
 4512 0418 28000000 		.4byte	.LFE215
 4513 041c 0300     		.2byte	0x3
 4514 041e 75       		.byte	0x75
 4515 041f 6C       		.sleb128 -20
 4516 0420 9F       		.byte	0x9f
 4517 0421 00000000 		.4byte	0
 4518 0425 00000000 		.4byte	0
 4519              	.LLST31:
 4520 0429 00000000 		.4byte	.LVL30
 4521 042d 02000000 		.4byte	.LVL31
 4522 0431 0100     		.2byte	0x1
 4523 0433 50       		.byte	0x50
 4524 0434 02000000 		.4byte	.LVL31
 4525 0438 05000000 		.4byte	.LVL32-1
 4526 043c 0300     		.2byte	0x3
 4527 043e 70       		.byte	0x70
 4528 043f 68       		.sleb128 -24
 4529 0440 9F       		.byte	0x9f
 4530 0441 05000000 		.4byte	.LVL32-1
 4531 0445 06000000 		.4byte	.LFE216
 4532 0449 0400     		.2byte	0x4
 4533 044b F3       		.byte	0xf3
 4534 044c 01       		.uleb128 0x1
 4535 044d 50       		.byte	0x50
 4536 044e 9F       		.byte	0x9f
 4537 044f 00000000 		.4byte	0
 4538 0453 00000000 		.4byte	0
 4539              	.LLST32:
 4540 0457 00000000 		.4byte	.LVL30
 4541 045b 02000000 		.4byte	.LVL31
 4542 045f 0300     		.2byte	0x3
 4543 0461 70       		.byte	0x70
 4544 0462 18       		.sleb128 24
 4545 0463 9F       		.byte	0x9f
ARM GAS  /tmp/cclwjtNS.s 			page 81


 4546 0464 02000000 		.4byte	.LVL31
 4547 0468 05000000 		.4byte	.LVL32-1
 4548 046c 0100     		.2byte	0x1
 4549 046e 50       		.byte	0x50
 4550 046f 05000000 		.4byte	.LVL32-1
 4551 0473 06000000 		.4byte	.LFE216
 4552 0477 0600     		.2byte	0x6
 4553 0479 F3       		.byte	0xf3
 4554 047a 01       		.uleb128 0x1
 4555 047b 50       		.byte	0x50
 4556 047c 23       		.byte	0x23
 4557 047d 18       		.uleb128 0x18
 4558 047e 9F       		.byte	0x9f
 4559 047f 00000000 		.4byte	0
 4560 0483 00000000 		.4byte	0
 4561              	.LLST33:
 4562 0487 00000000 		.4byte	.LVL33
 4563 048b 02000000 		.4byte	.LVL34
 4564 048f 0100     		.2byte	0x1
 4565 0491 50       		.byte	0x50
 4566 0492 02000000 		.4byte	.LVL34
 4567 0496 05000000 		.4byte	.LVL35-1
 4568 049a 0300     		.2byte	0x3
 4569 049c 70       		.byte	0x70
 4570 049d 68       		.sleb128 -24
 4571 049e 9F       		.byte	0x9f
 4572 049f 05000000 		.4byte	.LVL35-1
 4573 04a3 06000000 		.4byte	.LFE217
 4574 04a7 0400     		.2byte	0x4
 4575 04a9 F3       		.byte	0xf3
 4576 04aa 01       		.uleb128 0x1
 4577 04ab 50       		.byte	0x50
 4578 04ac 9F       		.byte	0x9f
 4579 04ad 00000000 		.4byte	0
 4580 04b1 00000000 		.4byte	0
 4581              	.LLST34:
 4582 04b5 00000000 		.4byte	.LVL33
 4583 04b9 02000000 		.4byte	.LVL34
 4584 04bd 0300     		.2byte	0x3
 4585 04bf 70       		.byte	0x70
 4586 04c0 18       		.sleb128 24
 4587 04c1 9F       		.byte	0x9f
 4588 04c2 02000000 		.4byte	.LVL34
 4589 04c6 05000000 		.4byte	.LVL35-1
 4590 04ca 0100     		.2byte	0x1
 4591 04cc 50       		.byte	0x50
 4592 04cd 05000000 		.4byte	.LVL35-1
 4593 04d1 06000000 		.4byte	.LFE217
 4594 04d5 0600     		.2byte	0x6
 4595 04d7 F3       		.byte	0xf3
 4596 04d8 01       		.uleb128 0x1
 4597 04d9 50       		.byte	0x50
 4598 04da 23       		.byte	0x23
 4599 04db 18       		.uleb128 0x18
 4600 04dc 9F       		.byte	0x9f
 4601 04dd 00000000 		.4byte	0
 4602 04e1 00000000 		.4byte	0
ARM GAS  /tmp/cclwjtNS.s 			page 82


 4603              		.section	.debug_aranges,"",%progbits
 4604 0000 6C000000 		.4byte	0x6c
 4605 0004 0200     		.2byte	0x2
 4606 0006 00000000 		.4byte	.Ldebug_info0
 4607 000a 04       		.byte	0x4
 4608 000b 00       		.byte	0
 4609 000c 0000     		.2byte	0
 4610 000e 0000     		.2byte	0
 4611 0010 00000000 		.4byte	.LFB207
 4612 0014 04000000 		.4byte	.LFE207-.LFB207
 4613 0018 00000000 		.4byte	.LFB208
 4614 001c 16000000 		.4byte	.LFE208-.LFB208
 4615 0020 00000000 		.4byte	.LFB209
 4616 0024 1C000000 		.4byte	.LFE209-.LFB209
 4617 0028 00000000 		.4byte	.LFB210
 4618 002c 1A000000 		.4byte	.LFE210-.LFB210
 4619 0030 00000000 		.4byte	.LFB211
 4620 0034 1E000000 		.4byte	.LFE211-.LFB211
 4621 0038 00000000 		.4byte	.LFB212
 4622 003c 12000000 		.4byte	.LFE212-.LFB212
 4623 0040 00000000 		.4byte	.LFB213
 4624 0044 38000000 		.4byte	.LFE213-.LFB213
 4625 0048 00000000 		.4byte	.LFB214
 4626 004c 28000000 		.4byte	.LFE214-.LFB214
 4627 0050 00000000 		.4byte	.LFB215
 4628 0054 28000000 		.4byte	.LFE215-.LFB215
 4629 0058 00000000 		.4byte	.LFB216
 4630 005c 06000000 		.4byte	.LFE216-.LFB216
 4631 0060 00000000 		.4byte	.LFB217
 4632 0064 06000000 		.4byte	.LFE217-.LFB217
 4633 0068 00000000 		.4byte	0
 4634 006c 00000000 		.4byte	0
 4635              		.section	.debug_ranges,"",%progbits
 4636              	.Ldebug_ranges0:
 4637 0000 02000000 		.4byte	.LBB107
 4638 0004 04000000 		.4byte	.LBE107
 4639 0008 06000000 		.4byte	.LBB116
 4640 000c 0A000000 		.4byte	.LBE116
 4641 0010 00000000 		.4byte	0
 4642 0014 00000000 		.4byte	0
 4643 0018 02000000 		.4byte	.LBB123
 4644 001c 04000000 		.4byte	.LBE123
 4645 0020 06000000 		.4byte	.LBB132
 4646 0024 0A000000 		.4byte	.LBE132
 4647 0028 00000000 		.4byte	0
 4648 002c 00000000 		.4byte	0
 4649 0030 1C000000 		.4byte	.LBB157
 4650 0034 20000000 		.4byte	.LBE157
 4651 0038 24000000 		.4byte	.LBB160
 4652 003c 28000000 		.4byte	.LBE160
 4653 0040 00000000 		.4byte	0
 4654 0044 00000000 		.4byte	0
 4655 0048 16000000 		.4byte	.LBB167
 4656 004c 1A000000 		.4byte	.LBE167
 4657 0050 22000000 		.4byte	.LBB170
 4658 0054 28000000 		.4byte	.LBE170
 4659 0058 00000000 		.4byte	0
ARM GAS  /tmp/cclwjtNS.s 			page 83


 4660 005c 00000000 		.4byte	0
 4661 0060 00000000 		.4byte	.LFB207
 4662 0064 04000000 		.4byte	.LFE207
 4663 0068 00000000 		.4byte	.LFB208
 4664 006c 16000000 		.4byte	.LFE208
 4665 0070 00000000 		.4byte	.LFB209
 4666 0074 1C000000 		.4byte	.LFE209
 4667 0078 00000000 		.4byte	.LFB210
 4668 007c 1A000000 		.4byte	.LFE210
 4669 0080 00000000 		.4byte	.LFB211
 4670 0084 1E000000 		.4byte	.LFE211
 4671 0088 00000000 		.4byte	.LFB212
 4672 008c 12000000 		.4byte	.LFE212
 4673 0090 00000000 		.4byte	.LFB213
 4674 0094 38000000 		.4byte	.LFE213
 4675 0098 00000000 		.4byte	.LFB214
 4676 009c 28000000 		.4byte	.LFE214
 4677 00a0 00000000 		.4byte	.LFB215
 4678 00a4 28000000 		.4byte	.LFE215
 4679 00a8 00000000 		.4byte	.LFB216
 4680 00ac 06000000 		.4byte	.LFE216
 4681 00b0 00000000 		.4byte	.LFB217
 4682 00b4 06000000 		.4byte	.LFE217
 4683 00b8 00000000 		.4byte	0
 4684 00bc 00000000 		.4byte	0
 4685              		.section	.debug_line,"",%progbits
 4686              	.Ldebug_line0:
 4687 0000 FD040000 		.section	.debug_str,"MS",%progbits,1
 4687      02006103 
 4687      00000201 
 4687      FB0E0D00 
 4687      01010101 
 4688              	.LASF181:
 4689 0000 6F73616C 		.ascii	"osalThreadResumeI\000"
 4689      54687265 
 4689      61645265 
 4689      73756D65 
 4689      4900
 4690              	.LASF55:
 4691 0012 72656164 		.ascii	"ready_list_t\000"
 4691      795F6C69 
 4691      73745F74 
 4691      00
 4692              	.LASF180:
 4693 001f 6F73616C 		.ascii	"osalThreadResumeS\000"
 4693      54687265 
 4693      61645265 
 4693      73756D65 
 4693      5300
 4694              	.LASF2:
 4695 0031 73697A65 		.ascii	"size_t\000"
 4695      5F7400
 4696              	.LASF19:
 4697 0038 75696E74 		.ascii	"uint64_t\000"
 4697      36345F74 
 4697      00
 4698              	.LASF109:
ARM GAS  /tmp/cclwjtNS.s 			page 84


 4699 0041 7264796D 		.ascii	"rdymsg\000"
 4699      736700
 4700              	.LASF138:
 4701 0048 61646373 		.ascii	"adcstate_t\000"
 4701      74617465 
 4701      5F7400
 4702              	.LASF100:
 4703 0053 4D304152 		.ascii	"M0AR\000"
 4703      00
 4704              	.LASF3:
 4705 0058 5F5F7569 		.ascii	"__uint8_t\000"
 4705      6E74385F 
 4705      7400
 4706              	.LASF187:
 4707 0062 61646353 		.ascii	"adcStop\000"
 4707      746F7000 
 4708              	.LASF106:
 4709 006a 706F7274 		.ascii	"port_intctx\000"
 4709      5F696E74 
 4709      63747800 
 4710              	.LASF74:
 4711 0076 73797374 		.ascii	"system_debug_t\000"
 4711      656D5F64 
 4711      65627567 
 4711      5F7400
 4712              	.LASF125:
 4713 0085 73747265 		.ascii	"stream\000"
 4713      616D00
 4714              	.LASF168:
 4715 008c 706F7274 		.ascii	"port_lock\000"
 4715      5F6C6F63 
 4715      6B00
 4716              	.LASF196:
 4717 0096 6164635F 		.ascii	"adc_lld_stop\000"
 4717      6C6C645F 
 4717      73746F70 
 4717      00
 4718              	.LASF143:
 4719 00a3 61646365 		.ascii	"adcerror_t\000"
 4719      72726F72 
 4719      5F7400
 4720              	.LASF14:
 4721 00ae 6C6F6E67 		.ascii	"long long unsigned int\000"
 4721      206C6F6E 
 4721      6720756E 
 4721      7369676E 
 4721      65642069 
 4722              	.LASF117:
 4723 00c5 735F7175 		.ascii	"s_queue\000"
 4723      65756500 
 4724              	.LASF110:
 4725 00cd 65786974 		.ascii	"exitcode\000"
 4725      636F6465 
 4725      00
 4726              	.LASF129:
 4727 00d6 76656374 		.ascii	"vector\000"
 4727      6F7200
ARM GAS  /tmp/cclwjtNS.s 			page 85


 4728              	.LASF81:
 4729 00dd 6D61696E 		.ascii	"mainthread\000"
 4729      74687265 
 4729      616400
 4730              	.LASF148:
 4731 00e8 64657074 		.ascii	"depth\000"
 4731      6800
 4732              	.LASF71:
 4733 00ee 76697274 		.ascii	"virtual_timers_list_t\000"
 4733      75616C5F 
 4733      74696D65 
 4733      72735F6C 
 4733      6973745F 
 4734              	.LASF193:
 4735 0104 49544D5F 		.ascii	"ITM_RxBuffer\000"
 4735      52784275 
 4735      66666572 
 4735      00
 4736              	.LASF54:
 4737 0111 63685F74 		.ascii	"ch_threads_queue\000"
 4737      68726561 
 4737      64735F71 
 4737      75657565 
 4737      00
 4738              	.LASF33:
 4739 0122 705F7072 		.ascii	"p_prio\000"
 4739      696F00
 4740              	.LASF93:
 4741 0129 4A535152 		.ascii	"JSQR\000"
 4741      00
 4742              	.LASF173:
 4743 012e 6F73616C 		.ascii	"osalMutexObjectInit\000"
 4743      4D757465 
 4743      784F626A 
 4743      65637449 
 4743      6E697400 
 4744              	.LASF203:
 4745 0142 2F686F6D 		.ascii	"/home/peter/ChibiOS_16.1.4/os/hal/src/adc.c\000"
 4745      652F7065 
 4745      7465722F 
 4745      43686962 
 4745      694F535F 
 4746              	.LASF208:
 4747 016e 63684D74 		.ascii	"chMtxUnlock\000"
 4747      78556E6C 
 4747      6F636B00 
 4748              	.LASF1:
 4749 017a 7369676E 		.ascii	"signed char\000"
 4749      65642063 
 4749      68617200 
 4750              	.LASF48:
 4751 0186 705F6D70 		.ascii	"p_mpool\000"
 4751      6F6F6C00 
 4752              	.LASF120:
 4753 018e 6D5F7175 		.ascii	"m_queue\000"
 4753      65756500 
 4754              	.LASF132:
ARM GAS  /tmp/cclwjtNS.s 			page 86


 4755 0196 4144435F 		.ascii	"ADC_UNINIT\000"
 4755      554E494E 
 4755      495400
 4756              	.LASF80:
 4757 01a1 76746C69 		.ascii	"vtlist\000"
 4757      737400
 4758              	.LASF169:
 4759 01a8 706F7274 		.ascii	"port_unlock\000"
 4759      5F756E6C 
 4759      6F636B00 
 4760              	.LASF152:
 4761 01b4 646D6173 		.ascii	"dmastp\000"
 4761      747000
 4762              	.LASF137:
 4763 01bb 4144435F 		.ascii	"ADC_ERROR\000"
 4763      4552524F 
 4763      5200
 4764              	.LASF145:
 4765 01c5 73746174 		.ascii	"state\000"
 4765      6500
 4766              	.LASF156:
 4767 01cb 63697263 		.ascii	"circular\000"
 4767      756C6172 
 4767      00
 4768              	.LASF9:
 4769 01d4 6C6F6E67 		.ascii	"long int\000"
 4769      20696E74 
 4769      00
 4770              	.LASF141:
 4771 01dd 4144435F 		.ascii	"ADC_ERR_DMAFAILURE\000"
 4771      4552525F 
 4771      444D4146 
 4771      41494C55 
 4771      524500
 4772              	.LASF197:
 4773 01f0 6164635F 		.ascii	"adc_lld_start_conversion\000"
 4773      6C6C645F 
 4773      73746172 
 4773      745F636F 
 4773      6E766572 
 4774              	.LASF155:
 4775 0209 61646365 		.ascii	"adcerrorcallback_t\000"
 4775      72726F72 
 4775      63616C6C 
 4775      6261636B 
 4775      5F7400
 4776              	.LASF22:
 4777 021c 74737461 		.ascii	"tstate_t\000"
 4777      74655F74 
 4777      00
 4778              	.LASF150:
 4779 0225 74687265 		.ascii	"thread\000"
 4779      616400
 4780              	.LASF78:
 4781 022c 63685F73 		.ascii	"ch_system\000"
 4781      79737465 
 4781      6D00
ARM GAS  /tmp/cclwjtNS.s 			page 87


 4782              	.LASF12:
 4783 0236 6C6F6E67 		.ascii	"long long int\000"
 4783      206C6F6E 
 4783      6720696E 
 4783      7400
 4784              	.LASF16:
 4785 0244 75696E74 		.ascii	"uint16_t\000"
 4785      31365F74 
 4785      00
 4786              	.LASF98:
 4787 024d 4144435F 		.ascii	"ADC_TypeDef\000"
 4787      54797065 
 4787      44656600 
 4788              	.LASF35:
 4789 0259 705F6E65 		.ascii	"p_newer\000"
 4789      77657200 
 4790              	.LASF158:
 4791 0261 656E645F 		.ascii	"end_cb\000"
 4791      636200
 4792              	.LASF154:
 4793 0268 61646363 		.ascii	"adccallback_t\000"
 4793      616C6C62 
 4793      61636B5F 
 4793      7400
 4794              	.LASF205:
 4795 0276 61646343 		.ascii	"adcConvert\000"
 4795      6F6E7665 
 4795      727400
 4796              	.LASF139:
 4797 0281 61646373 		.ascii	"adcsample_t\000"
 4797      616D706C 
 4797      655F7400 
 4798              	.LASF200:
 4799 028d 63685468 		.ascii	"chThdResumeI\000"
 4799      64526573 
 4799      756D6549 
 4799      00
 4800              	.LASF167:
 4801 029a 41444343 		.ascii	"ADCConfig\000"
 4801      6F6E6669 
 4801      6700
 4802              	.LASF103:
 4803 02a4 72656761 		.ascii	"regarm_t\000"
 4803      726D5F74 
 4803      00
 4804              	.LASF67:
 4805 02ad 76745F70 		.ascii	"vt_prev\000"
 4805      72657600 
 4806              	.LASF166:
 4807 02b5 64756D6D 		.ascii	"dummy\000"
 4807      7900
 4808              	.LASF198:
 4809 02bb 63685468 		.ascii	"chThdResumeS\000"
 4809      64526573 
 4809      756D6553 
 4809      00
 4810              	.LASF175:
ARM GAS  /tmp/cclwjtNS.s 			page 88


 4811 02c8 6F73616C 		.ascii	"osalSysLock\000"
 4811      5379734C 
 4811      6F636B00 
 4812              	.LASF142:
 4813 02d4 4144435F 		.ascii	"ADC_ERR_OVERFLOW\000"
 4813      4552525F 
 4813      4F564552 
 4813      464C4F57 
 4813      00
 4814              	.LASF174:
 4815 02e5 76616C75 		.ascii	"value\000"
 4815      6500
 4816              	.LASF135:
 4817 02eb 4144435F 		.ascii	"ADC_ACTIVE\000"
 4817      41435449 
 4817      564500
 4818              	.LASF82:
 4819 02f6 69646C65 		.ascii	"idle_thread_wa\000"
 4819      5F746872 
 4819      6561645F 
 4819      776100
 4820              	.LASF28:
 4821 0305 636E745F 		.ascii	"cnt_t\000"
 4821      7400
 4822              	.LASF0:
 4823 030b 756E7369 		.ascii	"unsigned int\000"
 4823      676E6564 
 4823      20696E74 
 4823      00
 4824              	.LASF66:
 4825 0318 76745F6E 		.ascii	"vt_next\000"
 4825      65787400 
 4826              	.LASF185:
 4827 0320 6164634F 		.ascii	"adcObjectInit\000"
 4827      626A6563 
 4827      74496E69 
 4827      7400
 4828              	.LASF113:
 4829 032e 77747365 		.ascii	"wtsemp\000"
 4829      6D7000
 4830              	.LASF43:
 4831 0335 705F6D73 		.ascii	"p_msgqueue\000"
 4831      67717565 
 4831      756500
 4832              	.LASF144:
 4833 0340 41444344 		.ascii	"ADCDriver\000"
 4833      72697665 
 4833      7200
 4834              	.LASF127:
 4835 034a 69736869 		.ascii	"ishift\000"
 4835      667400
 4836              	.LASF118:
 4837 0351 735F636E 		.ascii	"s_cnt\000"
 4837      7400
 4838              	.LASF7:
 4839 0357 73686F72 		.ascii	"short unsigned int\000"
 4839      7420756E 
ARM GAS  /tmp/cclwjtNS.s 			page 89


 4839      7369676E 
 4839      65642069 
 4839      6E7400
 4840              	.LASF51:
 4841 036a 63685F74 		.ascii	"ch_thread\000"
 4841      68726561 
 4841      6400
 4842              	.LASF134:
 4843 0374 4144435F 		.ascii	"ADC_READY\000"
 4843      52454144 
 4843      5900
 4844              	.LASF204:
 4845 037e 6F73616C 		.ascii	"osalThreadSuspendS\000"
 4845      54687265 
 4845      61645375 
 4845      7370656E 
 4845      645300
 4846              	.LASF26:
 4847 0391 6D73675F 		.ascii	"msg_t\000"
 4847      7400
 4848              	.LASF60:
 4849 0397 725F6E65 		.ascii	"r_newer\000"
 4849      77657200 
 4850              	.LASF128:
 4851 039f 73656C66 		.ascii	"selfindex\000"
 4851      696E6465 
 4851      7800
 4852              	.LASF77:
 4853 03a9 63685F73 		.ascii	"ch_system_t\000"
 4853      79737465 
 4853      6D5F7400 
 4854              	.LASF21:
 4855 03b5 746D6F64 		.ascii	"tmode_t\000"
 4855      655F7400 
 4856              	.LASF157:
 4857 03bd 6E756D5F 		.ascii	"num_channels\000"
 4857      6368616E 
 4857      6E656C73 
 4857      00
 4858              	.LASF56:
 4859 03ca 63685F72 		.ascii	"ch_ready_list\000"
 4859      65616479 
 4859      5F6C6973 
 4859      7400
 4860              	.LASF27:
 4861 03d8 6576656E 		.ascii	"eventmask_t\000"
 4861      746D6173 
 4861      6B5F7400 
 4862              	.LASF5:
 4863 03e4 73686F72 		.ascii	"short int\000"
 4863      7420696E 
 4863      7400
 4864              	.LASF8:
 4865 03ee 5F5F696E 		.ascii	"__int32_t\000"
 4865      7433325F 
 4865      7400
 4866              	.LASF184:
ARM GAS  /tmp/cclwjtNS.s 			page 90


 4867 03f8 61646349 		.ascii	"adcInit\000"
 4867      6E697400 
 4868              	.LASF192:
 4869 0400 61646352 		.ascii	"adcReleaseBus\000"
 4869      656C6561 
 4869      73654275 
 4869      7300
 4870              	.LASF104:
 4871 040e 73746B61 		.ascii	"stkalign_t\000"
 4871      6C69676E 
 4871      5F7400
 4872              	.LASF50:
 4873 0419 74687265 		.ascii	"threads_list_t\000"
 4873      6164735F 
 4873      6C697374 
 4873      5F7400
 4874              	.LASF149:
 4875 0428 67727070 		.ascii	"grpp\000"
 4875      00
 4876              	.LASF86:
 4877 042d 4A4F4652 		.ascii	"JOFR1\000"
 4877      3100
 4878              	.LASF87:
 4879 0433 4A4F4652 		.ascii	"JOFR2\000"
 4879      3200
 4880              	.LASF206:
 4881 0439 6164635F 		.ascii	"adc_lld_init\000"
 4881      6C6C645F 
 4881      696E6974 
 4881      00
 4882              	.LASF147:
 4883 0446 73616D70 		.ascii	"samples\000"
 4883      6C657300 
 4884              	.LASF42:
 4885 044e 705F7761 		.ascii	"p_waiting\000"
 4885      6974696E 
 4885      6700
 4886              	.LASF83:
 4887 0458 73697A65 		.ascii	"sizetype\000"
 4887      74797065 
 4887      00
 4888              	.LASF49:
 4889 0461 74687265 		.ascii	"thread_reference_t\000"
 4889      61645F72 
 4889      65666572 
 4889      656E6365 
 4889      5F7400
 4890              	.LASF72:
 4891 0474 63685F76 		.ascii	"ch_virtual_timers_list\000"
 4891      69727475 
 4891      616C5F74 
 4891      696D6572 
 4891      735F6C69 
 4892              	.LASF112:
 4893 048b 77747472 		.ascii	"wttrp\000"
 4893      7000
 4894              	.LASF108:
ARM GAS  /tmp/cclwjtNS.s 			page 91


 4895 0491 746D5F63 		.ascii	"tm_calibration_t\000"
 4895      616C6962 
 4895      72617469 
 4895      6F6E5F74 
 4895      00
 4896              	.LASF133:
 4897 04a2 4144435F 		.ascii	"ADC_STOP\000"
 4897      53544F50 
 4897      00
 4898              	.LASF201:
 4899 04ab 63684D74 		.ascii	"chMtxLock\000"
 4899      784C6F63 
 4899      6B00
 4900              	.LASF36:
 4901 04b5 705F6F6C 		.ascii	"p_older\000"
 4901      64657200 
 4902              	.LASF97:
 4903 04bd 4A445234 		.ascii	"JDR4\000"
 4903      00
 4904              	.LASF59:
 4905 04c2 725F6374 		.ascii	"r_ctx\000"
 4905      7800
 4906              	.LASF84:
 4907 04c8 534D5052 		.ascii	"SMPR1\000"
 4907      3100
 4908              	.LASF85:
 4909 04ce 534D5052 		.ascii	"SMPR2\000"
 4909      3200
 4910              	.LASF122:
 4911 04d4 6D5F6E65 		.ascii	"m_next\000"
 4911      787400
 4912              	.LASF62:
 4913 04db 725F6375 		.ascii	"r_current\000"
 4913      7272656E 
 4913      7400
 4914              	.LASF61:
 4915 04e5 725F6F6C 		.ascii	"r_older\000"
 4915      64657200 
 4916              	.LASF90:
 4917 04ed 53515231 		.ascii	"SQR1\000"
 4917      00
 4918              	.LASF91:
 4919 04f2 53515232 		.ascii	"SQR2\000"
 4919      00
 4920              	.LASF92:
 4921 04f7 53515233 		.ascii	"SQR3\000"
 4921      00
 4922              	.LASF207:
 4923 04fc 63685468 		.ascii	"chThdSuspendS\000"
 4923      64537573 
 4923      70656E64 
 4923      5300
 4924              	.LASF13:
 4925 050a 5F5F7569 		.ascii	"__uint64_t\000"
 4925      6E743634 
 4925      5F7400
 4926              	.LASF179:
ARM GAS  /tmp/cclwjtNS.s 			page 92


 4927 0515 61646353 		.ascii	"adcStartConversionI\000"
 4927      74617274 
 4927      436F6E76 
 4927      65727369 
 4927      6F6E4900 
 4928              	.LASF23:
 4929 0529 74726566 		.ascii	"trefs_t\000"
 4929      735F7400 
 4930              	.LASF64:
 4931 0531 76697274 		.ascii	"virtual_timer_t\000"
 4931      75616C5F 
 4931      74696D65 
 4931      725F7400 
 4932              	.LASF32:
 4933 0541 705F7072 		.ascii	"p_prev\000"
 4933      657600
 4934              	.LASF130:
 4935 0548 73746D33 		.ascii	"stm32_dma_stream_t\000"
 4935      325F646D 
 4935      615F7374 
 4935      7265616D 
 4935      5F7400
 4936              	.LASF25:
 4937 055b 74707269 		.ascii	"tprio_t\000"
 4937      6F5F7400 
 4938              	.LASF151:
 4939 0563 6D757465 		.ascii	"mutex\000"
 4939      7800
 4940              	.LASF194:
 4941 0569 63684D74 		.ascii	"chMtxObjectInit\000"
 4941      784F626A 
 4941      65637449 
 4941      6E697400 
 4942              	.LASF75:
 4943 0579 63685F73 		.ascii	"ch_system_debug\000"
 4943      79737465 
 4943      6D5F6465 
 4943      62756700 
 4944              	.LASF131:
 4945 0589 5F426F6F 		.ascii	"_Bool\000"
 4945      6C00
 4946              	.LASF17:
 4947 058f 696E7433 		.ascii	"int32_t\000"
 4947      325F7400 
 4948              	.LASF4:
 4949 0597 756E7369 		.ascii	"unsigned char\000"
 4949      676E6564 
 4949      20636861 
 4949      7200
 4950              	.LASF46:
 4951 05a5 705F6D74 		.ascii	"p_mtxlist\000"
 4951      786C6973 
 4951      7400
 4952              	.LASF199:
 4953 05af 6164635F 		.ascii	"adc_lld_stop_conversion\000"
 4953      6C6C645F 
 4953      73746F70 
ARM GAS  /tmp/cclwjtNS.s 			page 93


 4953      5F636F6E 
 4953      76657273 
 4954              	.LASF38:
 4955 05c7 705F7374 		.ascii	"p_state\000"
 4955      61746500 
 4956              	.LASF41:
 4957 05cf 705F7072 		.ascii	"p_preempt\000"
 4957      65656D70 
 4957      7400
 4958              	.LASF159:
 4959 05d9 6572726F 		.ascii	"error_cb\000"
 4959      725F6362 
 4959      00
 4960              	.LASF58:
 4961 05e2 725F7072 		.ascii	"r_prio\000"
 4961      696F00
 4962              	.LASF115:
 4963 05e9 65776D61 		.ascii	"ewmask\000"
 4963      736B00
 4964              	.LASF31:
 4965 05f0 705F6E65 		.ascii	"p_next\000"
 4965      787400
 4966              	.LASF39:
 4967 05f7 705F666C 		.ascii	"p_flags\000"
 4967      61677300 
 4968              	.LASF178:
 4969 05ff 5F5F6675 		.ascii	"__func__\000"
 4969      6E635F5F 
 4969      00
 4970              	.LASF88:
 4971 0608 4A4F4652 		.ascii	"JOFR3\000"
 4971      3300
 4972              	.LASF170:
 4973 060e 63685379 		.ascii	"chSysLock\000"
 4973      734C6F63 
 4973      6B00
 4974              	.LASF89:
 4975 0618 4A4F4652 		.ascii	"JOFR4\000"
 4975      3400
 4976              	.LASF176:
 4977 061e 6F73616C 		.ascii	"osalSysUnlock\000"
 4977      53797355 
 4977      6E6C6F63 
 4977      6B00
 4978              	.LASF116:
 4979 062c 63685F73 		.ascii	"ch_semaphore\000"
 4979      656D6170 
 4979      686F7265 
 4979      00
 4980              	.LASF45:
 4981 0639 705F6570 		.ascii	"p_epending\000"
 4981      656E6469 
 4981      6E6700
 4982              	.LASF126:
 4983 0644 69666372 		.ascii	"ifcr\000"
 4983      00
 4984              	.LASF18:
ARM GAS  /tmp/cclwjtNS.s 			page 94


 4985 0649 75696E74 		.ascii	"uint32_t\000"
 4985      33325F74 
 4985      00
 4986              	.LASF114:
 4987 0652 77746D74 		.ascii	"wtmtxp\000"
 4987      787000
 4988              	.LASF57:
 4989 0659 725F7175 		.ascii	"r_queue\000"
 4989      65756500 
 4990              	.LASF68:
 4991 0661 76745F64 		.ascii	"vt_delta\000"
 4991      656C7461 
 4991      00
 4992              	.LASF52:
 4993 066a 63685F74 		.ascii	"ch_threads_list\000"
 4993      68726561 
 4993      64735F6C 
 4993      69737400 
 4994              	.LASF24:
 4995 067a 74736C69 		.ascii	"tslices_t\000"
 4995      6365735F 
 4995      7400
 4996              	.LASF11:
 4997 0684 6C6F6E67 		.ascii	"long unsigned int\000"
 4997      20756E73 
 4997      69676E65 
 4997      6420696E 
 4997      7400
 4998              	.LASF202:
 4999 0696 474E5520 		.ascii	"GNU C 4.9.3 20150529 (prerelease) -mcpu=cortex-m3 -"
 4999      4320342E 
 4999      392E3320 
 4999      32303135 
 4999      30353239 
 5000 06c9 6D6E6F2D 		.ascii	"mno-thumb-interwork -mthumb -ggdb -O2 -std=c99 -fom"
 5000      7468756D 
 5000      622D696E 
 5000      74657277 
 5000      6F726B20 
 5001 06fc 69742D66 		.ascii	"it-frame-pointer -falign-functions=16 -ffunction-se"
 5001      72616D65 
 5001      2D706F69 
 5001      6E746572 
 5001      202D6661 
 5002 072f 6374696F 		.ascii	"ctions -fdata-sections -fno-common\000"
 5002      6E73202D 
 5002      66646174 
 5002      612D7365 
 5002      6374696F 
 5003              	.LASF123:
 5004 0752 63686172 		.ascii	"char\000"
 5004      00
 5005              	.LASF146:
 5006 0757 636F6E66 		.ascii	"config\000"
 5006      696700
 5007              	.LASF183:
 5008 075e 6F73616C 		.ascii	"osalMutexUnlock\000"
ARM GAS  /tmp/cclwjtNS.s 			page 95


 5008      4D757465 
 5008      78556E6C 
 5008      6F636B00 
 5009              	.LASF6:
 5010 076e 5F5F7569 		.ascii	"__uint16_t\000"
 5010      6E743136 
 5010      5F7400
 5011              	.LASF30:
 5012 0779 74687265 		.ascii	"thread_t\000"
 5012      61645F74 
 5012      00
 5013              	.LASF162:
 5014 0782 73717231 		.ascii	"sqr1\000"
 5014      00
 5015              	.LASF163:
 5016 0787 73717232 		.ascii	"sqr2\000"
 5016      00
 5017              	.LASF164:
 5018 078c 73717233 		.ascii	"sqr3\000"
 5018      00
 5019              	.LASF29:
 5020 0791 73797374 		.ascii	"systime_t\000"
 5020      696D655F 
 5020      7400
 5021              	.LASF47:
 5022 079b 705F7265 		.ascii	"p_realprio\000"
 5022      616C7072 
 5022      696F00
 5023              	.LASF63:
 5024 07a6 76746675 		.ascii	"vtfunc_t\000"
 5024      6E635F74 
 5024      00
 5025              	.LASF10:
 5026 07af 5F5F7569 		.ascii	"__uint32_t\000"
 5026      6E743332 
 5026      5F7400
 5027              	.LASF171:
 5028 07ba 5F5F7365 		.ascii	"__set_BASEPRI\000"
 5028      745F4241 
 5028      53455052 
 5028      4900
 5029              	.LASF182:
 5030 07c8 6F73616C 		.ascii	"osalMutexLock\000"
 5030      4D757465 
 5030      784C6F63 
 5030      6B00
 5031              	.LASF99:
 5032 07d6 4E445452 		.ascii	"NDTR\000"
 5032      00
 5033              	.LASF76:
 5034 07db 70616E69 		.ascii	"panic_msg\000"
 5034      635F6D73 
 5034      6700
 5035              	.LASF107:
 5036 07e5 6F666673 		.ascii	"offset\000"
 5036      657400
 5037              	.LASF102:
ARM GAS  /tmp/cclwjtNS.s 			page 96


 5038 07ec 444D415F 		.ascii	"DMA_Stream_TypeDef\000"
 5038      53747265 
 5038      616D5F54 
 5038      79706544 
 5038      656600
 5039              	.LASF105:
 5040 07ff 636F6E74 		.ascii	"context\000"
 5040      65787400 
 5041              	.LASF65:
 5042 0807 63685F76 		.ascii	"ch_virtual_timer\000"
 5042      69727475 
 5042      616C5F74 
 5042      696D6572 
 5042      00
 5043              	.LASF188:
 5044 0818 61646353 		.ascii	"adcStartConversion\000"
 5044      74617274 
 5044      436F6E76 
 5044      65727369 
 5044      6F6E00
 5045              	.LASF20:
 5046 082b 7274636E 		.ascii	"rtcnt_t\000"
 5046      745F7400 
 5047              	.LASF101:
 5048 0833 4D314152 		.ascii	"M1AR\000"
 5048      00
 5049              	.LASF195:
 5050 0838 6164635F 		.ascii	"adc_lld_start\000"
 5050      6C6C645F 
 5050      73746172 
 5050      7400
 5051              	.LASF70:
 5052 0846 76745F70 		.ascii	"vt_par\000"
 5052      617200
 5053              	.LASF186:
 5054 084d 61646353 		.ascii	"adcStart\000"
 5054      74617274 
 5054      00
 5055              	.LASF53:
 5056 0856 74687265 		.ascii	"threads_queue_t\000"
 5056      6164735F 
 5056      71756575 
 5056      655F7400 
 5057              	.LASF119:
 5058 0866 63685F6D 		.ascii	"ch_mutex\000"
 5058      75746578 
 5058      00
 5059              	.LASF40:
 5060 086f 705F7265 		.ascii	"p_refs\000"
 5060      667300
 5061              	.LASF160:
 5062 0876 736D7072 		.ascii	"smpr1\000"
 5062      3100
 5063              	.LASF161:
 5064 087c 736D7072 		.ascii	"smpr2\000"
 5064      3200
 5065              	.LASF79:
ARM GAS  /tmp/cclwjtNS.s 			page 97


 5066 0882 726C6973 		.ascii	"rlist\000"
 5066      7400
 5067              	.LASF15:
 5068 0888 75696E74 		.ascii	"uint8_t\000"
 5068      385F7400 
 5069              	.LASF190:
 5070 0890 61646353 		.ascii	"adcStopConversionI\000"
 5070      746F7043 
 5070      6F6E7665 
 5070      7273696F 
 5070      6E4900
 5071              	.LASF165:
 5072 08a3 41444343 		.ascii	"ADCConversionGroup\000"
 5072      6F6E7665 
 5072      7273696F 
 5072      6E47726F 
 5072      757000
 5073              	.LASF94:
 5074 08b6 4A445231 		.ascii	"JDR1\000"
 5074      00
 5075              	.LASF95:
 5076 08bb 4A445232 		.ascii	"JDR2\000"
 5076      00
 5077              	.LASF96:
 5078 08c0 4A445233 		.ascii	"JDR3\000"
 5078      00
 5079              	.LASF153:
 5080 08c5 646D616D 		.ascii	"dmamode\000"
 5080      6F646500 
 5081              	.LASF111:
 5082 08cd 77746F62 		.ascii	"wtobjp\000"
 5082      6A7000
 5083              	.LASF136:
 5084 08d4 4144435F 		.ascii	"ADC_COMPLETE\000"
 5084      434F4D50 
 5084      4C455445 
 5084      00
 5085              	.LASF37:
 5086 08e1 705F6E61 		.ascii	"p_name\000"
 5086      6D6500
 5087              	.LASF140:
 5088 08e8 6164635F 		.ascii	"adc_channels_num_t\000"
 5088      6368616E 
 5088      6E656C73 
 5088      5F6E756D 
 5088      5F7400
 5089              	.LASF73:
 5090 08fb 76745F73 		.ascii	"vt_systime\000"
 5090      79737469 
 5090      6D6500
 5091              	.LASF172:
 5092 0906 63685379 		.ascii	"chSysUnlock\000"
 5092      73556E6C 
 5092      6F636B00 
 5093              	.LASF44:
 5094 0912 705F6D73 		.ascii	"p_msg\000"
 5094      6700
ARM GAS  /tmp/cclwjtNS.s 			page 98


 5095              	.LASF177:
 5096 0918 61646370 		.ascii	"adcp\000"
 5096      00
 5097              	.LASF189:
 5098 091d 61646353 		.ascii	"adcStopConversion\000"
 5098      746F7043 
 5098      6F6E7665 
 5098      7273696F 
 5098      6E00
 5099              	.LASF124:
 5100 092f 6D757465 		.ascii	"mutex_t\000"
 5100      785F7400 
 5101              	.LASF121:
 5102 0937 6D5F6F77 		.ascii	"m_owner\000"
 5102      6E657200 
 5103              	.LASF191:
 5104 093f 61646341 		.ascii	"adcAcquireBus\000"
 5104      63717569 
 5104      72654275 
 5104      7300
 5105              	.LASF34:
 5106 094d 705F6374 		.ascii	"p_ctx\000"
 5106      7800
 5107              	.LASF69:
 5108 0953 76745F66 		.ascii	"vt_func\000"
 5108      756E6300 
 5109              		.ident	"GCC: (15:4.9.3+svn227297-1) 4.9.3 20150529 (prerelease)"
ARM GAS  /tmp/cclwjtNS.s 			page 99


DEFINED SYMBOLS
                            *ABS*:00000000 adc.c
     /tmp/cclwjtNS.s:19     .text.adcInit:00000000 $t
     /tmp/cclwjtNS.s:25     .text.adcInit:00000000 adcInit
     /tmp/cclwjtNS.s:40     .text.adcObjectInit:00000000 $t
     /tmp/cclwjtNS.s:46     .text.adcObjectInit:00000000 adcObjectInit
     /tmp/cclwjtNS.s:84     .text.adcStart:00000000 $t
     /tmp/cclwjtNS.s:90     .text.adcStart:00000000 adcStart
     /tmp/cclwjtNS.s:163    .text.adcStop:00000000 $t
     /tmp/cclwjtNS.s:169    .text.adcStop:00000000 adcStop
     /tmp/cclwjtNS.s:239    .text.adcStartConversion:00000000 $t
     /tmp/cclwjtNS.s:245    .text.adcStartConversion:00000000 adcStartConversion
     /tmp/cclwjtNS.s:315    .text.adcStartConversionI:00000000 $t
     /tmp/cclwjtNS.s:321    .text.adcStartConversionI:00000000 adcStartConversionI
     /tmp/cclwjtNS.s:354    .text.adcStopConversion:00000000 $t
     /tmp/cclwjtNS.s:360    .text.adcStopConversion:00000000 adcStopConversion
     /tmp/cclwjtNS.s:454    .text.adcStopConversionI:00000000 $t
     /tmp/cclwjtNS.s:460    .text.adcStopConversionI:00000000 adcStopConversionI
     /tmp/cclwjtNS.s:516    .text.adcConvert:00000000 $t
     /tmp/cclwjtNS.s:522    .text.adcConvert:00000000 adcConvert
     /tmp/cclwjtNS.s:602    .text.adcAcquireBus:00000000 $t
     /tmp/cclwjtNS.s:608    .text.adcAcquireBus:00000000 adcAcquireBus
     /tmp/cclwjtNS.s:629    .text.adcReleaseBus:00000000 $t
     /tmp/cclwjtNS.s:635    .text.adcReleaseBus:00000000 adcReleaseBus
                     .debug_frame:00000010 $d

UNDEFINED SYMBOLS
adc_lld_init
chMtxObjectInit
adc_lld_start
adc_lld_stop
adc_lld_start_conversion
adc_lld_stop_conversion
chThdResumeS
chThdResumeI
chThdSuspendS
chMtxLock
chMtxUnlock
