ARM GAS  /tmp/cclwjtNS.s 			page 1


   1              		.syntax unified
   2              		.cpu cortex-m3
   3              		.fpu softvfp
   4              		.eabi_attribute 20, 1
   5              		.eabi_attribute 21, 1
   6              		.eabi_attribute 23, 3
   7              		.eabi_attribute 24, 1
   8              		.eabi_attribute 25, 1
   9              		.eabi_attribute 26, 1
  10              		.eabi_attribute 30, 2
  11              		.eabi_attribute 34, 1
  12              		.eabi_attribute 18, 4
  13              		.thumb
  14              		.file	"adc.c"
  15              		.text
  16              	.Ltext0:
  17              		.cfi_sections	.debug_frame
  18              		.section	.text.adcInit,"ax",%progbits
  19              		.align	2
  20              		.p2align 4,,15
  21              		.global	adcInit
  22              		.thumb
  23              		.thumb_func
  24              		.type	adcInit, %function
  25              	adcInit:
  26              	.LFB207:
  27              		.file 1 "/home/peter/ChibiOS_16.1.4/os/hal/src/adc.c"
  28              		.loc 1 56 0
  29              		.cfi_startproc
  30              		@ args = 0, pretend = 0, frame = 0
  31              		@ frame_needed = 0, uses_anonymous_args = 0
  32              		@ link register save eliminated.
  33              		.loc 1 58 0
  34 0000 FFF7FEBF 		b	adc_lld_init
  35              	.LVL0:
  36              		.cfi_endproc
  37              	.LFE207:
  38              		.size	adcInit, .-adcInit
  39 0004 AFF30080 		.section	.text.adcObjectInit,"ax",%progbits
  39      AFF30080 
  39      AFF30080 
  40              		.align	2
  41              		.p2align 4,,15
  42              		.global	adcObjectInit
  43              		.thumb
  44              		.thumb_func
  45              		.type	adcObjectInit, %function
  46              	adcObjectInit:
  47              	.LFB208:
  48              		.loc 1 68 0
  49              		.cfi_startproc
  50              		@ args = 0, pretend = 0, frame = 0
  51              		@ frame_needed = 0, uses_anonymous_args = 0
  52              		@ link register save eliminated.
  53              	.LVL1:
  54              		.loc 1 71 0
  55 0000 0023     		movs	r3, #0
ARM GAS  /tmp/cclwjtNS.s 			page 2


  56              		.loc 1 70 0
  57 0002 0122     		movs	r2, #1
  58 0004 0270     		strb	r2, [r0]
  59              		.loc 1 71 0
  60 0006 4360     		str	r3, [r0, #4]
  61              		.loc 1 72 0
  62 0008 8360     		str	r3, [r0, #8]
  63              		.loc 1 73 0
  64 000a C360     		str	r3, [r0, #12]
  65              		.loc 1 74 0
  66 000c 0361     		str	r3, [r0, #16]
  67              		.loc 1 76 0
  68 000e 4361     		str	r3, [r0, #20]
  69              	.LVL2:
  70              	.LBB105:
  71              	.LBB106:
  72              		.file 2 "/home/peter/ChibiOS_16.1.4/os/hal/osal/rt/osal.h"
  73              		.loc 2 887 0
  74 0010 1830     		adds	r0, r0, #24
  75              	.LVL3:
  76 0012 FFF7FEBF 		b	chMtxObjectInit
  77              	.LVL4:
  78              	.LBE106:
  79              	.LBE105:
  80              		.cfi_endproc
  81              	.LFE208:
  82              		.size	adcObjectInit, .-adcObjectInit
  83 0016 00BFAFF3 		.section	.text.adcStart,"ax",%progbits
  83      0080AFF3 
  83      0080
  84              		.align	2
  85              		.p2align 4,,15
  86              		.global	adcStart
  87              		.thumb
  88              		.thumb_func
  89              		.type	adcStart, %function
  90              	adcStart:
  91              	.LFB209:
  92              		.loc 1 95 0
  93              		.cfi_startproc
  94              		@ args = 0, pretend = 0, frame = 0
  95              		@ frame_needed = 0, uses_anonymous_args = 0
  96              	.LVL5:
  97 0000 10B5     		push	{r4, lr}
  98              		.cfi_def_cfa_offset 8
  99              		.cfi_offset 4, -8
 100              		.cfi_offset 14, -4
 101              	.LBB107:
 102              	.LBB108:
 103              	.LBB109:
 104              	.LBB110:
 105              	.LBB111:
 106              		.file 3 "/home/peter/ChibiOS_16.1.4/os/ext/CMSIS/include/core_cmFunc.h"
 107              		.loc 3 548 0
 108 0002 2023     		movs	r3, #32
 109              	.LBE111:
 110              	.LBE110:
ARM GAS  /tmp/cclwjtNS.s 			page 3


 111              	.LBE109:
 112              	.LBE108:
 113              	.LBE107:
 114              		.loc 1 95 0
 115 0004 0446     		mov	r4, r0
 116              	.LBB116:
 117              	.LBB115:
 118              	.LBB114:
 119              	.LBB113:
 120              	.LBB112:
 121              		.loc 3 548 0
 122              	@ 548 "/home/peter/ChibiOS_16.1.4/os/ext/CMSIS/include/core_cmFunc.h" 1
 123 0006 83F31188 		MSR basepri, r3
 124              	@ 0 "" 2
 125              		.thumb
 126              	.LBE112:
 127              	.LBE113:
 128              	.LBE114:
 129              	.LBE115:
 130              	.LBE116:
 131              		.loc 1 102 0
 132 000a 4160     		str	r1, [r0, #4]
 133              		.loc 1 103 0
 134 000c FFF7FEFF 		bl	adc_lld_start
 135              	.LVL6:
 136              		.loc 1 104 0
 137 0010 0223     		movs	r3, #2
 138 0012 2370     		strb	r3, [r4]
 139              	.LVL7:
 140              	.LBB117:
 141              	.LBB118:
 142              	.LBB119:
 143              	.LBB120:
 144              	.LBB121:
 145              	.LBB122:
 146              		.loc 3 548 0
 147 0014 0023     		movs	r3, #0
 148              	@ 548 "/home/peter/ChibiOS_16.1.4/os/ext/CMSIS/include/core_cmFunc.h" 1
 149 0016 83F31188 		MSR basepri, r3
 150              	@ 0 "" 2
 151              		.thumb
 152 001a 10BD     		pop	{r4, pc}
 153              	.LBE122:
 154              	.LBE121:
 155              	.LBE120:
 156              	.LBE119:
 157              	.LBE118:
 158              	.LBE117:
 159              		.cfi_endproc
 160              	.LFE209:
 161              		.size	adcStart, .-adcStart
 162 001c AFF30080 		.section	.text.adcStop,"ax",%progbits
 163              		.align	2
 164              		.p2align 4,,15
 165              		.global	adcStop
 166              		.thumb
 167              		.thumb_func
ARM GAS  /tmp/cclwjtNS.s 			page 4


 168              		.type	adcStop, %function
 169              	adcStop:
 170              	.LFB210:
 171              		.loc 1 115 0
 172              		.cfi_startproc
 173              		@ args = 0, pretend = 0, frame = 0
 174              		@ frame_needed = 0, uses_anonymous_args = 0
 175              	.LVL8:
 176 0000 10B5     		push	{r4, lr}
 177              		.cfi_def_cfa_offset 8
 178              		.cfi_offset 4, -8
 179              		.cfi_offset 14, -4
 180              	.LBB123:
 181              	.LBB124:
 182              	.LBB125:
 183              	.LBB126:
 184              	.LBB127:
 185              		.loc 3 548 0
 186 0002 2023     		movs	r3, #32
 187              	.LBE127:
 188              	.LBE126:
 189              	.LBE125:
 190              	.LBE124:
 191              	.LBE123:
 192              		.loc 1 115 0
 193 0004 0446     		mov	r4, r0
 194              	.LBB132:
 195              	.LBB131:
 196              	.LBB130:
 197              	.LBB129:
 198              	.LBB128:
 199              		.loc 3 548 0
 200              	@ 548 "/home/peter/ChibiOS_16.1.4/os/ext/CMSIS/include/core_cmFunc.h" 1
 201 0006 83F31188 		MSR basepri, r3
 202              	@ 0 "" 2
 203              		.thumb
 204              	.LBE128:
 205              	.LBE129:
 206              	.LBE130:
 207              	.LBE131:
 208              	.LBE132:
 209              		.loc 1 122 0
 210 000a FFF7FEFF 		bl	adc_lld_stop
 211              	.LVL9:
 212              		.loc 1 123 0
 213 000e 0123     		movs	r3, #1
 214 0010 2370     		strb	r3, [r4]
 215              	.LVL10:
 216              	.LBB133:
 217              	.LBB134:
 218              	.LBB135:
 219              	.LBB136:
 220              	.LBB137:
 221              	.LBB138:
 222              		.loc 3 548 0
 223 0012 0023     		movs	r3, #0
 224              	@ 548 "/home/peter/ChibiOS_16.1.4/os/ext/CMSIS/include/core_cmFunc.h" 1
ARM GAS  /tmp/cclwjtNS.s 			page 5


 225 0014 83F31188 		MSR basepri, r3
 226              	@ 0 "" 2
 227              		.thumb
 228 0018 10BD     		pop	{r4, pc}
 229              	.LBE138:
 230              	.LBE137:
 231              	.LBE136:
 232              	.LBE135:
 233              	.LBE134:
 234              	.LBE133:
 235              		.cfi_endproc
 236              	.LFE210:
 237              		.size	adcStop, .-adcStop
 238 001a 00BFAFF3 		.section	.text.adcStartConversion,"ax",%progbits
 238      0080
 239              		.align	2
 240              		.p2align 4,,15
 241              		.global	adcStartConversion
 242              		.thumb
 243              		.thumb_func
 244              		.type	adcStartConversion, %function
 245              	adcStartConversion:
 246              	.LFB211:
 247              		.loc 1 146 0
 248              		.cfi_startproc
 249              		@ args = 0, pretend = 0, frame = 0
 250              		@ frame_needed = 0, uses_anonymous_args = 0
 251              	.LVL11:
 252 0000 38B5     		push	{r3, r4, r5, lr}
 253              		.cfi_def_cfa_offset 16
 254              		.cfi_offset 3, -16
 255              		.cfi_offset 4, -12
 256              		.cfi_offset 5, -8
 257              		.cfi_offset 14, -4
 258              	.LBB139:
 259              	.LBB140:
 260              	.LBB141:
 261              	.LBB142:
 262              	.LBB143:
 263              		.loc 3 548 0
 264 0002 2025     		movs	r5, #32
 265              	@ 548 "/home/peter/ChibiOS_16.1.4/os/ext/CMSIS/include/core_cmFunc.h" 1
 266 0004 85F31188 		MSR basepri, r5
 267              	@ 0 "" 2
 268              	.LVL12:
 269              		.thumb
 270              	.LBE143:
 271              	.LBE142:
 272              	.LBE141:
 273              	.LBE140:
 274              	.LBE139:
 275              	.LBB144:
 276              	.LBB145:
 277              		.loc 1 187 0
 278 0008 0325     		movs	r5, #3
 279              		.loc 1 185 0
 280 000a C360     		str	r3, [r0, #12]
ARM GAS  /tmp/cclwjtNS.s 			page 6


 281              		.loc 1 184 0
 282 000c 8260     		str	r2, [r0, #8]
 283              		.loc 1 186 0
 284 000e 0161     		str	r1, [r0, #16]
 285              		.loc 1 187 0
 286 0010 0570     		strb	r5, [r0]
 287              		.loc 1 188 0
 288 0012 FFF7FEFF 		bl	adc_lld_start_conversion
 289              	.LVL13:
 290              	.LBE145:
 291              	.LBE144:
 292              	.LBB146:
 293              	.LBB147:
 294              	.LBB148:
 295              	.LBB149:
 296              	.LBB150:
 297              	.LBB151:
 298              		.loc 3 548 0
 299 0016 0023     		movs	r3, #0
 300              	@ 548 "/home/peter/ChibiOS_16.1.4/os/ext/CMSIS/include/core_cmFunc.h" 1
 301 0018 83F31188 		MSR basepri, r3
 302              	@ 0 "" 2
 303              		.thumb
 304 001c 38BD     		pop	{r3, r4, r5, pc}
 305              	.LBE151:
 306              	.LBE150:
 307              	.LBE149:
 308              	.LBE148:
 309              	.LBE147:
 310              	.LBE146:
 311              		.cfi_endproc
 312              	.LFE211:
 313              		.size	adcStartConversion, .-adcStartConversion
 314 001e 00BF     		.section	.text.adcStartConversionI,"ax",%progbits
 315              		.align	2
 316              		.p2align 4,,15
 317              		.global	adcStartConversionI
 318              		.thumb
 319              		.thumb_func
 320              		.type	adcStartConversionI, %function
 321              	adcStartConversionI:
 322              	.LFB212:
 323              		.loc 1 174 0
 324              		.cfi_startproc
 325              		@ args = 0, pretend = 0, frame = 0
 326              		@ frame_needed = 0, uses_anonymous_args = 0
 327              		@ link register save eliminated.
 328              	.LVL14:
 329 0000 30B4     		push	{r4, r5}
 330              		.cfi_def_cfa_offset 8
 331              		.cfi_offset 4, -8
 332              		.cfi_offset 5, -4
 333              		.loc 1 187 0
 334 0002 0325     		movs	r5, #3
 335 0004 0570     		strb	r5, [r0]
 336              		.loc 1 184 0
 337 0006 8260     		str	r2, [r0, #8]
ARM GAS  /tmp/cclwjtNS.s 			page 7


 338              		.loc 1 185 0
 339 0008 C360     		str	r3, [r0, #12]
 340              		.loc 1 186 0
 341 000a 0161     		str	r1, [r0, #16]
 342              		.loc 1 189 0
 343 000c 30BC     		pop	{r4, r5}
 344              		.cfi_restore 5
 345              		.cfi_restore 4
 346              		.cfi_def_cfa_offset 0
 347              		.loc 1 188 0
 348 000e FFF7FEBF 		b	adc_lld_start_conversion
 349              	.LVL15:
 350              		.cfi_endproc
 351              	.LFE212:
 352              		.size	adcStartConversionI, .-adcStartConversionI
 353 0012 00BFAFF3 		.section	.text.adcStopConversion,"ax",%progbits
 353      0080AFF3 
 353      0080AFF3 
 353      0080
 354              		.align	2
 355              		.p2align 4,,15
 356              		.global	adcStopConversion
 357              		.thumb
 358              		.thumb_func
 359              		.type	adcStopConversion, %function
 360              	adcStopConversion:
 361              	.LFB213:
 362              		.loc 1 201 0
 363              		.cfi_startproc
 364              		@ args = 0, pretend = 0, frame = 0
 365              		@ frame_needed = 0, uses_anonymous_args = 0
 366              	.LVL16:
 367              	.LBB152:
 368              	.LBB153:
 369              	.LBB154:
 370              	.LBB155:
 371              	.LBB156:
 372              		.loc 3 548 0
 373 0000 2022     		movs	r2, #32
 374              	@ 548 "/home/peter/ChibiOS_16.1.4/os/ext/CMSIS/include/core_cmFunc.h" 1
 375 0002 82F31188 		MSR basepri, r2
 376              	@ 0 "" 2
 377              		.thumb
 378              	.LBE156:
 379              	.LBE155:
 380              	.LBE154:
 381              	.LBE153:
 382              	.LBE152:
 383              		.loc 1 208 0
 384 0006 0278     		ldrb	r2, [r0]	@ zero_extendqisi2
 385 0008 022A     		cmp	r2, #2
 386 000a 11D0     		beq	.L17
 387              		.loc 1 201 0
 388 000c 10B5     		push	{r4, lr}
 389              		.cfi_def_cfa_offset 8
 390              		.cfi_offset 4, -8
 391              		.cfi_offset 14, -4
ARM GAS  /tmp/cclwjtNS.s 			page 8


 392 000e 0446     		mov	r4, r0
 393              		.loc 1 209 0
 394 0010 FFF7FEFF 		bl	adc_lld_stop_conversion
 395              	.LVL17:
 396              		.loc 1 211 0
 397 0014 2046     		mov	r0, r4
 398              		.loc 1 210 0
 399 0016 0022     		movs	r2, #0
 400              		.loc 1 211 0
 401 0018 0223     		movs	r3, #2
 402              		.loc 1 210 0
 403 001a 2261     		str	r2, [r4, #16]
 404              	.LBB157:
 405              	.LBB158:
 406              		.loc 2 743 0
 407 001c 6FF00101 		mvn	r1, #1
 408              	.LBE158:
 409              	.LBE157:
 410              		.loc 1 211 0
 411 0020 00F8143B 		strb	r3, [r0], #20
 412              	.LVL18:
 413              	.LBB160:
 414              	.LBB159:
 415              		.loc 2 743 0
 416 0024 FFF7FEFF 		bl	chThdResumeS
 417              	.LVL19:
 418              	.LBE159:
 419              	.LBE160:
 420              	.LBB161:
 421              	.LBB162:
 422              	.LBB163:
 423              	.LBB164:
 424              	.LBB165:
 425              	.LBB166:
 426              		.loc 3 548 0
 427 0028 0023     		movs	r3, #0
 428              	@ 548 "/home/peter/ChibiOS_16.1.4/os/ext/CMSIS/include/core_cmFunc.h" 1
 429 002a 83F31188 		MSR basepri, r3
 430              	@ 0 "" 2
 431              		.thumb
 432 002e 10BD     		pop	{r4, pc}
 433              	.LVL20:
 434              	.L17:
 435              		.cfi_def_cfa_offset 0
 436              		.cfi_restore 4
 437              		.cfi_restore 14
 438 0030 0023     		movs	r3, #0
 439              	@ 548 "/home/peter/ChibiOS_16.1.4/os/ext/CMSIS/include/core_cmFunc.h" 1
 440 0032 83F31188 		MSR basepri, r3
 441              	@ 0 "" 2
 442              		.thumb
 443 0036 7047     		bx	lr
 444              	.LBE166:
 445              	.LBE165:
 446              	.LBE164:
 447              	.LBE163:
 448              	.LBE162:
ARM GAS  /tmp/cclwjtNS.s 			page 9


 449              	.LBE161:
 450              		.cfi_endproc
 451              	.LFE213:
 452              		.size	adcStopConversion, .-adcStopConversion
 453 0038 AFF30080 		.section	.text.adcStopConversionI,"ax",%progbits
 453      AFF30080 
 454              		.align	2
 455              		.p2align 4,,15
 456              		.global	adcStopConversionI
 457              		.thumb
 458              		.thumb_func
 459              		.type	adcStopConversionI, %function
 460              	adcStopConversionI:
 461              	.LFB214:
 462              		.loc 1 227 0
 463              		.cfi_startproc
 464              		@ args = 0, pretend = 0, frame = 0
 465              		@ frame_needed = 0, uses_anonymous_args = 0
 466              	.LVL21:
 467              		.loc 1 236 0
 468 0000 0278     		ldrb	r2, [r0]	@ zero_extendqisi2
 469 0002 022A     		cmp	r2, #2
 470 0004 0FD0     		beq	.L22
 471              		.loc 1 227 0
 472 0006 10B5     		push	{r4, lr}
 473              		.cfi_def_cfa_offset 8
 474              		.cfi_offset 4, -8
 475              		.cfi_offset 14, -4
 476 0008 0446     		mov	r4, r0
 477              		.loc 1 237 0
 478 000a FFF7FEFF 		bl	adc_lld_stop_conversion
 479              	.LVL22:
 480              		.loc 1 239 0
 481 000e 2046     		mov	r0, r4
 482              		.loc 1 238 0
 483 0010 0022     		movs	r2, #0
 484              		.loc 1 239 0
 485 0012 0223     		movs	r3, #2
 486              		.loc 1 238 0
 487 0014 2261     		str	r2, [r4, #16]
 488              	.LBB167:
 489              	.LBB168:
 490              		.loc 2 728 0
 491 0016 6FF00101 		mvn	r1, #1
 492              	.LBE168:
 493              	.LBE167:
 494              		.loc 1 239 0
 495 001a 00F8143B 		strb	r3, [r0], #20
 496              	.LVL23:
 497              		.loc 1 242 0
 498 001e BDE81040 		pop	{r4, lr}
 499              		.cfi_restore 14
 500              		.cfi_restore 4
 501              		.cfi_def_cfa_offset 0
 502              	.LVL24:
 503              	.LBB170:
 504              	.LBB169:
ARM GAS  /tmp/cclwjtNS.s 			page 10


 505              		.loc 2 728 0
 506 0022 FFF7FEBF 		b	chThdResumeI
 507              	.LVL25:
 508              	.L22:
 509 0026 7047     		bx	lr
 510              	.LBE169:
 511              	.LBE170:
 512              		.cfi_endproc
 513              	.LFE214:
 514              		.size	adcStopConversionI, .-adcStopConversionI
 515 0028 AFF30080 		.section	.text.adcConvert,"ax",%progbits
 515      AFF30080 
 516              		.align	2
 517              		.p2align 4,,15
 518              		.global	adcConvert
 519              		.thumb
 520              		.thumb_func
 521              		.type	adcConvert, %function
 522              	adcConvert:
 523              	.LFB215:
 524              		.loc 1 271 0
 525              		.cfi_startproc
 526              		@ args = 0, pretend = 0, frame = 0
 527              		@ frame_needed = 0, uses_anonymous_args = 0
 528              	.LVL26:
 529 0000 70B5     		push	{r4, r5, r6, lr}
 530              		.cfi_def_cfa_offset 16
 531              		.cfi_offset 4, -16
 532              		.cfi_offset 5, -12
 533              		.cfi_offset 6, -8
 534              		.cfi_offset 14, -4
 535              	.LBB171:
 536              	.LBB172:
 537              	.LBB173:
 538              	.LBB174:
 539              	.LBB175:
 540              		.loc 3 548 0
 541 0002 2025     		movs	r5, #32
 542              	@ 548 "/home/peter/ChibiOS_16.1.4/os/ext/CMSIS/include/core_cmFunc.h" 1
 543 0004 85F31188 		MSR basepri, r5
 544              	@ 0 "" 2
 545              	.LVL27:
 546              		.thumb
 547              	.LBE175:
 548              	.LBE174:
 549              	.LBE173:
 550              	.LBE172:
 551              	.LBE171:
 552              	.LBB176:
 553              	.LBB177:
 554              		.loc 1 187 0
 555 0008 0546     		mov	r5, r0
 556 000a 0326     		movs	r6, #3
 557              		.loc 1 184 0
 558 000c 8260     		str	r2, [r0, #8]
 559              		.loc 1 185 0
 560 000e C360     		str	r3, [r0, #12]
ARM GAS  /tmp/cclwjtNS.s 			page 11


 561              		.loc 1 186 0
 562 0010 0161     		str	r1, [r0, #16]
 563              		.loc 1 187 0
 564 0012 05F8146B 		strb	r6, [r5], #20
 565              		.loc 1 188 0
 566 0016 FFF7FEFF 		bl	adc_lld_start_conversion
 567              	.LVL28:
 568              	.LBE177:
 569              	.LBE176:
 570              	.LBB178:
 571              	.LBB179:
 572              		.loc 2 688 0
 573 001a 2846     		mov	r0, r5
 574 001c FFF7FEFF 		bl	chThdSuspendS
 575              	.LVL29:
 576              	.LBE179:
 577              	.LBE178:
 578              	.LBB180:
 579              	.LBB181:
 580              	.LBB182:
 581              	.LBB183:
 582              	.LBB184:
 583              	.LBB185:
 584              		.loc 3 548 0
 585 0020 0023     		movs	r3, #0
 586              	@ 548 "/home/peter/ChibiOS_16.1.4/os/ext/CMSIS/include/core_cmFunc.h" 1
 587 0022 83F31188 		MSR basepri, r3
 588              	@ 0 "" 2
 589              		.thumb
 590              	.LBE185:
 591              	.LBE184:
 592              	.LBE183:
 593              	.LBE182:
 594              	.LBE181:
 595              	.LBE180:
 596              		.loc 1 280 0
 597 0026 70BD     		pop	{r4, r5, r6, pc}
 598              		.cfi_endproc
 599              	.LFE215:
 600              		.size	adcConvert, .-adcConvert
 601 0028 AFF30080 		.section	.text.adcAcquireBus,"ax",%progbits
 601      AFF30080 
 602              		.align	2
 603              		.p2align 4,,15
 604              		.global	adcAcquireBus
 605              		.thumb
 606              		.thumb_func
 607              		.type	adcAcquireBus, %function
 608              	adcAcquireBus:
 609              	.LFB216:
 610              		.loc 1 295 0
 611              		.cfi_startproc
 612              		@ args = 0, pretend = 0, frame = 0
 613              		@ frame_needed = 0, uses_anonymous_args = 0
 614              		@ link register save eliminated.
 615              	.LVL30:
 616              	.LBB186:
ARM GAS  /tmp/cclwjtNS.s 			page 12


 617              	.LBB187:
 618              		.loc 2 907 0
 619 0000 1830     		adds	r0, r0, #24
 620              	.LVL31:
 621 0002 FFF7FEBF 		b	chMtxLock
 622              	.LVL32:
 623              	.LBE187:
 624              	.LBE186:
 625              		.cfi_endproc
 626              	.LFE216:
 627              		.size	adcAcquireBus, .-adcAcquireBus
 628 0006 00BFAFF3 		.section	.text.adcReleaseBus,"ax",%progbits
 628      0080AFF3 
 628      0080
 629              		.align	2
 630              		.p2align 4,,15
 631              		.global	adcReleaseBus
 632              		.thumb
 633              		.thumb_func
 634              		.type	adcReleaseBus, %function
 635              	adcReleaseBus:
 636              	.LFB217:
 637              		.loc 1 311 0
 638              		.cfi_startproc
 639              		@ args = 0, pretend = 0, frame = 0
 640              		@ frame_needed = 0, uses_anonymous_args = 0
 641              		@ link register save eliminated.
 642              	.LVL33:
 643              	.LBB188:
 644              	.LBB189:
 645              		.loc 2 931 0
 646 0000 1830     		adds	r0, r0, #24
 647              	.LVL34:
 648 0002 FFF7FEBF 		b	chMtxUnlock
 649              	.LVL35:
 650              	.LBE189:
 651              	.LBE188:
 652              		.cfi_endproc
 653              	.LFE217:
 654              		.size	adcReleaseBus, .-adcReleaseBus
 655 0006 00BFAFF3 		.text
 655      0080AFF3 
 655      0080
 656              	.Letext0:
 657              		.file 4 "/usr/lib/gcc/arm-none-eabi/4.9.3/include/stddef.h"
 658              		.file 5 "/usr/include/newlib/machine/_default_types.h"
 659              		.file 6 "/usr/include/newlib/stdint.h"
 660              		.file 7 "/home/peter/ChibiOS_16.1.4/os/rt/ports/ARMCMx/compilers/GCC/chtypes.h"
 661              		.file 8 "/home/peter/ChibiOS_16.1.4/os/rt/include/chsystypes.h"
 662              		.file 9 "/home/peter/ChibiOS_16.1.4/os/rt/include/chschd.h"
 663              		.file 10 "/home/peter/ChibiOS_16.1.4/os/ext/CMSIS/ST/STM32F2xx/stm32f205xx.h"
 664              		.file 11 "/home/peter/ChibiOS_16.1.4/os/rt/ports/ARMCMx/chcore.h"
 665              		.file 12 "/home/peter/ChibiOS_16.1.4/os/rt/ports/ARMCMx/chcore_v7m.h"
 666              		.file 13 "/home/peter/ChibiOS_16.1.4/os/rt/include/chtm.h"
 667              		.file 14 "/home/peter/ChibiOS_16.1.4/os/rt/include/chsem.h"
 668              		.file 15 "/home/peter/ChibiOS_16.1.4/os/rt/include/chmtx.h"
 669              		.file 16 "/home/peter/ChibiOS_16.1.4/os/hal/ports/STM32/LLD/DMAv2/stm32_dma.h"
ARM GAS  /tmp/cclwjtNS.s 			page 13


 670              		.file 17 "/home/peter/ChibiOS_16.1.4/os/hal/include/adc.h"
 671              		.file 18 "/home/peter/ChibiOS_16.1.4/os/hal/ports/STM32/LLD/ADCv2/adc_lld.h"
 672              		.file 19 "/home/peter/ChibiOS_16.1.4/os/rt/include/chsys.h"
 673              		.file 20 "/home/peter/ChibiOS_16.1.4/os/rt/include/chthreads.h"
 674              		.file 21 "/home/peter/ChibiOS_16.1.4/os/ext/CMSIS/include/core_cm3.h"