ARM GAS  /tmp/ccJYLV47.s 			page 1


   1              		.syntax unified
   2              		.cpu cortex-m3
   3              		.fpu softvfp
   4              		.eabi_attribute 20, 1
   5              		.eabi_attribute 21, 1
   6              		.eabi_attribute 23, 3
   7              		.eabi_attribute 24, 1
   8              		.eabi_attribute 25, 1
   9              		.eabi_attribute 26, 1
  10              		.eabi_attribute 30, 2
  11              		.eabi_attribute 34, 1
  12              		.eabi_attribute 18, 4
  13              		.thumb
  14              		.file	"adc_lld.c"
  15              		.text
  16              	.Ltext0:
  17              		.cfi_sections	.debug_frame
  18              		.section	.text.adc_lld_init,"ax",%progbits
  19              		.align	2
  20              		.p2align 4,,15
  21              		.global	adc_lld_init
  22              		.thumb
  23              		.thumb_func
  24              		.type	adc_lld_init, %function
  25              	adc_lld_init:
  26              	.LFB209:
  27              		.file 1 "/home/peter/ChibiOS_16.1.4/os/hal/ports/STM32/LLD/ADCv2/adc_lld.c"
  28              		.loc 1 171 0
  29              		.cfi_startproc
  30              		@ args = 0, pretend = 0, frame = 0
  31              		@ frame_needed = 0, uses_anonymous_args = 0
  32 0000 38B5     		push	{r3, r4, r5, lr}
  33              		.cfi_def_cfa_offset 16
  34              		.cfi_offset 3, -16
  35              		.cfi_offset 4, -12
  36              		.cfi_offset 5, -8
  37              		.cfi_offset 14, -4
  38              		.loc 1 175 0
  39 0002 084C     		ldr	r4, .L3
  40              		.loc 1 176 0
  41 0004 084D     		ldr	r5, .L3+4
  42              		.loc 1 175 0
  43 0006 2046     		mov	r0, r4
  44 0008 FFF7FEFF 		bl	adcObjectInit
  45              	.LVL0:
  46              		.loc 1 178 0
  47 000c 074B     		ldr	r3, .L3+8
  48              		.loc 1 177 0
  49 000e 084A     		ldr	r2, .L3+12
  50              		.loc 1 176 0
  51 0010 A562     		str	r5, [r4, #40]
  52              		.loc 1 177 0
  53 0012 E262     		str	r2, [r4, #44]
  54              		.loc 1 178 0
  55 0014 2363     		str	r3, [r4, #48]
  56              		.loc 1 214 0
  57 0016 1220     		movs	r0, #18
ARM GAS  /tmp/ccJYLV47.s 			page 2


  58 0018 0621     		movs	r1, #6
  59              		.loc 1 215 0
  60 001a BDE83840 		pop	{r3, r4, r5, lr}
  61              		.cfi_restore 14
  62              		.cfi_restore 5
  63              		.cfi_restore 4
  64              		.cfi_restore 3
  65              		.cfi_def_cfa_offset 0
  66              		.loc 1 214 0
  67 001e FFF7FEBF 		b	nvicEnableVector
  68              	.LVL1:
  69              	.L4:
  70 0022 00BF     		.align	2
  71              	.L3:
  72 0024 00000000 		.word	.LANCHOR0
  73 0028 00200140 		.word	1073815552
  74 002c 162C0200 		.word	142358
  75 0030 90000000 		.word	_stm32_dma_streams+144
  76              		.cfi_endproc
  77              	.LFE209:
  78              		.size	adc_lld_init, .-adc_lld_init
  79 0034 AFF30080 		.section	.text.adc_lld_start,"ax",%progbits
  79      AFF30080 
  79      AFF30080 
  80              		.align	2
  81              		.p2align 4,,15
  82              		.global	adc_lld_start
  83              		.thumb
  84              		.thumb_func
  85              		.type	adc_lld_start, %function
  86              	adc_lld_start:
  87              	.LFB210:
  88              		.loc 1 224 0
  89              		.cfi_startproc
  90              		@ args = 0, pretend = 0, frame = 0
  91              		@ frame_needed = 0, uses_anonymous_args = 0
  92              	.LVL2:
  93              		.loc 1 227 0
  94 0000 0378     		ldrb	r3, [r0]	@ zero_extendqisi2
  95 0002 012B     		cmp	r3, #1
  96 0004 00D0     		beq	.L11
  97 0006 7047     		bx	lr
  98              	.L11:
  99              		.loc 1 229 0
 100 0008 114B     		ldr	r3, .L13
 101              		.loc 1 224 0
 102 000a 10B5     		push	{r4, lr}
 103              		.cfi_def_cfa_offset 8
 104              		.cfi_offset 4, -8
 105              		.cfi_offset 14, -4
 106              		.loc 1 229 0
 107 000c 9842     		cmp	r0, r3
 108 000e 0446     		mov	r4, r0
 109 0010 0DD0     		beq	.L12
 110              	.LVL3:
 111              	.L7:
 112              		.loc 1 269 0
ARM GAS  /tmp/ccJYLV47.s 			page 3


 113 0012 1048     		ldr	r0, .L13+4
 114              		.loc 1 274 0
 115 0014 A26A     		ldr	r2, [r4, #40]
 116              		.loc 1 269 0
 117 0016 4368     		ldr	r3, [r0, #4]
 118              		.loc 1 274 0
 119 0018 0021     		movs	r1, #0
 120              		.loc 1 269 0
 121 001a 03F44003 		and	r3, r3, #12582912
 122 001e 43F48033 		orr	r3, r3, #65536
 123              		.loc 1 276 0
 124 0022 0124     		movs	r4, #1
 125              	.LVL4:
 126              		.loc 1 269 0
 127 0024 4360     		str	r3, [r0, #4]
 128              		.loc 1 274 0
 129 0026 5160     		str	r1, [r2, #4]
 130              		.loc 1 275 0
 131 0028 9160     		str	r1, [r2, #8]
 132              		.loc 1 276 0
 133 002a 9460     		str	r4, [r2, #8]
 134 002c 10BD     		pop	{r4, pc}
 135              	.LVL5:
 136              	.L12:
 137              	.LBB85:
 138              		.loc 1 231 0
 139 002e 0621     		movs	r1, #6
 140 0030 094A     		ldr	r2, .L13+8
 141 0032 2346     		mov	r3, r4
 142 0034 C06A     		ldr	r0, [r0, #44]
 143              	.LVL6:
 144 0036 FFF7FEFF 		bl	dmaStreamAllocate
 145              	.LVL7:
 146              		.loc 1 236 0
 147 003a E36A     		ldr	r3, [r4, #44]
 148 003c 0749     		ldr	r1, .L13+12
 149 003e 1B68     		ldr	r3, [r3]
 150              		.loc 1 237 0
 151 0040 074A     		ldr	r2, .L13+16
 152              		.loc 1 236 0
 153 0042 9960     		str	r1, [r3, #8]
 154              		.loc 1 237 0
 155 0044 536C     		ldr	r3, [r2, #68]
 156 0046 43F48073 		orr	r3, r3, #256
 157 004a 5364     		str	r3, [r2, #68]
 158 004c E1E7     		b	.L7
 159              	.L14:
 160 004e 00BF     		.align	2
 161              	.L13:
 162 0050 00000000 		.word	.LANCHOR0
 163 0054 00230140 		.word	1073816320
 164 0058 00000000 		.word	adc_lld_serve_rx_interrupt
 165 005c 4C200140 		.word	1073815628
 166 0060 00380240 		.word	1073887232
 167              	.LBE85:
 168              		.cfi_endproc
 169              	.LFE210:
ARM GAS  /tmp/ccJYLV47.s 			page 4


 170              		.size	adc_lld_start, .-adc_lld_start
 171 0064 AFF30080 		.section	.text.adc_lld_stop,"ax",%progbits
 171      AFF30080 
 171      AFF30080 
 172              		.align	2
 173              		.p2align 4,,15
 174              		.global	adc_lld_stop
 175              		.thumb
 176              		.thumb_func
 177              		.type	adc_lld_stop, %function
 178              	adc_lld_stop:
 179              	.LFB211:
 180              		.loc 1 287 0
 181              		.cfi_startproc
 182              		@ args = 0, pretend = 0, frame = 0
 183              		@ frame_needed = 0, uses_anonymous_args = 0
 184              	.LVL8:
 185              		.loc 1 290 0
 186 0000 0378     		ldrb	r3, [r0]	@ zero_extendqisi2
 187 0002 022B     		cmp	r3, #2
 188 0004 00D0     		beq	.L21
 189 0006 7047     		bx	lr
 190              	.L21:
 191              		.loc 1 287 0
 192 0008 10B5     		push	{r4, lr}
 193              		.cfi_def_cfa_offset 8
 194              		.cfi_offset 4, -8
 195              		.cfi_offset 14, -4
 196 000a 0446     		mov	r4, r0
 197              		.loc 1 291 0
 198 000c C06A     		ldr	r0, [r0, #44]
 199              	.LVL9:
 200 000e FFF7FEFF 		bl	dmaStreamRelease
 201              	.LVL10:
 202              		.loc 1 296 0
 203 0012 0749     		ldr	r1, .L23
 204              		.loc 1 292 0
 205 0014 A36A     		ldr	r3, [r4, #40]
 206 0016 0022     		movs	r2, #0
 207              		.loc 1 296 0
 208 0018 8C42     		cmp	r4, r1
 209              		.loc 1 292 0
 210 001a 5A60     		str	r2, [r3, #4]
 211              		.loc 1 293 0
 212 001c 9A60     		str	r2, [r3, #8]
 213              		.loc 1 296 0
 214 001e 00D0     		beq	.L22
 215              	.L15:
 216 0020 10BD     		pop	{r4, pc}
 217              	.LVL11:
 218              	.L22:
 219              		.loc 1 297 0
 220 0022 044A     		ldr	r2, .L23+4
 221 0024 536C     		ldr	r3, [r2, #68]
 222 0026 23F48073 		bic	r3, r3, #256
 223 002a 5364     		str	r3, [r2, #68]
 224 002c F8E7     		b	.L15
ARM GAS  /tmp/ccJYLV47.s 			page 5


 225              	.L24:
 226 002e 00BF     		.align	2
 227              	.L23:
 228 0030 00000000 		.word	.LANCHOR0
 229 0034 00380240 		.word	1073887232
 230              		.cfi_endproc
 231              	.LFE211:
 232              		.size	adc_lld_stop, .-adc_lld_stop
 233 0038 AFF30080 		.section	.text.adc_lld_start_conversion,"ax",%progbits
 233      AFF30080 
 234              		.align	2
 235              		.p2align 4,,15
 236              		.global	adc_lld_start_conversion
 237              		.thumb
 238              		.thumb_func
 239              		.type	adc_lld_start_conversion, %function
 240              	adc_lld_start_conversion:
 241              	.LFB212:
 242              		.loc 1 319 0
 243              		.cfi_startproc
 244              		@ args = 0, pretend = 0, frame = 0
 245              		@ frame_needed = 0, uses_anonymous_args = 0
 246              	.LVL12:
 247              		.loc 1 322 0
 248 0000 0369     		ldr	r3, [r0, #16]
 249              	.LVL13:
 250              		.loc 1 319 0
 251 0002 2DE9F041 		push	{r4, r5, r6, r7, r8, lr}
 252              		.cfi_def_cfa_offset 24
 253              		.cfi_offset 4, -24
 254              		.cfi_offset 5, -20
 255              		.cfi_offset 6, -16
 256              		.cfi_offset 7, -12
 257              		.cfi_offset 8, -8
 258              		.cfi_offset 14, -4
 259              		.loc 1 326 0
 260 0006 1A78     		ldrb	r2, [r3]	@ zero_extendqisi2
 261              		.loc 1 325 0
 262 0008 056B     		ldr	r5, [r0, #48]
 263              	.LVL14:
 264              		.loc 1 328 0
 265 000a C168     		ldr	r1, [r0, #12]
 266              		.loc 1 326 0
 267 000c 2AB1     		cbz	r2, .L27
 268              	.LVL15:
 269              		.loc 1 328 0
 270 000e 0129     		cmp	r1, #1
 271              		.loc 1 327 0
 272 0010 94BF     		ite	ls
 273 0012 45F48075 		orrls	r5, r5, #256
 274              	.LVL16:
 275              		.loc 1 331 0
 276 0016 45F48475 		orrhi	r5, r5, #264
 277              	.LVL17:
 278              	.L27:
 279              		.loc 1 335 0
 280 001a 5A88     		ldrh	r2, [r3, #2]
ARM GAS  /tmp/ccJYLV47.s 			page 6


 281              		.loc 1 334 0
 282 001c C46A     		ldr	r4, [r0, #44]
 283              		.loc 1 335 0
 284 001e 02FB01F2 		mul	r2, r2, r1
 285              		.loc 1 334 0
 286 0022 8668     		ldr	r6, [r0, #8]
 287 0024 2468     		ldr	r4, [r4]
 288              		.loc 1 349 0
 289 0026 D968     		ldr	r1, [r3, #12]
 290              		.loc 1 334 0
 291 0028 E660     		str	r6, [r4, #12]
 292              		.loc 1 335 0
 293 002a 6260     		str	r2, [r4, #4]
 294              		.loc 1 337 0
 295 002c 2560     		str	r5, [r4]
 296              		.loc 1 338 0
 297 002e 2568     		ldr	r5, [r4]
 298              	.LVL18:
 299              		.loc 1 341 0
 300 0030 826A     		ldr	r2, [r0, #40]
 301              		.loc 1 345 0
 302 0032 1F6A     		ldr	r7, [r3, #32]
 303              		.loc 1 346 0
 304 0034 5E6A     		ldr	r6, [r3, #36]
 305              		.loc 1 344 0
 306 0036 03F11408 		add	r8, r3, #20
 307              		.loc 1 349 0
 308 003a 41F08061 		orr	r1, r1, #67108864
 309              		.loc 1 352 0
 310 003e 1B69     		ldr	r3, [r3, #16]
 311              	.LVL19:
 312              		.loc 1 338 0
 313 0040 45F00100 		orr	r0, r5, #1
 314              	.LVL20:
 315              		.loc 1 349 0
 316 0044 41F48071 		orr	r1, r1, #256
 317              		.loc 1 341 0
 318 0048 0025     		movs	r5, #0
 319              		.loc 1 344 0
 320 004a 98E80051 		ldmia	r8, {r8, ip, lr}
 321              	.LVL21:
 322              		.loc 1 338 0
 323 004e 2060     		str	r0, [r4]
 324              	.LVL22:
 325              		.loc 1 341 0
 326 0050 1560     		str	r5, [r2]
 327              		.loc 1 342 0
 328 0052 C2F80C80 		str	r8, [r2, #12]
 329              		.loc 1 343 0
 330 0056 C2F810C0 		str	ip, [r2, #16]
 331              		.loc 1 344 0
 332 005a C2F82CE0 		str	lr, [r2, #44]
 333              		.loc 1 345 0
 334 005e 1763     		str	r7, [r2, #48]
 335              		.loc 1 346 0
 336 0060 5663     		str	r6, [r2, #52]
 337              		.loc 1 349 0
ARM GAS  /tmp/ccJYLV47.s 			page 7


 338 0062 5160     		str	r1, [r2, #4]
 339              		.loc 1 356 0
 340 0064 5900     		lsls	r1, r3, #1
 341 0066 06D4     		bmi	.L32
 342              		.loc 1 352 0
 343 0068 43F44073 		orr	r3, r3, #768
 344              	.LVL23:
 345 006c 43F00103 		orr	r3, r3, #1
 346              		.loc 1 364 0
 347 0070 9360     		str	r3, [r2, #8]
 348              	.LVL24:
 349 0072 BDE8F081 		pop	{r4, r5, r6, r7, r8, pc}
 350              	.LVL25:
 351              	.L32:
 352              		.loc 1 358 0
 353 0076 23F08041 		bic	r1, r3, #1073741824
 354 007a 21F00201 		bic	r1, r1, #2
 355 007e 41F44071 		orr	r1, r1, #768
 356              		.loc 1 361 0
 357 0082 43F44073 		orr	r3, r3, #768
 358              	.LVL26:
 359              		.loc 1 358 0
 360 0086 41F00301 		orr	r1, r1, #3
 361              		.loc 1 361 0
 362 008a 43F00303 		orr	r3, r3, #3
 363              		.loc 1 358 0
 364 008e 9160     		str	r1, [r2, #8]
 365              		.loc 1 361 0
 366 0090 9360     		str	r3, [r2, #8]
 367              	.LVL27:
 368 0092 BDE8F081 		pop	{r4, r5, r6, r7, r8, pc}
 369              		.cfi_endproc
 370              	.LFE212:
 371              		.size	adc_lld_start_conversion, .-adc_lld_start_conversion
 372 0096 00BFAFF3 		.section	.text.adc_lld_stop_conversion,"ax",%progbits
 372      0080AFF3 
 372      0080
 373              		.align	2
 374              		.p2align 4,,15
 375              		.global	adc_lld_stop_conversion
 376              		.thumb
 377              		.thumb_func
 378              		.type	adc_lld_stop_conversion, %function
 379              	adc_lld_stop_conversion:
 380              	.LFB213:
 381              		.loc 1 374 0
 382              		.cfi_startproc
 383              		@ args = 0, pretend = 0, frame = 0
 384              		@ frame_needed = 0, uses_anonymous_args = 0
 385              		@ link register save eliminated.
 386              	.LVL28:
 387              		.loc 1 376 0
 388 0000 C16A     		ldr	r1, [r0, #44]
 389 0002 0A68     		ldr	r2, [r1]
 390 0004 1368     		ldr	r3, [r2]
 391 0006 23F01F03 		bic	r3, r3, #31
 392 000a 1360     		str	r3, [r2]
ARM GAS  /tmp/ccJYLV47.s 			page 8


 393              	.L34:
 394              		.loc 1 376 0 is_stmt 0 discriminator 2
 395 000c 1368     		ldr	r3, [r2]
 396 000e 13F00103 		ands	r3, r3, #1
 397 0012 FBD1     		bne	.L34
 398              		.loc 1 374 0 is_stmt 1 discriminator 3
 399 0014 30B4     		push	{r4, r5}
 400              		.cfi_def_cfa_offset 8
 401              		.cfi_offset 4, -8
 402              		.cfi_offset 5, -4
 403              		.loc 1 376 0 discriminator 3
 404 0016 0D7A     		ldrb	r5, [r1, #8]	@ zero_extendqisi2
 405 0018 4C68     		ldr	r4, [r1, #4]
 406              		.loc 1 377 0 discriminator 3
 407 001a 826A     		ldr	r2, [r0, #40]
 408              		.loc 1 376 0 discriminator 3
 409 001c 3D21     		movs	r1, #61
 410 001e A940     		lsls	r1, r1, r5
 411              		.loc 1 379 0 discriminator 3
 412 0020 0120     		movs	r0, #1
 413              	.LVL29:
 414              		.loc 1 376 0 discriminator 3
 415 0022 2160     		str	r1, [r4]
 416              		.loc 1 377 0 discriminator 3
 417 0024 5360     		str	r3, [r2, #4]
 418              		.loc 1 380 0 discriminator 3
 419 0026 30BC     		pop	{r4, r5}
 420              		.cfi_restore 5
 421              		.cfi_restore 4
 422              		.cfi_def_cfa_offset 0
 423              		.loc 1 378 0 discriminator 3
 424 0028 9360     		str	r3, [r2, #8]
 425              		.loc 1 379 0 discriminator 3
 426 002a 9060     		str	r0, [r2, #8]
 427              		.loc 1 380 0 discriminator 3
 428 002c 7047     		bx	lr
 429              		.cfi_endproc
 430              	.LFE213:
 431              		.size	adc_lld_stop_conversion, .-adc_lld_stop_conversion
 432 002e 00BF     		.section	.text.Vector88,"ax",%progbits
 433              		.align	2
 434              		.p2align 4,,15
 435              		.global	Vector88
 436              		.thumb
 437              		.thumb_func
 438              		.type	Vector88, %function
 439              	Vector88:
 440              	.LFB208:
 441              		.loc 1 111 0
 442              		.cfi_startproc
 443              		@ args = 0, pretend = 0, frame = 0
 444              		@ frame_needed = 0, uses_anonymous_args = 0
 445 0000 38B5     		push	{r3, r4, r5, lr}
 446              		.cfi_def_cfa_offset 16
 447              		.cfi_offset 3, -16
 448              		.cfi_offset 4, -12
 449              		.cfi_offset 5, -8
ARM GAS  /tmp/ccJYLV47.s 			page 9


 450              		.cfi_offset 14, -4
 451              		.loc 1 117 0
 452 0002 164B     		ldr	r3, .L52
 453              		.loc 1 118 0
 454 0004 0021     		movs	r1, #0
 455              		.loc 1 117 0
 456 0006 1A68     		ldr	r2, [r3]
 457              	.LVL30:
 458              		.loc 1 118 0
 459 0008 1960     		str	r1, [r3]
 460              		.loc 1 121 0
 461 000a 9306     		lsls	r3, r2, #26
 462 000c 22D5     		bpl	.L38
 463              		.loc 1 121 0 is_stmt 0 discriminator 1
 464 000e 144C     		ldr	r4, .L52+4
 465 0010 E36A     		ldr	r3, [r4, #44]
 466 0012 1B68     		ldr	r3, [r3]
 467 0014 5B68     		ldr	r3, [r3, #4]
 468 0016 EBB1     		cbz	r3, .L38
 469              		.loc 1 124 0 is_stmt 1
 470 0018 2369     		ldr	r3, [r4, #16]
 471 001a DBB1     		cbz	r3, .L38
 472              		.loc 1 125 0
 473 001c 2046     		mov	r0, r4
 474 001e FFF7FEFF 		bl	adc_lld_stop_conversion
 475              	.LVL31:
 476 0022 2369     		ldr	r3, [r4, #16]
 477 0024 9B68     		ldr	r3, [r3, #8]
 478 0026 4BB1     		cbz	r3, .L40
 479              		.loc 1 125 0 is_stmt 0 discriminator 1
 480 0028 0522     		movs	r2, #5
 481 002a 2270     		strb	r2, [r4]
 482 002c 2046     		mov	r0, r4
 483 002e 0121     		movs	r1, #1
 484 0030 9847     		blx	r3
 485              	.LVL32:
 486 0032 2378     		ldrb	r3, [r4]	@ zero_extendqisi2
 487 0034 052B     		cmp	r3, #5
 488 0036 04BF     		itt	eq
 489 0038 0223     		moveq	r3, #2
 490 003a 2370     		strbeq	r3, [r4]
 491              	.L40:
 492              		.loc 1 125 0 discriminator 5
 493 003c 0025     		movs	r5, #0
 494 003e 2561     		str	r5, [r4, #16]
 495              	.LVL33:
 496              	.LBB86:
 497              	.LBB87:
 498              	.LBB88:
 499              	.LBB89:
 500              	.LBB90:
 501              	.LBB91:
 502              		.file 2 "/home/peter/ChibiOS_16.1.4/os/ext/CMSIS/include/core_cmFunc.h"
 503              		.loc 2 548 0 is_stmt 1 discriminator 5
 504 0040 2023     		movs	r3, #32
 505              	@ 548 "/home/peter/ChibiOS_16.1.4/os/ext/CMSIS/include/core_cmFunc.h" 1
 506 0042 83F31188 		MSR basepri, r3
ARM GAS  /tmp/ccJYLV47.s 			page 10


 507              	@ 0 "" 2
 508              	.LVL34:
 509              		.thumb
 510              	.LBE91:
 511              	.LBE90:
 512              	.LBE89:
 513              	.LBE88:
 514              	.LBE87:
 515              	.LBE86:
 516              	.LBB92:
 517              	.LBB93:
 518              		.file 3 "/home/peter/ChibiOS_16.1.4/os/hal/osal/rt/osal.h"
 519              		.loc 3 728 0 discriminator 5
 520 0046 0748     		ldr	r0, .L52+8
 521 0048 4FF0FF31 		mov	r1, #-1
 522 004c FFF7FEFF 		bl	chThdResumeI
 523              	.LVL35:
 524              	.LBE93:
 525              	.LBE92:
 526              	.LBB94:
 527              	.LBB95:
 528              	.LBB96:
 529              	.LBB97:
 530              	.LBB98:
 531              	.LBB99:
 532              		.loc 2 548 0 discriminator 5
 533              	@ 548 "/home/peter/ChibiOS_16.1.4/os/ext/CMSIS/include/core_cmFunc.h" 1
 534 0050 85F31188 		MSR basepri, r5
 535              	@ 0 "" 2
 536              	.LVL36:
 537              		.thumb
 538              	.L38:
 539              	.LBE99:
 540              	.LBE98:
 541              	.LBE97:
 542              	.LBE96:
 543              	.LBE95:
 544              	.LBE94:
 545              		.loc 1 159 0
 546 0054 BDE83840 		pop	{r3, r4, r5, lr}
 547              		.cfi_restore 14
 548              		.cfi_restore 5
 549              		.cfi_restore 4
 550              		.cfi_restore 3
 551              		.cfi_def_cfa_offset 0
 552              		.loc 1 158 0
 553 0058 FFF7FEBF 		b	_port_irq_epilogue
 554              	.LVL37:
 555              	.L53:
 556              		.align	2
 557              	.L52:
 558 005c 00200140 		.word	1073815552
 559 0060 00000000 		.word	.LANCHOR0
 560 0064 14000000 		.word	.LANCHOR0+20
 561              		.cfi_endproc
 562              	.LFE208:
 563              		.size	Vector88, .-Vector88
ARM GAS  /tmp/ccJYLV47.s 			page 11


 564 0068 AFF30080 		.section	.text.adc_lld_serve_rx_interrupt,"ax",%progbits
 564      AFF30080 
 565              		.align	2
 566              		.p2align 4,,15
 567              		.thumb
 568              		.thumb_func
 569              		.type	adc_lld_serve_rx_interrupt, %function
 570              	adc_lld_serve_rx_interrupt:
 571              	.LFB207:
 572              		.loc 1 75 0
 573              		.cfi_startproc
 574              		@ args = 0, pretend = 0, frame = 0
 575              		@ frame_needed = 0, uses_anonymous_args = 0
 576              	.LVL38:
 577              		.loc 1 78 0
 578 0000 11F00C0F 		tst	r1, #12
 579              		.loc 1 75 0
 580 0004 70B5     		push	{r4, r5, r6, lr}
 581              		.cfi_def_cfa_offset 16
 582              		.cfi_offset 4, -16
 583              		.cfi_offset 5, -12
 584              		.cfi_offset 6, -8
 585              		.cfi_offset 14, -4
 586              		.loc 1 75 0
 587 0006 0446     		mov	r4, r0
 588              		.loc 1 78 0
 589 0008 19D1     		bne	.L81
 590              		.loc 1 86 0
 591 000a 0369     		ldr	r3, [r0, #16]
 592 000c B3B1     		cbz	r3, .L54
 593              		.loc 1 88 0
 594 000e 8D06     		lsls	r5, r1, #26
 595 0010 12D5     		bpl	.L60
 596              		.loc 1 90 0
 597 0012 1A78     		ldrb	r2, [r3]	@ zero_extendqisi2
 598 0014 002A     		cmp	r2, #0
 599 0016 3DD0     		beq	.L61
 600              		.loc 1 90 0 is_stmt 0 discriminator 1
 601 0018 5D68     		ldr	r5, [r3, #4]
 602 001a 7DB1     		cbz	r5, .L54
 603              		.loc 1 90 0 discriminator 3
 604 001c C268     		ldr	r2, [r0, #12]
 605 001e 012A     		cmp	r2, #1
 606 0020 33D9     		bls	.L62
 607              	.LBB100:
 608              		.loc 1 90 0 discriminator 4
 609 0022 5B88     		ldrh	r3, [r3, #2]
 610 0024 5208     		lsrs	r2, r2, #1
 611              	.LVL39:
 612 0026 03FB02F3 		mul	r3, r3, r2
 613 002a 8168     		ldr	r1, [r0, #8]
 614              	.LVL40:
 615 002c 01EB4301 		add	r1, r1, r3, lsl #1
 616 0030 2B46     		mov	r3, r5
 617              	.LBE100:
 618              		.loc 1 98 0 is_stmt 1 discriminator 4
 619 0032 BDE87040 		pop	{r4, r5, r6, lr}
ARM GAS  /tmp/ccJYLV47.s 			page 12


 620              		.cfi_remember_state
 621              		.cfi_restore 14
 622              		.cfi_restore 6
 623              		.cfi_restore 5
 624              		.cfi_restore 4
 625              		.cfi_def_cfa_offset 0
 626              	.LBB101:
 627              		.loc 1 90 0 discriminator 4
 628 0036 1847     		bx	r3	@ indirect register sibling call
 629              	.LVL41:
 630              	.L60:
 631              		.cfi_restore_state
 632              	.LBE101:
 633              		.loc 1 92 0
 634 0038 CA06     		lsls	r2, r1, #27
 635 003a 1DD4     		bmi	.L82
 636              	.L54:
 637 003c 70BD     		pop	{r4, r5, r6, pc}
 638              	.L81:
 639              		.loc 1 81 0
 640 003e FFF7FEFF 		bl	adc_lld_stop_conversion
 641              	.LVL42:
 642 0042 2369     		ldr	r3, [r4, #16]
 643 0044 9B68     		ldr	r3, [r3, #8]
 644 0046 4BB1     		cbz	r3, .L57
 645              		.loc 1 81 0 is_stmt 0 discriminator 1
 646 0048 0522     		movs	r2, #5
 647 004a 2270     		strb	r2, [r4]
 648 004c 2046     		mov	r0, r4
 649 004e 0021     		movs	r1, #0
 650 0050 9847     		blx	r3
 651              	.LVL43:
 652 0052 2378     		ldrb	r3, [r4]	@ zero_extendqisi2
 653 0054 052B     		cmp	r3, #5
 654 0056 04BF     		itt	eq
 655 0058 0223     		moveq	r3, #2
 656 005a 2370     		strbeq	r3, [r4]
 657              	.L57:
 658              		.loc 1 81 0 discriminator 5
 659 005c 0025     		movs	r5, #0
 660 005e 2561     		str	r5, [r4, #16]
 661              	.LVL44:
 662              	.LBB102:
 663              	.LBB103:
 664              	.LBB104:
 665              	.LBB105:
 666              	.LBB106:
 667              	.LBB107:
 668              		.loc 2 548 0 is_stmt 1 discriminator 5
 669 0060 2023     		movs	r3, #32
 670              	@ 548 "/home/peter/ChibiOS_16.1.4/os/ext/CMSIS/include/core_cmFunc.h" 1
 671 0062 83F31188 		MSR basepri, r3
 672              	@ 0 "" 2
 673              	.LVL45:
 674              		.thumb
 675              	.LBE107:
 676              	.LBE106:
ARM GAS  /tmp/ccJYLV47.s 			page 13


 677              	.LBE105:
 678              	.LBE104:
 679              	.LBE103:
 680              	.LBE102:
 681              	.LBB108:
 682              	.LBB109:
 683              		.loc 3 728 0 discriminator 5
 684 0066 4FF0FF31 		mov	r1, #-1
 685 006a 04F11400 		add	r0, r4, #20
 686              	.LVL46:
 687 006e FFF7FEFF 		bl	chThdResumeI
 688              	.LVL47:
 689              	.LBE109:
 690              	.LBE108:
 691              	.LBB110:
 692              	.LBB111:
 693              	.LBB112:
 694              	.LBB113:
 695              	.LBB114:
 696              	.LBB115:
 697              		.loc 2 548 0 discriminator 5
 698              	@ 548 "/home/peter/ChibiOS_16.1.4/os/ext/CMSIS/include/core_cmFunc.h" 1
 699 0072 85F31188 		MSR basepri, r5
 700              	@ 0 "" 2
 701              		.thumb
 702 0076 70BD     		pop	{r4, r5, r6, pc}
 703              	.LVL48:
 704              	.L82:
 705              	.LBE115:
 706              	.LBE114:
 707              	.LBE113:
 708              	.LBE112:
 709              	.LBE111:
 710              	.LBE110:
 711              		.loc 1 94 0
 712 0078 5B68     		ldr	r3, [r3, #4]
 713 007a 002B     		cmp	r3, #0
 714 007c DED0     		beq	.L54
 715              		.loc 1 98 0 discriminator 1
 716 007e BDE87040 		pop	{r4, r5, r6, lr}
 717              		.cfi_remember_state
 718              		.cfi_restore 14
 719              		.cfi_restore 6
 720              		.cfi_restore 5
 721              		.cfi_restore 4
 722              		.cfi_def_cfa_offset 0
 723              		.loc 1 94 0 discriminator 1
 724 0082 C268     		ldr	r2, [r0, #12]
 725 0084 8168     		ldr	r1, [r0, #8]
 726              	.LVL49:
 727 0086 5208     		lsrs	r2, r2, #1
 728 0088 1847     		bx	r3	@ indirect register sibling call
 729              	.LVL50:
 730              	.L62:
 731              		.cfi_restore_state
 732              		.loc 1 90 0 discriminator 5
 733 008a 2B46     		mov	r3, r5
ARM GAS  /tmp/ccJYLV47.s 			page 14


 734              		.loc 1 98 0 discriminator 5
 735 008c BDE87040 		pop	{r4, r5, r6, lr}
 736              		.cfi_remember_state
 737              		.cfi_restore 14
 738              		.cfi_restore 6
 739              		.cfi_restore 5
 740              		.cfi_restore 4
 741              		.cfi_def_cfa_offset 0
 742              		.loc 1 90 0 discriminator 5
 743 0090 8168     		ldr	r1, [r0, #8]
 744              	.LVL51:
 745 0092 1847     		bx	r3	@ indirect register sibling call
 746              	.LVL52:
 747              	.L61:
 748              		.cfi_restore_state
 749              		.loc 1 90 0 is_stmt 0 discriminator 2
 750 0094 FFF7FEFF 		bl	adc_lld_stop_conversion
 751              	.LVL53:
 752 0098 2369     		ldr	r3, [r4, #16]
 753 009a 5B68     		ldr	r3, [r3, #4]
 754 009c A3B1     		cbz	r3, .L63
 755              		.loc 1 90 0 discriminator 6
 756 009e 0422     		movs	r2, #4
 757 00a0 2270     		strb	r2, [r4]
 758 00a2 2046     		mov	r0, r4
 759 00a4 A168     		ldr	r1, [r4, #8]
 760 00a6 E268     		ldr	r2, [r4, #12]
 761 00a8 9847     		blx	r3
 762              	.LVL54:
 763 00aa 2378     		ldrb	r3, [r4]	@ zero_extendqisi2
 764 00ac 042B     		cmp	r3, #4
 765 00ae 0BD0     		beq	.L63
 766              	.L64:
 767              	.LVL55:
 768              	.LBB116:
 769              	.LBB117:
 770              	.LBB118:
 771              	.LBB119:
 772              	.LBB120:
 773              	.LBB121:
 774              		.loc 2 548 0 is_stmt 1 discriminator 9
 775 00b0 2023     		movs	r3, #32
 776              	@ 548 "/home/peter/ChibiOS_16.1.4/os/ext/CMSIS/include/core_cmFunc.h" 1
 777 00b2 83F31188 		MSR basepri, r3
 778              	@ 0 "" 2
 779              	.LVL56:
 780              		.thumb
 781              	.LBE121:
 782              	.LBE120:
 783              	.LBE119:
 784              	.LBE118:
 785              	.LBE117:
 786              	.LBE116:
 787              	.LBB122:
 788              	.LBB123:
 789              		.loc 3 728 0 discriminator 9
 790 00b6 0021     		movs	r1, #0
ARM GAS  /tmp/ccJYLV47.s 			page 15


 791 00b8 04F11400 		add	r0, r4, #20
 792              	.LVL57:
 793 00bc FFF7FEFF 		bl	chThdResumeI
 794              	.LVL58:
 795              	.LBE123:
 796              	.LBE122:
 797              	.LBB124:
 798              	.LBB125:
 799              	.LBB126:
 800              	.LBB127:
 801              	.LBB128:
 802              	.LBB129:
 803              		.loc 2 548 0 discriminator 9
 804 00c0 0023     		movs	r3, #0
 805              	@ 548 "/home/peter/ChibiOS_16.1.4/os/ext/CMSIS/include/core_cmFunc.h" 1
 806 00c2 83F31188 		MSR basepri, r3
 807              	@ 0 "" 2
 808              		.thumb
 809 00c6 70BD     		pop	{r4, r5, r6, pc}
 810              	.LVL59:
 811              	.L63:
 812              	.LBE129:
 813              	.LBE128:
 814              	.LBE127:
 815              	.LBE126:
 816              	.LBE125:
 817              	.LBE124:
 818              		.loc 1 90 0 discriminator 8
 819 00c8 0222     		movs	r2, #2
 820 00ca 0023     		movs	r3, #0
 821 00cc 2270     		strb	r2, [r4]
 822 00ce 2361     		str	r3, [r4, #16]
 823 00d0 EEE7     		b	.L64
 824              		.cfi_endproc
 825              	.LFE207:
 826              		.size	adc_lld_serve_rx_interrupt, .-adc_lld_serve_rx_interrupt
 827 00d2 00BFAFF3 		.section	.text.adcSTM32EnableTSVREFE,"ax",%progbits
 827      0080AFF3 
 827      0080AFF3 
 827      0080
 828              		.align	2
 829              		.p2align 4,,15
 830              		.global	adcSTM32EnableTSVREFE
 831              		.thumb
 832              		.thumb_func
 833              		.type	adcSTM32EnableTSVREFE, %function
 834              	adcSTM32EnableTSVREFE:
 835              	.LFB214:
 836              		.loc 1 388 0
 837              		.cfi_startproc
 838              		@ args = 0, pretend = 0, frame = 0
 839              		@ frame_needed = 0, uses_anonymous_args = 0
 840              		@ link register save eliminated.
 841              		.loc 1 390 0
 842 0000 024A     		ldr	r2, .L84
 843 0002 5368     		ldr	r3, [r2, #4]
 844 0004 43F40003 		orr	r3, r3, #8388608
ARM GAS  /tmp/ccJYLV47.s 			page 16


 845 0008 5360     		str	r3, [r2, #4]
 846 000a 7047     		bx	lr
 847              	.L85:
 848              		.align	2
 849              	.L84:
 850 000c 00230140 		.word	1073816320
 851              		.cfi_endproc
 852              	.LFE214:
 853              		.size	adcSTM32EnableTSVREFE, .-adcSTM32EnableTSVREFE
 854              		.section	.text.adcSTM32DisableTSVREFE,"ax",%progbits
 855              		.align	2
 856              		.p2align 4,,15
 857              		.global	adcSTM32DisableTSVREFE
 858              		.thumb
 859              		.thumb_func
 860              		.type	adcSTM32DisableTSVREFE, %function
 861              	adcSTM32DisableTSVREFE:
 862              	.LFB215:
 863              		.loc 1 399 0
 864              		.cfi_startproc
 865              		@ args = 0, pretend = 0, frame = 0
 866              		@ frame_needed = 0, uses_anonymous_args = 0
 867              		@ link register save eliminated.
 868              		.loc 1 401 0
 869 0000 024A     		ldr	r2, .L87
 870 0002 5368     		ldr	r3, [r2, #4]
 871 0004 23F40003 		bic	r3, r3, #8388608
 872 0008 5360     		str	r3, [r2, #4]
 873 000a 7047     		bx	lr
 874              	.L88:
 875              		.align	2
 876              	.L87:
 877 000c 00230140 		.word	1073816320
 878              		.cfi_endproc
 879              	.LFE215:
 880              		.size	adcSTM32DisableTSVREFE, .-adcSTM32DisableTSVREFE
 881              		.section	.text.adcSTM32EnableVBATE,"ax",%progbits
 882              		.align	2
 883              		.p2align 4,,15
 884              		.global	adcSTM32EnableVBATE
 885              		.thumb
 886              		.thumb_func
 887              		.type	adcSTM32EnableVBATE, %function
 888              	adcSTM32EnableVBATE:
 889              	.LFB216:
 890              		.loc 1 410 0
 891              		.cfi_startproc
 892              		@ args = 0, pretend = 0, frame = 0
 893              		@ frame_needed = 0, uses_anonymous_args = 0
 894              		@ link register save eliminated.
 895              		.loc 1 412 0
 896 0000 024A     		ldr	r2, .L90
 897 0002 5368     		ldr	r3, [r2, #4]
 898 0004 43F48003 		orr	r3, r3, #4194304
 899 0008 5360     		str	r3, [r2, #4]
 900 000a 7047     		bx	lr
 901              	.L91:
ARM GAS  /tmp/ccJYLV47.s 			page 17


 902              		.align	2
 903              	.L90:
 904 000c 00230140 		.word	1073816320
 905              		.cfi_endproc
 906              	.LFE216:
 907              		.size	adcSTM32EnableVBATE, .-adcSTM32EnableVBATE
 908              		.section	.text.adcSTM32DisableVBATE,"ax",%progbits
 909              		.align	2
 910              		.p2align 4,,15
 911              		.global	adcSTM32DisableVBATE
 912              		.thumb
 913              		.thumb_func
 914              		.type	adcSTM32DisableVBATE, %function
 915              	adcSTM32DisableVBATE:
 916              	.LFB217:
 917              		.loc 1 421 0
 918              		.cfi_startproc
 919              		@ args = 0, pretend = 0, frame = 0
 920              		@ frame_needed = 0, uses_anonymous_args = 0
 921              		@ link register save eliminated.
 922              		.loc 1 423 0
 923 0000 024A     		ldr	r2, .L93
 924 0002 5368     		ldr	r3, [r2, #4]
 925 0004 23F48003 		bic	r3, r3, #4194304
 926 0008 5360     		str	r3, [r2, #4]
 927 000a 7047     		bx	lr
 928              	.L94:
 929              		.align	2
 930              	.L93:
 931 000c 00230140 		.word	1073816320
 932              		.cfi_endproc
 933              	.LFE217:
 934              		.size	adcSTM32DisableVBATE, .-adcSTM32DisableVBATE
 935              		.global	ADCD1
 936              		.section	.bss.ADCD1,"aw",%nobits
 937              		.align	2
 938              		.set	.LANCHOR0,. + 0
 939              		.type	ADCD1, %object
 940              		.size	ADCD1, 52
 941              	ADCD1:
 942 0000 00000000 		.space	52
 942      00000000 
 942      00000000 
 942      00000000 
 942      00000000 
 943              		.text
 944              	.Letext0:
 945              		.file 4 "/usr/lib/gcc/arm-none-eabi/4.9.3/include/stddef.h"
 946              		.file 5 "/usr/include/newlib/machine/_default_types.h"
 947              		.file 6 "/usr/include/newlib/stdint.h"
 948              		.file 7 "/home/peter/ChibiOS_16.1.4/os/rt/ports/ARMCMx/compilers/GCC/chtypes.h"
 949              		.file 8 "/home/peter/ChibiOS_16.1.4/os/rt/include/chsystypes.h"
 950              		.file 9 "/home/peter/ChibiOS_16.1.4/os/rt/include/chschd.h"
 951              		.file 10 "/home/peter/ChibiOS_16.1.4/os/ext/CMSIS/ST/STM32F2xx/stm32f205xx.h"
 952              		.file 11 "/home/peter/ChibiOS_16.1.4/os/rt/ports/ARMCMx/chcore.h"
 953              		.file 12 "/home/peter/ChibiOS_16.1.4/os/rt/ports/ARMCMx/chcore_v7m.h"
 954              		.file 13 "/home/peter/ChibiOS_16.1.4/os/rt/include/chtm.h"
ARM GAS  /tmp/ccJYLV47.s 			page 18


 955              		.file 14 "/home/peter/ChibiOS_16.1.4/os/rt/include/chsem.h"
 956              		.file 15 "/home/peter/ChibiOS_16.1.4/os/rt/include/chmtx.h"
 957              		.file 16 "/home/peter/ChibiOS_16.1.4/os/hal/ports/STM32/LLD/DMAv2/stm32_dma.h"
 958              		.file 17 "/home/peter/ChibiOS_16.1.4/os/hal/include/adc.h"
 959              		.file 18 "/home/peter/ChibiOS_16.1.4/os/hal/ports/STM32/LLD/ADCv2/adc_lld.h"
 960              		.file 19 "/home/peter/ChibiOS_16.1.4/os/rt/include/chsys.h"
 961              		.file 20 "/home/peter/ChibiOS_16.1.4/os/ext/CMSIS/include/core_cm3.h"
 962              		.file 21 "/home/peter/ChibiOS_16.1.4/os/hal/ports/common/ARMCMx/nvic.h"
 963              		.file 22 "/home/peter/ChibiOS_16.1.4/os/rt/include/chthreads.h"