ARM GAS  /tmp/ccJYLV47.s 			page 1


   1              		.syntax unified
   2              		.cpu cortex-m3
   3              		.fpu softvfp
   4              		.eabi_attribute 20, 1
   5              		.eabi_attribute 21, 1
   6              		.eabi_attribute 23, 3
   7              		.eabi_attribute 24, 1
   8              		.eabi_attribute 25, 1
   9              		.eabi_attribute 26, 1
  10              		.eabi_attribute 30, 2
  11              		.eabi_attribute 34, 1
  12              		.eabi_attribute 18, 4
  13              		.thumb
  14              		.file	"adc_lld.c"
  15              		.text
  16              	.Ltext0:
  17              		.cfi_sections	.debug_frame
  18              		.section	.text.adc_lld_init,"ax",%progbits
  19              		.align	2
  20              		.p2align 4,,15
  21              		.global	adc_lld_init
  22              		.thumb
  23              		.thumb_func
  24              		.type	adc_lld_init, %function
  25              	adc_lld_init:
  26              	.LFB209:
  27              		.file 1 "/home/peter/ChibiOS_16.1.4/os/hal/ports/STM32/LLD/ADCv2/adc_lld.c"
  28              		.loc 1 171 0
  29              		.cfi_startproc
  30              		@ args = 0, pretend = 0, frame = 0
  31              		@ frame_needed = 0, uses_anonymous_args = 0
  32 0000 38B5     		push	{r3, r4, r5, lr}
  33              		.cfi_def_cfa_offset 16
  34              		.cfi_offset 3, -16
  35              		.cfi_offset 4, -12
  36              		.cfi_offset 5, -8
  37              		.cfi_offset 14, -4
  38              		.loc 1 175 0
  39 0002 084C     		ldr	r4, .L3
  40              		.loc 1 176 0
  41 0004 084D     		ldr	r5, .L3+4
  42              		.loc 1 175 0
  43 0006 2046     		mov	r0, r4
  44 0008 FFF7FEFF 		bl	adcObjectInit
  45              	.LVL0:
  46              		.loc 1 178 0
  47 000c 074B     		ldr	r3, .L3+8
  48              		.loc 1 177 0
  49 000e 084A     		ldr	r2, .L3+12
  50              		.loc 1 176 0
  51 0010 A562     		str	r5, [r4, #40]
  52              		.loc 1 177 0
  53 0012 E262     		str	r2, [r4, #44]
  54              		.loc 1 178 0
  55 0014 2363     		str	r3, [r4, #48]
  56              		.loc 1 214 0
  57 0016 1220     		movs	r0, #18
ARM GAS  /tmp/ccJYLV47.s 			page 2


  58 0018 0621     		movs	r1, #6
  59              		.loc 1 215 0
  60 001a BDE83840 		pop	{r3, r4, r5, lr}
  61              		.cfi_restore 14
  62              		.cfi_restore 5
  63              		.cfi_restore 4
  64              		.cfi_restore 3
  65              		.cfi_def_cfa_offset 0
  66              		.loc 1 214 0
  67 001e FFF7FEBF 		b	nvicEnableVector
  68              	.LVL1:
  69              	.L4:
  70 0022 00BF     		.align	2
  71              	.L3:
  72 0024 00000000 		.word	.LANCHOR0
  73 0028 00200140 		.word	1073815552
  74 002c 162C0200 		.word	142358
  75 0030 90000000 		.word	_stm32_dma_streams+144
  76              		.cfi_endproc
  77              	.LFE209:
  78              		.size	adc_lld_init, .-adc_lld_init
  79 0034 AFF30080 		.section	.text.adc_lld_start,"ax",%progbits
  79      AFF30080 
  79      AFF30080 
  80              		.align	2
  81              		.p2align 4,,15
  82              		.global	adc_lld_start
  83              		.thumb
  84              		.thumb_func
  85              		.type	adc_lld_start, %function
  86              	adc_lld_start:
  87              	.LFB210:
  88              		.loc 1 224 0
  89              		.cfi_startproc
  90              		@ args = 0, pretend = 0, frame = 0
  91              		@ frame_needed = 0, uses_anonymous_args = 0
  92              	.LVL2:
  93              		.loc 1 227 0
  94 0000 0378     		ldrb	r3, [r0]	@ zero_extendqisi2
  95 0002 012B     		cmp	r3, #1
  96 0004 00D0     		beq	.L11
  97 0006 7047     		bx	lr
  98              	.L11:
  99              		.loc 1 229 0
 100 0008 114B     		ldr	r3, .L13
 101              		.loc 1 224 0
 102 000a 10B5     		push	{r4, lr}
 103              		.cfi_def_cfa_offset 8
 104              		.cfi_offset 4, -8
 105              		.cfi_offset 14, -4
 106              		.loc 1 229 0
 107 000c 9842     		cmp	r0, r3
 108 000e 0446     		mov	r4, r0
 109 0010 0DD0     		beq	.L12
 110              	.LVL3:
 111              	.L7:
 112              		.loc 1 269 0
ARM GAS  /tmp/ccJYLV47.s 			page 3


 113 0012 1048     		ldr	r0, .L13+4
 114              		.loc 1 274 0
 115 0014 A26A     		ldr	r2, [r4, #40]
 116              		.loc 1 269 0
 117 0016 4368     		ldr	r3, [r0, #4]
 118              		.loc 1 274 0
 119 0018 0021     		movs	r1, #0
 120              		.loc 1 269 0
 121 001a 03F44003 		and	r3, r3, #12582912
 122 001e 43F48033 		orr	r3, r3, #65536
 123              		.loc 1 276 0
 124 0022 0124     		movs	r4, #1
 125              	.LVL4:
 126              		.loc 1 269 0
 127 0024 4360     		str	r3, [r0, #4]
 128              		.loc 1 274 0
 129 0026 5160     		str	r1, [r2, #4]
 130              		.loc 1 275 0
 131 0028 9160     		str	r1, [r2, #8]
 132              		.loc 1 276 0
 133 002a 9460     		str	r4, [r2, #8]
 134 002c 10BD     		pop	{r4, pc}
 135              	.LVL5:
 136              	.L12:
 137              	.LBB85:
 138              		.loc 1 231 0
 139 002e 0621     		movs	r1, #6
 140 0030 094A     		ldr	r2, .L13+8
 141 0032 2346     		mov	r3, r4
 142 0034 C06A     		ldr	r0, [r0, #44]
 143              	.LVL6:
 144 0036 FFF7FEFF 		bl	dmaStreamAllocate
 145              	.LVL7:
 146              		.loc 1 236 0
 147 003a E36A     		ldr	r3, [r4, #44]
 148 003c 0749     		ldr	r1, .L13+12
 149 003e 1B68     		ldr	r3, [r3]
 150              		.loc 1 237 0
 151 0040 074A     		ldr	r2, .L13+16
 152              		.loc 1 236 0
 153 0042 9960     		str	r1, [r3, #8]
 154              		.loc 1 237 0
 155 0044 536C     		ldr	r3, [r2, #68]
 156 0046 43F48073 		orr	r3, r3, #256
 157 004a 5364     		str	r3, [r2, #68]
 158 004c E1E7     		b	.L7
 159              	.L14:
 160 004e 00BF     		.align	2
 161              	.L13:
 162 0050 00000000 		.word	.LANCHOR0
 163 0054 00230140 		.word	1073816320
 164 0058 00000000 		.word	adc_lld_serve_rx_interrupt
 165 005c 4C200140 		.word	1073815628
 166 0060 00380240 		.word	1073887232
 167              	.LBE85:
 168              		.cfi_endproc
 169              	.LFE210:
ARM GAS  /tmp/ccJYLV47.s 			page 4


 170              		.size	adc_lld_start, .-adc_lld_start
 171 0064 AFF30080 		.section	.text.adc_lld_stop,"ax",%progbits
 171      AFF30080 
 171      AFF30080 
 172              		.align	2
 173              		.p2align 4,,15
 174              		.global	adc_lld_stop
 175              		.thumb
 176              		.thumb_func
 177              		.type	adc_lld_stop, %function
 178              	adc_lld_stop:
 179              	.LFB211:
 180              		.loc 1 287 0
 181              		.cfi_startproc
 182              		@ args = 0, pretend = 0, frame = 0
 183              		@ frame_needed = 0, uses_anonymous_args = 0
 184              	.LVL8:
 185              		.loc 1 290 0
 186 0000 0378     		ldrb	r3, [r0]	@ zero_extendqisi2
 187 0002 022B     		cmp	r3, #2
 188 0004 00D0     		beq	.L21
 189 0006 7047     		bx	lr
 190              	.L21:
 191              		.loc 1 287 0
 192 0008 10B5     		push	{r4, lr}
 193              		.cfi_def_cfa_offset 8
 194              		.cfi_offset 4, -8
 195              		.cfi_offset 14, -4
 196 000a 0446     		mov	r4, r0
 197              		.loc 1 291 0
 198 000c C06A     		ldr	r0, [r0, #44]
 199              	.LVL9:
 200 000e FFF7FEFF 		bl	dmaStreamRelease
 201              	.LVL10:
 202              		.loc 1 296 0
 203 0012 0749     		ldr	r1, .L23
 204              		.loc 1 292 0
 205 0014 A36A     		ldr	r3, [r4, #40]
 206 0016 0022     		movs	r2, #0
 207              		.loc 1 296 0
 208 0018 8C42     		cmp	r4, r1
 209              		.loc 1 292 0
 210 001a 5A60     		str	r2, [r3, #4]
 211              		.loc 1 293 0
 212 001c 9A60     		str	r2, [r3, #8]
 213              		.loc 1 296 0
 214 001e 00D0     		beq	.L22
 215              	.L15:
 216 0020 10BD     		pop	{r4, pc}
 217              	.LVL11:
 218              	.L22:
 219              		.loc 1 297 0
 220 0022 044A     		ldr	r2, .L23+4
 221 0024 536C     		ldr	r3, [r2, #68]
 222 0026 23F48073 		bic	r3, r3, #256
 223 002a 5364     		str	r3, [r2, #68]
 224 002c F8E7     		b	.L15
ARM GAS  /tmp/ccJYLV47.s 			page 5


 225              	.L24:
 226 002e 00BF     		.align	2
 227              	.L23:
 228 0030 00000000 		.word	.LANCHOR0
 229 0034 00380240 		.word	1073887232
 230              		.cfi_endproc
 231              	.LFE211:
 232              		.size	adc_lld_stop, .-adc_lld_stop
 233 0038 AFF30080 		.section	.text.adc_lld_start_conversion,"ax",%progbits
 233      AFF30080 
 234              		.align	2
 235              		.p2align 4,,15
 236              		.global	adc_lld_start_conversion
 237              		.thumb
 238              		.thumb_func
 239              		.type	adc_lld_start_conversion, %function
 240              	adc_lld_start_conversion:
 241              	.LFB212:
 242              		.loc 1 319 0
 243              		.cfi_startproc
 244              		@ args = 0, pretend = 0, frame = 0
 245              		@ frame_needed = 0, uses_anonymous_args = 0
 246              	.LVL12:
 247              		.loc 1 322 0
 248 0000 0369     		ldr	r3, [r0, #16]
 249              	.LVL13:
 250              		.loc 1 319 0
 251 0002 2DE9F041 		push	{r4, r5, r6, r7, r8, lr}
 252              		.cfi_def_cfa_offset 24
 253              		.cfi_offset 4, -24
 254              		.cfi_offset 5, -20
 255              		.cfi_offset 6, -16
 256              		.cfi_offset 7, -12
 257              		.cfi_offset 8, -8
 258              		.cfi_offset 14, -4
 259              		.loc 1 326 0
 260 0006 1A78     		ldrb	r2, [r3]	@ zero_extendqisi2
 261              		.loc 1 325 0
 262 0008 056B     		ldr	r5, [r0, #48]
 263              	.LVL14:
 264              		.loc 1 328 0
 265 000a C168     		ldr	r1, [r0, #12]
 266              		.loc 1 326 0
 267 000c 2AB1     		cbz	r2, .L27
 268              	.LVL15:
 269              		.loc 1 328 0
 270 000e 0129     		cmp	r1, #1
 271              		.loc 1 327 0
 272 0010 94BF     		ite	ls
 273 0012 45F48075 		orrls	r5, r5, #256
 274              	.LVL16:
 275              		.loc 1 331 0
 276 0016 45F48475 		orrhi	r5, r5, #264
 277              	.LVL17:
 278              	.L27:
 279              		.loc 1 335 0
 280 001a 5A88     		ldrh	r2, [r3, #2]
ARM GAS  /tmp/ccJYLV47.s 			page 6


 281              		.loc 1 334 0
 282 001c C46A     		ldr	r4, [r0, #44]
 283              		.loc 1 335 0
 284 001e 02FB01F2 		mul	r2, r2, r1
 285              		.loc 1 334 0
 286 0022 8668     		ldr	r6, [r0, #8]
 287 0024 2468     		ldr	r4, [r4]
 288              		.loc 1 349 0
 289 0026 D968     		ldr	r1, [r3, #12]
 290              		.loc 1 334 0
 291 0028 E660     		str	r6, [r4, #12]
 292              		.loc 1 335 0
 293 002a 6260     		str	r2, [r4, #4]
 294              		.loc 1 337 0
 295 002c 2560     		str	r5, [r4]
 296              		.loc 1 338 0
 297 002e 2568     		ldr	r5, [r4]
 298              	.LVL18:
 299              		.loc 1 341 0
 300 0030 826A     		ldr	r2, [r0, #40]
 301              		.loc 1 345 0
 302 0032 1F6A     		ldr	r7, [r3, #32]
 303              		.loc 1 346 0
 304 0034 5E6A     		ldr	r6, [r3, #36]
 305              		.loc 1 344 0
 306 0036 03F11408 		add	r8, r3, #20
 307              		.loc 1 349 0
 308 003a 41F08061 		orr	r1, r1, #67108864
 309              		.loc 1 352 0
 310 003e 1B69     		ldr	r3, [r3, #16]
 311              	.LVL19:
 312              		.loc 1 338 0
 313 0040 45F00100 		orr	r0, r5, #1
 314              	.LVL20:
 315              		.loc 1 349 0
 316 0044 41F48071 		orr	r1, r1, #256
 317              		.loc 1 341 0
 318 0048 0025     		movs	r5, #0
 319              		.loc 1 344 0
 320 004a 98E80051 		ldmia	r8, {r8, ip, lr}
 321              	.LVL21:
 322              		.loc 1 338 0
 323 004e 2060     		str	r0, [r4]
 324              	.LVL22:
 325              		.loc 1 341 0
 326 0050 1560     		str	r5, [r2]
 327              		.loc 1 342 0
 328 0052 C2F80C80 		str	r8, [r2, #12]
 329              		.loc 1 343 0
 330 0056 C2F810C0 		str	ip, [r2, #16]
 331              		.loc 1 344 0
 332 005a C2F82CE0 		str	lr, [r2, #44]
 333              		.loc 1 345 0
 334 005e 1763     		str	r7, [r2, #48]
 335              		.loc 1 346 0
 336 0060 5663     		str	r6, [r2, #52]
 337              		.loc 1 349 0
ARM GAS  /tmp/ccJYLV47.s 			page 7


 338 0062 5160     		str	r1, [r2, #4]
 339              		.loc 1 356 0
 340 0064 5900     		lsls	r1, r3, #1
 341 0066 06D4     		bmi	.L32
 342              		.loc 1 352 0
 343 0068 43F44073 		orr	r3, r3, #768
 344              	.LVL23:
 345 006c 43F00103 		orr	r3, r3, #1
 346              		.loc 1 364 0
 347 0070 9360     		str	r3, [r2, #8]
 348              	.LVL24:
 349 0072 BDE8F081 		pop	{r4, r5, r6, r7, r8, pc}
 350              	.LVL25:
 351              	.L32:
 352              		.loc 1 358 0
 353 0076 23F08041 		bic	r1, r3, #1073741824
 354 007a 21F00201 		bic	r1, r1, #2
 355 007e 41F44071 		orr	r1, r1, #768
 356              		.loc 1 361 0
 357 0082 43F44073 		orr	r3, r3, #768
 358              	.LVL26:
 359              		.loc 1 358 0
 360 0086 41F00301 		orr	r1, r1, #3
 361              		.loc 1 361 0
 362 008a 43F00303 		orr	r3, r3, #3
 363              		.loc 1 358 0
 364 008e 9160     		str	r1, [r2, #8]
 365              		.loc 1 361 0
 366 0090 9360     		str	r3, [r2, #8]
 367              	.LVL27:
 368 0092 BDE8F081 		pop	{r4, r5, r6, r7, r8, pc}
 369              		.cfi_endproc
 370              	.LFE212:
 371              		.size	adc_lld_start_conversion, .-adc_lld_start_conversion
 372 0096 00BFAFF3 		.section	.text.adc_lld_stop_conversion,"ax",%progbits
 372      0080AFF3 
 372      0080
 373              		.align	2
 374              		.p2align 4,,15
 375              		.global	adc_lld_stop_conversion
 376              		.thumb
 377              		.thumb_func
 378              		.type	adc_lld_stop_conversion, %function
 379              	adc_lld_stop_conversion:
 380              	.LFB213:
 381              		.loc 1 374 0
 382              		.cfi_startproc
 383              		@ args = 0, pretend = 0, frame = 0
 384              		@ frame_needed = 0, uses_anonymous_args = 0
 385              		@ link register save eliminated.
 386              	.LVL28:
 387              		.loc 1 376 0
 388 0000 C16A     		ldr	r1, [r0, #44]
 389 0002 0A68     		ldr	r2, [r1]
 390 0004 1368     		ldr	r3, [r2]
 391 0006 23F01F03 		bic	r3, r3, #31
 392 000a 1360     		str	r3, [r2]
ARM GAS  /tmp/ccJYLV47.s 			page 8


 393              	.L34:
 394              		.loc 1 376 0 is_stmt 0 discriminator 2
 395 000c 1368     		ldr	r3, [r2]
 396 000e 13F00103 		ands	r3, r3, #1
 397 0012 FBD1     		bne	.L34
 398              		.loc 1 374 0 is_stmt 1 discriminator 3
 399 0014 30B4     		push	{r4, r5}
 400              		.cfi_def_cfa_offset 8
 401              		.cfi_offset 4, -8
 402              		.cfi_offset 5, -4
 403              		.loc 1 376 0 discriminator 3
 404 0016 0D7A     		ldrb	r5, [r1, #8]	@ zero_extendqisi2
 405 0018 4C68     		ldr	r4, [r1, #4]
 406              		.loc 1 377 0 discriminator 3
 407 001a 826A     		ldr	r2, [r0, #40]
 408              		.loc 1 376 0 discriminator 3
 409 001c 3D21     		movs	r1, #61
 410 001e A940     		lsls	r1, r1, r5
 411              		.loc 1 379 0 discriminator 3
 412 0020 0120     		movs	r0, #1
 413              	.LVL29:
 414              		.loc 1 376 0 discriminator 3
 415 0022 2160     		str	r1, [r4]
 416              		.loc 1 377 0 discriminator 3
 417 0024 5360     		str	r3, [r2, #4]
 418              		.loc 1 380 0 discriminator 3
 419 0026 30BC     		pop	{r4, r5}
 420              		.cfi_restore 5
 421              		.cfi_restore 4
 422              		.cfi_def_cfa_offset 0
 423              		.loc 1 378 0 discriminator 3
 424 0028 9360     		str	r3, [r2, #8]
 425              		.loc 1 379 0 discriminator 3
 426 002a 9060     		str	r0, [r2, #8]
 427              		.loc 1 380 0 discriminator 3
 428 002c 7047     		bx	lr
 429              		.cfi_endproc
 430              	.LFE213:
 431              		.size	adc_lld_stop_conversion, .-adc_lld_stop_conversion
 432 002e 00BF     		.section	.text.Vector88,"ax",%progbits
 433              		.align	2
 434              		.p2align 4,,15
 435              		.global	Vector88
 436              		.thumb
 437              		.thumb_func
 438              		.type	Vector88, %function
 439              	Vector88:
 440              	.LFB208:
 441              		.loc 1 111 0
 442              		.cfi_startproc
 443              		@ args = 0, pretend = 0, frame = 0
 444              		@ frame_needed = 0, uses_anonymous_args = 0
 445 0000 38B5     		push	{r3, r4, r5, lr}
 446              		.cfi_def_cfa_offset 16
 447              		.cfi_offset 3, -16
 448              		.cfi_offset 4, -12
 449              		.cfi_offset 5, -8
ARM GAS  /tmp/ccJYLV47.s 			page 9


 450              		.cfi_offset 14, -4
 451              		.loc 1 117 0
 452 0002 164B     		ldr	r3, .L52
 453              		.loc 1 118 0
 454 0004 0021     		movs	r1, #0
 455              		.loc 1 117 0
 456 0006 1A68     		ldr	r2, [r3]
 457              	.LVL30:
 458              		.loc 1 118 0
 459 0008 1960     		str	r1, [r3]
 460              		.loc 1 121 0
 461 000a 9306     		lsls	r3, r2, #26
 462 000c 22D5     		bpl	.L38
 463              		.loc 1 121 0 is_stmt 0 discriminator 1
 464 000e 144C     		ldr	r4, .L52+4
 465 0010 E36A     		ldr	r3, [r4, #44]
 466 0012 1B68     		ldr	r3, [r3]
 467 0014 5B68     		ldr	r3, [r3, #4]
 468 0016 EBB1     		cbz	r3, .L38
 469              		.loc 1 124 0 is_stmt 1
 470 0018 2369     		ldr	r3, [r4, #16]
 471 001a DBB1     		cbz	r3, .L38
 472              		.loc 1 125 0
 473 001c 2046     		mov	r0, r4
 474 001e FFF7FEFF 		bl	adc_lld_stop_conversion
 475              	.LVL31:
 476 0022 2369     		ldr	r3, [r4, #16]
 477 0024 9B68     		ldr	r3, [r3, #8]
 478 0026 4BB1     		cbz	r3, .L40
 479              		.loc 1 125 0 is_stmt 0 discriminator 1
 480 0028 0522     		movs	r2, #5
 481 002a 2270     		strb	r2, [r4]
 482 002c 2046     		mov	r0, r4
 483 002e 0121     		movs	r1, #1
 484 0030 9847     		blx	r3
 485              	.LVL32:
 486 0032 2378     		ldrb	r3, [r4]	@ zero_extendqisi2
 487 0034 052B     		cmp	r3, #5
 488 0036 04BF     		itt	eq
 489 0038 0223     		moveq	r3, #2
 490 003a 2370     		strbeq	r3, [r4]
 491              	.L40:
 492              		.loc 1 125 0 discriminator 5
 493 003c 0025     		movs	r5, #0
 494 003e 2561     		str	r5, [r4, #16]
 495              	.LVL33:
 496              	.LBB86:
 497              	.LBB87:
 498              	.LBB88:
 499              	.LBB89:
 500              	.LBB90:
 501              	.LBB91:
 502              		.file 2 "/home/peter/ChibiOS_16.1.4/os/ext/CMSIS/include/core_cmFunc.h"
 503              		.loc 2 548 0 is_stmt 1 discriminator 5
 504 0040 2023     		movs	r3, #32
 505              	@ 548 "/home/peter/ChibiOS_16.1.4/os/ext/CMSIS/include/core_cmFunc.h" 1
 506 0042 83F31188 		MSR basepri, r3
ARM GAS  /tmp/ccJYLV47.s 			page 10


 507              	@ 0 "" 2
 508              	.LVL34:
 509              		.thumb
 510              	.LBE91:
 511              	.LBE90:
 512              	.LBE89:
 513              	.LBE88:
 514              	.LBE87:
 515              	.LBE86:
 516              	.LBB92:
 517              	.LBB93:
 518              		.file 3 "/home/peter/ChibiOS_16.1.4/os/hal/osal/rt/osal.h"
 519              		.loc 3 728 0 discriminator 5
 520 0046 0748     		ldr	r0, .L52+8
 521 0048 4FF0FF31 		mov	r1, #-1
 522 004c FFF7FEFF 		bl	chThdResumeI
 523              	.LVL35:
 524              	.LBE93:
 525              	.LBE92:
 526              	.LBB94:
 527              	.LBB95:
 528              	.LBB96:
 529              	.LBB97:
 530              	.LBB98:
 531              	.LBB99:
 532              		.loc 2 548 0 discriminator 5
 533              	@ 548 "/home/peter/ChibiOS_16.1.4/os/ext/CMSIS/include/core_cmFunc.h" 1
 534 0050 85F31188 		MSR basepri, r5
 535              	@ 0 "" 2
 536              	.LVL36:
 537              		.thumb
 538              	.L38:
 539              	.LBE99:
 540              	.LBE98:
 541              	.LBE97:
 542              	.LBE96:
 543              	.LBE95:
 544              	.LBE94:
 545              		.loc 1 159 0
 546 0054 BDE83840 		pop	{r3, r4, r5, lr}
 547              		.cfi_restore 14
 548              		.cfi_restore 5
 549              		.cfi_restore 4
 550              		.cfi_restore 3
 551              		.cfi_def_cfa_offset 0
 552              		.loc 1 158 0
 553 0058 FFF7FEBF 		b	_port_irq_epilogue
 554              	.LVL37:
 555              	.L53:
 556              		.align	2
 557              	.L52:
 558 005c 00200140 		.word	1073815552
 559 0060 00000000 		.word	.LANCHOR0
 560 0064 14000000 		.word	.LANCHOR0+20
 561              		.cfi_endproc
 562              	.LFE208:
 563              		.size	Vector88, .-Vector88
ARM GAS  /tmp/ccJYLV47.s 			page 11


 564 0068 AFF30080 		.section	.text.adc_lld_serve_rx_interrupt,"ax",%progbits
 564      AFF30080 
 565              		.align	2
 566              		.p2align 4,,15
 567              		.thumb
 568              		.thumb_func
 569              		.type	adc_lld_serve_rx_interrupt, %function
 570              	adc_lld_serve_rx_interrupt:
 571              	.LFB207:
 572              		.loc 1 75 0
 573              		.cfi_startproc
 574              		@ args = 0, pretend = 0, frame = 0
 575              		@ frame_needed = 0, uses_anonymous_args = 0
 576              	.LVL38:
 577              		.loc 1 78 0
 578 0000 11F00C0F 		tst	r1, #12
 579              		.loc 1 75 0
 580 0004 70B5     		push	{r4, r5, r6, lr}
 581              		.cfi_def_cfa_offset 16
 582              		.cfi_offset 4, -16
 583              		.cfi_offset 5, -12
 584              		.cfi_offset 6, -8
 585              		.cfi_offset 14, -4
 586              		.loc 1 75 0
 587 0006 0446     		mov	r4, r0
 588              		.loc 1 78 0
 589 0008 19D1     		bne	.L81
 590              		.loc 1 86 0
 591 000a 0369     		ldr	r3, [r0, #16]
 592 000c B3B1     		cbz	r3, .L54
 593              		.loc 1 88 0
 594 000e 8D06     		lsls	r5, r1, #26
 595 0010 12D5     		bpl	.L60
 596              		.loc 1 90 0
 597 0012 1A78     		ldrb	r2, [r3]	@ zero_extendqisi2
 598 0014 002A     		cmp	r2, #0
 599 0016 3DD0     		beq	.L61
 600              		.loc 1 90 0 is_stmt 0 discriminator 1
 601 0018 5D68     		ldr	r5, [r3, #4]
 602 001a 7DB1     		cbz	r5, .L54
 603              		.loc 1 90 0 discriminator 3
 604 001c C268     		ldr	r2, [r0, #12]
 605 001e 012A     		cmp	r2, #1
 606 0020 33D9     		bls	.L62
 607              	.LBB100:
 608              		.loc 1 90 0 discriminator 4
 609 0022 5B88     		ldrh	r3, [r3, #2]
 610 0024 5208     		lsrs	r2, r2, #1
 611              	.LVL39:
 612 0026 03FB02F3 		mul	r3, r3, r2
 613 002a 8168     		ldr	r1, [r0, #8]
 614              	.LVL40:
 615 002c 01EB4301 		add	r1, r1, r3, lsl #1
 616 0030 2B46     		mov	r3, r5
 617              	.LBE100:
 618              		.loc 1 98 0 is_stmt 1 discriminator 4
 619 0032 BDE87040 		pop	{r4, r5, r6, lr}
ARM GAS  /tmp/ccJYLV47.s 			page 12


 620              		.cfi_remember_state
 621              		.cfi_restore 14
 622              		.cfi_restore 6
 623              		.cfi_restore 5
 624              		.cfi_restore 4
 625              		.cfi_def_cfa_offset 0
 626              	.LBB101:
 627              		.loc 1 90 0 discriminator 4
 628 0036 1847     		bx	r3	@ indirect register sibling call
 629              	.LVL41:
 630              	.L60:
 631              		.cfi_restore_state
 632              	.LBE101:
 633              		.loc 1 92 0
 634 0038 CA06     		lsls	r2, r1, #27
 635 003a 1DD4     		bmi	.L82
 636              	.L54:
 637 003c 70BD     		pop	{r4, r5, r6, pc}
 638              	.L81:
 639              		.loc 1 81 0
 640 003e FFF7FEFF 		bl	adc_lld_stop_conversion
 641              	.LVL42:
 642 0042 2369     		ldr	r3, [r4, #16]
 643 0044 9B68     		ldr	r3, [r3, #8]
 644 0046 4BB1     		cbz	r3, .L57
 645              		.loc 1 81 0 is_stmt 0 discriminator 1
 646 0048 0522     		movs	r2, #5
 647 004a 2270     		strb	r2, [r4]
 648 004c 2046     		mov	r0, r4
 649 004e 0021     		movs	r1, #0
 650 0050 9847     		blx	r3
 651              	.LVL43:
 652 0052 2378     		ldrb	r3, [r4]	@ zero_extendqisi2
 653 0054 052B     		cmp	r3, #5
 654 0056 04BF     		itt	eq
 655 0058 0223     		moveq	r3, #2
 656 005a 2370     		strbeq	r3, [r4]
 657              	.L57:
 658              		.loc 1 81 0 discriminator 5
 659 005c 0025     		movs	r5, #0
 660 005e 2561     		str	r5, [r4, #16]
 661              	.LVL44:
 662              	.LBB102:
 663              	.LBB103:
 664              	.LBB104:
 665              	.LBB105:
 666              	.LBB106:
 667              	.LBB107:
 668              		.loc 2 548 0 is_stmt 1 discriminator 5
 669 0060 2023     		movs	r3, #32
 670              	@ 548 "/home/peter/ChibiOS_16.1.4/os/ext/CMSIS/include/core_cmFunc.h" 1
 671 0062 83F31188 		MSR basepri, r3
 672              	@ 0 "" 2
 673              	.LVL45:
 674              		.thumb
 675              	.LBE107:
 676              	.LBE106:
ARM GAS  /tmp/ccJYLV47.s 			page 13


 677              	.LBE105:
 678              	.LBE104:
 679              	.LBE103:
 680              	.LBE102:
 681              	.LBB108:
 682              	.LBB109:
 683              		.loc 3 728 0 discriminator 5
 684 0066 4FF0FF31 		mov	r1, #-1
 685 006a 04F11400 		add	r0, r4, #20
 686              	.LVL46:
 687 006e FFF7FEFF 		bl	chThdResumeI
 688              	.LVL47:
 689              	.LBE109:
 690              	.LBE108:
 691              	.LBB110:
 692              	.LBB111:
 693              	.LBB112:
 694              	.LBB113:
 695              	.LBB114:
 696              	.LBB115:
 697              		.loc 2 548 0 discriminator 5
 698              	@ 548 "/home/peter/ChibiOS_16.1.4/os/ext/CMSIS/include/core_cmFunc.h" 1
 699 0072 85F31188 		MSR basepri, r5
 700              	@ 0 "" 2
 701              		.thumb
 702 0076 70BD     		pop	{r4, r5, r6, pc}
 703              	.LVL48:
 704              	.L82:
 705              	.LBE115:
 706              	.LBE114:
 707              	.LBE113:
 708              	.LBE112:
 709              	.LBE111:
 710              	.LBE110:
 711              		.loc 1 94 0
 712 0078 5B68     		ldr	r3, [r3, #4]
 713 007a 002B     		cmp	r3, #0
 714 007c DED0     		beq	.L54
 715              		.loc 1 98 0 discriminator 1
 716 007e BDE87040 		pop	{r4, r5, r6, lr}
 717              		.cfi_remember_state
 718              		.cfi_restore 14
 719              		.cfi_restore 6
 720              		.cfi_restore 5
 721              		.cfi_restore 4
 722              		.cfi_def_cfa_offset 0
 723              		.loc 1 94 0 discriminator 1
 724 0082 C268     		ldr	r2, [r0, #12]
 725 0084 8168     		ldr	r1, [r0, #8]
 726              	.LVL49:
 727 0086 5208     		lsrs	r2, r2, #1
 728 0088 1847     		bx	r3	@ indirect register sibling call
 729              	.LVL50:
 730              	.L62:
 731              		.cfi_restore_state
 732              		.loc 1 90 0 discriminator 5
 733 008a 2B46     		mov	r3, r5
ARM GAS  /tmp/ccJYLV47.s 			page 14


 734              		.loc 1 98 0 discriminator 5
 735 008c BDE87040 		pop	{r4, r5, r6, lr}
 736              		.cfi_remember_state
 737              		.cfi_restore 14
 738              		.cfi_restore 6
 739              		.cfi_restore 5
 740              		.cfi_restore 4
 741              		.cfi_def_cfa_offset 0
 742              		.loc 1 90 0 discriminator 5
 743 0090 8168     		ldr	r1, [r0, #8]
 744              	.LVL51:
 745 0092 1847     		bx	r3	@ indirect register sibling call
 746              	.LVL52:
 747              	.L61:
 748              		.cfi_restore_state
 749              		.loc 1 90 0 is_stmt 0 discriminator 2
 750 0094 FFF7FEFF 		bl	adc_lld_stop_conversion
 751              	.LVL53:
 752 0098 2369     		ldr	r3, [r4, #16]
 753 009a 5B68     		ldr	r3, [r3, #4]
 754 009c A3B1     		cbz	r3, .L63
 755              		.loc 1 90 0 discriminator 6
 756 009e 0422     		movs	r2, #4
 757 00a0 2270     		strb	r2, [r4]
 758 00a2 2046     		mov	r0, r4
 759 00a4 A168     		ldr	r1, [r4, #8]
 760 00a6 E268     		ldr	r2, [r4, #12]
 761 00a8 9847     		blx	r3
 762              	.LVL54:
 763 00aa 2378     		ldrb	r3, [r4]	@ zero_extendqisi2
 764 00ac 042B     		cmp	r3, #4
 765 00ae 0BD0     		beq	.L63
 766              	.L64:
 767              	.LVL55:
 768              	.LBB116:
 769              	.LBB117:
 770              	.LBB118:
 771              	.LBB119:
 772              	.LBB120:
 773              	.LBB121:
 774              		.loc 2 548 0 is_stmt 1 discriminator 9
 775 00b0 2023     		movs	r3, #32
 776              	@ 548 "/home/peter/ChibiOS_16.1.4/os/ext/CMSIS/include/core_cmFunc.h" 1
 777 00b2 83F31188 		MSR basepri, r3
 778              	@ 0 "" 2
 779              	.LVL56:
 780              		.thumb
 781              	.LBE121:
 782              	.LBE120:
 783              	.LBE119:
 784              	.LBE118:
 785              	.LBE117:
 786              	.LBE116:
 787              	.LBB122:
 788              	.LBB123:
 789              		.loc 3 728 0 discriminator 9
 790 00b6 0021     		movs	r1, #0
ARM GAS  /tmp/ccJYLV47.s 			page 15


 791 00b8 04F11400 		add	r0, r4, #20
 792              	.LVL57:
 793 00bc FFF7FEFF 		bl	chThdResumeI
 794              	.LVL58:
 795              	.LBE123:
 796              	.LBE122:
 797              	.LBB124:
 798              	.LBB125:
 799              	.LBB126:
 800              	.LBB127:
 801              	.LBB128:
 802              	.LBB129:
 803              		.loc 2 548 0 discriminator 9
 804 00c0 0023     		movs	r3, #0
 805              	@ 548 "/home/peter/ChibiOS_16.1.4/os/ext/CMSIS/include/core_cmFunc.h" 1
 806 00c2 83F31188 		MSR basepri, r3
 807              	@ 0 "" 2
 808              		.thumb
 809 00c6 70BD     		pop	{r4, r5, r6, pc}
 810              	.LVL59:
 811              	.L63:
 812              	.LBE129:
 813              	.LBE128:
 814              	.LBE127:
 815              	.LBE126:
 816              	.LBE125:
 817              	.LBE124:
 818              		.loc 1 90 0 discriminator 8
 819 00c8 0222     		movs	r2, #2
 820 00ca 0023     		movs	r3, #0
 821 00cc 2270     		strb	r2, [r4]
 822 00ce 2361     		str	r3, [r4, #16]
 823 00d0 EEE7     		b	.L64
 824              		.cfi_endproc
 825              	.LFE207:
 826              		.size	adc_lld_serve_rx_interrupt, .-adc_lld_serve_rx_interrupt
 827 00d2 00BFAFF3 		.section	.text.adcSTM32EnableTSVREFE,"ax",%progbits
 827      0080AFF3 
 827      0080AFF3 
 827      0080
 828              		.align	2
 829              		.p2align 4,,15
 830              		.global	adcSTM32EnableTSVREFE
 831              		.thumb
 832              		.thumb_func
 833              		.type	adcSTM32EnableTSVREFE, %function
 834              	adcSTM32EnableTSVREFE:
 835              	.LFB214:
 836              		.loc 1 388 0
 837              		.cfi_startproc
 838              		@ args = 0, pretend = 0, frame = 0
 839              		@ frame_needed = 0, uses_anonymous_args = 0
 840              		@ link register save eliminated.
 841              		.loc 1 390 0
 842 0000 024A     		ldr	r2, .L84
 843 0002 5368     		ldr	r3, [r2, #4]
 844 0004 43F40003 		orr	r3, r3, #8388608
ARM GAS  /tmp/ccJYLV47.s 			page 16


 845 0008 5360     		str	r3, [r2, #4]
 846 000a 7047     		bx	lr
 847              	.L85:
 848              		.align	2
 849              	.L84:
 850 000c 00230140 		.word	1073816320
 851              		.cfi_endproc
 852              	.LFE214:
 853              		.size	adcSTM32EnableTSVREFE, .-adcSTM32EnableTSVREFE
 854              		.section	.text.adcSTM32DisableTSVREFE,"ax",%progbits
 855              		.align	2
 856              		.p2align 4,,15
 857              		.global	adcSTM32DisableTSVREFE
 858              		.thumb
 859              		.thumb_func
 860              		.type	adcSTM32DisableTSVREFE, %function
 861              	adcSTM32DisableTSVREFE:
 862              	.LFB215:
 863              		.loc 1 399 0
 864              		.cfi_startproc
 865              		@ args = 0, pretend = 0, frame = 0
 866              		@ frame_needed = 0, uses_anonymous_args = 0
 867              		@ link register save eliminated.
 868              		.loc 1 401 0
 869 0000 024A     		ldr	r2, .L87
 870 0002 5368     		ldr	r3, [r2, #4]
 871 0004 23F40003 		bic	r3, r3, #8388608
 872 0008 5360     		str	r3, [r2, #4]
 873 000a 7047     		bx	lr
 874              	.L88:
 875              		.align	2
 876              	.L87:
 877 000c 00230140 		.word	1073816320
 878              		.cfi_endproc
 879              	.LFE215:
 880              		.size	adcSTM32DisableTSVREFE, .-adcSTM32DisableTSVREFE
 881              		.section	.text.adcSTM32EnableVBATE,"ax",%progbits
 882              		.align	2
 883              		.p2align 4,,15
 884              		.global	adcSTM32EnableVBATE
 885              		.thumb
 886              		.thumb_func
 887              		.type	adcSTM32EnableVBATE, %function
 888              	adcSTM32EnableVBATE:
 889              	.LFB216:
 890              		.loc 1 410 0
 891              		.cfi_startproc
 892              		@ args = 0, pretend = 0, frame = 0
 893              		@ frame_needed = 0, uses_anonymous_args = 0
 894              		@ link register save eliminated.
 895              		.loc 1 412 0
 896 0000 024A     		ldr	r2, .L90
 897 0002 5368     		ldr	r3, [r2, #4]
 898 0004 43F48003 		orr	r3, r3, #4194304
 899 0008 5360     		str	r3, [r2, #4]
 900 000a 7047     		bx	lr
 901              	.L91:
ARM GAS  /tmp/ccJYLV47.s 			page 17


 902              		.align	2
 903              	.L90:
 904 000c 00230140 		.word	1073816320
 905              		.cfi_endproc
 906              	.LFE216:
 907              		.size	adcSTM32EnableVBATE, .-adcSTM32EnableVBATE
 908              		.section	.text.adcSTM32DisableVBATE,"ax",%progbits
 909              		.align	2
 910              		.p2align 4,,15
 911              		.global	adcSTM32DisableVBATE
 912              		.thumb
 913              		.thumb_func
 914              		.type	adcSTM32DisableVBATE, %function
 915              	adcSTM32DisableVBATE:
 916              	.LFB217:
 917              		.loc 1 421 0
 918              		.cfi_startproc
 919              		@ args = 0, pretend = 0, frame = 0
 920              		@ frame_needed = 0, uses_anonymous_args = 0
 921              		@ link register save eliminated.
 922              		.loc 1 423 0
 923 0000 024A     		ldr	r2, .L93
 924 0002 5368     		ldr	r3, [r2, #4]
 925 0004 23F48003 		bic	r3, r3, #4194304
 926 0008 5360     		str	r3, [r2, #4]
 927 000a 7047     		bx	lr
 928              	.L94:
 929              		.align	2
 930              	.L93:
 931 000c 00230140 		.word	1073816320
 932              		.cfi_endproc
 933              	.LFE217:
 934              		.size	adcSTM32DisableVBATE, .-adcSTM32DisableVBATE
 935              		.global	ADCD1
 936              		.section	.bss.ADCD1,"aw",%nobits
 937              		.align	2
 938              		.set	.LANCHOR0,. + 0
 939              		.type	ADCD1, %object
 940              		.size	ADCD1, 52
 941              	ADCD1:
 942 0000 00000000 		.space	52
 942      00000000 
 942      00000000 
 942      00000000 
 942      00000000 
 943              		.text
 944              	.Letext0:
 945              		.file 4 "/usr/lib/gcc/arm-none-eabi/4.9.3/include/stddef.h"
 946              		.file 5 "/usr/include/newlib/machine/_default_types.h"
 947              		.file 6 "/usr/include/newlib/stdint.h"
 948              		.file 7 "/home/peter/ChibiOS_16.1.4/os/rt/ports/ARMCMx/compilers/GCC/chtypes.h"
 949              		.file 8 "/home/peter/ChibiOS_16.1.4/os/rt/include/chsystypes.h"
 950              		.file 9 "/home/peter/ChibiOS_16.1.4/os/rt/include/chschd.h"
 951              		.file 10 "/home/peter/ChibiOS_16.1.4/os/ext/CMSIS/ST/STM32F2xx/stm32f205xx.h"
 952              		.file 11 "/home/peter/ChibiOS_16.1.4/os/rt/ports/ARMCMx/chcore.h"
 953              		.file 12 "/home/peter/ChibiOS_16.1.4/os/rt/ports/ARMCMx/chcore_v7m.h"
 954              		.file 13 "/home/peter/ChibiOS_16.1.4/os/rt/include/chtm.h"
ARM GAS  /tmp/ccJYLV47.s 			page 18


 955              		.file 14 "/home/peter/ChibiOS_16.1.4/os/rt/include/chsem.h"
 956              		.file 15 "/home/peter/ChibiOS_16.1.4/os/rt/include/chmtx.h"
 957              		.file 16 "/home/peter/ChibiOS_16.1.4/os/hal/ports/STM32/LLD/DMAv2/stm32_dma.h"
 958              		.file 17 "/home/peter/ChibiOS_16.1.4/os/hal/include/adc.h"
 959              		.file 18 "/home/peter/ChibiOS_16.1.4/os/hal/ports/STM32/LLD/ADCv2/adc_lld.h"
 960              		.file 19 "/home/peter/ChibiOS_16.1.4/os/rt/include/chsys.h"
 961              		.file 20 "/home/peter/ChibiOS_16.1.4/os/ext/CMSIS/include/core_cm3.h"
 962              		.file 21 "/home/peter/ChibiOS_16.1.4/os/hal/ports/common/ARMCMx/nvic.h"
 963              		.file 22 "/home/peter/ChibiOS_16.1.4/os/rt/include/chthreads.h"
 964              		.section	.debug_info,"",%progbits
 965              	.Ldebug_info0:
 966 0000 81130000 		.4byte	0x1381
 967 0004 0400     		.2byte	0x4
 968 0006 00000000 		.4byte	.Ldebug_abbrev0
 969 000a 04       		.byte	0x4
 970 000b 01       		.uleb128 0x1
 971 000c A8050000 		.4byte	.LASF231
 972 0010 01       		.byte	0x1
 973 0011 6E030000 		.4byte	.LASF232
 974 0015 18000000 		.4byte	.Ldebug_ranges0+0x18
 975 0019 00000000 		.4byte	0
 976 001d 00000000 		.4byte	.Ldebug_line0
 977 0021 02       		.uleb128 0x2
 978 0022 04       		.byte	0x4
 979 0023 05       		.byte	0x5
 980 0024 696E7400 		.ascii	"int\000"
 981 0028 03       		.uleb128 0x3
 982 0029 18000000 		.4byte	.LASF2
 983 002d 04       		.byte	0x4
 984 002e D4       		.byte	0xd4
 985 002f 33000000 		.4byte	0x33
 986 0033 04       		.uleb128 0x4
 987 0034 04       		.byte	0x4
 988 0035 07       		.byte	0x7
 989 0036 D1060000 		.4byte	.LASF0
 990 003a 04       		.uleb128 0x4
 991 003b 01       		.byte	0x1
 992 003c 06       		.byte	0x6
 993 003d 41020000 		.4byte	.LASF1
 994 0041 03       		.uleb128 0x3
 995 0042 78010000 		.4byte	.LASF3
 996 0046 05       		.byte	0x5
 997 0047 1D       		.byte	0x1d
 998 0048 4C000000 		.4byte	0x4c
 999 004c 04       		.uleb128 0x4
 1000 004d 01       		.byte	0x1
 1001 004e 08       		.byte	0x8
 1002 004f A0020000 		.4byte	.LASF4
 1003 0053 04       		.uleb128 0x4
 1004 0054 02       		.byte	0x2
 1005 0055 05       		.byte	0x5
 1006 0056 4A090000 		.4byte	.LASF5
 1007 005a 03       		.uleb128 0x3
 1008 005b 44030000 		.4byte	.LASF6
 1009 005f 05       		.byte	0x5
 1010 0060 2B       		.byte	0x2b
 1011 0061 65000000 		.4byte	0x65
ARM GAS  /tmp/ccJYLV47.s 			page 19


 1012 0065 04       		.uleb128 0x4
 1013 0066 02       		.byte	0x2
 1014 0067 07       		.byte	0x7
 1015 0068 320A0000 		.4byte	.LASF7
 1016 006c 03       		.uleb128 0x3
 1017 006d 5C0A0000 		.4byte	.LASF8
 1018 0071 05       		.byte	0x5
 1019 0072 3F       		.byte	0x3f
 1020 0073 77000000 		.4byte	0x77
 1021 0077 04       		.uleb128 0x4
 1022 0078 04       		.byte	0x4
 1023 0079 05       		.byte	0x5
 1024 007a 9B010000 		.4byte	.LASF9
 1025 007e 03       		.uleb128 0x3
 1026 007f 5B050000 		.4byte	.LASF10
 1027 0083 05       		.byte	0x5
 1028 0084 41       		.byte	0x41
 1029 0085 89000000 		.4byte	0x89
 1030 0089 04       		.uleb128 0x4
 1031 008a 04       		.byte	0x4
 1032 008b 07       		.byte	0x7
 1033 008c 74040000 		.4byte	.LASF11
 1034 0090 04       		.uleb128 0x4
 1035 0091 08       		.byte	0x8
 1036 0092 05       		.byte	0x5
 1037 0093 66050000 		.4byte	.LASF12
 1038 0097 03       		.uleb128 0x3
 1039 0098 69040000 		.4byte	.LASF13
 1040 009c 05       		.byte	0x5
 1041 009d 5B       		.byte	0x5b
 1042 009e A2000000 		.4byte	0xa2
 1043 00a2 04       		.uleb128 0x4
 1044 00a3 08       		.byte	0x8
 1045 00a4 07       		.byte	0x7
 1046 00a5 F5070000 		.4byte	.LASF14
 1047 00a9 03       		.uleb128 0x3
 1048 00aa 57020000 		.4byte	.LASF15
 1049 00ae 06       		.byte	0x6
 1050 00af 15       		.byte	0x15
 1051 00b0 41000000 		.4byte	0x41
 1052 00b4 03       		.uleb128 0x3
 1053 00b5 14080000 		.4byte	.LASF16
 1054 00b9 06       		.byte	0x6
 1055 00ba 21       		.byte	0x21
 1056 00bb 5A000000 		.4byte	0x5a
 1057 00bf 03       		.uleb128 0x3
 1058 00c0 98000000 		.4byte	.LASF17
 1059 00c4 06       		.byte	0x6
 1060 00c5 2C       		.byte	0x2c
 1061 00c6 6C000000 		.4byte	0x6c
 1062 00ca 03       		.uleb128 0x3
 1063 00cb 070A0000 		.4byte	.LASF18
 1064 00cf 06       		.byte	0x6
 1065 00d0 2D       		.byte	0x2d
 1066 00d1 7E000000 		.4byte	0x7e
 1067 00d5 03       		.uleb128 0x3
 1068 00d6 54090000 		.4byte	.LASF19
ARM GAS  /tmp/ccJYLV47.s 			page 20


 1069 00da 06       		.byte	0x6
 1070 00db 39       		.byte	0x39
 1071 00dc 97000000 		.4byte	0x97
 1072 00e0 03       		.uleb128 0x3
 1073 00e1 DE060000 		.4byte	.LASF20
 1074 00e5 07       		.byte	0x7
 1075 00e6 39       		.byte	0x39
 1076 00e7 CA000000 		.4byte	0xca
 1077 00eb 03       		.uleb128 0x3
 1078 00ec C7080000 		.4byte	.LASF21
 1079 00f0 07       		.byte	0x7
 1080 00f1 3C       		.byte	0x3c
 1081 00f2 A9000000 		.4byte	0xa9
 1082 00f6 03       		.uleb128 0x3
 1083 00f7 D7010000 		.4byte	.LASF22
 1084 00fb 07       		.byte	0x7
 1085 00fc 3D       		.byte	0x3d
 1086 00fd A9000000 		.4byte	0xa9
 1087 0101 03       		.uleb128 0x3
 1088 0102 D0090000 		.4byte	.LASF23
 1089 0106 07       		.byte	0x7
 1090 0107 3E       		.byte	0x3e
 1091 0108 A9000000 		.4byte	0xa9
 1092 010c 03       		.uleb128 0x3
 1093 010d 3A080000 		.4byte	.LASF24
 1094 0111 07       		.byte	0x7
 1095 0112 3F       		.byte	0x3f
 1096 0113 A9000000 		.4byte	0xa9
 1097 0117 03       		.uleb128 0x3
 1098 0118 62000000 		.4byte	.LASF25
 1099 011c 07       		.byte	0x7
 1100 011d 40       		.byte	0x40
 1101 011e CA000000 		.4byte	0xca
 1102 0122 03       		.uleb128 0x3
 1103 0123 1D080000 		.4byte	.LASF26
 1104 0127 07       		.byte	0x7
 1105 0128 41       		.byte	0x41
 1106 0129 BF000000 		.4byte	0xbf
 1107 012d 03       		.uleb128 0x3
 1108 012e 5F020000 		.4byte	.LASF27
 1109 0132 07       		.byte	0x7
 1110 0133 43       		.byte	0x43
 1111 0134 CA000000 		.4byte	0xca
 1112 0138 03       		.uleb128 0x3
 1113 0139 02040000 		.4byte	.LASF28
 1114 013d 07       		.byte	0x7
 1115 013e 45       		.byte	0x45
 1116 013f BF000000 		.4byte	0xbf
 1117 0143 03       		.uleb128 0x3
 1118 0144 47000000 		.4byte	.LASF29
 1119 0148 08       		.byte	0x8
 1120 0149 33       		.byte	0x33
 1121 014a CA000000 		.4byte	0xca
 1122 014e 03       		.uleb128 0x3
 1123 014f 6F070000 		.4byte	.LASF30
 1124 0153 08       		.byte	0x8
 1125 0154 3F       		.byte	0x3f
ARM GAS  /tmp/ccJYLV47.s 			page 21


 1126 0155 59010000 		.4byte	0x159
 1127 0159 05       		.uleb128 0x5
 1128 015a A2040000 		.4byte	.LASF51
 1129 015e 44       		.byte	0x44
 1130 015f 09       		.byte	0x9
 1131 0160 C2       		.byte	0xc2
 1132 0161 52020000 		.4byte	0x252
 1133 0165 06       		.uleb128 0x6
 1134 0166 A4010000 		.4byte	.LASF31
 1135 016a 09       		.byte	0x9
 1136 016b C3       		.byte	0xc3
 1137 016c 5D020000 		.4byte	0x25d
 1138 0170 00       		.byte	0
 1139 0171 06       		.uleb128 0x6
 1140 0172 B7010000 		.4byte	.LASF32
 1141 0176 09       		.byte	0x9
 1142 0177 C5       		.byte	0xc5
 1143 0178 5D020000 		.4byte	0x25d
 1144 017c 04       		.byte	0x4
 1145 017d 06       		.uleb128 0x6
 1146 017e 3D030000 		.4byte	.LASF33
 1147 0182 09       		.byte	0x9
 1148 0183 C7       		.byte	0xc7
 1149 0184 17010000 		.4byte	0x117
 1150 0188 08       		.byte	0x8
 1151 0189 06       		.uleb128 0x6
 1152 018a 5C000000 		.4byte	.LASF34
 1153 018e 09       		.byte	0x9
 1154 018f C8       		.byte	0xc8
 1155 0190 DA070000 		.4byte	0x7da
 1156 0194 0C       		.byte	0xc
 1157 0195 06       		.uleb128 0x6
 1158 0196 93010000 		.4byte	.LASF35
 1159 019a 09       		.byte	0x9
 1160 019b CA       		.byte	0xca
 1161 019c 5D020000 		.4byte	0x25d
 1162 01a0 10       		.byte	0x10
 1163 01a1 06       		.uleb128 0x6
 1164 01a2 0C080000 		.4byte	.LASF36
 1165 01a6 09       		.byte	0x9
 1166 01a7 CB       		.byte	0xcb
 1167 01a8 5D020000 		.4byte	0x25d
 1168 01ac 14       		.byte	0x14
 1169 01ad 06       		.uleb128 0x6
 1170 01ae 7E0A0000 		.4byte	.LASF37
 1171 01b2 09       		.byte	0x9
 1172 01b3 D2       		.byte	0xd2
 1173 01b4 59090000 		.4byte	0x959
 1174 01b8 18       		.byte	0x18
 1175 01b9 06       		.uleb128 0x6
 1176 01ba 9C0A0000 		.4byte	.LASF38
 1177 01be 09       		.byte	0x9
 1178 01bf DD       		.byte	0xdd
 1179 01c0 F6000000 		.4byte	0xf6
 1180 01c4 1C       		.byte	0x1c
 1181 01c5 06       		.uleb128 0x6
 1182 01c6 BA060000 		.4byte	.LASF39
ARM GAS  /tmp/ccJYLV47.s 			page 22


 1183 01ca 09       		.byte	0x9
 1184 01cb E1       		.byte	0xe1
 1185 01cc EB000000 		.4byte	0xeb
 1186 01d0 1D       		.byte	0x1d
 1187 01d1 06       		.uleb128 0x6
 1188 01d2 FD060000 		.4byte	.LASF40
 1189 01d6 09       		.byte	0x9
 1190 01d7 E6       		.byte	0xe6
 1191 01d8 01010000 		.4byte	0x101
 1192 01dc 1E       		.byte	0x1e
 1193 01dd 06       		.uleb128 0x6
 1194 01de 4D020000 		.4byte	.LASF41
 1195 01e2 09       		.byte	0x9
 1196 01e3 EC       		.byte	0xec
 1197 01e4 0C010000 		.4byte	0x10c
 1198 01e8 1F       		.byte	0x1f
 1199 01e9 07       		.uleb128 0x7
 1200 01ea 705F7500 		.ascii	"p_u\000"
 1201 01ee 09       		.byte	0x9
 1202 01ef 3101     		.2byte	0x131
 1203 01f1 94080000 		.4byte	0x894
 1204 01f5 20       		.byte	0x20
 1205 01f6 08       		.uleb128 0x8
 1206 01f7 B0060000 		.4byte	.LASF42
 1207 01fb 09       		.byte	0x9
 1208 01fc 3601     		.2byte	0x136
 1209 01fe 63020000 		.4byte	0x263
 1210 0202 24       		.byte	0x24
 1211 0203 08       		.uleb128 0x8
 1212 0204 87000000 		.4byte	.LASF43
 1213 0208 09       		.byte	0x9
 1214 0209 3C01     		.2byte	0x13c
 1215 020b 87020000 		.4byte	0x287
 1216 020f 28       		.byte	0x28
 1217 0210 08       		.uleb128 0x8
 1218 0211 8C0A0000 		.4byte	.LASF44
 1219 0215 09       		.byte	0x9
 1220 0216 4001     		.2byte	0x140
 1221 0218 22010000 		.4byte	0x122
 1222 021c 30       		.byte	0x30
 1223 021d 08       		.uleb128 0x8
 1224 021e 1C040000 		.4byte	.LASF45
 1225 0222 09       		.byte	0x9
 1226 0223 4601     		.2byte	0x146
 1227 0225 2D010000 		.4byte	0x12d
 1228 0229 34       		.byte	0x34
 1229 022a 08       		.uleb128 0x8
 1230 022b F9010000 		.4byte	.LASF46
 1231 022f 09       		.byte	0x9
 1232 0230 4D01     		.2byte	0x14d
 1233 0232 53090000 		.4byte	0x953
 1234 0236 38       		.byte	0x38
 1235 0237 08       		.uleb128 0x8
 1236 0238 8B070000 		.4byte	.LASF47
 1237 023c 09       		.byte	0x9
 1238 023d 5101     		.2byte	0x151
 1239 023f 17010000 		.4byte	0x117
ARM GAS  /tmp/ccJYLV47.s 			page 23


 1240 0243 3C       		.byte	0x3c
 1241 0244 08       		.uleb128 0x8
 1242 0245 E6060000 		.4byte	.LASF48
 1243 0249 09       		.byte	0x9
 1244 024a 5801     		.2byte	0x158
 1245 024c 3A030000 		.4byte	0x33a
 1246 0250 40       		.byte	0x40
 1247 0251 00       		.byte	0
 1248 0252 03       		.uleb128 0x3
 1249 0253 78070000 		.4byte	.LASF49
 1250 0257 08       		.byte	0x8
 1251 0258 44       		.byte	0x44
 1252 0259 5D020000 		.4byte	0x25d
 1253 025d 09       		.uleb128 0x9
 1254 025e 04       		.byte	0x4
 1255 025f 4E010000 		.4byte	0x14e
 1256 0263 03       		.uleb128 0x3
 1257 0264 D8090000 		.4byte	.LASF50
 1258 0268 08       		.byte	0x8
 1259 0269 49       		.byte	0x49
 1260 026a 6E020000 		.4byte	0x26e
 1261 026e 05       		.uleb128 0x5
 1262 026f 1E050000 		.4byte	.LASF52
 1263 0273 04       		.byte	0x4
 1264 0274 09       		.byte	0x9
 1265 0275 B0       		.byte	0xb0
 1266 0276 87020000 		.4byte	0x287
 1267 027a 06       		.uleb128 0x6
 1268 027b A4010000 		.4byte	.LASF31
 1269 027f 09       		.byte	0x9
 1270 0280 B1       		.byte	0xb1
 1271 0281 5D020000 		.4byte	0x25d
 1272 0285 00       		.byte	0
 1273 0286 00       		.byte	0
 1274 0287 03       		.uleb128 0x3
 1275 0288 E0010000 		.4byte	.LASF53
 1276 028c 08       		.byte	0x8
 1277 028d 50       		.byte	0x50
 1278 028e 92020000 		.4byte	0x292
 1279 0292 05       		.uleb128 0x5
 1280 0293 23080000 		.4byte	.LASF54
 1281 0297 08       		.byte	0x8
 1282 0298 09       		.byte	0x9
 1283 0299 B7       		.byte	0xb7
 1284 029a B7020000 		.4byte	0x2b7
 1285 029e 06       		.uleb128 0x6
 1286 029f A4010000 		.4byte	.LASF31
 1287 02a3 09       		.byte	0x9
 1288 02a4 B8       		.byte	0xb8
 1289 02a5 5D020000 		.4byte	0x25d
 1290 02a9 00       		.byte	0
 1291 02aa 06       		.uleb128 0x6
 1292 02ab B7010000 		.4byte	.LASF32
 1293 02af 09       		.byte	0x9
 1294 02b0 B9       		.byte	0xb9
 1295 02b1 5D020000 		.4byte	0x25d
 1296 02b5 04       		.byte	0x4
ARM GAS  /tmp/ccJYLV47.s 			page 24


 1297 02b6 00       		.byte	0
 1298 02b7 03       		.uleb128 0x3
 1299 02b8 F1040000 		.4byte	.LASF55
 1300 02bc 08       		.byte	0x8
 1301 02bd 57       		.byte	0x57
 1302 02be C2020000 		.4byte	0x2c2
 1303 02c2 0A       		.uleb128 0xa
 1304 02c3 2E040000 		.4byte	.LASF56
 1305 02c7 1C       		.byte	0x1c
 1306 02c8 09       		.byte	0x9
 1307 02c9 9001     		.2byte	0x190
 1308 02cb 1E030000 		.4byte	0x31e
 1309 02cf 08       		.uleb128 0x8
 1310 02d0 A5080000 		.4byte	.LASF57
 1311 02d4 09       		.byte	0x9
 1312 02d5 9101     		.2byte	0x191
 1313 02d7 87020000 		.4byte	0x287
 1314 02db 00       		.byte	0
 1315 02dc 08       		.uleb128 0x8
 1316 02dd 83090000 		.4byte	.LASF58
 1317 02e1 09       		.byte	0x9
 1318 02e2 9201     		.2byte	0x192
 1319 02e4 17010000 		.4byte	0x117
 1320 02e8 08       		.byte	0x8
 1321 02e9 08       		.uleb128 0x8
 1322 02ea 92000000 		.4byte	.LASF59
 1323 02ee 09       		.byte	0x9
 1324 02ef 9401     		.2byte	0x194
 1325 02f1 DA070000 		.4byte	0x7da
 1326 02f5 0C       		.byte	0xc
 1327 02f6 08       		.uleb128 0x8
 1328 02f7 EB020000 		.4byte	.LASF60
 1329 02fb 09       		.byte	0x9
 1330 02fc 9701     		.2byte	0x197
 1331 02fe 5D020000 		.4byte	0x25d
 1332 0302 10       		.byte	0x10
 1333 0303 08       		.uleb128 0x8
 1334 0304 FE080000 		.4byte	.LASF61
 1335 0308 09       		.byte	0x9
 1336 0309 9801     		.2byte	0x198
 1337 030b 5D020000 		.4byte	0x25d
 1338 030f 14       		.byte	0x14
 1339 0310 08       		.uleb128 0x8
 1340 0311 44080000 		.4byte	.LASF62
 1341 0315 09       		.byte	0x9
 1342 0316 9B01     		.2byte	0x19b
 1343 0318 5D020000 		.4byte	0x25d
 1344 031c 18       		.byte	0x18
 1345 031d 00       		.byte	0
 1346 031e 03       		.uleb128 0x3
 1347 031f B8000000 		.4byte	.LASF63
 1348 0323 08       		.byte	0x8
 1349 0324 5C       		.byte	0x5c
 1350 0325 29030000 		.4byte	0x329
 1351 0329 09       		.uleb128 0x9
 1352 032a 04       		.byte	0x4
 1353 032b 2F030000 		.4byte	0x32f
ARM GAS  /tmp/ccJYLV47.s 			page 25


 1354 032f 0B       		.uleb128 0xb
 1355 0330 3A030000 		.4byte	0x33a
 1356 0334 0C       		.uleb128 0xc
 1357 0335 3A030000 		.4byte	0x33a
 1358 0339 00       		.byte	0
 1359 033a 0D       		.uleb128 0xd
 1360 033b 04       		.byte	0x4
 1361 033c 03       		.uleb128 0x3
 1362 033d E1040000 		.4byte	.LASF64
 1363 0341 08       		.byte	0x8
 1364 0342 61       		.byte	0x61
 1365 0343 47030000 		.4byte	0x347
 1366 0347 0A       		.uleb128 0xa
 1367 0348 D4070000 		.4byte	.LASF65
 1368 034c 14       		.byte	0x14
 1369 034d 09       		.byte	0x9
 1370 034e 6B01     		.2byte	0x16b
 1371 0350 96030000 		.4byte	0x396
 1372 0354 08       		.uleb128 0x8
 1373 0355 A0050000 		.4byte	.LASF66
 1374 0359 09       		.byte	0x9
 1375 035a 6C01     		.2byte	0x16c
 1376 035c 6B090000 		.4byte	0x96b
 1377 0360 00       		.byte	0
 1378 0361 08       		.uleb128 0x8
 1379 0362 64060000 		.4byte	.LASF67
 1380 0366 09       		.byte	0x9
 1381 0367 6D01     		.2byte	0x16d
 1382 0369 6B090000 		.4byte	0x96b
 1383 036d 04       		.byte	0x4
 1384 036e 08       		.uleb128 0x8
 1385 036f C2070000 		.4byte	.LASF68
 1386 0373 09       		.byte	0x9
 1387 0374 6E01     		.2byte	0x16e
 1388 0376 43010000 		.4byte	0x143
 1389 037a 08       		.byte	0x8
 1390 037b 08       		.uleb128 0x8
 1391 037c 08040000 		.4byte	.LASF69
 1392 0380 09       		.byte	0x9
 1393 0381 6F01     		.2byte	0x16f
 1394 0383 1E030000 		.4byte	0x31e
 1395 0387 0C       		.byte	0xc
 1396 0388 08       		.uleb128 0x8
 1397 0389 61010000 		.4byte	.LASF70
 1398 038d 09       		.byte	0x9
 1399 038e 7101     		.2byte	0x171
 1400 0390 3A030000 		.4byte	0x33a
 1401 0394 10       		.byte	0x10
 1402 0395 00       		.byte	0
 1403 0396 03       		.uleb128 0x3
 1404 0397 AC040000 		.4byte	.LASF71
 1405 039b 08       		.byte	0x8
 1406 039c 66       		.byte	0x66
 1407 039d A1030000 		.4byte	0x3a1
 1408 03a1 0A       		.uleb128 0xa
 1409 03a2 D2000000 		.4byte	.LASF72
 1410 03a6 10       		.byte	0x10
ARM GAS  /tmp/ccJYLV47.s 			page 26


 1411 03a7 09       		.byte	0x9
 1412 03a8 7B01     		.2byte	0x17b
 1413 03aa E3030000 		.4byte	0x3e3
 1414 03ae 08       		.uleb128 0x8
 1415 03af A0050000 		.4byte	.LASF66
 1416 03b3 09       		.byte	0x9
 1417 03b4 7C01     		.2byte	0x17c
 1418 03b6 6B090000 		.4byte	0x96b
 1419 03ba 00       		.byte	0
 1420 03bb 08       		.uleb128 0x8
 1421 03bc 64060000 		.4byte	.LASF67
 1422 03c0 09       		.byte	0x9
 1423 03c1 7E01     		.2byte	0x17e
 1424 03c3 6B090000 		.4byte	0x96b
 1425 03c7 04       		.byte	0x4
 1426 03c8 08       		.uleb128 0x8
 1427 03c9 C2070000 		.4byte	.LASF68
 1428 03cd 09       		.byte	0x9
 1429 03ce 8001     		.2byte	0x180
 1430 03d0 43010000 		.4byte	0x143
 1431 03d4 08       		.byte	0x8
 1432 03d5 08       		.uleb128 0x8
 1433 03d6 E6080000 		.4byte	.LASF73
 1434 03da 09       		.byte	0x9
 1435 03db 8201     		.2byte	0x182
 1436 03dd 71090000 		.4byte	0x971
 1437 03e1 0C       		.byte	0xc
 1438 03e2 00       		.byte	0
 1439 03e3 03       		.uleb128 0x3
 1440 03e4 F3020000 		.4byte	.LASF74
 1441 03e8 08       		.byte	0x8
 1442 03e9 6B       		.byte	0x6b
 1443 03ea EE030000 		.4byte	0x3ee
 1444 03ee 0A       		.uleb128 0xa
 1445 03ef 8A090000 		.4byte	.LASF75
 1446 03f3 04       		.byte	0x4
 1447 03f4 09       		.byte	0x9
 1448 03f5 A201     		.2byte	0x1a2
 1449 03f7 09040000 		.4byte	0x409
 1450 03fb 08       		.uleb128 0x8
 1451 03fc D6020000 		.4byte	.LASF76
 1452 0400 09       		.byte	0x9
 1453 0401 AA01     		.2byte	0x1aa
 1454 0403 76090000 		.4byte	0x976
 1455 0407 00       		.byte	0
 1456 0408 00       		.byte	0
 1457 0409 03       		.uleb128 0x3
 1458 040a 500A0000 		.4byte	.LASF77
 1459 040e 08       		.byte	0x8
 1460 040f 70       		.byte	0x70
 1461 0410 14040000 		.4byte	0x414
 1462 0414 0E       		.uleb128 0xe
 1463 0415 E7090000 		.4byte	.LASF78
 1464 0419 5001     		.2byte	0x150
 1465 041b 09       		.byte	0x9
 1466 041c C201     		.2byte	0x1c2
 1467 041e 70040000 		.4byte	0x470
ARM GAS  /tmp/ccJYLV47.s 			page 27


 1468 0422 08       		.uleb128 0x8
 1469 0423 C1080000 		.4byte	.LASF79
 1470 0427 09       		.byte	0x9
 1471 0428 C601     		.2byte	0x1c6
 1472 042a B7020000 		.4byte	0x2b7
 1473 042e 00       		.byte	0
 1474 042f 08       		.uleb128 0x8
 1475 0430 C1090000 		.4byte	.LASF80
 1476 0434 09       		.byte	0x9
 1477 0435 CA01     		.2byte	0x1ca
 1478 0437 96030000 		.4byte	0x396
 1479 043b 1C       		.byte	0x1c
 1480 043c 07       		.uleb128 0x7
 1481 043d 64626700 		.ascii	"dbg\000"
 1482 0441 09       		.byte	0x9
 1483 0442 CE01     		.2byte	0x1ce
 1484 0444 E3030000 		.4byte	0x3e3
 1485 0448 2C       		.byte	0x2c
 1486 0449 08       		.uleb128 0x8
 1487 044a 82080000 		.4byte	.LASF81
 1488 044e 09       		.byte	0x9
 1489 044f D201     		.2byte	0x1d2
 1490 0451 4E010000 		.4byte	0x14e
 1491 0455 30       		.byte	0x30
 1492 0456 07       		.uleb128 0x7
 1493 0457 746D00   		.ascii	"tm\000"
 1494 045a 09       		.byte	0x9
 1495 045b D701     		.2byte	0x1d7
 1496 045d 89080000 		.4byte	0x889
 1497 0461 74       		.byte	0x74
 1498 0462 08       		.uleb128 0x8
 1499 0463 C2060000 		.4byte	.LASF82
 1500 0467 09       		.byte	0x9
 1501 0468 E301     		.2byte	0x1e3
 1502 046a 7B090000 		.4byte	0x97b
 1503 046e 78       		.byte	0x78
 1504 046f 00       		.byte	0
 1505 0470 04       		.uleb128 0x4
 1506 0471 04       		.byte	0x4
 1507 0472 07       		.byte	0x7
 1508 0473 29000000 		.4byte	.LASF83
 1509 0477 0F       		.uleb128 0xf
 1510 0478 CA000000 		.4byte	0xca
 1511 047c 10       		.uleb128 0x10
 1512 047d CA000000 		.4byte	0xca
 1513 0481 8C040000 		.4byte	0x48c
 1514 0485 11       		.uleb128 0x11
 1515 0486 70040000 		.4byte	0x470
 1516 048a 01       		.byte	0x1
 1517 048b 00       		.byte	0
 1518 048c 12       		.uleb128 0x12
 1519 048d 50       		.byte	0x50
 1520 048e 0A       		.byte	0xa
 1521 048f BE       		.byte	0xbe
 1522 0490 83050000 		.4byte	0x583
 1523 0494 13       		.uleb128 0x13
 1524 0495 535200   		.ascii	"SR\000"
ARM GAS  /tmp/ccJYLV47.s 			page 28


 1525 0498 0A       		.byte	0xa
 1526 0499 C0       		.byte	0xc0
 1527 049a 77040000 		.4byte	0x477
 1528 049e 00       		.byte	0
 1529 049f 13       		.uleb128 0x13
 1530 04a0 43523100 		.ascii	"CR1\000"
 1531 04a4 0A       		.byte	0xa
 1532 04a5 C1       		.byte	0xc1
 1533 04a6 77040000 		.4byte	0x477
 1534 04aa 04       		.byte	0x4
 1535 04ab 13       		.uleb128 0x13
 1536 04ac 43523200 		.ascii	"CR2\000"
 1537 04b0 0A       		.byte	0xa
 1538 04b1 C2       		.byte	0xc2
 1539 04b2 77040000 		.4byte	0x477
 1540 04b6 08       		.byte	0x8
 1541 04b7 06       		.uleb128 0x6
 1542 04b8 D5040000 		.4byte	.LASF84
 1543 04bc 0A       		.byte	0xa
 1544 04bd C3       		.byte	0xc3
 1545 04be 77040000 		.4byte	0x477
 1546 04c2 0C       		.byte	0xc
 1547 04c3 06       		.uleb128 0x6
 1548 04c4 DB040000 		.4byte	.LASF85
 1549 04c8 0A       		.byte	0xa
 1550 04c9 C4       		.byte	0xc4
 1551 04ca 77040000 		.4byte	0x477
 1552 04ce 10       		.byte	0x10
 1553 04cf 06       		.uleb128 0x6
 1554 04d0 6B090000 		.4byte	.LASF86
 1555 04d4 0A       		.byte	0xa
 1556 04d5 C5       		.byte	0xc5
 1557 04d6 77040000 		.4byte	0x477
 1558 04da 14       		.byte	0x14
 1559 04db 06       		.uleb128 0x6
 1560 04dc 71090000 		.4byte	.LASF87
 1561 04e0 0A       		.byte	0xa
 1562 04e1 C6       		.byte	0xc6
 1563 04e2 77040000 		.4byte	0x477
 1564 04e6 18       		.byte	0x18
 1565 04e7 06       		.uleb128 0x6
 1566 04e8 77090000 		.4byte	.LASF88
 1567 04ec 0A       		.byte	0xa
 1568 04ed C7       		.byte	0xc7
 1569 04ee 77040000 		.4byte	0x477
 1570 04f2 1C       		.byte	0x1c
 1571 04f3 06       		.uleb128 0x6
 1572 04f4 7D090000 		.4byte	.LASF89
 1573 04f8 0A       		.byte	0xa
 1574 04f9 C8       		.byte	0xc8
 1575 04fa 77040000 		.4byte	0x477
 1576 04fe 20       		.byte	0x20
 1577 04ff 13       		.uleb128 0x13
 1578 0500 48545200 		.ascii	"HTR\000"
 1579 0504 0A       		.byte	0xa
 1580 0505 C9       		.byte	0xc9
 1581 0506 77040000 		.4byte	0x477
ARM GAS  /tmp/ccJYLV47.s 			page 29


 1582 050a 24       		.byte	0x24
 1583 050b 13       		.uleb128 0x13
 1584 050c 4C545200 		.ascii	"LTR\000"
 1585 0510 0A       		.byte	0xa
 1586 0511 CA       		.byte	0xca
 1587 0512 77040000 		.4byte	0x477
 1588 0516 28       		.byte	0x28
 1589 0517 06       		.uleb128 0x6
 1590 0518 78000000 		.4byte	.LASF90
 1591 051c 0A       		.byte	0xa
 1592 051d CB       		.byte	0xcb
 1593 051e 77040000 		.4byte	0x477
 1594 0522 2C       		.byte	0x2c
 1595 0523 06       		.uleb128 0x6
 1596 0524 7D000000 		.4byte	.LASF91
 1597 0528 0A       		.byte	0xa
 1598 0529 CC       		.byte	0xcc
 1599 052a 77040000 		.4byte	0x477
 1600 052e 30       		.byte	0x30
 1601 052f 06       		.uleb128 0x6
 1602 0530 82000000 		.4byte	.LASF92
 1603 0534 0A       		.byte	0xa
 1604 0535 CD       		.byte	0xcd
 1605 0536 77040000 		.4byte	0x477
 1606 053a 34       		.byte	0x34
 1607 053b 06       		.uleb128 0x6
 1608 053c BC090000 		.4byte	.LASF93
 1609 0540 0A       		.byte	0xa
 1610 0541 CE       		.byte	0xce
 1611 0542 77040000 		.4byte	0x477
 1612 0546 38       		.byte	0x38
 1613 0547 06       		.uleb128 0x6
 1614 0548 A8090000 		.4byte	.LASF94
 1615 054c 0A       		.byte	0xa
 1616 054d CF       		.byte	0xcf
 1617 054e 77040000 		.4byte	0x477
 1618 0552 3C       		.byte	0x3c
 1619 0553 06       		.uleb128 0x6
 1620 0554 AD090000 		.4byte	.LASF95
 1621 0558 0A       		.byte	0xa
 1622 0559 D0       		.byte	0xd0
 1623 055a 77040000 		.4byte	0x477
 1624 055e 40       		.byte	0x40
 1625 055f 06       		.uleb128 0x6
 1626 0560 B2090000 		.4byte	.LASF96
 1627 0564 0A       		.byte	0xa
 1628 0565 D1       		.byte	0xd1
 1629 0566 77040000 		.4byte	0x477
 1630 056a 44       		.byte	0x44
 1631 056b 06       		.uleb128 0x6
 1632 056c B7090000 		.4byte	.LASF97
 1633 0570 0A       		.byte	0xa
 1634 0571 D2       		.byte	0xd2
 1635 0572 77040000 		.4byte	0x477
 1636 0576 48       		.byte	0x48
 1637 0577 13       		.uleb128 0x13
 1638 0578 445200   		.ascii	"DR\000"
ARM GAS  /tmp/ccJYLV47.s 			page 30


 1639 057b 0A       		.byte	0xa
 1640 057c D3       		.byte	0xd3
 1641 057d 77040000 		.4byte	0x477
 1642 0581 4C       		.byte	0x4c
 1643 0582 00       		.byte	0
 1644 0583 03       		.uleb128 0x3
 1645 0584 10040000 		.4byte	.LASF98
 1646 0588 0A       		.byte	0xa
 1647 0589 D4       		.byte	0xd4
 1648 058a 8C040000 		.4byte	0x48c
 1649 058e 12       		.uleb128 0x12
 1650 058f 0C       		.byte	0xc
 1651 0590 0A       		.byte	0xa
 1652 0591 D6       		.byte	0xd6
 1653 0592 BB050000 		.4byte	0x5bb
 1654 0596 13       		.uleb128 0x13
 1655 0597 43535200 		.ascii	"CSR\000"
 1656 059b 0A       		.byte	0xa
 1657 059c D8       		.byte	0xd8
 1658 059d 77040000 		.4byte	0x477
 1659 05a1 00       		.byte	0
 1660 05a2 13       		.uleb128 0x13
 1661 05a3 43435200 		.ascii	"CCR\000"
 1662 05a7 0A       		.byte	0xa
 1663 05a8 D9       		.byte	0xd9
 1664 05a9 77040000 		.4byte	0x477
 1665 05ad 04       		.byte	0x4
 1666 05ae 13       		.uleb128 0x13
 1667 05af 43445200 		.ascii	"CDR\000"
 1668 05b3 0A       		.byte	0xa
 1669 05b4 DA       		.byte	0xda
 1670 05b5 77040000 		.4byte	0x477
 1671 05b9 08       		.byte	0x8
 1672 05ba 00       		.byte	0
 1673 05bb 03       		.uleb128 0x3
 1674 05bc 660A0000 		.4byte	.LASF99
 1675 05c0 0A       		.byte	0xa
 1676 05c1 DC       		.byte	0xdc
 1677 05c2 8E050000 		.4byte	0x58e
 1678 05c6 14       		.uleb128 0x14
 1679 05c7 18       		.byte	0x18
 1680 05c8 0A       		.byte	0xa
 1681 05c9 5301     		.2byte	0x153
 1682 05cb 1D060000 		.4byte	0x61d
 1683 05cf 07       		.uleb128 0x7
 1684 05d0 435200   		.ascii	"CR\000"
 1685 05d3 0A       		.byte	0xa
 1686 05d4 5501     		.2byte	0x155
 1687 05d6 77040000 		.4byte	0x477
 1688 05da 00       		.byte	0
 1689 05db 08       		.uleb128 0x8
 1690 05dc F1090000 		.4byte	.LASF100
 1691 05e0 0A       		.byte	0xa
 1692 05e1 5601     		.2byte	0x156
 1693 05e3 77040000 		.4byte	0x477
 1694 05e7 04       		.byte	0x4
 1695 05e8 07       		.uleb128 0x7
ARM GAS  /tmp/ccJYLV47.s 			page 31


 1696 05e9 50415200 		.ascii	"PAR\000"
 1697 05ed 0A       		.byte	0xa
 1698 05ee 5701     		.2byte	0x157
 1699 05f0 77040000 		.4byte	0x477
 1700 05f4 08       		.byte	0x8
 1701 05f5 08       		.uleb128 0x8
 1702 05f6 27090000 		.4byte	.LASF101
 1703 05fa 0A       		.byte	0xa
 1704 05fb 5801     		.2byte	0x158
 1705 05fd 77040000 		.4byte	0x477
 1706 0601 0C       		.byte	0xc
 1707 0602 08       		.uleb128 0x8
 1708 0603 00000000 		.4byte	.LASF102
 1709 0607 0A       		.byte	0xa
 1710 0608 5901     		.2byte	0x159
 1711 060a 77040000 		.4byte	0x477
 1712 060e 10       		.byte	0x10
 1713 060f 07       		.uleb128 0x7
 1714 0610 46435200 		.ascii	"FCR\000"
 1715 0614 0A       		.byte	0xa
 1716 0615 5A01     		.2byte	0x15a
 1717 0617 77040000 		.4byte	0x477
 1718 061b 14       		.byte	0x14
 1719 061c 00       		.byte	0
 1720 061d 15       		.uleb128 0x15
 1721 061e 53070000 		.4byte	.LASF103
 1722 0622 0A       		.byte	0xa
 1723 0623 5B01     		.2byte	0x15b
 1724 0625 C6050000 		.4byte	0x5c6
 1725 0629 14       		.uleb128 0x14
 1726 062a 88       		.byte	0x88
 1727 062b 0A       		.byte	0xa
 1728 062c 0302     		.2byte	0x203
 1729 062e B8070000 		.4byte	0x7b8
 1730 0632 07       		.uleb128 0x7
 1731 0633 435200   		.ascii	"CR\000"
 1732 0636 0A       		.byte	0xa
 1733 0637 0502     		.2byte	0x205
 1734 0639 77040000 		.4byte	0x477
 1735 063d 00       		.byte	0
 1736 063e 08       		.uleb128 0x8
 1737 063f 53050000 		.4byte	.LASF104
 1738 0643 0A       		.byte	0xa
 1739 0644 0602     		.2byte	0x206
 1740 0646 77040000 		.4byte	0x477
 1741 064a 04       		.byte	0x4
 1742 064b 08       		.uleb128 0x8
 1743 064c 3C040000 		.4byte	.LASF105
 1744 0650 0A       		.byte	0xa
 1745 0651 0702     		.2byte	0x207
 1746 0653 77040000 		.4byte	0x477
 1747 0657 08       		.byte	0x8
 1748 0658 07       		.uleb128 0x7
 1749 0659 43495200 		.ascii	"CIR\000"
 1750 065d 0A       		.byte	0xa
 1751 065e 0802     		.2byte	0x208
 1752 0660 77040000 		.4byte	0x477
ARM GAS  /tmp/ccJYLV47.s 			page 32


 1753 0664 0C       		.byte	0xc
 1754 0665 08       		.uleb128 0x8
 1755 0666 34030000 		.4byte	.LASF106
 1756 066a 0A       		.byte	0xa
 1757 066b 0902     		.2byte	0x209
 1758 066d 77040000 		.4byte	0x477
 1759 0671 10       		.byte	0x10
 1760 0672 08       		.uleb128 0x8
 1761 0673 17090000 		.4byte	.LASF107
 1762 0677 0A       		.byte	0xa
 1763 0678 0A02     		.2byte	0x20a
 1764 067a 77040000 		.4byte	0x477
 1765 067e 14       		.byte	0x14
 1766 067f 08       		.uleb128 0x8
 1767 0680 66070000 		.4byte	.LASF108
 1768 0684 0A       		.byte	0xa
 1769 0685 0B02     		.2byte	0x20b
 1770 0687 77040000 		.4byte	0x477
 1771 068b 18       		.byte	0x18
 1772 068c 08       		.uleb128 0x8
 1773 068d 8C020000 		.4byte	.LASF109
 1774 0691 0A       		.byte	0xa
 1775 0692 0C02     		.2byte	0x20c
 1776 0694 CA000000 		.4byte	0xca
 1777 0698 1C       		.byte	0x1c
 1778 0699 08       		.uleb128 0x8
 1779 069a CB070000 		.4byte	.LASF110
 1780 069e 0A       		.byte	0xa
 1781 069f 0D02     		.2byte	0x20d
 1782 06a1 77040000 		.4byte	0x477
 1783 06a5 20       		.byte	0x20
 1784 06a6 08       		.uleb128 0x8
 1785 06a7 84060000 		.4byte	.LASF111
 1786 06ab 0A       		.byte	0xa
 1787 06ac 0E02     		.2byte	0x20e
 1788 06ae 77040000 		.4byte	0x477
 1789 06b2 24       		.byte	0x24
 1790 06b3 08       		.uleb128 0x8
 1791 06b4 96020000 		.4byte	.LASF112
 1792 06b8 0A       		.byte	0xa
 1793 06b9 0F02     		.2byte	0x20f
 1794 06bb 7C040000 		.4byte	0x47c
 1795 06bf 28       		.byte	0x28
 1796 06c0 08       		.uleb128 0x8
 1797 06c1 DE080000 		.4byte	.LASF113
 1798 06c5 0A       		.byte	0xa
 1799 06c6 1002     		.2byte	0x210
 1800 06c8 77040000 		.4byte	0x477
 1801 06cc 30       		.byte	0x30
 1802 06cd 08       		.uleb128 0x8
 1803 06ce 4F030000 		.4byte	.LASF114
 1804 06d2 0A       		.byte	0xa
 1805 06d3 1102     		.2byte	0x211
 1806 06d5 77040000 		.4byte	0x477
 1807 06d9 34       		.byte	0x34
 1808 06da 08       		.uleb128 0x8
 1809 06db F1080000 		.4byte	.LASF115
ARM GAS  /tmp/ccJYLV47.s 			page 33


 1810 06df 0A       		.byte	0xa
 1811 06e0 1202     		.2byte	0x212
 1812 06e2 77040000 		.4byte	0x477
 1813 06e6 38       		.byte	0x38
 1814 06e7 08       		.uleb128 0x8
 1815 06e8 12030000 		.4byte	.LASF116
 1816 06ec 0A       		.byte	0xa
 1817 06ed 1302     		.2byte	0x213
 1818 06ef CA000000 		.4byte	0xca
 1819 06f3 3C       		.byte	0x3c
 1820 06f4 08       		.uleb128 0x8
 1821 06f5 86040000 		.4byte	.LASF117
 1822 06f9 0A       		.byte	0xa
 1823 06fa 1402     		.2byte	0x214
 1824 06fc 77040000 		.4byte	0x477
 1825 0700 40       		.byte	0x40
 1826 0701 08       		.uleb128 0x8
 1827 0702 19020000 		.4byte	.LASF118
 1828 0706 0A       		.byte	0xa
 1829 0707 1502     		.2byte	0x215
 1830 0709 77040000 		.4byte	0x477
 1831 070d 44       		.byte	0x44
 1832 070e 08       		.uleb128 0x8
 1833 070f AE020000 		.4byte	.LASF119
 1834 0713 0A       		.byte	0xa
 1835 0714 1602     		.2byte	0x216
 1836 0716 7C040000 		.4byte	0x47c
 1837 071a 48       		.byte	0x48
 1838 071b 08       		.uleb128 0x8
 1839 071c 21020000 		.4byte	.LASF120
 1840 0720 0A       		.byte	0xa
 1841 0721 1702     		.2byte	0x217
 1842 0723 77040000 		.4byte	0x477
 1843 0727 50       		.byte	0x50
 1844 0728 08       		.uleb128 0x8
 1845 0729 89010000 		.4byte	.LASF121
 1846 072d 0A       		.byte	0xa
 1847 072e 1802     		.2byte	0x218
 1848 0730 77040000 		.4byte	0x477
 1849 0734 54       		.byte	0x54
 1850 0735 08       		.uleb128 0x8
 1851 0736 8D080000 		.4byte	.LASF122
 1852 073a 0A       		.byte	0xa
 1853 073b 1902     		.2byte	0x219
 1854 073d 77040000 		.4byte	0x477
 1855 0741 58       		.byte	0x58
 1856 0742 08       		.uleb128 0x8
 1857 0743 B8020000 		.4byte	.LASF123
 1858 0747 0A       		.byte	0xa
 1859 0748 1A02     		.2byte	0x21a
 1860 074a CA000000 		.4byte	0xca
 1861 074e 5C       		.byte	0x5c
 1862 074f 08       		.uleb128 0x8
 1863 0750 31070000 		.4byte	.LASF124
 1864 0754 0A       		.byte	0xa
 1865 0755 1B02     		.2byte	0x21b
 1866 0757 77040000 		.4byte	0x477
ARM GAS  /tmp/ccJYLV47.s 			page 34


 1867 075b 60       		.byte	0x60
 1868 075c 08       		.uleb128 0x8
 1869 075d A6060000 		.4byte	.LASF125
 1870 0761 0A       		.byte	0xa
 1871 0762 1C02     		.2byte	0x21c
 1872 0764 77040000 		.4byte	0x477
 1873 0768 64       		.byte	0x64
 1874 0769 08       		.uleb128 0x8
 1875 076a C2020000 		.4byte	.LASF126
 1876 076e 0A       		.byte	0xa
 1877 076f 1D02     		.2byte	0x21d
 1878 0771 7C040000 		.4byte	0x47c
 1879 0775 68       		.byte	0x68
 1880 0776 08       		.uleb128 0x8
 1881 0777 F5030000 		.4byte	.LASF127
 1882 077b 0A       		.byte	0xa
 1883 077c 1E02     		.2byte	0x21e
 1884 077e 77040000 		.4byte	0x477
 1885 0782 70       		.byte	0x70
 1886 0783 07       		.uleb128 0x7
 1887 0784 43535200 		.ascii	"CSR\000"
 1888 0788 0A       		.byte	0xa
 1889 0789 1F02     		.2byte	0x21f
 1890 078b 77040000 		.4byte	0x477
 1891 078f 74       		.byte	0x74
 1892 0790 08       		.uleb128 0x8
 1893 0791 CC020000 		.4byte	.LASF128
 1894 0795 0A       		.byte	0xa
 1895 0796 2002     		.2byte	0x220
 1896 0798 7C040000 		.4byte	0x47c
 1897 079c 78       		.byte	0x78
 1898 079d 08       		.uleb128 0x8
 1899 079e 9A050000 		.4byte	.LASF129
 1900 07a2 0A       		.byte	0xa
 1901 07a3 2102     		.2byte	0x221
 1902 07a5 77040000 		.4byte	0x477
 1903 07a9 80       		.byte	0x80
 1904 07aa 08       		.uleb128 0x8
 1905 07ab 51000000 		.4byte	.LASF130
 1906 07af 0A       		.byte	0xa
 1907 07b0 2202     		.2byte	0x222
 1908 07b2 77040000 		.4byte	0x477
 1909 07b6 84       		.byte	0x84
 1910 07b7 00       		.byte	0
 1911 07b8 15       		.uleb128 0x15
 1912 07b9 3E090000 		.4byte	.LASF131
 1913 07bd 0A       		.byte	0xa
 1914 07be 2402     		.2byte	0x224
 1915 07c0 29060000 		.4byte	0x629
 1916 07c4 03       		.uleb128 0x3
 1917 07c5 03020000 		.4byte	.LASF132
 1918 07c9 0B       		.byte	0xb
 1919 07ca 65       		.byte	0x65
 1920 07cb 3A030000 		.4byte	0x33a
 1921 07cf 03       		.uleb128 0x3
 1922 07d0 B0030000 		.4byte	.LASF133
 1923 07d4 0B       		.byte	0xb
ARM GAS  /tmp/ccJYLV47.s 			page 35


 1924 07d5 6D       		.byte	0x6d
 1925 07d6 D5000000 		.4byte	0xd5
 1926 07da 05       		.uleb128 0x5
 1927 07db 6B020000 		.4byte	.LASF134
 1928 07df 04       		.byte	0x4
 1929 07e0 0B       		.byte	0xb
 1930 07e1 89       		.byte	0x89
 1931 07e2 F3070000 		.4byte	0x7f3
 1932 07e6 13       		.uleb128 0x13
 1933 07e7 72313300 		.ascii	"r13\000"
 1934 07eb 0B       		.byte	0xb
 1935 07ec 8A       		.byte	0x8a
 1936 07ed 6E080000 		.4byte	0x86e
 1937 07f1 00       		.byte	0
 1938 07f2 00       		.byte	0
 1939 07f3 05       		.uleb128 0x5
 1940 07f4 96070000 		.4byte	.LASF135
 1941 07f8 24       		.byte	0x24
 1942 07f9 0C       		.byte	0xc
 1943 07fa FD       		.byte	0xfd
 1944 07fb 6E080000 		.4byte	0x86e
 1945 07ff 07       		.uleb128 0x7
 1946 0800 723400   		.ascii	"r4\000"
 1947 0803 0C       		.byte	0xc
 1948 0804 1001     		.2byte	0x110
 1949 0806 C4070000 		.4byte	0x7c4
 1950 080a 00       		.byte	0
 1951 080b 07       		.uleb128 0x7
 1952 080c 723500   		.ascii	"r5\000"
 1953 080f 0C       		.byte	0xc
 1954 0810 1101     		.2byte	0x111
 1955 0812 C4070000 		.4byte	0x7c4
 1956 0816 04       		.byte	0x4
 1957 0817 07       		.uleb128 0x7
 1958 0818 723600   		.ascii	"r6\000"
 1959 081b 0C       		.byte	0xc
 1960 081c 1201     		.2byte	0x112
 1961 081e C4070000 		.4byte	0x7c4
 1962 0822 08       		.byte	0x8
 1963 0823 07       		.uleb128 0x7
 1964 0824 723700   		.ascii	"r7\000"
 1965 0827 0C       		.byte	0xc
 1966 0828 1301     		.2byte	0x113
 1967 082a C4070000 		.4byte	0x7c4
 1968 082e 0C       		.byte	0xc
 1969 082f 07       		.uleb128 0x7
 1970 0830 723800   		.ascii	"r8\000"
 1971 0833 0C       		.byte	0xc
 1972 0834 1401     		.2byte	0x114
 1973 0836 C4070000 		.4byte	0x7c4
 1974 083a 10       		.byte	0x10
 1975 083b 07       		.uleb128 0x7
 1976 083c 723900   		.ascii	"r9\000"
 1977 083f 0C       		.byte	0xc
 1978 0840 1501     		.2byte	0x115
 1979 0842 C4070000 		.4byte	0x7c4
 1980 0846 14       		.byte	0x14
ARM GAS  /tmp/ccJYLV47.s 			page 36


 1981 0847 07       		.uleb128 0x7
 1982 0848 72313000 		.ascii	"r10\000"
 1983 084c 0C       		.byte	0xc
 1984 084d 1601     		.2byte	0x116
 1985 084f C4070000 		.4byte	0x7c4
 1986 0853 18       		.byte	0x18
 1987 0854 07       		.uleb128 0x7
 1988 0855 72313100 		.ascii	"r11\000"
 1989 0859 0C       		.byte	0xc
 1990 085a 1701     		.2byte	0x117
 1991 085c C4070000 		.4byte	0x7c4
 1992 0860 1C       		.byte	0x1c
 1993 0861 07       		.uleb128 0x7
 1994 0862 6C7200   		.ascii	"lr\000"
 1995 0865 0C       		.byte	0xc
 1996 0866 1801     		.2byte	0x118
 1997 0868 C4070000 		.4byte	0x7c4
 1998 086c 20       		.byte	0x20
 1999 086d 00       		.byte	0
 2000 086e 09       		.uleb128 0x9
 2001 086f 04       		.byte	0x4
 2002 0870 F3070000 		.4byte	0x7f3
 2003 0874 12       		.uleb128 0x12
 2004 0875 04       		.byte	0x4
 2005 0876 0D       		.byte	0xd
 2006 0877 38       		.byte	0x38
 2007 0878 89080000 		.4byte	0x889
 2008 087c 06       		.uleb128 0x6
 2009 087d 2A070000 		.4byte	.LASF136
 2010 0881 0D       		.byte	0xd
 2011 0882 3C       		.byte	0x3c
 2012 0883 E0000000 		.4byte	0xe0
 2013 0887 00       		.byte	0
 2014 0888 00       		.byte	0
 2015 0889 03       		.uleb128 0x3
 2016 088a 06090000 		.4byte	.LASF137
 2017 088e 0D       		.byte	0xd
 2018 088f 3D       		.byte	0x3d
 2019 0890 74080000 		.4byte	0x874
 2020 0894 16       		.uleb128 0x16
 2021 0895 04       		.byte	0x4
 2022 0896 09       		.byte	0x9
 2023 0897 FA       		.byte	0xfa
 2024 0898 F1080000 		.4byte	0x8f1
 2025 089c 17       		.uleb128 0x17
 2026 089d 2B0A0000 		.4byte	.LASF138
 2027 08a1 09       		.byte	0x9
 2028 08a2 0101     		.2byte	0x101
 2029 08a4 22010000 		.4byte	0x122
 2030 08a8 17       		.uleb128 0x17
 2031 08a9 6F010000 		.4byte	.LASF139
 2032 08ad 09       		.byte	0x9
 2033 08ae 0801     		.2byte	0x108
 2034 08b0 22010000 		.4byte	0x122
 2035 08b4 17       		.uleb128 0x17
 2036 08b5 57030000 		.4byte	.LASF140
 2037 08b9 09       		.byte	0x9
ARM GAS  /tmp/ccJYLV47.s 			page 37


 2038 08ba 0F01     		.2byte	0x10f
 2039 08bc 3A030000 		.4byte	0x33a
 2040 08c0 17       		.uleb128 0x17
 2041 08c1 73020000 		.4byte	.LASF141
 2042 08c5 09       		.byte	0x9
 2043 08c6 1601     		.2byte	0x116
 2044 08c8 F1080000 		.4byte	0x8f1
 2045 08cc 17       		.uleb128 0x17
 2046 08cd 40000000 		.4byte	.LASF142
 2047 08d1 09       		.byte	0x9
 2048 08d2 1E01     		.2byte	0x11e
 2049 08d4 1C090000 		.4byte	0x91c
 2050 08d8 17       		.uleb128 0x17
 2051 08d9 27040000 		.4byte	.LASF143
 2052 08dd 09       		.byte	0x9
 2053 08de 2701     		.2byte	0x127
 2054 08e0 53090000 		.4byte	0x953
 2055 08e4 17       		.uleb128 0x17
 2056 08e5 82010000 		.4byte	.LASF144
 2057 08e9 09       		.byte	0x9
 2058 08ea 2F01     		.2byte	0x12f
 2059 08ec 2D010000 		.4byte	0x12d
 2060 08f0 00       		.byte	0
 2061 08f1 09       		.uleb128 0x9
 2062 08f2 04       		.byte	0x4
 2063 08f3 52020000 		.4byte	0x252
 2064 08f7 05       		.uleb128 0x5
 2065 08f8 95040000 		.4byte	.LASF145
 2066 08fc 0C       		.byte	0xc
 2067 08fd 0E       		.byte	0xe
 2068 08fe 34       		.byte	0x34
 2069 08ff 1C090000 		.4byte	0x91c
 2070 0903 06       		.uleb128 0x6
 2071 0904 36090000 		.4byte	.LASF146
 2072 0908 0E       		.byte	0xe
 2073 0909 35       		.byte	0x35
 2074 090a 87020000 		.4byte	0x287
 2075 090e 00       		.byte	0
 2076 090f 06       		.uleb128 0x6
 2077 0910 E5070000 		.4byte	.LASF147
 2078 0914 0E       		.byte	0xe
 2079 0915 37       		.byte	0x37
 2080 0916 38010000 		.4byte	0x138
 2081 091a 08       		.byte	0x8
 2082 091b 00       		.byte	0
 2083 091c 09       		.uleb128 0x9
 2084 091d 04       		.byte	0x4
 2085 091e F7080000 		.4byte	0x8f7
 2086 0922 05       		.uleb128 0x5
 2087 0923 62090000 		.4byte	.LASF148
 2088 0927 10       		.byte	0x10
 2089 0928 0F       		.byte	0xf
 2090 0929 39       		.byte	0x39
 2091 092a 53090000 		.4byte	0x953
 2092 092e 06       		.uleb128 0x6
 2093 092f 7F050000 		.4byte	.LASF149
 2094 0933 0F       		.byte	0xf
ARM GAS  /tmp/ccJYLV47.s 			page 38


 2095 0934 3A       		.byte	0x3a
 2096 0935 87020000 		.4byte	0x287
 2097 0939 00       		.byte	0
 2098 093a 06       		.uleb128 0x6
 2099 093b 59010000 		.4byte	.LASF150
 2100 093f 0F       		.byte	0xf
 2101 0940 3C       		.byte	0x3c
 2102 0941 5D020000 		.4byte	0x25d
 2103 0945 08       		.byte	0x8
 2104 0946 06       		.uleb128 0x6
 2105 0947 850A0000 		.4byte	.LASF151
 2106 094b 0F       		.byte	0xf
 2107 094c 3E       		.byte	0x3e
 2108 094d 96090000 		.4byte	0x996
 2109 0951 0C       		.byte	0xc
 2110 0952 00       		.byte	0
 2111 0953 09       		.uleb128 0x9
 2112 0954 04       		.byte	0x4
 2113 0955 22090000 		.4byte	0x922
 2114 0959 09       		.uleb128 0x9
 2115 095a 04       		.byte	0x4
 2116 095b 5F090000 		.4byte	0x95f
 2117 095f 18       		.uleb128 0x18
 2118 0960 64090000 		.4byte	0x964
 2119 0964 04       		.uleb128 0x4
 2120 0965 01       		.byte	0x1
 2121 0966 08       		.byte	0x8
 2122 0967 28030000 		.4byte	.LASF152
 2123 096b 09       		.uleb128 0x9
 2124 096c 04       		.byte	0x4
 2125 096d 3C030000 		.4byte	0x33c
 2126 0971 0F       		.uleb128 0xf
 2127 0972 43010000 		.4byte	0x143
 2128 0976 0F       		.uleb128 0xf
 2129 0977 59090000 		.4byte	0x959
 2130 097b 10       		.uleb128 0x10
 2131 097c CF070000 		.4byte	0x7cf
 2132 0980 8B090000 		.4byte	0x98b
 2133 0984 11       		.uleb128 0x11
 2134 0985 70040000 		.4byte	0x470
 2135 0989 1A       		.byte	0x1a
 2136 098a 00       		.byte	0
 2137 098b 03       		.uleb128 0x3
 2138 098c C8090000 		.4byte	.LASF153
 2139 0990 0F       		.byte	0xf
 2140 0991 34       		.byte	0x34
 2141 0992 22090000 		.4byte	0x922
 2142 0996 09       		.uleb128 0x9
 2143 0997 04       		.byte	0x4
 2144 0998 8B090000 		.4byte	0x98b
 2145 099c 14       		.uleb128 0x14
 2146 099d 0C       		.byte	0xc
 2147 099e 10       		.byte	0x10
 2148 099f 6D01     		.2byte	0x16d
 2149 09a1 E7090000 		.4byte	0x9e7
 2150 09a5 08       		.uleb128 0x8
 2151 09a6 DC030000 		.4byte	.LASF154
ARM GAS  /tmp/ccJYLV47.s 			page 39


 2152 09aa 10       		.byte	0x10
 2153 09ab 6E01     		.2byte	0x16e
 2154 09ad E7090000 		.4byte	0x9e7
 2155 09b1 00       		.byte	0
 2156 09b2 08       		.uleb128 0x8
 2157 09b3 790A0000 		.4byte	.LASF155
 2158 09b7 10       		.byte	0x10
 2159 09b8 6F01     		.2byte	0x16f
 2160 09ba ED090000 		.4byte	0x9ed
 2161 09be 04       		.byte	0x4
 2162 09bf 08       		.uleb128 0x8
 2163 09c0 2D030000 		.4byte	.LASF156
 2164 09c4 10       		.byte	0x10
 2165 09c5 7001     		.2byte	0x170
 2166 09c7 A9000000 		.4byte	0xa9
 2167 09cb 08       		.byte	0x8
 2168 09cc 08       		.uleb128 0x8
 2169 09cd EB070000 		.4byte	.LASF157
 2170 09d1 10       		.byte	0x10
 2171 09d2 7201     		.2byte	0x172
 2172 09d4 A9000000 		.4byte	0xa9
 2173 09d8 09       		.byte	0x9
 2174 09d9 08       		.uleb128 0x8
 2175 09da 65080000 		.4byte	.LASF158
 2176 09de 10       		.byte	0x10
 2177 09df 7301     		.2byte	0x173
 2178 09e1 A9000000 		.4byte	0xa9
 2179 09e5 0A       		.byte	0xa
 2180 09e6 00       		.byte	0
 2181 09e7 09       		.uleb128 0x9
 2182 09e8 04       		.byte	0x4
 2183 09e9 1D060000 		.4byte	0x61d
 2184 09ed 09       		.uleb128 0x9
 2185 09ee 04       		.byte	0x4
 2186 09ef 77040000 		.4byte	0x477
 2187 09f3 15       		.uleb128 0x15
 2188 09f4 05000000 		.4byte	.LASF159
 2189 09f8 10       		.byte	0x10
 2190 09f9 7401     		.2byte	0x174
 2191 09fb 9C090000 		.4byte	0x99c
 2192 09ff 15       		.uleb128 0x15
 2193 0a00 EE060000 		.4byte	.LASF160
 2194 0a04 10       		.byte	0x10
 2195 0a05 7D01     		.2byte	0x17d
 2196 0a07 0B0A0000 		.4byte	0xa0b
 2197 0a0b 09       		.uleb128 0x9
 2198 0a0c 04       		.byte	0x4
 2199 0a0d 110A0000 		.4byte	0xa11
 2200 0a11 0B       		.uleb128 0xb
 2201 0a12 210A0000 		.4byte	0xa21
 2202 0a16 0C       		.uleb128 0xc
 2203 0a17 3A030000 		.4byte	0x33a
 2204 0a1b 0C       		.uleb128 0xc
 2205 0a1c CA000000 		.4byte	0xca
 2206 0a20 00       		.byte	0
 2207 0a21 04       		.uleb128 0x4
 2208 0a22 01       		.byte	0x1
ARM GAS  /tmp/ccJYLV47.s 			page 40


 2209 0a23 02       		.byte	0x2
 2210 0a24 0C030000 		.4byte	.LASF161
 2211 0a28 19       		.uleb128 0x19
 2212 0a29 01       		.byte	0x1
 2213 0a2a 11       		.byte	0x11
 2214 0a2b 46       		.byte	0x46
 2215 0a2c 550A0000 		.4byte	0xa55
 2216 0a30 1A       		.uleb128 0x1a
 2217 0a31 450A0000 		.4byte	.LASF162
 2218 0a35 00       		.sleb128 0
 2219 0a36 1A       		.uleb128 0x1a
 2220 0a37 D5080000 		.4byte	.LASF163
 2221 0a3b 01       		.sleb128 1
 2222 0a3c 1A       		.uleb128 0x1a
 2223 0a3d 02030000 		.4byte	.LASF164
 2224 0a41 02       		.sleb128 2
 2225 0a42 1A       		.uleb128 0x1a
 2226 0a43 A2070000 		.4byte	.LASF165
 2227 0a47 03       		.sleb128 3
 2228 0a48 1A       		.uleb128 0x1a
 2229 0a49 11050000 		.4byte	.LASF166
 2230 0a4d 04       		.sleb128 4
 2231 0a4e 1A       		.uleb128 0x1a
 2232 0a4f 5E030000 		.4byte	.LASF167
 2233 0a53 05       		.sleb128 5
 2234 0a54 00       		.byte	0
 2235 0a55 03       		.uleb128 0x3
 2236 0a56 A0000000 		.4byte	.LASF168
 2237 0a5a 11       		.byte	0x11
 2238 0a5b 4D       		.byte	0x4d
 2239 0a5c 280A0000 		.4byte	0xa28
 2240 0a60 15       		.uleb128 0x15
 2241 0a61 1C030000 		.4byte	.LASF169
 2242 0a65 12       		.byte	0x12
 2243 0a66 2E01     		.2byte	0x12e
 2244 0a68 B4000000 		.4byte	0xb4
 2245 0a6c 15       		.uleb128 0x15
 2246 0a6d 41040000 		.4byte	.LASF170
 2247 0a71 12       		.byte	0x12
 2248 0a72 3301     		.2byte	0x133
 2249 0a74 B4000000 		.4byte	0xb4
 2250 0a78 1B       		.uleb128 0x1b
 2251 0a79 01       		.byte	0x1
 2252 0a7a 12       		.byte	0x12
 2253 0a7b 3A01     		.2byte	0x13a
 2254 0a7d 8E0A0000 		.4byte	0xa8e
 2255 0a81 1A       		.uleb128 0x1a
 2256 0a82 C9030000 		.4byte	.LASF171
 2257 0a86 00       		.sleb128 0
 2258 0a87 1A       		.uleb128 0x1a
 2259 0a88 6C080000 		.4byte	.LASF172
 2260 0a8c 01       		.sleb128 1
 2261 0a8d 00       		.byte	0
 2262 0a8e 15       		.uleb128 0x15
 2263 0a8f E0020000 		.4byte	.LASF173
 2264 0a93 12       		.byte	0x12
 2265 0a94 3D01     		.2byte	0x13d
ARM GAS  /tmp/ccJYLV47.s 			page 41


 2266 0a96 780A0000 		.4byte	0xa78
 2267 0a9a 15       		.uleb128 0x15
 2268 0a9b 4E080000 		.4byte	.LASF174
 2269 0a9f 12       		.byte	0x12
 2270 0aa0 4201     		.2byte	0x142
 2271 0aa2 A60A0000 		.4byte	0xaa6
 2272 0aa6 0A       		.uleb128 0xa
 2273 0aa7 4E080000 		.4byte	.LASF174
 2274 0aab 34       		.byte	0x34
 2275 0aac 12       		.byte	0x12
 2276 0aad A601     		.2byte	0x1a6
 2277 0aaf 360B0000 		.4byte	0xb36
 2278 0ab3 08       		.uleb128 0x8
 2279 0ab4 10010000 		.4byte	.LASF175
 2280 0ab8 12       		.byte	0x12
 2281 0ab9 AA01     		.2byte	0x1aa
 2282 0abb 550A0000 		.4byte	0xa55
 2283 0abf 00       		.byte	0
 2284 0ac0 08       		.uleb128 0x8
 2285 0ac1 09010000 		.4byte	.LASF176
 2286 0ac5 12       		.byte	0x12
 2287 0ac6 AE01     		.2byte	0x1ae
 2288 0ac8 530C0000 		.4byte	0xc53
 2289 0acc 04       		.byte	0x4
 2290 0acd 08       		.uleb128 0x8
 2291 0ace FA030000 		.4byte	.LASF177
 2292 0ad2 12       		.byte	0x12
 2293 0ad3 B201     		.2byte	0x1b2
 2294 0ad5 630B0000 		.4byte	0xb63
 2295 0ad9 08       		.byte	0x8
 2296 0ada 08       		.uleb128 0x8
 2297 0adb 8D060000 		.4byte	.LASF178
 2298 0adf 12       		.byte	0x12
 2299 0ae0 B601     		.2byte	0x1b6
 2300 0ae2 28000000 		.4byte	0x28
 2301 0ae6 0C       		.byte	0xc
 2302 0ae7 08       		.uleb128 0x8
 2303 0ae8 F9080000 		.4byte	.LASF179
 2304 0aec 12       		.byte	0x12
 2305 0aed BA01     		.2byte	0x1ba
 2306 0aef 5E0C0000 		.4byte	0xc5e
 2307 0af3 10       		.byte	0x10
 2308 0af4 08       		.uleb128 0x8
 2309 0af5 20090000 		.4byte	.LASF180
 2310 0af9 12       		.byte	0x12
 2311 0afa BF01     		.2byte	0x1bf
 2312 0afc 52020000 		.4byte	0x252
 2313 0b00 14       		.byte	0x14
 2314 0b01 08       		.uleb128 0x8
 2315 0b02 93060000 		.4byte	.LASF181
 2316 0b06 12       		.byte	0x12
 2317 0b07 C501     		.2byte	0x1c5
 2318 0b09 8B090000 		.4byte	0x98b
 2319 0b0d 18       		.byte	0x18
 2320 0b0e 07       		.uleb128 0x7
 2321 0b0f 61646300 		.ascii	"adc\000"
 2322 0b13 12       		.byte	0x12
ARM GAS  /tmp/ccJYLV47.s 			page 42


 2323 0b14 CE01     		.2byte	0x1ce
 2324 0b16 690C0000 		.4byte	0xc69
 2325 0b1a 28       		.byte	0x28
 2326 0b1b 08       		.uleb128 0x8
 2327 0b1c 8E040000 		.4byte	.LASF182
 2328 0b20 12       		.byte	0x12
 2329 0b21 D201     		.2byte	0x1d2
 2330 0b23 6F0C0000 		.4byte	0xc6f
 2331 0b27 2C       		.byte	0x2c
 2332 0b28 08       		.uleb128 0x8
 2333 0b29 CF010000 		.4byte	.LASF183
 2334 0b2d 12       		.byte	0x12
 2335 0b2e D601     		.2byte	0x1d6
 2336 0b30 CA000000 		.4byte	0xca
 2337 0b34 30       		.byte	0x30
 2338 0b35 00       		.byte	0
 2339 0b36 15       		.uleb128 0x15
 2340 0b37 6A000000 		.4byte	.LASF184
 2341 0b3b 12       		.byte	0x12
 2342 0b3c 4C01     		.2byte	0x14c
 2343 0b3e 420B0000 		.4byte	0xb42
 2344 0b42 09       		.uleb128 0x9
 2345 0b43 04       		.byte	0x4
 2346 0b44 480B0000 		.4byte	0xb48
 2347 0b48 0B       		.uleb128 0xb
 2348 0b49 5D0B0000 		.4byte	0xb5d
 2349 0b4d 0C       		.uleb128 0xc
 2350 0b4e 5D0B0000 		.4byte	0xb5d
 2351 0b52 0C       		.uleb128 0xc
 2352 0b53 630B0000 		.4byte	0xb63
 2353 0b57 0C       		.uleb128 0xc
 2354 0b58 28000000 		.4byte	0x28
 2355 0b5c 00       		.byte	0
 2356 0b5d 09       		.uleb128 0x9
 2357 0b5e 04       		.byte	0x4
 2358 0b5f 9A0A0000 		.4byte	0xa9a
 2359 0b63 09       		.uleb128 0x9
 2360 0b64 04       		.byte	0x4
 2361 0b65 600A0000 		.4byte	0xa60
 2362 0b69 15       		.uleb128 0x15
 2363 0b6a 71060000 		.4byte	.LASF185
 2364 0b6e 12       		.byte	0x12
 2365 0b6f 5501     		.2byte	0x155
 2366 0b71 750B0000 		.4byte	0xb75
 2367 0b75 09       		.uleb128 0x9
 2368 0b76 04       		.byte	0x4
 2369 0b77 7B0B0000 		.4byte	0xb7b
 2370 0b7b 0B       		.uleb128 0xb
 2371 0b7c 8B0B0000 		.4byte	0xb8b
 2372 0b80 0C       		.uleb128 0xc
 2373 0b81 5D0B0000 		.4byte	0xb5d
 2374 0b85 0C       		.uleb128 0xc
 2375 0b86 8E0A0000 		.4byte	0xa8e
 2376 0b8a 00       		.byte	0
 2377 0b8b 14       		.uleb128 0x14
 2378 0b8c 28       		.byte	0x28
 2379 0b8d 12       		.byte	0x12
ARM GAS  /tmp/ccJYLV47.s 			page 43


 2380 0b8e 5F01     		.2byte	0x15f
 2381 0b90 240C0000 		.4byte	0xc24
 2382 0b94 08       		.uleb128 0x8
 2383 0b95 C0030000 		.4byte	.LASF186
 2384 0b99 12       		.byte	0x12
 2385 0b9a 6301     		.2byte	0x163
 2386 0b9c 210A0000 		.4byte	0xa21
 2387 0ba0 00       		.byte	0
 2388 0ba1 08       		.uleb128 0x8
 2389 0ba2 04070000 		.4byte	.LASF187
 2390 0ba6 12       		.byte	0x12
 2391 0ba7 6701     		.2byte	0x167
 2392 0ba9 6C0A0000 		.4byte	0xa6c
 2393 0bad 02       		.byte	0x2
 2394 0bae 08       		.uleb128 0x8
 2395 0baf 68010000 		.4byte	.LASF188
 2396 0bb3 12       		.byte	0x12
 2397 0bb4 6B01     		.2byte	0x16b
 2398 0bb6 360B0000 		.4byte	0xb36
 2399 0bba 04       		.byte	0x4
 2400 0bbb 08       		.uleb128 0x8
 2401 0bbc 2B010000 		.4byte	.LASF189
 2402 0bc0 12       		.byte	0x12
 2403 0bc1 6F01     		.2byte	0x16f
 2404 0bc3 690B0000 		.4byte	0xb69
 2405 0bc7 08       		.byte	0x8
 2406 0bc8 07       		.uleb128 0x7
 2407 0bc9 63723100 		.ascii	"cr1\000"
 2408 0bcd 12       		.byte	0x12
 2409 0bce 7601     		.2byte	0x176
 2410 0bd0 CA000000 		.4byte	0xca
 2411 0bd4 0C       		.byte	0xc
 2412 0bd5 07       		.uleb128 0x7
 2413 0bd6 63723200 		.ascii	"cr2\000"
 2414 0bda 12       		.byte	0x12
 2415 0bdb 7D01     		.2byte	0x17d
 2416 0bdd CA000000 		.4byte	0xca
 2417 0be1 10       		.byte	0x10
 2418 0be2 08       		.uleb128 0x8
 2419 0be3 2E050000 		.4byte	.LASF190
 2420 0be7 12       		.byte	0x12
 2421 0be8 8301     		.2byte	0x183
 2422 0bea CA000000 		.4byte	0xca
 2423 0bee 14       		.byte	0x14
 2424 0bef 08       		.uleb128 0x8
 2425 0bf0 34050000 		.4byte	.LASF191
 2426 0bf4 12       		.byte	0x12
 2427 0bf5 8901     		.2byte	0x189
 2428 0bf7 CA000000 		.4byte	0xca
 2429 0bfb 18       		.byte	0x18
 2430 0bfc 08       		.uleb128 0x8
 2431 0bfd 1F000000 		.4byte	.LASF192
 2432 0c01 12       		.byte	0x12
 2433 0c02 8E01     		.2byte	0x18e
 2434 0c04 CA000000 		.4byte	0xca
 2435 0c08 1C       		.byte	0x1c
 2436 0c09 08       		.uleb128 0x8
ARM GAS  /tmp/ccJYLV47.s 			page 44


 2437 0c0a 24000000 		.4byte	.LASF193
 2438 0c0e 12       		.byte	0x12
 2439 0c0f 9301     		.2byte	0x193
 2440 0c11 CA000000 		.4byte	0xca
 2441 0c15 20       		.byte	0x20
 2442 0c16 08       		.uleb128 0x8
 2443 0c17 BB030000 		.4byte	.LASF194
 2444 0c1b 12       		.byte	0x12
 2445 0c1c 9801     		.2byte	0x198
 2446 0c1e CA000000 		.4byte	0xca
 2447 0c22 24       		.byte	0x24
 2448 0c23 00       		.byte	0
 2449 0c24 15       		.uleb128 0x15
 2450 0c25 FE040000 		.4byte	.LASF195
 2451 0c29 12       		.byte	0x12
 2452 0c2a 9901     		.2byte	0x199
 2453 0c2c 8B0B0000 		.4byte	0xb8b
 2454 0c30 14       		.uleb128 0x14
 2455 0c31 04       		.byte	0x4
 2456 0c32 12       		.byte	0x12
 2457 0c33 9F01     		.2byte	0x19f
 2458 0c35 470C0000 		.4byte	0xc47
 2459 0c39 08       		.uleb128 0x8
 2460 0c3a CF080000 		.4byte	.LASF196
 2461 0c3e 12       		.byte	0x12
 2462 0c3f A001     		.2byte	0x1a0
 2463 0c41 CA000000 		.4byte	0xca
 2464 0c45 00       		.byte	0
 2465 0c46 00       		.byte	0
 2466 0c47 15       		.uleb128 0x15
 2467 0c48 920A0000 		.4byte	.LASF197
 2468 0c4c 12       		.byte	0x12
 2469 0c4d A101     		.2byte	0x1a1
 2470 0c4f 300C0000 		.4byte	0xc30
 2471 0c53 09       		.uleb128 0x9
 2472 0c54 04       		.byte	0x4
 2473 0c55 590C0000 		.4byte	0xc59
 2474 0c59 18       		.uleb128 0x18
 2475 0c5a 470C0000 		.4byte	0xc47
 2476 0c5e 09       		.uleb128 0x9
 2477 0c5f 04       		.byte	0x4
 2478 0c60 640C0000 		.4byte	0xc64
 2479 0c64 18       		.uleb128 0x18
 2480 0c65 240C0000 		.4byte	0xc24
 2481 0c69 09       		.uleb128 0x9
 2482 0c6a 04       		.byte	0x4
 2483 0c6b 83050000 		.4byte	0x583
 2484 0c6f 09       		.uleb128 0x9
 2485 0c70 04       		.byte	0x4
 2486 0c71 750C0000 		.4byte	0xc75
 2487 0c75 18       		.uleb128 0x18
 2488 0c76 F3090000 		.4byte	0x9f3
 2489 0c7a 1C       		.uleb128 0x1c
 2490 0c7b 97080000 		.4byte	.LASF205
 2491 0c7f 02       		.byte	0x2
 2492 0c80 2202     		.2byte	0x222
 2493 0c82 03       		.byte	0x3
ARM GAS  /tmp/ccJYLV47.s 			page 45


 2494 0c83 940C0000 		.4byte	0xc94
 2495 0c87 1D       		.uleb128 0x1d
 2496 0c88 34080000 		.4byte	.LASF207
 2497 0c8c 02       		.byte	0x2
 2498 0c8d 2202     		.2byte	0x222
 2499 0c8f CA000000 		.4byte	0xca
 2500 0c93 00       		.byte	0
 2501 0c94 1E       		.uleb128 0x1e
 2502 0c95 2C090000 		.4byte	.LASF198
 2503 0c99 0C       		.byte	0xc
 2504 0c9a C801     		.2byte	0x1c8
 2505 0c9c 03       		.byte	0x3
 2506 0c9d 1E       		.uleb128 0x1e
 2507 0c9e AB010000 		.4byte	.LASF199
 2508 0ca2 0C       		.byte	0xc
 2509 0ca3 E001     		.2byte	0x1e0
 2510 0ca5 03       		.byte	0x3
 2511 0ca6 1E       		.uleb128 0x1e
 2512 0ca7 87050000 		.4byte	.LASF200
 2513 0cab 0C       		.byte	0xc
 2514 0cac EF01     		.2byte	0x1ef
 2515 0cae 03       		.byte	0x3
 2516 0caf 1E       		.uleb128 0x1e
 2517 0cb0 AD070000 		.4byte	.LASF201
 2518 0cb4 0C       		.byte	0xc
 2519 0cb5 FA01     		.2byte	0x1fa
 2520 0cb7 03       		.byte	0x3
 2521 0cb8 1E       		.uleb128 0x1e
 2522 0cb9 BE010000 		.4byte	.LASF202
 2523 0cbd 13       		.byte	0x13
 2524 0cbe 8201     		.2byte	0x182
 2525 0cc0 03       		.byte	0x3
 2526 0cc1 1E       		.uleb128 0x1e
 2527 0cc2 79020000 		.4byte	.LASF203
 2528 0cc6 13       		.byte	0x13
 2529 0cc7 9601     		.2byte	0x196
 2530 0cc9 03       		.byte	0x3
 2531 0cca 1E       		.uleb128 0x1e
 2532 0ccb 34010000 		.4byte	.LASF204
 2533 0ccf 03       		.byte	0x3
 2534 0cd0 0102     		.2byte	0x201
 2535 0cd2 03       		.byte	0x3
 2536 0cd3 1C       		.uleb128 0x1c
 2537 0cd4 47010000 		.4byte	.LASF206
 2538 0cd8 03       		.byte	0x3
 2539 0cd9 D602     		.2byte	0x2d6
 2540 0cdb 03       		.byte	0x3
 2541 0cdc F90C0000 		.4byte	0xcf9
 2542 0ce0 1F       		.uleb128 0x1f
 2543 0ce1 74727000 		.ascii	"trp\000"
 2544 0ce5 03       		.byte	0x3
 2545 0ce6 D602     		.2byte	0x2d6
 2546 0ce8 F1080000 		.4byte	0x8f1
 2547 0cec 1F       		.uleb128 0x1f
 2548 0ced 6D736700 		.ascii	"msg\000"
 2549 0cf1 03       		.byte	0x3
 2550 0cf2 D602     		.2byte	0x2d6
ARM GAS  /tmp/ccJYLV47.s 			page 46


 2551 0cf4 22010000 		.4byte	0x122
 2552 0cf8 00       		.byte	0
 2553 0cf9 1E       		.uleb128 0x1e
 2554 0cfa 54040000 		.4byte	.LASF208
 2555 0cfe 03       		.byte	0x3
 2556 0cff 0C02     		.2byte	0x20c
 2557 0d01 03       		.byte	0x3
 2558 0d02 20       		.uleb128 0x20
 2559 0d03 58080000 		.4byte	.LASF209
 2560 0d07 01       		.byte	0x1
 2561 0d08 AB       		.byte	0xab
 2562 0d09 00000000 		.4byte	.LFB209
 2563 0d0d 34000000 		.4byte	.LFE209-.LFB209
 2564 0d11 01       		.uleb128 0x1
 2565 0d12 9C       		.byte	0x9c
 2566 0d13 400D0000 		.4byte	0xd40
 2567 0d17 21       		.uleb128 0x21
 2568 0d18 0C000000 		.4byte	.LVL0
 2569 0d1c 08130000 		.4byte	0x1308
 2570 0d20 2B0D0000 		.4byte	0xd2b
 2571 0d24 22       		.uleb128 0x22
 2572 0d25 01       		.uleb128 0x1
 2573 0d26 50       		.byte	0x50
 2574 0d27 02       		.uleb128 0x2
 2575 0d28 74       		.byte	0x74
 2576 0d29 00       		.sleb128 0
 2577 0d2a 00       		.byte	0
 2578 0d2b 23       		.uleb128 0x23
 2579 0d2c 22000000 		.4byte	.LVL1
 2580 0d30 19130000 		.4byte	0x1319
 2581 0d34 22       		.uleb128 0x22
 2582 0d35 01       		.uleb128 0x1
 2583 0d36 51       		.byte	0x51
 2584 0d37 01       		.uleb128 0x1
 2585 0d38 36       		.byte	0x36
 2586 0d39 22       		.uleb128 0x22
 2587 0d3a 01       		.uleb128 0x1
 2588 0d3b 50       		.byte	0x50
 2589 0d3c 01       		.uleb128 0x1
 2590 0d3d 42       		.byte	0x42
 2591 0d3e 00       		.byte	0
 2592 0d3f 00       		.byte	0
 2593 0d40 20       		.uleb128 0x20
 2594 0d41 32000000 		.4byte	.LASF210
 2595 0d45 01       		.byte	0x1
 2596 0d46 E0       		.byte	0xe0
 2597 0d47 00000000 		.4byte	.LFB210
 2598 0d4b 64000000 		.4byte	.LFE210-.LFB210
 2599 0d4f 01       		.uleb128 0x1
 2600 0d50 9C       		.byte	0x9c
 2601 0d51 9F0D0000 		.4byte	0xd9f
 2602 0d55 24       		.uleb128 0x24
 2603 0d56 6C060000 		.4byte	.LASF212
 2604 0d5a 01       		.byte	0x1
 2605 0d5b E0       		.byte	0xe0
 2606 0d5c 5D0B0000 		.4byte	0xb5d
 2607 0d60 00000000 		.4byte	.LLST0
ARM GAS  /tmp/ccJYLV47.s 			page 47


 2608 0d64 25       		.uleb128 0x25
 2609 0d65 E9000000 		.4byte	.LASF233
 2610 0d69 AF0D0000 		.4byte	0xdaf
 2611 0d6d 26       		.uleb128 0x26
 2612 0d6e 2E000000 		.4byte	.LBB85
 2613 0d72 36000000 		.4byte	.LBE85-.LBB85
 2614 0d76 27       		.uleb128 0x27
 2615 0d77 6200     		.ascii	"b\000"
 2616 0d79 01       		.byte	0x1
 2617 0d7a E6       		.byte	0xe6
 2618 0d7b 210A0000 		.4byte	0xa21
 2619 0d7f 28       		.uleb128 0x28
 2620 0d80 3A000000 		.4byte	.LVL7
 2621 0d84 2F130000 		.4byte	0x132f
 2622 0d88 22       		.uleb128 0x22
 2623 0d89 01       		.uleb128 0x1
 2624 0d8a 53       		.byte	0x53
 2625 0d8b 02       		.uleb128 0x2
 2626 0d8c 74       		.byte	0x74
 2627 0d8d 00       		.sleb128 0
 2628 0d8e 22       		.uleb128 0x22
 2629 0d8f 01       		.uleb128 0x1
 2630 0d90 52       		.byte	0x52
 2631 0d91 05       		.uleb128 0x5
 2632 0d92 03       		.byte	0x3
 2633 0d93 00000000 		.4byte	adc_lld_serve_rx_interrupt
 2634 0d97 22       		.uleb128 0x22
 2635 0d98 01       		.uleb128 0x1
 2636 0d99 51       		.byte	0x51
 2637 0d9a 01       		.uleb128 0x1
 2638 0d9b 36       		.byte	0x36
 2639 0d9c 00       		.byte	0
 2640 0d9d 00       		.byte	0
 2641 0d9e 00       		.byte	0
 2642 0d9f 10       		.uleb128 0x10
 2643 0da0 64090000 		.4byte	0x964
 2644 0da4 AF0D0000 		.4byte	0xdaf
 2645 0da8 11       		.uleb128 0x11
 2646 0da9 70040000 		.4byte	0x470
 2647 0dad 0D       		.byte	0xd
 2648 0dae 00       		.byte	0
 2649 0daf 18       		.uleb128 0x18
 2650 0db0 9F0D0000 		.4byte	0xd9f
 2651 0db4 29       		.uleb128 0x29
 2652 0db5 0C020000 		.4byte	.LASF211
 2653 0db9 01       		.byte	0x1
 2654 0dba 1F01     		.2byte	0x11f
 2655 0dbc 00000000 		.4byte	.LFB211
 2656 0dc0 38000000 		.4byte	.LFE211-.LFB211
 2657 0dc4 01       		.uleb128 0x1
 2658 0dc5 9C       		.byte	0x9c
 2659 0dc6 E40D0000 		.4byte	0xde4
 2660 0dca 2A       		.uleb128 0x2a
 2661 0dcb 6C060000 		.4byte	.LASF212
 2662 0dcf 01       		.byte	0x1
 2663 0dd0 1F01     		.2byte	0x11f
 2664 0dd2 5D0B0000 		.4byte	0xb5d
ARM GAS  /tmp/ccJYLV47.s 			page 48


 2665 0dd6 42000000 		.4byte	.LLST1
 2666 0dda 2B       		.uleb128 0x2b
 2667 0ddb 12000000 		.4byte	.LVL10
 2668 0ddf 54130000 		.4byte	0x1354
 2669 0de3 00       		.byte	0
 2670 0de4 29       		.uleb128 0x29
 2671 0de5 3A050000 		.4byte	.LASF213
 2672 0de9 01       		.byte	0x1
 2673 0dea 3F01     		.2byte	0x13f
 2674 0dec 00000000 		.4byte	.LFB212
 2675 0df0 96000000 		.4byte	.LFE212-.LFB212
 2676 0df4 01       		.uleb128 0x1
 2677 0df5 9C       		.byte	0x9c
 2678 0df6 3B0E0000 		.4byte	0xe3b
 2679 0dfa 2A       		.uleb128 0x2a
 2680 0dfb 6C060000 		.4byte	.LASF212
 2681 0dff 01       		.byte	0x1
 2682 0e00 3F01     		.2byte	0x13f
 2683 0e02 5D0B0000 		.4byte	0xb5d
 2684 0e06 60000000 		.4byte	.LLST2
 2685 0e0a 2C       		.uleb128 0x2c
 2686 0e0b 5D090000 		.4byte	.LASF214
 2687 0e0f 01       		.byte	0x1
 2688 0e10 4001     		.2byte	0x140
 2689 0e12 CA000000 		.4byte	0xca
 2690 0e16 81000000 		.4byte	.LLST3
 2691 0e1a 2D       		.uleb128 0x2d
 2692 0e1b 63723200 		.ascii	"cr2\000"
 2693 0e1f 01       		.byte	0x1
 2694 0e20 4101     		.2byte	0x141
 2695 0e22 CA000000 		.4byte	0xca
 2696 0e26 CE000000 		.4byte	.LLST4
 2697 0e2a 2C       		.uleb128 0x2c
 2698 0e2b F9080000 		.4byte	.LASF179
 2699 0e2f 01       		.byte	0x1
 2700 0e30 4201     		.2byte	0x142
 2701 0e32 5E0C0000 		.4byte	0xc5e
 2702 0e36 28010000 		.4byte	.LLST5
 2703 0e3a 00       		.byte	0
 2704 0e3b 29       		.uleb128 0x29
 2705 0e3c 3B070000 		.4byte	.LASF215
 2706 0e40 01       		.byte	0x1
 2707 0e41 7601     		.2byte	0x176
 2708 0e43 00000000 		.4byte	.LFB213
 2709 0e47 2E000000 		.4byte	.LFE213-.LFB213
 2710 0e4b 01       		.uleb128 0x1
 2711 0e4c 9C       		.byte	0x9c
 2712 0e4d 620E0000 		.4byte	0xe62
 2713 0e51 2A       		.uleb128 0x2a
 2714 0e52 6C060000 		.4byte	.LASF212
 2715 0e56 01       		.byte	0x1
 2716 0e57 7601     		.2byte	0x176
 2717 0e59 5D0B0000 		.4byte	0xb5d
 2718 0e5d 63010000 		.4byte	.LLST6
 2719 0e61 00       		.byte	0
 2720 0e62 20       		.uleb128 0x20
 2721 0e63 F0010000 		.4byte	.LASF216
ARM GAS  /tmp/ccJYLV47.s 			page 49


 2722 0e67 01       		.byte	0x1
 2723 0e68 6F       		.byte	0x6f
 2724 0e69 00000000 		.4byte	.LFB208
 2725 0e6d 68000000 		.4byte	.LFE208-.LFB208
 2726 0e71 01       		.uleb128 0x1
 2727 0e72 9C       		.byte	0x9c
 2728 0e73 B90F0000 		.4byte	0xfb9
 2729 0e77 2E       		.uleb128 0x2e
 2730 0e78 737200   		.ascii	"sr\000"
 2731 0e7b 01       		.byte	0x1
 2732 0e7c 70       		.byte	0x70
 2733 0e7d CA000000 		.4byte	0xca
 2734 0e81 84010000 		.4byte	.LLST7
 2735 0e85 2F       		.uleb128 0x2f
 2736 0e86 CA0C0000 		.4byte	0xcca
 2737 0e8a 40000000 		.4byte	.LBB86
 2738 0e8e 06000000 		.4byte	.LBE86-.LBB86
 2739 0e92 01       		.byte	0x1
 2740 0e93 7D       		.byte	0x7d
 2741 0e94 E60E0000 		.4byte	0xee6
 2742 0e98 30       		.uleb128 0x30
 2743 0e99 B80C0000 		.4byte	0xcb8
 2744 0e9d 40000000 		.4byte	.LBB87
 2745 0ea1 06000000 		.4byte	.LBE87-.LBB87
 2746 0ea5 03       		.byte	0x3
 2747 0ea6 0302     		.2byte	0x203
 2748 0ea8 30       		.uleb128 0x30
 2749 0ea9 A60C0000 		.4byte	0xca6
 2750 0ead 40000000 		.4byte	.LBB88
 2751 0eb1 06000000 		.4byte	.LBE88-.LBB88
 2752 0eb5 13       		.byte	0x13
 2753 0eb6 8401     		.2byte	0x184
 2754 0eb8 30       		.uleb128 0x30
 2755 0eb9 940C0000 		.4byte	0xc94
 2756 0ebd 40000000 		.4byte	.LBB89
 2757 0ec1 06000000 		.4byte	.LBE89-.LBB89
 2758 0ec5 0C       		.byte	0xc
 2759 0ec6 F101     		.2byte	0x1f1
 2760 0ec8 30       		.uleb128 0x30
 2761 0ec9 7A0C0000 		.4byte	0xc7a
 2762 0ecd 40000000 		.4byte	.LBB90
 2763 0ed1 06000000 		.4byte	.LBE90-.LBB90
 2764 0ed5 0C       		.byte	0xc
 2765 0ed6 D001     		.2byte	0x1d0
 2766 0ed8 31       		.uleb128 0x31
 2767 0ed9 870C0000 		.4byte	0xc87
 2768 0edd 97010000 		.4byte	.LLST8
 2769 0ee1 00       		.byte	0
 2770 0ee2 00       		.byte	0
 2771 0ee3 00       		.byte	0
 2772 0ee4 00       		.byte	0
 2773 0ee5 00       		.byte	0
 2774 0ee6 2F       		.uleb128 0x2f
 2775 0ee7 D30C0000 		.4byte	0xcd3
 2776 0eeb 46000000 		.4byte	.LBB92
 2777 0eef 0A000000 		.4byte	.LBE92-.LBB92
 2778 0ef3 01       		.byte	0x1
ARM GAS  /tmp/ccJYLV47.s 			page 50


 2779 0ef4 7D       		.byte	0x7d
 2780 0ef5 250F0000 		.4byte	0xf25
 2781 0ef9 31       		.uleb128 0x31
 2782 0efa EC0C0000 		.4byte	0xcec
 2783 0efe AC010000 		.4byte	.LLST9
 2784 0f02 31       		.uleb128 0x31
 2785 0f03 E00C0000 		.4byte	0xce0
 2786 0f07 C1010000 		.4byte	.LLST10
 2787 0f0b 28       		.uleb128 0x28
 2788 0f0c 50000000 		.4byte	.LVL35
 2789 0f10 66130000 		.4byte	0x1366
 2790 0f14 22       		.uleb128 0x22
 2791 0f15 01       		.uleb128 0x1
 2792 0f16 51       		.byte	0x51
 2793 0f17 02       		.uleb128 0x2
 2794 0f18 09       		.byte	0x9
 2795 0f19 FF       		.byte	0xff
 2796 0f1a 22       		.uleb128 0x22
 2797 0f1b 01       		.uleb128 0x1
 2798 0f1c 50       		.byte	0x50
 2799 0f1d 05       		.uleb128 0x5
 2800 0f1e 03       		.byte	0x3
 2801 0f1f 14000000 		.4byte	.LANCHOR0+20
 2802 0f23 00       		.byte	0
 2803 0f24 00       		.byte	0
 2804 0f25 2F       		.uleb128 0x2f
 2805 0f26 F90C0000 		.4byte	0xcf9
 2806 0f2a 50000000 		.4byte	.LBB94
 2807 0f2e 04000000 		.4byte	.LBE94-.LBB94
 2808 0f32 01       		.byte	0x1
 2809 0f33 7D       		.byte	0x7d
 2810 0f34 860F0000 		.4byte	0xf86
 2811 0f38 30       		.uleb128 0x30
 2812 0f39 C10C0000 		.4byte	0xcc1
 2813 0f3d 50000000 		.4byte	.LBB95
 2814 0f41 04000000 		.4byte	.LBE95-.LBB95
 2815 0f45 03       		.byte	0x3
 2816 0f46 0E02     		.2byte	0x20e
 2817 0f48 30       		.uleb128 0x30
 2818 0f49 AF0C0000 		.4byte	0xcaf
 2819 0f4d 50000000 		.4byte	.LBB96
 2820 0f51 04000000 		.4byte	.LBE96-.LBB96
 2821 0f55 13       		.byte	0x13
 2822 0f56 9A01     		.2byte	0x19a
 2823 0f58 30       		.uleb128 0x30
 2824 0f59 9D0C0000 		.4byte	0xc9d
 2825 0f5d 50000000 		.4byte	.LBB97
 2826 0f61 04000000 		.4byte	.LBE97-.LBB97
 2827 0f65 0C       		.byte	0xc
 2828 0f66 FC01     		.2byte	0x1fc
 2829 0f68 30       		.uleb128 0x30
 2830 0f69 7A0C0000 		.4byte	0xc7a
 2831 0f6d 50000000 		.4byte	.LBB98
 2832 0f71 04000000 		.4byte	.LBE98-.LBB98
 2833 0f75 0C       		.byte	0xc
 2834 0f76 E301     		.2byte	0x1e3
 2835 0f78 31       		.uleb128 0x31
ARM GAS  /tmp/ccJYLV47.s 			page 51


 2836 0f79 870C0000 		.4byte	0xc87
 2837 0f7d D9010000 		.4byte	.LLST11
 2838 0f81 00       		.byte	0
 2839 0f82 00       		.byte	0
 2840 0f83 00       		.byte	0
 2841 0f84 00       		.byte	0
 2842 0f85 00       		.byte	0
 2843 0f86 21       		.uleb128 0x21
 2844 0f87 22000000 		.4byte	.LVL31
 2845 0f8b 3B0E0000 		.4byte	0xe3b
 2846 0f8f 9A0F0000 		.4byte	0xf9a
 2847 0f93 22       		.uleb128 0x22
 2848 0f94 01       		.uleb128 0x1
 2849 0f95 50       		.byte	0x50
 2850 0f96 02       		.uleb128 0x2
 2851 0f97 74       		.byte	0x74
 2852 0f98 00       		.sleb128 0
 2853 0f99 00       		.byte	0
 2854 0f9a 32       		.uleb128 0x32
 2855 0f9b 32000000 		.4byte	.LVL32
 2856 0f9f AF0F0000 		.4byte	0xfaf
 2857 0fa3 22       		.uleb128 0x22
 2858 0fa4 01       		.uleb128 0x1
 2859 0fa5 51       		.byte	0x51
 2860 0fa6 01       		.uleb128 0x1
 2861 0fa7 31       		.byte	0x31
 2862 0fa8 22       		.uleb128 0x22
 2863 0fa9 01       		.uleb128 0x1
 2864 0faa 50       		.byte	0x50
 2865 0fab 02       		.uleb128 0x2
 2866 0fac 74       		.byte	0x74
 2867 0fad 00       		.sleb128 0
 2868 0fae 00       		.byte	0
 2869 0faf 33       		.uleb128 0x33
 2870 0fb0 5C000000 		.4byte	.LVL37
 2871 0fb4 7C130000 		.4byte	0x137c
 2872 0fb8 00       		.byte	0
 2873 0fb9 34       		.uleb128 0x34
 2874 0fba 100A0000 		.4byte	.LASF234
 2875 0fbe 01       		.byte	0x1
 2876 0fbf 4B       		.byte	0x4b
 2877 0fc0 00000000 		.4byte	.LFB207
 2878 0fc4 D2000000 		.4byte	.LFE207-.LFB207
 2879 0fc8 01       		.uleb128 0x1
 2880 0fc9 9C       		.byte	0x9c
 2881 0fca 72120000 		.4byte	0x1272
 2882 0fce 24       		.uleb128 0x24
 2883 0fcf 6C060000 		.4byte	.LASF212
 2884 0fd3 01       		.byte	0x1
 2885 0fd4 4B       		.byte	0x4b
 2886 0fd5 5D0B0000 		.4byte	0xb5d
 2887 0fd9 ED010000 		.4byte	.LLST12
 2888 0fdd 24       		.uleb128 0x24
 2889 0fde 68030000 		.4byte	.LASF217
 2890 0fe2 01       		.byte	0x1
 2891 0fe3 4B       		.byte	0x4b
 2892 0fe4 CA000000 		.4byte	0xca
ARM GAS  /tmp/ccJYLV47.s 			page 52


 2893 0fe8 6C020000 		.4byte	.LLST13
 2894 0fec 35       		.uleb128 0x35
 2895 0fed 00000000 		.4byte	.Ldebug_ranges0+0
 2896 0ff1 21100000 		.4byte	0x1021
 2897 0ff5 36       		.uleb128 0x36
 2898 0ff6 7D080000 		.4byte	.LASF218
 2899 0ffa 01       		.byte	0x1
 2900 0ffb 5A       		.byte	0x5a
 2901 0ffc 28000000 		.4byte	0x28
 2902 1000 F1020000 		.4byte	.LLST14
 2903 1004 36       		.uleb128 0x36
 2904 1005 74050000 		.4byte	.LASF219
 2905 1009 01       		.byte	0x1
 2906 100a 5A       		.byte	0x5a
 2907 100b 28000000 		.4byte	0x28
 2908 100f 04030000 		.4byte	.LLST15
 2909 1013 37       		.uleb128 0x37
 2910 1014 38000000 		.4byte	.LVL41
 2911 1018 22       		.uleb128 0x22
 2912 1019 01       		.uleb128 0x1
 2913 101a 50       		.byte	0x50
 2914 101b 03       		.uleb128 0x3
 2915 101c F3       		.byte	0xf3
 2916 101d 01       		.uleb128 0x1
 2917 101e 50       		.byte	0x50
 2918 101f 00       		.byte	0
 2919 1020 00       		.byte	0
 2920 1021 2F       		.uleb128 0x2f
 2921 1022 CA0C0000 		.4byte	0xcca
 2922 1026 60000000 		.4byte	.LBB102
 2923 102a 06000000 		.4byte	.LBE102-.LBB102
 2924 102e 01       		.byte	0x1
 2925 102f 51       		.byte	0x51
 2926 1030 82100000 		.4byte	0x1082
 2927 1034 30       		.uleb128 0x30
 2928 1035 B80C0000 		.4byte	0xcb8
 2929 1039 60000000 		.4byte	.LBB103
 2930 103d 06000000 		.4byte	.LBE103-.LBB103
 2931 1041 03       		.byte	0x3
 2932 1042 0302     		.2byte	0x203
 2933 1044 30       		.uleb128 0x30
 2934 1045 A60C0000 		.4byte	0xca6
 2935 1049 60000000 		.4byte	.LBB104
 2936 104d 06000000 		.4byte	.LBE104-.LBB104
 2937 1051 13       		.byte	0x13
 2938 1052 8401     		.2byte	0x184
 2939 1054 30       		.uleb128 0x30
 2940 1055 940C0000 		.4byte	0xc94
 2941 1059 60000000 		.4byte	.LBB105
 2942 105d 06000000 		.4byte	.LBE105-.LBB105
 2943 1061 0C       		.byte	0xc
 2944 1062 F101     		.2byte	0x1f1
 2945 1064 30       		.uleb128 0x30
 2946 1065 7A0C0000 		.4byte	0xc7a
 2947 1069 60000000 		.4byte	.LBB106
 2948 106d 06000000 		.4byte	.LBE106-.LBB106
 2949 1071 0C       		.byte	0xc
ARM GAS  /tmp/ccJYLV47.s 			page 53


 2950 1072 D001     		.2byte	0x1d0
 2951 1074 31       		.uleb128 0x31
 2952 1075 870C0000 		.4byte	0xc87
 2953 1079 25030000 		.4byte	.LLST16
 2954 107d 00       		.byte	0
 2955 107e 00       		.byte	0
 2956 107f 00       		.byte	0
 2957 1080 00       		.byte	0
 2958 1081 00       		.byte	0
 2959 1082 2F       		.uleb128 0x2f
 2960 1083 D30C0000 		.4byte	0xcd3
 2961 1087 66000000 		.4byte	.LBB108
 2962 108b 0C000000 		.4byte	.LBE108-.LBB108
 2963 108f 01       		.byte	0x1
 2964 1090 51       		.byte	0x51
 2965 1091 BE100000 		.4byte	0x10be
 2966 1095 31       		.uleb128 0x31
 2967 1096 EC0C0000 		.4byte	0xcec
 2968 109a 3A030000 		.4byte	.LLST17
 2969 109e 31       		.uleb128 0x31
 2970 109f E00C0000 		.4byte	0xce0
 2971 10a3 4F030000 		.4byte	.LLST18
 2972 10a7 28       		.uleb128 0x28
 2973 10a8 72000000 		.4byte	.LVL47
 2974 10ac 66130000 		.4byte	0x1366
 2975 10b0 22       		.uleb128 0x22
 2976 10b1 01       		.uleb128 0x1
 2977 10b2 51       		.byte	0x51
 2978 10b3 02       		.uleb128 0x2
 2979 10b4 09       		.byte	0x9
 2980 10b5 FF       		.byte	0xff
 2981 10b6 22       		.uleb128 0x22
 2982 10b7 01       		.uleb128 0x1
 2983 10b8 50       		.byte	0x50
 2984 10b9 02       		.uleb128 0x2
 2985 10ba 74       		.byte	0x74
 2986 10bb 14       		.sleb128 20
 2987 10bc 00       		.byte	0
 2988 10bd 00       		.byte	0
 2989 10be 2F       		.uleb128 0x2f
 2990 10bf F90C0000 		.4byte	0xcf9
 2991 10c3 72000000 		.4byte	.LBB110
 2992 10c7 06000000 		.4byte	.LBE110-.LBB110
 2993 10cb 01       		.byte	0x1
 2994 10cc 51       		.byte	0x51
 2995 10cd 1F110000 		.4byte	0x111f
 2996 10d1 30       		.uleb128 0x30
 2997 10d2 C10C0000 		.4byte	0xcc1
 2998 10d6 72000000 		.4byte	.LBB111
 2999 10da 06000000 		.4byte	.LBE111-.LBB111
 3000 10de 03       		.byte	0x3
 3001 10df 0E02     		.2byte	0x20e
 3002 10e1 30       		.uleb128 0x30
 3003 10e2 AF0C0000 		.4byte	0xcaf
 3004 10e6 72000000 		.4byte	.LBB112
 3005 10ea 06000000 		.4byte	.LBE112-.LBB112
 3006 10ee 13       		.byte	0x13
ARM GAS  /tmp/ccJYLV47.s 			page 54


 3007 10ef 9A01     		.2byte	0x19a
 3008 10f1 30       		.uleb128 0x30
 3009 10f2 9D0C0000 		.4byte	0xc9d
 3010 10f6 72000000 		.4byte	.LBB113
 3011 10fa 06000000 		.4byte	.LBE113-.LBB113
 3012 10fe 0C       		.byte	0xc
 3013 10ff FC01     		.2byte	0x1fc
 3014 1101 30       		.uleb128 0x30
 3015 1102 7A0C0000 		.4byte	0xc7a
 3016 1106 72000000 		.4byte	.LBB114
 3017 110a 06000000 		.4byte	.LBE114-.LBB114
 3018 110e 0C       		.byte	0xc
 3019 110f E301     		.2byte	0x1e3
 3020 1111 31       		.uleb128 0x31
 3021 1112 870C0000 		.4byte	0xc87
 3022 1116 7C030000 		.4byte	.LLST19
 3023 111a 00       		.byte	0
 3024 111b 00       		.byte	0
 3025 111c 00       		.byte	0
 3026 111d 00       		.byte	0
 3027 111e 00       		.byte	0
 3028 111f 2F       		.uleb128 0x2f
 3029 1120 CA0C0000 		.4byte	0xcca
 3030 1124 B0000000 		.4byte	.LBB116
 3031 1128 06000000 		.4byte	.LBE116-.LBB116
 3032 112c 01       		.byte	0x1
 3033 112d 5A       		.byte	0x5a
 3034 112e 80110000 		.4byte	0x1180
 3035 1132 30       		.uleb128 0x30
 3036 1133 B80C0000 		.4byte	0xcb8
 3037 1137 B0000000 		.4byte	.LBB117
 3038 113b 06000000 		.4byte	.LBE117-.LBB117
 3039 113f 03       		.byte	0x3
 3040 1140 0302     		.2byte	0x203
 3041 1142 30       		.uleb128 0x30
 3042 1143 A60C0000 		.4byte	0xca6
 3043 1147 B0000000 		.4byte	.LBB118
 3044 114b 06000000 		.4byte	.LBE118-.LBB118
 3045 114f 13       		.byte	0x13
 3046 1150 8401     		.2byte	0x184
 3047 1152 30       		.uleb128 0x30
 3048 1153 940C0000 		.4byte	0xc94
 3049 1157 B0000000 		.4byte	.LBB119
 3050 115b 06000000 		.4byte	.LBE119-.LBB119
 3051 115f 0C       		.byte	0xc
 3052 1160 F101     		.2byte	0x1f1
 3053 1162 30       		.uleb128 0x30
 3054 1163 7A0C0000 		.4byte	0xc7a
 3055 1167 B0000000 		.4byte	.LBB120
 3056 116b 06000000 		.4byte	.LBE120-.LBB120
 3057 116f 0C       		.byte	0xc
 3058 1170 D001     		.2byte	0x1d0
 3059 1172 31       		.uleb128 0x31
 3060 1173 870C0000 		.4byte	0xc87
 3061 1177 90030000 		.4byte	.LLST20
 3062 117b 00       		.byte	0
 3063 117c 00       		.byte	0
ARM GAS  /tmp/ccJYLV47.s 			page 55


 3064 117d 00       		.byte	0
 3065 117e 00       		.byte	0
 3066 117f 00       		.byte	0
 3067 1180 2F       		.uleb128 0x2f
 3068 1181 D30C0000 		.4byte	0xcd3
 3069 1185 B6000000 		.4byte	.LBB122
 3070 1189 0A000000 		.4byte	.LBE122-.LBB122
 3071 118d 01       		.byte	0x1
 3072 118e 5A       		.byte	0x5a
 3073 118f BB110000 		.4byte	0x11bb
 3074 1193 31       		.uleb128 0x31
 3075 1194 EC0C0000 		.4byte	0xcec
 3076 1198 A5030000 		.4byte	.LLST21
 3077 119c 31       		.uleb128 0x31
 3078 119d E00C0000 		.4byte	0xce0
 3079 11a1 B9030000 		.4byte	.LLST22
 3080 11a5 28       		.uleb128 0x28
 3081 11a6 C0000000 		.4byte	.LVL58
 3082 11aa 66130000 		.4byte	0x1366
 3083 11ae 22       		.uleb128 0x22
 3084 11af 01       		.uleb128 0x1
 3085 11b0 51       		.byte	0x51
 3086 11b1 01       		.uleb128 0x1
 3087 11b2 30       		.byte	0x30
 3088 11b3 22       		.uleb128 0x22
 3089 11b4 01       		.uleb128 0x1
 3090 11b5 50       		.byte	0x50
 3091 11b6 02       		.uleb128 0x2
 3092 11b7 74       		.byte	0x74
 3093 11b8 14       		.sleb128 20
 3094 11b9 00       		.byte	0
 3095 11ba 00       		.byte	0
 3096 11bb 2F       		.uleb128 0x2f
 3097 11bc F90C0000 		.4byte	0xcf9
 3098 11c0 C0000000 		.4byte	.LBB124
 3099 11c4 08000000 		.4byte	.LBE124-.LBB124
 3100 11c8 01       		.byte	0x1
 3101 11c9 5A       		.byte	0x5a
 3102 11ca 1C120000 		.4byte	0x121c
 3103 11ce 30       		.uleb128 0x30
 3104 11cf C10C0000 		.4byte	0xcc1
 3105 11d3 C0000000 		.4byte	.LBB125
 3106 11d7 08000000 		.4byte	.LBE125-.LBB125
 3107 11db 03       		.byte	0x3
 3108 11dc 0E02     		.2byte	0x20e
 3109 11de 30       		.uleb128 0x30
 3110 11df AF0C0000 		.4byte	0xcaf
 3111 11e3 C0000000 		.4byte	.LBB126
 3112 11e7 08000000 		.4byte	.LBE126-.LBB126
 3113 11eb 13       		.byte	0x13
 3114 11ec 9A01     		.2byte	0x19a
 3115 11ee 30       		.uleb128 0x30
 3116 11ef 9D0C0000 		.4byte	0xc9d
 3117 11f3 C0000000 		.4byte	.LBB127
 3118 11f7 08000000 		.4byte	.LBE127-.LBB127
 3119 11fb 0C       		.byte	0xc
 3120 11fc FC01     		.2byte	0x1fc
ARM GAS  /tmp/ccJYLV47.s 			page 56


 3121 11fe 30       		.uleb128 0x30
 3122 11ff 7A0C0000 		.4byte	0xc7a
 3123 1203 C0000000 		.4byte	.LBB128
 3124 1207 08000000 		.4byte	.LBE128-.LBB128
 3125 120b 0C       		.byte	0xc
 3126 120c E301     		.2byte	0x1e3
 3127 120e 31       		.uleb128 0x31
 3128 120f 870C0000 		.4byte	0xc87
 3129 1213 E6030000 		.4byte	.LLST23
 3130 1217 00       		.byte	0
 3131 1218 00       		.byte	0
 3132 1219 00       		.byte	0
 3133 121a 00       		.byte	0
 3134 121b 00       		.byte	0
 3135 121c 2B       		.uleb128 0x2b
 3136 121d 42000000 		.4byte	.LVL42
 3137 1221 3B0E0000 		.4byte	0xe3b
 3138 1225 32       		.uleb128 0x32
 3139 1226 52000000 		.4byte	.LVL43
 3140 122a 3A120000 		.4byte	0x123a
 3141 122e 22       		.uleb128 0x22
 3142 122f 01       		.uleb128 0x1
 3143 1230 51       		.byte	0x51
 3144 1231 01       		.uleb128 0x1
 3145 1232 30       		.byte	0x30
 3146 1233 22       		.uleb128 0x22
 3147 1234 01       		.uleb128 0x1
 3148 1235 50       		.byte	0x50
 3149 1236 02       		.uleb128 0x2
 3150 1237 74       		.byte	0x74
 3151 1238 00       		.sleb128 0
 3152 1239 00       		.byte	0
 3153 123a 38       		.uleb128 0x38
 3154 123b 8A000000 		.4byte	.LVL50
 3155 123f 4B120000 		.4byte	0x124b
 3156 1243 22       		.uleb128 0x22
 3157 1244 01       		.uleb128 0x1
 3158 1245 50       		.byte	0x50
 3159 1246 03       		.uleb128 0x3
 3160 1247 F3       		.byte	0xf3
 3161 1248 01       		.uleb128 0x1
 3162 1249 50       		.byte	0x50
 3163 124a 00       		.byte	0
 3164 124b 38       		.uleb128 0x38
 3165 124c 94000000 		.4byte	.LVL52
 3166 1250 5C120000 		.4byte	0x125c
 3167 1254 22       		.uleb128 0x22
 3168 1255 01       		.uleb128 0x1
 3169 1256 50       		.byte	0x50
 3170 1257 03       		.uleb128 0x3
 3171 1258 F3       		.byte	0xf3
 3172 1259 01       		.uleb128 0x1
 3173 125a 50       		.byte	0x50
 3174 125b 00       		.byte	0
 3175 125c 2B       		.uleb128 0x2b
 3176 125d 98000000 		.4byte	.LVL53
 3177 1261 3B0E0000 		.4byte	0xe3b
ARM GAS  /tmp/ccJYLV47.s 			page 57


 3178 1265 39       		.uleb128 0x39
 3179 1266 AA000000 		.4byte	.LVL54
 3180 126a 22       		.uleb128 0x22
 3181 126b 01       		.uleb128 0x1
 3182 126c 50       		.byte	0x50
 3183 126d 02       		.uleb128 0x2
 3184 126e 74       		.byte	0x74
 3185 126f 00       		.sleb128 0
 3186 1270 00       		.byte	0
 3187 1271 00       		.byte	0
 3188 1272 3A       		.uleb128 0x3a
 3189 1273 2B020000 		.4byte	.LASF220
 3190 1277 01       		.byte	0x1
 3191 1278 8401     		.2byte	0x184
 3192 127a 00000000 		.4byte	.LFB214
 3193 127e 10000000 		.4byte	.LFE214-.LFB214
 3194 1282 01       		.uleb128 0x1
 3195 1283 9C       		.byte	0x9c
 3196 1284 3A       		.uleb128 0x3a
 3197 1285 F2000000 		.4byte	.LASF221
 3198 1289 01       		.byte	0x1
 3199 128a 8F01     		.2byte	0x18f
 3200 128c 00000000 		.4byte	.LFB215
 3201 1290 10000000 		.4byte	.LFE215-.LFB215
 3202 1294 01       		.uleb128 0x1
 3203 1295 9C       		.byte	0x9c
 3204 1296 3A       		.uleb128 0x3a
 3205 1297 AD080000 		.4byte	.LASF222
 3206 129b 01       		.byte	0x1
 3207 129c 9A01     		.2byte	0x19a
 3208 129e 00000000 		.4byte	.LFB216
 3209 12a2 10000000 		.4byte	.LFE216-.LFB216
 3210 12a6 01       		.uleb128 0x1
 3211 12a7 9C       		.byte	0x9c
 3212 12a8 3A       		.uleb128 0x3a
 3213 12a9 16010000 		.4byte	.LASF223
 3214 12ad 01       		.byte	0x1
 3215 12ae A501     		.2byte	0x1a5
 3216 12b0 00000000 		.4byte	.LFB217
 3217 12b4 10000000 		.4byte	.LFE217-.LFB217
 3218 12b8 01       		.uleb128 0x1
 3219 12b9 9C       		.byte	0x9c
 3220 12ba 3B       		.uleb128 0x3b
 3221 12bb 99060000 		.4byte	.LASF224
 3222 12bf 14       		.byte	0x14
 3223 12c0 5506     		.2byte	0x655
 3224 12c2 C6120000 		.4byte	0x12c6
 3225 12c6 0F       		.uleb128 0xf
 3226 12c7 BF000000 		.4byte	0xbf
 3227 12cb 3C       		.uleb128 0x3c
 3228 12cc 636800   		.ascii	"ch\000"
 3229 12cf 09       		.byte	0x9
 3230 12d0 0902     		.2byte	0x209
 3231 12d2 09040000 		.4byte	0x409
 3232 12d6 10       		.uleb128 0x10
 3233 12d7 F3090000 		.4byte	0x9f3
 3234 12db E6120000 		.4byte	0x12e6
ARM GAS  /tmp/ccJYLV47.s 			page 58


 3235 12df 11       		.uleb128 0x11
 3236 12e0 70040000 		.4byte	0x470
 3237 12e4 0F       		.byte	0xf
 3238 12e5 00       		.byte	0
 3239 12e6 3B       		.uleb128 0x3b
 3240 12e7 C2040000 		.4byte	.LASF225
 3241 12eb 10       		.byte	0x10
 3242 12ec 9202     		.2byte	0x292
 3243 12ee F2120000 		.4byte	0x12f2
 3244 12f2 18       		.uleb128 0x18
 3245 12f3 D6120000 		.4byte	0x12d6
 3246 12f7 3D       		.uleb128 0x3d
 3247 12f8 24070000 		.4byte	.LASF226
 3248 12fc 01       		.byte	0x1
 3249 12fd 30       		.byte	0x30
 3250 12fe 9A0A0000 		.4byte	0xa9a
 3251 1302 05       		.uleb128 0x5
 3252 1303 03       		.byte	0x3
 3253 1304 00000000 		.4byte	ADCD1
 3254 1308 3E       		.uleb128 0x3e
 3255 1309 9A090000 		.4byte	.LASF227
 3256 130d 11       		.byte	0x11
 3257 130e F7       		.byte	0xf7
 3258 130f 19130000 		.4byte	0x1319
 3259 1313 0C       		.uleb128 0xc
 3260 1314 5D0B0000 		.4byte	0xb5d
 3261 1318 00       		.byte	0
 3262 1319 3E       		.uleb128 0x3e
 3263 131a F6090000 		.4byte	.LASF228
 3264 131e 15       		.byte	0x15
 3265 131f 4E       		.byte	0x4e
 3266 1320 2F130000 		.4byte	0x132f
 3267 1324 0C       		.uleb128 0xc
 3268 1325 CA000000 		.4byte	0xca
 3269 1329 0C       		.uleb128 0xc
 3270 132a CA000000 		.4byte	0xca
 3271 132e 00       		.byte	0
 3272 132f 3F       		.uleb128 0x3f
 3273 1330 E3030000 		.4byte	.LASF235
 3274 1334 10       		.byte	0x10
 3275 1335 9902     		.2byte	0x299
 3276 1337 210A0000 		.4byte	0xa21
 3277 133b 54130000 		.4byte	0x1354
 3278 133f 0C       		.uleb128 0xc
 3279 1340 6F0C0000 		.4byte	0xc6f
 3280 1344 0C       		.uleb128 0xc
 3281 1345 CA000000 		.4byte	0xca
 3282 1349 0C       		.uleb128 0xc
 3283 134a FF090000 		.4byte	0x9ff
 3284 134e 0C       		.uleb128 0xc
 3285 134f 3A030000 		.4byte	0x33a
 3286 1353 00       		.byte	0
 3287 1354 40       		.uleb128 0x40
 3288 1355 C1000000 		.4byte	.LASF229
 3289 1359 10       		.byte	0x10
 3290 135a 9D02     		.2byte	0x29d
 3291 135c 66130000 		.4byte	0x1366
ARM GAS  /tmp/ccJYLV47.s 			page 59


 3292 1360 0C       		.uleb128 0xc
 3293 1361 6F0C0000 		.4byte	0xc6f
 3294 1365 00       		.byte	0
 3295 1366 3E       		.uleb128 0x3e
 3296 1367 AB000000 		.4byte	.LASF230
 3297 136b 16       		.byte	0x16
 3298 136c 8F       		.byte	0x8f
 3299 136d 7C130000 		.4byte	0x137c
 3300 1371 0C       		.uleb128 0xc
 3301 1372 F1080000 		.4byte	0x8f1
 3302 1376 0C       		.uleb128 0xc
 3303 1377 22010000 		.4byte	0x122
 3304 137b 00       		.byte	0
 3305 137c 41       		.uleb128 0x41
 3306 137d 11070000 		.4byte	.LASF236
 3307 1381 0C       		.byte	0xc
 3308 1382 6F01     		.2byte	0x16f
 3309 1384 00       		.byte	0
 3310              		.section	.debug_abbrev,"",%progbits
 3311              	.Ldebug_abbrev0:
 3312 0000 01       		.uleb128 0x1
 3313 0001 11       		.uleb128 0x11
 3314 0002 01       		.byte	0x1
 3315 0003 25       		.uleb128 0x25
 3316 0004 0E       		.uleb128 0xe
 3317 0005 13       		.uleb128 0x13
 3318 0006 0B       		.uleb128 0xb
 3319 0007 03       		.uleb128 0x3
 3320 0008 0E       		.uleb128 0xe
 3321 0009 55       		.uleb128 0x55
 3322 000a 17       		.uleb128 0x17
 3323 000b 11       		.uleb128 0x11
 3324 000c 01       		.uleb128 0x1
 3325 000d 10       		.uleb128 0x10
 3326 000e 17       		.uleb128 0x17
 3327 000f 00       		.byte	0
 3328 0010 00       		.byte	0
 3329 0011 02       		.uleb128 0x2
 3330 0012 24       		.uleb128 0x24
 3331 0013 00       		.byte	0
 3332 0014 0B       		.uleb128 0xb
 3333 0015 0B       		.uleb128 0xb
 3334 0016 3E       		.uleb128 0x3e
 3335 0017 0B       		.uleb128 0xb
 3336 0018 03       		.uleb128 0x3
 3337 0019 08       		.uleb128 0x8
 3338 001a 00       		.byte	0
 3339 001b 00       		.byte	0
 3340 001c 03       		.uleb128 0x3
 3341 001d 16       		.uleb128 0x16
 3342 001e 00       		.byte	0
 3343 001f 03       		.uleb128 0x3
 3344 0020 0E       		.uleb128 0xe
 3345 0021 3A       		.uleb128 0x3a
 3346 0022 0B       		.uleb128 0xb
 3347 0023 3B       		.uleb128 0x3b
 3348 0024 0B       		.uleb128 0xb
ARM GAS  /tmp/ccJYLV47.s 			page 60


 3349 0025 49       		.uleb128 0x49
 3350 0026 13       		.uleb128 0x13
 3351 0027 00       		.byte	0
 3352 0028 00       		.byte	0
 3353 0029 04       		.uleb128 0x4
 3354 002a 24       		.uleb128 0x24
 3355 002b 00       		.byte	0
 3356 002c 0B       		.uleb128 0xb
 3357 002d 0B       		.uleb128 0xb
 3358 002e 3E       		.uleb128 0x3e
 3359 002f 0B       		.uleb128 0xb
 3360 0030 03       		.uleb128 0x3
 3361 0031 0E       		.uleb128 0xe
 3362 0032 00       		.byte	0
 3363 0033 00       		.byte	0
 3364 0034 05       		.uleb128 0x5
 3365 0035 13       		.uleb128 0x13
 3366 0036 01       		.byte	0x1
 3367 0037 03       		.uleb128 0x3
 3368 0038 0E       		.uleb128 0xe
 3369 0039 0B       		.uleb128 0xb
 3370 003a 0B       		.uleb128 0xb
 3371 003b 3A       		.uleb128 0x3a
 3372 003c 0B       		.uleb128 0xb
 3373 003d 3B       		.uleb128 0x3b
 3374 003e 0B       		.uleb128 0xb
 3375 003f 01       		.uleb128 0x1
 3376 0040 13       		.uleb128 0x13
 3377 0041 00       		.byte	0
 3378 0042 00       		.byte	0
 3379 0043 06       		.uleb128 0x6
 3380 0044 0D       		.uleb128 0xd
 3381 0045 00       		.byte	0
 3382 0046 03       		.uleb128 0x3
 3383 0047 0E       		.uleb128 0xe
 3384 0048 3A       		.uleb128 0x3a
 3385 0049 0B       		.uleb128 0xb
 3386 004a 3B       		.uleb128 0x3b
 3387 004b 0B       		.uleb128 0xb
 3388 004c 49       		.uleb128 0x49
 3389 004d 13       		.uleb128 0x13
 3390 004e 38       		.uleb128 0x38
 3391 004f 0B       		.uleb128 0xb
 3392 0050 00       		.byte	0
 3393 0051 00       		.byte	0
 3394 0052 07       		.uleb128 0x7
 3395 0053 0D       		.uleb128 0xd
 3396 0054 00       		.byte	0
 3397 0055 03       		.uleb128 0x3
 3398 0056 08       		.uleb128 0x8
 3399 0057 3A       		.uleb128 0x3a
 3400 0058 0B       		.uleb128 0xb
 3401 0059 3B       		.uleb128 0x3b
 3402 005a 05       		.uleb128 0x5
 3403 005b 49       		.uleb128 0x49
 3404 005c 13       		.uleb128 0x13
 3405 005d 38       		.uleb128 0x38
ARM GAS  /tmp/ccJYLV47.s 			page 61


 3406 005e 0B       		.uleb128 0xb
 3407 005f 00       		.byte	0
 3408 0060 00       		.byte	0
 3409 0061 08       		.uleb128 0x8
 3410 0062 0D       		.uleb128 0xd
 3411 0063 00       		.byte	0
 3412 0064 03       		.uleb128 0x3
 3413 0065 0E       		.uleb128 0xe
 3414 0066 3A       		.uleb128 0x3a
 3415 0067 0B       		.uleb128 0xb
 3416 0068 3B       		.uleb128 0x3b
 3417 0069 05       		.uleb128 0x5
 3418 006a 49       		.uleb128 0x49
 3419 006b 13       		.uleb128 0x13
 3420 006c 38       		.uleb128 0x38
 3421 006d 0B       		.uleb128 0xb
 3422 006e 00       		.byte	0
 3423 006f 00       		.byte	0
 3424 0070 09       		.uleb128 0x9
 3425 0071 0F       		.uleb128 0xf
 3426 0072 00       		.byte	0
 3427 0073 0B       		.uleb128 0xb
 3428 0074 0B       		.uleb128 0xb
 3429 0075 49       		.uleb128 0x49
 3430 0076 13       		.uleb128 0x13
 3431 0077 00       		.byte	0
 3432 0078 00       		.byte	0
 3433 0079 0A       		.uleb128 0xa
 3434 007a 13       		.uleb128 0x13
 3435 007b 01       		.byte	0x1
 3436 007c 03       		.uleb128 0x3
 3437 007d 0E       		.uleb128 0xe
 3438 007e 0B       		.uleb128 0xb
 3439 007f 0B       		.uleb128 0xb
 3440 0080 3A       		.uleb128 0x3a
 3441 0081 0B       		.uleb128 0xb
 3442 0082 3B       		.uleb128 0x3b
 3443 0083 05       		.uleb128 0x5
 3444 0084 01       		.uleb128 0x1
 3445 0085 13       		.uleb128 0x13
 3446 0086 00       		.byte	0
 3447 0087 00       		.byte	0
 3448 0088 0B       		.uleb128 0xb
 3449 0089 15       		.uleb128 0x15
 3450 008a 01       		.byte	0x1
 3451 008b 27       		.uleb128 0x27
 3452 008c 19       		.uleb128 0x19
 3453 008d 01       		.uleb128 0x1
 3454 008e 13       		.uleb128 0x13
 3455 008f 00       		.byte	0
 3456 0090 00       		.byte	0
 3457 0091 0C       		.uleb128 0xc
 3458 0092 05       		.uleb128 0x5
 3459 0093 00       		.byte	0
 3460 0094 49       		.uleb128 0x49
 3461 0095 13       		.uleb128 0x13
 3462 0096 00       		.byte	0
ARM GAS  /tmp/ccJYLV47.s 			page 62


 3463 0097 00       		.byte	0
 3464 0098 0D       		.uleb128 0xd
 3465 0099 0F       		.uleb128 0xf
 3466 009a 00       		.byte	0
 3467 009b 0B       		.uleb128 0xb
 3468 009c 0B       		.uleb128 0xb
 3469 009d 00       		.byte	0
 3470 009e 00       		.byte	0
 3471 009f 0E       		.uleb128 0xe
 3472 00a0 13       		.uleb128 0x13
 3473 00a1 01       		.byte	0x1
 3474 00a2 03       		.uleb128 0x3
 3475 00a3 0E       		.uleb128 0xe
 3476 00a4 0B       		.uleb128 0xb
 3477 00a5 05       		.uleb128 0x5
 3478 00a6 3A       		.uleb128 0x3a
 3479 00a7 0B       		.uleb128 0xb
 3480 00a8 3B       		.uleb128 0x3b
 3481 00a9 05       		.uleb128 0x5
 3482 00aa 01       		.uleb128 0x1
 3483 00ab 13       		.uleb128 0x13
 3484 00ac 00       		.byte	0
 3485 00ad 00       		.byte	0
 3486 00ae 0F       		.uleb128 0xf
 3487 00af 35       		.uleb128 0x35
 3488 00b0 00       		.byte	0
 3489 00b1 49       		.uleb128 0x49
 3490 00b2 13       		.uleb128 0x13
 3491 00b3 00       		.byte	0
 3492 00b4 00       		.byte	0
 3493 00b5 10       		.uleb128 0x10
 3494 00b6 01       		.uleb128 0x1
 3495 00b7 01       		.byte	0x1
 3496 00b8 49       		.uleb128 0x49
 3497 00b9 13       		.uleb128 0x13
 3498 00ba 01       		.uleb128 0x1
 3499 00bb 13       		.uleb128 0x13
 3500 00bc 00       		.byte	0
 3501 00bd 00       		.byte	0
 3502 00be 11       		.uleb128 0x11
 3503 00bf 21       		.uleb128 0x21
 3504 00c0 00       		.byte	0
 3505 00c1 49       		.uleb128 0x49
 3506 00c2 13       		.uleb128 0x13
 3507 00c3 2F       		.uleb128 0x2f
 3508 00c4 0B       		.uleb128 0xb
 3509 00c5 00       		.byte	0
 3510 00c6 00       		.byte	0
 3511 00c7 12       		.uleb128 0x12
 3512 00c8 13       		.uleb128 0x13
 3513 00c9 01       		.byte	0x1
 3514 00ca 0B       		.uleb128 0xb
 3515 00cb 0B       		.uleb128 0xb
 3516 00cc 3A       		.uleb128 0x3a
 3517 00cd 0B       		.uleb128 0xb
 3518 00ce 3B       		.uleb128 0x3b
 3519 00cf 0B       		.uleb128 0xb
ARM GAS  /tmp/ccJYLV47.s 			page 63


 3520 00d0 01       		.uleb128 0x1
 3521 00d1 13       		.uleb128 0x13
 3522 00d2 00       		.byte	0
 3523 00d3 00       		.byte	0
 3524 00d4 13       		.uleb128 0x13
 3525 00d5 0D       		.uleb128 0xd
 3526 00d6 00       		.byte	0
 3527 00d7 03       		.uleb128 0x3
 3528 00d8 08       		.uleb128 0x8
 3529 00d9 3A       		.uleb128 0x3a
 3530 00da 0B       		.uleb128 0xb
 3531 00db 3B       		.uleb128 0x3b
 3532 00dc 0B       		.uleb128 0xb
 3533 00dd 49       		.uleb128 0x49
 3534 00de 13       		.uleb128 0x13
 3535 00df 38       		.uleb128 0x38
 3536 00e0 0B       		.uleb128 0xb
 3537 00e1 00       		.byte	0
 3538 00e2 00       		.byte	0
 3539 00e3 14       		.uleb128 0x14
 3540 00e4 13       		.uleb128 0x13
 3541 00e5 01       		.byte	0x1
 3542 00e6 0B       		.uleb128 0xb
 3543 00e7 0B       		.uleb128 0xb
 3544 00e8 3A       		.uleb128 0x3a
 3545 00e9 0B       		.uleb128 0xb
 3546 00ea 3B       		.uleb128 0x3b
 3547 00eb 05       		.uleb128 0x5
 3548 00ec 01       		.uleb128 0x1
 3549 00ed 13       		.uleb128 0x13
 3550 00ee 00       		.byte	0
 3551 00ef 00       		.byte	0
 3552 00f0 15       		.uleb128 0x15
 3553 00f1 16       		.uleb128 0x16
 3554 00f2 00       		.byte	0
 3555 00f3 03       		.uleb128 0x3
 3556 00f4 0E       		.uleb128 0xe
 3557 00f5 3A       		.uleb128 0x3a
 3558 00f6 0B       		.uleb128 0xb
 3559 00f7 3B       		.uleb128 0x3b
 3560 00f8 05       		.uleb128 0x5
 3561 00f9 49       		.uleb128 0x49
 3562 00fa 13       		.uleb128 0x13
 3563 00fb 00       		.byte	0
 3564 00fc 00       		.byte	0
 3565 00fd 16       		.uleb128 0x16
 3566 00fe 17       		.uleb128 0x17
 3567 00ff 01       		.byte	0x1
 3568 0100 0B       		.uleb128 0xb
 3569 0101 0B       		.uleb128 0xb
 3570 0102 3A       		.uleb128 0x3a
 3571 0103 0B       		.uleb128 0xb
 3572 0104 3B       		.uleb128 0x3b
 3573 0105 0B       		.uleb128 0xb
 3574 0106 01       		.uleb128 0x1
 3575 0107 13       		.uleb128 0x13
 3576 0108 00       		.byte	0
ARM GAS  /tmp/ccJYLV47.s 			page 64


 3577 0109 00       		.byte	0
 3578 010a 17       		.uleb128 0x17
 3579 010b 0D       		.uleb128 0xd
 3580 010c 00       		.byte	0
 3581 010d 03       		.uleb128 0x3
 3582 010e 0E       		.uleb128 0xe
 3583 010f 3A       		.uleb128 0x3a
 3584 0110 0B       		.uleb128 0xb
 3585 0111 3B       		.uleb128 0x3b
 3586 0112 05       		.uleb128 0x5
 3587 0113 49       		.uleb128 0x49
 3588 0114 13       		.uleb128 0x13
 3589 0115 00       		.byte	0
 3590 0116 00       		.byte	0
 3591 0117 18       		.uleb128 0x18
 3592 0118 26       		.uleb128 0x26
 3593 0119 00       		.byte	0
 3594 011a 49       		.uleb128 0x49
 3595 011b 13       		.uleb128 0x13
 3596 011c 00       		.byte	0
 3597 011d 00       		.byte	0
 3598 011e 19       		.uleb128 0x19
 3599 011f 04       		.uleb128 0x4
 3600 0120 01       		.byte	0x1
 3601 0121 0B       		.uleb128 0xb
 3602 0122 0B       		.uleb128 0xb
 3603 0123 3A       		.uleb128 0x3a
 3604 0124 0B       		.uleb128 0xb
 3605 0125 3B       		.uleb128 0x3b
 3606 0126 0B       		.uleb128 0xb
 3607 0127 01       		.uleb128 0x1
 3608 0128 13       		.uleb128 0x13
 3609 0129 00       		.byte	0
 3610 012a 00       		.byte	0
 3611 012b 1A       		.uleb128 0x1a
 3612 012c 28       		.uleb128 0x28
 3613 012d 00       		.byte	0
 3614 012e 03       		.uleb128 0x3
 3615 012f 0E       		.uleb128 0xe
 3616 0130 1C       		.uleb128 0x1c
 3617 0131 0D       		.uleb128 0xd
 3618 0132 00       		.byte	0
 3619 0133 00       		.byte	0
 3620 0134 1B       		.uleb128 0x1b
 3621 0135 04       		.uleb128 0x4
 3622 0136 01       		.byte	0x1
 3623 0137 0B       		.uleb128 0xb
 3624 0138 0B       		.uleb128 0xb
 3625 0139 3A       		.uleb128 0x3a
 3626 013a 0B       		.uleb128 0xb
 3627 013b 3B       		.uleb128 0x3b
 3628 013c 05       		.uleb128 0x5
 3629 013d 01       		.uleb128 0x1
 3630 013e 13       		.uleb128 0x13
 3631 013f 00       		.byte	0
 3632 0140 00       		.byte	0
 3633 0141 1C       		.uleb128 0x1c
ARM GAS  /tmp/ccJYLV47.s 			page 65


 3634 0142 2E       		.uleb128 0x2e
 3635 0143 01       		.byte	0x1
 3636 0144 03       		.uleb128 0x3
 3637 0145 0E       		.uleb128 0xe
 3638 0146 3A       		.uleb128 0x3a
 3639 0147 0B       		.uleb128 0xb
 3640 0148 3B       		.uleb128 0x3b
 3641 0149 05       		.uleb128 0x5
 3642 014a 27       		.uleb128 0x27
 3643 014b 19       		.uleb128 0x19
 3644 014c 20       		.uleb128 0x20
 3645 014d 0B       		.uleb128 0xb
 3646 014e 01       		.uleb128 0x1
 3647 014f 13       		.uleb128 0x13
 3648 0150 00       		.byte	0
 3649 0151 00       		.byte	0
 3650 0152 1D       		.uleb128 0x1d
 3651 0153 05       		.uleb128 0x5
 3652 0154 00       		.byte	0
 3653 0155 03       		.uleb128 0x3
 3654 0156 0E       		.uleb128 0xe
 3655 0157 3A       		.uleb128 0x3a
 3656 0158 0B       		.uleb128 0xb
 3657 0159 3B       		.uleb128 0x3b
 3658 015a 05       		.uleb128 0x5
 3659 015b 49       		.uleb128 0x49
 3660 015c 13       		.uleb128 0x13
 3661 015d 00       		.byte	0
 3662 015e 00       		.byte	0
 3663 015f 1E       		.uleb128 0x1e
 3664 0160 2E       		.uleb128 0x2e
 3665 0161 00       		.byte	0
 3666 0162 03       		.uleb128 0x3
 3667 0163 0E       		.uleb128 0xe
 3668 0164 3A       		.uleb128 0x3a
 3669 0165 0B       		.uleb128 0xb
 3670 0166 3B       		.uleb128 0x3b
 3671 0167 05       		.uleb128 0x5
 3672 0168 27       		.uleb128 0x27
 3673 0169 19       		.uleb128 0x19
 3674 016a 20       		.uleb128 0x20
 3675 016b 0B       		.uleb128 0xb
 3676 016c 00       		.byte	0
 3677 016d 00       		.byte	0
 3678 016e 1F       		.uleb128 0x1f
 3679 016f 05       		.uleb128 0x5
 3680 0170 00       		.byte	0
 3681 0171 03       		.uleb128 0x3
 3682 0172 08       		.uleb128 0x8
 3683 0173 3A       		.uleb128 0x3a
 3684 0174 0B       		.uleb128 0xb
 3685 0175 3B       		.uleb128 0x3b
 3686 0176 05       		.uleb128 0x5
 3687 0177 49       		.uleb128 0x49
 3688 0178 13       		.uleb128 0x13
 3689 0179 00       		.byte	0
 3690 017a 00       		.byte	0
ARM GAS  /tmp/ccJYLV47.s 			page 66


 3691 017b 20       		.uleb128 0x20
 3692 017c 2E       		.uleb128 0x2e
 3693 017d 01       		.byte	0x1
 3694 017e 3F       		.uleb128 0x3f
 3695 017f 19       		.uleb128 0x19
 3696 0180 03       		.uleb128 0x3
 3697 0181 0E       		.uleb128 0xe
 3698 0182 3A       		.uleb128 0x3a
 3699 0183 0B       		.uleb128 0xb
 3700 0184 3B       		.uleb128 0x3b
 3701 0185 0B       		.uleb128 0xb
 3702 0186 27       		.uleb128 0x27
 3703 0187 19       		.uleb128 0x19
 3704 0188 11       		.uleb128 0x11
 3705 0189 01       		.uleb128 0x1
 3706 018a 12       		.uleb128 0x12
 3707 018b 06       		.uleb128 0x6
 3708 018c 40       		.uleb128 0x40
 3709 018d 18       		.uleb128 0x18
 3710 018e 9742     		.uleb128 0x2117
 3711 0190 19       		.uleb128 0x19
 3712 0191 01       		.uleb128 0x1
 3713 0192 13       		.uleb128 0x13
 3714 0193 00       		.byte	0
 3715 0194 00       		.byte	0
 3716 0195 21       		.uleb128 0x21
 3717 0196 898201   		.uleb128 0x4109
 3718 0199 01       		.byte	0x1
 3719 019a 11       		.uleb128 0x11
 3720 019b 01       		.uleb128 0x1
 3721 019c 31       		.uleb128 0x31
 3722 019d 13       		.uleb128 0x13
 3723 019e 01       		.uleb128 0x1
 3724 019f 13       		.uleb128 0x13
 3725 01a0 00       		.byte	0
 3726 01a1 00       		.byte	0
 3727 01a2 22       		.uleb128 0x22
 3728 01a3 8A8201   		.uleb128 0x410a
 3729 01a6 00       		.byte	0
 3730 01a7 02       		.uleb128 0x2
 3731 01a8 18       		.uleb128 0x18
 3732 01a9 9142     		.uleb128 0x2111
 3733 01ab 18       		.uleb128 0x18
 3734 01ac 00       		.byte	0
 3735 01ad 00       		.byte	0
 3736 01ae 23       		.uleb128 0x23
 3737 01af 898201   		.uleb128 0x4109
 3738 01b2 01       		.byte	0x1
 3739 01b3 11       		.uleb128 0x11
 3740 01b4 01       		.uleb128 0x1
 3741 01b5 9542     		.uleb128 0x2115
 3742 01b7 19       		.uleb128 0x19
 3743 01b8 31       		.uleb128 0x31
 3744 01b9 13       		.uleb128 0x13
 3745 01ba 00       		.byte	0
 3746 01bb 00       		.byte	0
 3747 01bc 24       		.uleb128 0x24
ARM GAS  /tmp/ccJYLV47.s 			page 67


 3748 01bd 05       		.uleb128 0x5
 3749 01be 00       		.byte	0
 3750 01bf 03       		.uleb128 0x3
 3751 01c0 0E       		.uleb128 0xe
 3752 01c1 3A       		.uleb128 0x3a
 3753 01c2 0B       		.uleb128 0xb
 3754 01c3 3B       		.uleb128 0x3b
 3755 01c4 0B       		.uleb128 0xb
 3756 01c5 49       		.uleb128 0x49
 3757 01c6 13       		.uleb128 0x13
 3758 01c7 02       		.uleb128 0x2
 3759 01c8 17       		.uleb128 0x17
 3760 01c9 00       		.byte	0
 3761 01ca 00       		.byte	0
 3762 01cb 25       		.uleb128 0x25
 3763 01cc 34       		.uleb128 0x34
 3764 01cd 00       		.byte	0
 3765 01ce 03       		.uleb128 0x3
 3766 01cf 0E       		.uleb128 0xe
 3767 01d0 49       		.uleb128 0x49
 3768 01d1 13       		.uleb128 0x13
 3769 01d2 34       		.uleb128 0x34
 3770 01d3 19       		.uleb128 0x19
 3771 01d4 00       		.byte	0
 3772 01d5 00       		.byte	0
 3773 01d6 26       		.uleb128 0x26
 3774 01d7 0B       		.uleb128 0xb
 3775 01d8 01       		.byte	0x1
 3776 01d9 11       		.uleb128 0x11
 3777 01da 01       		.uleb128 0x1
 3778 01db 12       		.uleb128 0x12
 3779 01dc 06       		.uleb128 0x6
 3780 01dd 00       		.byte	0
 3781 01de 00       		.byte	0
 3782 01df 27       		.uleb128 0x27
 3783 01e0 34       		.uleb128 0x34
 3784 01e1 00       		.byte	0
 3785 01e2 03       		.uleb128 0x3
 3786 01e3 08       		.uleb128 0x8
 3787 01e4 3A       		.uleb128 0x3a
 3788 01e5 0B       		.uleb128 0xb
 3789 01e6 3B       		.uleb128 0x3b
 3790 01e7 0B       		.uleb128 0xb
 3791 01e8 49       		.uleb128 0x49
 3792 01e9 13       		.uleb128 0x13
 3793 01ea 00       		.byte	0
 3794 01eb 00       		.byte	0
 3795 01ec 28       		.uleb128 0x28
 3796 01ed 898201   		.uleb128 0x4109
 3797 01f0 01       		.byte	0x1
 3798 01f1 11       		.uleb128 0x11
 3799 01f2 01       		.uleb128 0x1
 3800 01f3 31       		.uleb128 0x31
 3801 01f4 13       		.uleb128 0x13
 3802 01f5 00       		.byte	0
 3803 01f6 00       		.byte	0
 3804 01f7 29       		.uleb128 0x29
ARM GAS  /tmp/ccJYLV47.s 			page 68


 3805 01f8 2E       		.uleb128 0x2e
 3806 01f9 01       		.byte	0x1
 3807 01fa 3F       		.uleb128 0x3f
 3808 01fb 19       		.uleb128 0x19
 3809 01fc 03       		.uleb128 0x3
 3810 01fd 0E       		.uleb128 0xe
 3811 01fe 3A       		.uleb128 0x3a
 3812 01ff 0B       		.uleb128 0xb
 3813 0200 3B       		.uleb128 0x3b
 3814 0201 05       		.uleb128 0x5
 3815 0202 27       		.uleb128 0x27
 3816 0203 19       		.uleb128 0x19
 3817 0204 11       		.uleb128 0x11
 3818 0205 01       		.uleb128 0x1
 3819 0206 12       		.uleb128 0x12
 3820 0207 06       		.uleb128 0x6
 3821 0208 40       		.uleb128 0x40
 3822 0209 18       		.uleb128 0x18
 3823 020a 9742     		.uleb128 0x2117
 3824 020c 19       		.uleb128 0x19
 3825 020d 01       		.uleb128 0x1
 3826 020e 13       		.uleb128 0x13
 3827 020f 00       		.byte	0
 3828 0210 00       		.byte	0
 3829 0211 2A       		.uleb128 0x2a
 3830 0212 05       		.uleb128 0x5
 3831 0213 00       		.byte	0
 3832 0214 03       		.uleb128 0x3
 3833 0215 0E       		.uleb128 0xe
 3834 0216 3A       		.uleb128 0x3a
 3835 0217 0B       		.uleb128 0xb
 3836 0218 3B       		.uleb128 0x3b
 3837 0219 05       		.uleb128 0x5
 3838 021a 49       		.uleb128 0x49
 3839 021b 13       		.uleb128 0x13
 3840 021c 02       		.uleb128 0x2
 3841 021d 17       		.uleb128 0x17
 3842 021e 00       		.byte	0
 3843 021f 00       		.byte	0
 3844 0220 2B       		.uleb128 0x2b
 3845 0221 898201   		.uleb128 0x4109
 3846 0224 00       		.byte	0
 3847 0225 11       		.uleb128 0x11
 3848 0226 01       		.uleb128 0x1
 3849 0227 31       		.uleb128 0x31
 3850 0228 13       		.uleb128 0x13
 3851 0229 00       		.byte	0
 3852 022a 00       		.byte	0
 3853 022b 2C       		.uleb128 0x2c
 3854 022c 34       		.uleb128 0x34
 3855 022d 00       		.byte	0
 3856 022e 03       		.uleb128 0x3
 3857 022f 0E       		.uleb128 0xe
 3858 0230 3A       		.uleb128 0x3a
 3859 0231 0B       		.uleb128 0xb
 3860 0232 3B       		.uleb128 0x3b
 3861 0233 05       		.uleb128 0x5
ARM GAS  /tmp/ccJYLV47.s 			page 69


 3862 0234 49       		.uleb128 0x49
 3863 0235 13       		.uleb128 0x13
 3864 0236 02       		.uleb128 0x2
 3865 0237 17       		.uleb128 0x17
 3866 0238 00       		.byte	0
 3867 0239 00       		.byte	0
 3868 023a 2D       		.uleb128 0x2d
 3869 023b 34       		.uleb128 0x34
 3870 023c 00       		.byte	0
 3871 023d 03       		.uleb128 0x3
 3872 023e 08       		.uleb128 0x8
 3873 023f 3A       		.uleb128 0x3a
 3874 0240 0B       		.uleb128 0xb
 3875 0241 3B       		.uleb128 0x3b
 3876 0242 05       		.uleb128 0x5
 3877 0243 49       		.uleb128 0x49
 3878 0244 13       		.uleb128 0x13
 3879 0245 02       		.uleb128 0x2
 3880 0246 17       		.uleb128 0x17
 3881 0247 00       		.byte	0
 3882 0248 00       		.byte	0
 3883 0249 2E       		.uleb128 0x2e
 3884 024a 34       		.uleb128 0x34
 3885 024b 00       		.byte	0
 3886 024c 03       		.uleb128 0x3
 3887 024d 08       		.uleb128 0x8
 3888 024e 3A       		.uleb128 0x3a
 3889 024f 0B       		.uleb128 0xb
 3890 0250 3B       		.uleb128 0x3b
 3891 0251 0B       		.uleb128 0xb
 3892 0252 49       		.uleb128 0x49
 3893 0253 13       		.uleb128 0x13
 3894 0254 02       		.uleb128 0x2
 3895 0255 17       		.uleb128 0x17
 3896 0256 00       		.byte	0
 3897 0257 00       		.byte	0
 3898 0258 2F       		.uleb128 0x2f
 3899 0259 1D       		.uleb128 0x1d
 3900 025a 01       		.byte	0x1
 3901 025b 31       		.uleb128 0x31
 3902 025c 13       		.uleb128 0x13
 3903 025d 11       		.uleb128 0x11
 3904 025e 01       		.uleb128 0x1
 3905 025f 12       		.uleb128 0x12
 3906 0260 06       		.uleb128 0x6
 3907 0261 58       		.uleb128 0x58
 3908 0262 0B       		.uleb128 0xb
 3909 0263 59       		.uleb128 0x59
 3910 0264 0B       		.uleb128 0xb
 3911 0265 01       		.uleb128 0x1
 3912 0266 13       		.uleb128 0x13
 3913 0267 00       		.byte	0
 3914 0268 00       		.byte	0
 3915 0269 30       		.uleb128 0x30
 3916 026a 1D       		.uleb128 0x1d
 3917 026b 01       		.byte	0x1
 3918 026c 31       		.uleb128 0x31
ARM GAS  /tmp/ccJYLV47.s 			page 70


 3919 026d 13       		.uleb128 0x13
 3920 026e 11       		.uleb128 0x11
 3921 026f 01       		.uleb128 0x1
 3922 0270 12       		.uleb128 0x12
 3923 0271 06       		.uleb128 0x6
 3924 0272 58       		.uleb128 0x58
 3925 0273 0B       		.uleb128 0xb
 3926 0274 59       		.uleb128 0x59
 3927 0275 05       		.uleb128 0x5
 3928 0276 00       		.byte	0
 3929 0277 00       		.byte	0
 3930 0278 31       		.uleb128 0x31
 3931 0279 05       		.uleb128 0x5
 3932 027a 00       		.byte	0
 3933 027b 31       		.uleb128 0x31
 3934 027c 13       		.uleb128 0x13
 3935 027d 02       		.uleb128 0x2
 3936 027e 17       		.uleb128 0x17
 3937 027f 00       		.byte	0
 3938 0280 00       		.byte	0
 3939 0281 32       		.uleb128 0x32
 3940 0282 898201   		.uleb128 0x4109
 3941 0285 01       		.byte	0x1
 3942 0286 11       		.uleb128 0x11
 3943 0287 01       		.uleb128 0x1
 3944 0288 01       		.uleb128 0x1
 3945 0289 13       		.uleb128 0x13
 3946 028a 00       		.byte	0
 3947 028b 00       		.byte	0
 3948 028c 33       		.uleb128 0x33
 3949 028d 898201   		.uleb128 0x4109
 3950 0290 00       		.byte	0
 3951 0291 11       		.uleb128 0x11
 3952 0292 01       		.uleb128 0x1
 3953 0293 9542     		.uleb128 0x2115
 3954 0295 19       		.uleb128 0x19
 3955 0296 31       		.uleb128 0x31
 3956 0297 13       		.uleb128 0x13
 3957 0298 00       		.byte	0
 3958 0299 00       		.byte	0
 3959 029a 34       		.uleb128 0x34
 3960 029b 2E       		.uleb128 0x2e
 3961 029c 01       		.byte	0x1
 3962 029d 03       		.uleb128 0x3
 3963 029e 0E       		.uleb128 0xe
 3964 029f 3A       		.uleb128 0x3a
 3965 02a0 0B       		.uleb128 0xb
 3966 02a1 3B       		.uleb128 0x3b
 3967 02a2 0B       		.uleb128 0xb
 3968 02a3 27       		.uleb128 0x27
 3969 02a4 19       		.uleb128 0x19
 3970 02a5 11       		.uleb128 0x11
 3971 02a6 01       		.uleb128 0x1
 3972 02a7 12       		.uleb128 0x12
 3973 02a8 06       		.uleb128 0x6
 3974 02a9 40       		.uleb128 0x40
 3975 02aa 18       		.uleb128 0x18
ARM GAS  /tmp/ccJYLV47.s 			page 71


 3976 02ab 9742     		.uleb128 0x2117
 3977 02ad 19       		.uleb128 0x19
 3978 02ae 01       		.uleb128 0x1
 3979 02af 13       		.uleb128 0x13
 3980 02b0 00       		.byte	0
 3981 02b1 00       		.byte	0
 3982 02b2 35       		.uleb128 0x35
 3983 02b3 0B       		.uleb128 0xb
 3984 02b4 01       		.byte	0x1
 3985 02b5 55       		.uleb128 0x55
 3986 02b6 17       		.uleb128 0x17
 3987 02b7 01       		.uleb128 0x1
 3988 02b8 13       		.uleb128 0x13
 3989 02b9 00       		.byte	0
 3990 02ba 00       		.byte	0
 3991 02bb 36       		.uleb128 0x36
 3992 02bc 34       		.uleb128 0x34
 3993 02bd 00       		.byte	0
 3994 02be 03       		.uleb128 0x3
 3995 02bf 0E       		.uleb128 0xe
 3996 02c0 3A       		.uleb128 0x3a
 3997 02c1 0B       		.uleb128 0xb
 3998 02c2 3B       		.uleb128 0x3b
 3999 02c3 0B       		.uleb128 0xb
 4000 02c4 49       		.uleb128 0x49
 4001 02c5 13       		.uleb128 0x13
 4002 02c6 02       		.uleb128 0x2
 4003 02c7 17       		.uleb128 0x17
 4004 02c8 00       		.byte	0
 4005 02c9 00       		.byte	0
 4006 02ca 37       		.uleb128 0x37
 4007 02cb 898201   		.uleb128 0x4109
 4008 02ce 01       		.byte	0x1
 4009 02cf 11       		.uleb128 0x11
 4010 02d0 01       		.uleb128 0x1
 4011 02d1 9542     		.uleb128 0x2115
 4012 02d3 19       		.uleb128 0x19
 4013 02d4 00       		.byte	0
 4014 02d5 00       		.byte	0
 4015 02d6 38       		.uleb128 0x38
 4016 02d7 898201   		.uleb128 0x4109
 4017 02da 01       		.byte	0x1
 4018 02db 11       		.uleb128 0x11
 4019 02dc 01       		.uleb128 0x1
 4020 02dd 9542     		.uleb128 0x2115
 4021 02df 19       		.uleb128 0x19
 4022 02e0 01       		.uleb128 0x1
 4023 02e1 13       		.uleb128 0x13
 4024 02e2 00       		.byte	0
 4025 02e3 00       		.byte	0
 4026 02e4 39       		.uleb128 0x39
 4027 02e5 898201   		.uleb128 0x4109
 4028 02e8 01       		.byte	0x1
 4029 02e9 11       		.uleb128 0x11
 4030 02ea 01       		.uleb128 0x1
 4031 02eb 00       		.byte	0
 4032 02ec 00       		.byte	0
ARM GAS  /tmp/ccJYLV47.s 			page 72


 4033 02ed 3A       		.uleb128 0x3a
 4034 02ee 2E       		.uleb128 0x2e
 4035 02ef 00       		.byte	0
 4036 02f0 3F       		.uleb128 0x3f
 4037 02f1 19       		.uleb128 0x19
 4038 02f2 03       		.uleb128 0x3
 4039 02f3 0E       		.uleb128 0xe
 4040 02f4 3A       		.uleb128 0x3a
 4041 02f5 0B       		.uleb128 0xb
 4042 02f6 3B       		.uleb128 0x3b
 4043 02f7 05       		.uleb128 0x5
 4044 02f8 27       		.uleb128 0x27
 4045 02f9 19       		.uleb128 0x19
 4046 02fa 11       		.uleb128 0x11
 4047 02fb 01       		.uleb128 0x1
 4048 02fc 12       		.uleb128 0x12
 4049 02fd 06       		.uleb128 0x6
 4050 02fe 40       		.uleb128 0x40
 4051 02ff 18       		.uleb128 0x18
 4052 0300 9742     		.uleb128 0x2117
 4053 0302 19       		.uleb128 0x19
 4054 0303 00       		.byte	0
 4055 0304 00       		.byte	0
 4056 0305 3B       		.uleb128 0x3b
 4057 0306 34       		.uleb128 0x34
 4058 0307 00       		.byte	0
 4059 0308 03       		.uleb128 0x3
 4060 0309 0E       		.uleb128 0xe
 4061 030a 3A       		.uleb128 0x3a
 4062 030b 0B       		.uleb128 0xb
 4063 030c 3B       		.uleb128 0x3b
 4064 030d 05       		.uleb128 0x5
 4065 030e 49       		.uleb128 0x49
 4066 030f 13       		.uleb128 0x13
 4067 0310 3F       		.uleb128 0x3f
 4068 0311 19       		.uleb128 0x19
 4069 0312 3C       		.uleb128 0x3c
 4070 0313 19       		.uleb128 0x19
 4071 0314 00       		.byte	0
 4072 0315 00       		.byte	0
 4073 0316 3C       		.uleb128 0x3c
 4074 0317 34       		.uleb128 0x34
 4075 0318 00       		.byte	0
 4076 0319 03       		.uleb128 0x3
 4077 031a 08       		.uleb128 0x8
 4078 031b 3A       		.uleb128 0x3a
 4079 031c 0B       		.uleb128 0xb
 4080 031d 3B       		.uleb128 0x3b
 4081 031e 05       		.uleb128 0x5
 4082 031f 49       		.uleb128 0x49
 4083 0320 13       		.uleb128 0x13
 4084 0321 3F       		.uleb128 0x3f
 4085 0322 19       		.uleb128 0x19
 4086 0323 3C       		.uleb128 0x3c
 4087 0324 19       		.uleb128 0x19
 4088 0325 00       		.byte	0
 4089 0326 00       		.byte	0
ARM GAS  /tmp/ccJYLV47.s 			page 73


 4090 0327 3D       		.uleb128 0x3d
 4091 0328 34       		.uleb128 0x34
 4092 0329 00       		.byte	0
 4093 032a 03       		.uleb128 0x3
 4094 032b 0E       		.uleb128 0xe
 4095 032c 3A       		.uleb128 0x3a
 4096 032d 0B       		.uleb128 0xb
 4097 032e 3B       		.uleb128 0x3b
 4098 032f 0B       		.uleb128 0xb
 4099 0330 49       		.uleb128 0x49
 4100 0331 13       		.uleb128 0x13
 4101 0332 3F       		.uleb128 0x3f
 4102 0333 19       		.uleb128 0x19
 4103 0334 02       		.uleb128 0x2
 4104 0335 18       		.uleb128 0x18
 4105 0336 00       		.byte	0
 4106 0337 00       		.byte	0
 4107 0338 3E       		.uleb128 0x3e
 4108 0339 2E       		.uleb128 0x2e
 4109 033a 01       		.byte	0x1
 4110 033b 3F       		.uleb128 0x3f
 4111 033c 19       		.uleb128 0x19
 4112 033d 03       		.uleb128 0x3
 4113 033e 0E       		.uleb128 0xe
 4114 033f 3A       		.uleb128 0x3a
 4115 0340 0B       		.uleb128 0xb
 4116 0341 3B       		.uleb128 0x3b
 4117 0342 0B       		.uleb128 0xb
 4118 0343 27       		.uleb128 0x27
 4119 0344 19       		.uleb128 0x19
 4120 0345 3C       		.uleb128 0x3c
 4121 0346 19       		.uleb128 0x19
 4122 0347 01       		.uleb128 0x1
 4123 0348 13       		.uleb128 0x13
 4124 0349 00       		.byte	0
 4125 034a 00       		.byte	0
 4126 034b 3F       		.uleb128 0x3f
 4127 034c 2E       		.uleb128 0x2e
 4128 034d 01       		.byte	0x1
 4129 034e 3F       		.uleb128 0x3f
 4130 034f 19       		.uleb128 0x19
 4131 0350 03       		.uleb128 0x3
 4132 0351 0E       		.uleb128 0xe
 4133 0352 3A       		.uleb128 0x3a
 4134 0353 0B       		.uleb128 0xb
 4135 0354 3B       		.uleb128 0x3b
 4136 0355 05       		.uleb128 0x5
 4137 0356 27       		.uleb128 0x27
 4138 0357 19       		.uleb128 0x19
 4139 0358 49       		.uleb128 0x49
 4140 0359 13       		.uleb128 0x13
 4141 035a 3C       		.uleb128 0x3c
 4142 035b 19       		.uleb128 0x19
 4143 035c 01       		.uleb128 0x1
 4144 035d 13       		.uleb128 0x13
 4145 035e 00       		.byte	0
 4146 035f 00       		.byte	0
ARM GAS  /tmp/ccJYLV47.s 			page 74


 4147 0360 40       		.uleb128 0x40
 4148 0361 2E       		.uleb128 0x2e
 4149 0362 01       		.byte	0x1
 4150 0363 3F       		.uleb128 0x3f
 4151 0364 19       		.uleb128 0x19
 4152 0365 03       		.uleb128 0x3
 4153 0366 0E       		.uleb128 0xe
 4154 0367 3A       		.uleb128 0x3a
 4155 0368 0B       		.uleb128 0xb
 4156 0369 3B       		.uleb128 0x3b
 4157 036a 05       		.uleb128 0x5
 4158 036b 27       		.uleb128 0x27
 4159 036c 19       		.uleb128 0x19
 4160 036d 3C       		.uleb128 0x3c
 4161 036e 19       		.uleb128 0x19
 4162 036f 01       		.uleb128 0x1
 4163 0370 13       		.uleb128 0x13
 4164 0371 00       		.byte	0
 4165 0372 00       		.byte	0
 4166 0373 41       		.uleb128 0x41
 4167 0374 2E       		.uleb128 0x2e
 4168 0375 00       		.byte	0
 4169 0376 3F       		.uleb128 0x3f
 4170 0377 19       		.uleb128 0x19
 4171 0378 03       		.uleb128 0x3
 4172 0379 0E       		.uleb128 0xe
 4173 037a 3A       		.uleb128 0x3a
 4174 037b 0B       		.uleb128 0xb
 4175 037c 3B       		.uleb128 0x3b
 4176 037d 05       		.uleb128 0x5
 4177 037e 27       		.uleb128 0x27
 4178 037f 19       		.uleb128 0x19
 4179 0380 3C       		.uleb128 0x3c
 4180 0381 19       		.uleb128 0x19
 4181 0382 00       		.byte	0
 4182 0383 00       		.byte	0
 4183 0384 00       		.byte	0
 4184              		.section	.debug_loc,"",%progbits
 4185              	.Ldebug_loc0:
 4186              	.LLST0:
 4187 0000 00000000 		.4byte	.LVL2
 4188 0004 12000000 		.4byte	.LVL3
 4189 0008 0100     		.2byte	0x1
 4190 000a 50       		.byte	0x50
 4191 000b 12000000 		.4byte	.LVL3
 4192 000f 24000000 		.4byte	.LVL4
 4193 0013 0100     		.2byte	0x1
 4194 0015 54       		.byte	0x54
 4195 0016 24000000 		.4byte	.LVL4
 4196 001a 2E000000 		.4byte	.LVL5
 4197 001e 0400     		.2byte	0x4
 4198 0020 F3       		.byte	0xf3
 4199 0021 01       		.uleb128 0x1
 4200 0022 50       		.byte	0x50
 4201 0023 9F       		.byte	0x9f
 4202 0024 2E000000 		.4byte	.LVL5
 4203 0028 36000000 		.4byte	.LVL6
ARM GAS  /tmp/ccJYLV47.s 			page 75


 4204 002c 0100     		.2byte	0x1
 4205 002e 50       		.byte	0x50
 4206 002f 36000000 		.4byte	.LVL6
 4207 0033 64000000 		.4byte	.LFE210
 4208 0037 0100     		.2byte	0x1
 4209 0039 54       		.byte	0x54
 4210 003a 00000000 		.4byte	0
 4211 003e 00000000 		.4byte	0
 4212              	.LLST1:
 4213 0042 00000000 		.4byte	.LVL8
 4214 0046 0E000000 		.4byte	.LVL9
 4215 004a 0100     		.2byte	0x1
 4216 004c 50       		.byte	0x50
 4217 004d 0E000000 		.4byte	.LVL9
 4218 0051 38000000 		.4byte	.LFE211
 4219 0055 0100     		.2byte	0x1
 4220 0057 54       		.byte	0x54
 4221 0058 00000000 		.4byte	0
 4222 005c 00000000 		.4byte	0
 4223              	.LLST2:
 4224 0060 00000000 		.4byte	.LVL12
 4225 0064 44000000 		.4byte	.LVL20
 4226 0068 0100     		.2byte	0x1
 4227 006a 50       		.byte	0x50
 4228 006b 44000000 		.4byte	.LVL20
 4229 006f 96000000 		.4byte	.LFE212
 4230 0073 0400     		.2byte	0x4
 4231 0075 F3       		.byte	0xf3
 4232 0076 01       		.uleb128 0x1
 4233 0077 50       		.byte	0x50
 4234 0078 9F       		.byte	0x9f
 4235 0079 00000000 		.4byte	0
 4236 007d 00000000 		.4byte	0
 4237              	.LLST3:
 4238 0081 0A000000 		.4byte	.LVL14
 4239 0085 0E000000 		.4byte	.LVL15
 4240 0089 0100     		.2byte	0x1
 4241 008b 55       		.byte	0x55
 4242 008c 0E000000 		.4byte	.LVL15
 4243 0090 16000000 		.4byte	.LVL16
 4244 0094 0700     		.2byte	0x7
 4245 0096 75       		.byte	0x75
 4246 0097 00       		.sleb128 0
 4247 0098 0A       		.byte	0xa
 4248 0099 0001     		.2byte	0x100
 4249 009b 21       		.byte	0x21
 4250 009c 9F       		.byte	0x9f
 4251 009d 16000000 		.4byte	.LVL16
 4252 00a1 1A000000 		.4byte	.LVL17
 4253 00a5 0800     		.2byte	0x8
 4254 00a7 70       		.byte	0x70
 4255 00a8 30       		.sleb128 48
 4256 00a9 06       		.byte	0x6
 4257 00aa 0A       		.byte	0xa
 4258 00ab 0001     		.2byte	0x100
 4259 00ad 21       		.byte	0x21
 4260 00ae 9F       		.byte	0x9f
ARM GAS  /tmp/ccJYLV47.s 			page 76


 4261 00af 1A000000 		.4byte	.LVL17
 4262 00b3 30000000 		.4byte	.LVL18
 4263 00b7 0100     		.2byte	0x1
 4264 00b9 55       		.byte	0x55
 4265 00ba 30000000 		.4byte	.LVL18
 4266 00be 50000000 		.4byte	.LVL22
 4267 00c2 0200     		.2byte	0x2
 4268 00c4 74       		.byte	0x74
 4269 00c5 00       		.sleb128 0
 4270 00c6 00000000 		.4byte	0
 4271 00ca 00000000 		.4byte	0
 4272              	.LLST4:
 4273 00ce 40000000 		.4byte	.LVL19
 4274 00d2 6C000000 		.4byte	.LVL23
 4275 00d6 0700     		.2byte	0x7
 4276 00d8 73       		.byte	0x73
 4277 00d9 00       		.sleb128 0
 4278 00da 0A       		.byte	0xa
 4279 00db 0103     		.2byte	0x301
 4280 00dd 21       		.byte	0x21
 4281 00de 9F       		.byte	0x9f
 4282 00df 6C000000 		.4byte	.LVL23
 4283 00e3 72000000 		.4byte	.LVL24
 4284 00e7 0E00     		.2byte	0xe
 4285 00e9 F3       		.byte	0xf3
 4286 00ea 01       		.uleb128 0x1
 4287 00eb 50       		.byte	0x50
 4288 00ec 23       		.byte	0x23
 4289 00ed 10       		.uleb128 0x10
 4290 00ee 06       		.byte	0x6
 4291 00ef 23       		.byte	0x23
 4292 00f0 10       		.uleb128 0x10
 4293 00f1 06       		.byte	0x6
 4294 00f2 0A       		.byte	0xa
 4295 00f3 0103     		.2byte	0x301
 4296 00f5 21       		.byte	0x21
 4297 00f6 9F       		.byte	0x9f
 4298 00f7 76000000 		.4byte	.LVL25
 4299 00fb 86000000 		.4byte	.LVL26
 4300 00ff 0700     		.2byte	0x7
 4301 0101 73       		.byte	0x73
 4302 0102 00       		.sleb128 0
 4303 0103 0A       		.byte	0xa
 4304 0104 0103     		.2byte	0x301
 4305 0106 21       		.byte	0x21
 4306 0107 9F       		.byte	0x9f
 4307 0108 86000000 		.4byte	.LVL26
 4308 010c 92000000 		.4byte	.LVL27
 4309 0110 0E00     		.2byte	0xe
 4310 0112 F3       		.byte	0xf3
 4311 0113 01       		.uleb128 0x1
 4312 0114 50       		.byte	0x50
 4313 0115 23       		.byte	0x23
 4314 0116 10       		.uleb128 0x10
 4315 0117 06       		.byte	0x6
 4316 0118 23       		.byte	0x23
 4317 0119 10       		.uleb128 0x10
ARM GAS  /tmp/ccJYLV47.s 			page 77


 4318 011a 06       		.byte	0x6
 4319 011b 0A       		.byte	0xa
 4320 011c 0103     		.2byte	0x301
 4321 011e 21       		.byte	0x21
 4322 011f 9F       		.byte	0x9f
 4323 0120 00000000 		.4byte	0
 4324 0124 00000000 		.4byte	0
 4325              	.LLST5:
 4326 0128 02000000 		.4byte	.LVL13
 4327 012c 40000000 		.4byte	.LVL19
 4328 0130 0100     		.2byte	0x1
 4329 0132 53       		.byte	0x53
 4330 0133 40000000 		.4byte	.LVL19
 4331 0137 44000000 		.4byte	.LVL20
 4332 013b 0200     		.2byte	0x2
 4333 013d 70       		.byte	0x70
 4334 013e 10       		.sleb128 16
 4335 013f 44000000 		.4byte	.LVL20
 4336 0143 4E000000 		.4byte	.LVL21
 4337 0147 0300     		.2byte	0x3
 4338 0149 78       		.byte	0x78
 4339 014a 6C       		.sleb128 -20
 4340 014b 9F       		.byte	0x9f
 4341 014c 4E000000 		.4byte	.LVL21
 4342 0150 96000000 		.4byte	.LFE212
 4343 0154 0500     		.2byte	0x5
 4344 0156 F3       		.byte	0xf3
 4345 0157 01       		.uleb128 0x1
 4346 0158 50       		.byte	0x50
 4347 0159 23       		.byte	0x23
 4348 015a 10       		.uleb128 0x10
 4349 015b 00000000 		.4byte	0
 4350 015f 00000000 		.4byte	0
 4351              	.LLST6:
 4352 0163 00000000 		.4byte	.LVL28
 4353 0167 22000000 		.4byte	.LVL29
 4354 016b 0100     		.2byte	0x1
 4355 016d 50       		.byte	0x50
 4356 016e 22000000 		.4byte	.LVL29
 4357 0172 2E000000 		.4byte	.LFE213
 4358 0176 0400     		.2byte	0x4
 4359 0178 F3       		.byte	0xf3
 4360 0179 01       		.uleb128 0x1
 4361 017a 50       		.byte	0x50
 4362 017b 9F       		.byte	0x9f
 4363 017c 00000000 		.4byte	0
 4364 0180 00000000 		.4byte	0
 4365              	.LLST7:
 4366 0184 08000000 		.4byte	.LVL30
 4367 0188 21000000 		.4byte	.LVL31-1
 4368 018c 0100     		.2byte	0x1
 4369 018e 52       		.byte	0x52
 4370 018f 00000000 		.4byte	0
 4371 0193 00000000 		.4byte	0
 4372              	.LLST8:
 4373 0197 40000000 		.4byte	.LVL33
 4374 019b 54000000 		.4byte	.LVL36
ARM GAS  /tmp/ccJYLV47.s 			page 78


 4375 019f 0300     		.2byte	0x3
 4376 01a1 08       		.byte	0x8
 4377 01a2 20       		.byte	0x20
 4378 01a3 9F       		.byte	0x9f
 4379 01a4 00000000 		.4byte	0
 4380 01a8 00000000 		.4byte	0
 4381              	.LLST9:
 4382 01ac 46000000 		.4byte	.LVL34
 4383 01b0 54000000 		.4byte	.LVL36
 4384 01b4 0300     		.2byte	0x3
 4385 01b6 09       		.byte	0x9
 4386 01b7 FF       		.byte	0xff
 4387 01b8 9F       		.byte	0x9f
 4388 01b9 00000000 		.4byte	0
 4389 01bd 00000000 		.4byte	0
 4390              	.LLST10:
 4391 01c1 46000000 		.4byte	.LVL34
 4392 01c5 54000000 		.4byte	.LVL36
 4393 01c9 0600     		.2byte	0x6
 4394 01cb 03       		.byte	0x3
 4395 01cc 14000000 		.4byte	ADCD1+20
 4396 01d0 9F       		.byte	0x9f
 4397 01d1 00000000 		.4byte	0
 4398 01d5 00000000 		.4byte	0
 4399              	.LLST11:
 4400 01d9 50000000 		.4byte	.LVL35
 4401 01dd 54000000 		.4byte	.LVL36
 4402 01e1 0200     		.2byte	0x2
 4403 01e3 30       		.byte	0x30
 4404 01e4 9F       		.byte	0x9f
 4405 01e5 00000000 		.4byte	0
 4406 01e9 00000000 		.4byte	0
 4407              	.LLST12:
 4408 01ed 00000000 		.4byte	.LVL38
 4409 01f1 37000000 		.4byte	.LVL41-1
 4410 01f5 0100     		.2byte	0x1
 4411 01f7 50       		.byte	0x50
 4412 01f8 37000000 		.4byte	.LVL41-1
 4413 01fc 38000000 		.4byte	.LVL41
 4414 0200 0400     		.2byte	0x4
 4415 0202 F3       		.byte	0xf3
 4416 0203 01       		.uleb128 0x1
 4417 0204 50       		.byte	0x50
 4418 0205 9F       		.byte	0x9f
 4419 0206 38000000 		.4byte	.LVL41
 4420 020a 41000000 		.4byte	.LVL42-1
 4421 020e 0100     		.2byte	0x1
 4422 0210 50       		.byte	0x50
 4423 0211 41000000 		.4byte	.LVL42-1
 4424 0215 78000000 		.4byte	.LVL48
 4425 0219 0100     		.2byte	0x1
 4426 021b 54       		.byte	0x54
 4427 021c 78000000 		.4byte	.LVL48
 4428 0220 89000000 		.4byte	.LVL50-1
 4429 0224 0100     		.2byte	0x1
 4430 0226 50       		.byte	0x50
 4431 0227 89000000 		.4byte	.LVL50-1
ARM GAS  /tmp/ccJYLV47.s 			page 79


 4432 022b 8A000000 		.4byte	.LVL50
 4433 022f 0400     		.2byte	0x4
 4434 0231 F3       		.byte	0xf3
 4435 0232 01       		.uleb128 0x1
 4436 0233 50       		.byte	0x50
 4437 0234 9F       		.byte	0x9f
 4438 0235 8A000000 		.4byte	.LVL50
 4439 0239 93000000 		.4byte	.LVL52-1
 4440 023d 0100     		.2byte	0x1
 4441 023f 50       		.byte	0x50
 4442 0240 93000000 		.4byte	.LVL52-1
 4443 0244 94000000 		.4byte	.LVL52
 4444 0248 0400     		.2byte	0x4
 4445 024a F3       		.byte	0xf3
 4446 024b 01       		.uleb128 0x1
 4447 024c 50       		.byte	0x50
 4448 024d 9F       		.byte	0x9f
 4449 024e 94000000 		.4byte	.LVL52
 4450 0252 97000000 		.4byte	.LVL53-1
 4451 0256 0100     		.2byte	0x1
 4452 0258 50       		.byte	0x50
 4453 0259 97000000 		.4byte	.LVL53-1
 4454 025d D2000000 		.4byte	.LFE207
 4455 0261 0100     		.2byte	0x1
 4456 0263 54       		.byte	0x54
 4457 0264 00000000 		.4byte	0
 4458 0268 00000000 		.4byte	0
 4459              	.LLST13:
 4460 026c 00000000 		.4byte	.LVL38
 4461 0270 2C000000 		.4byte	.LVL40
 4462 0274 0100     		.2byte	0x1
 4463 0276 51       		.byte	0x51
 4464 0277 2C000000 		.4byte	.LVL40
 4465 027b 38000000 		.4byte	.LVL41
 4466 027f 0400     		.2byte	0x4
 4467 0281 F3       		.byte	0xf3
 4468 0282 01       		.uleb128 0x1
 4469 0283 51       		.byte	0x51
 4470 0284 9F       		.byte	0x9f
 4471 0285 38000000 		.4byte	.LVL41
 4472 0289 41000000 		.4byte	.LVL42-1
 4473 028d 0100     		.2byte	0x1
 4474 028f 51       		.byte	0x51
 4475 0290 41000000 		.4byte	.LVL42-1
 4476 0294 78000000 		.4byte	.LVL48
 4477 0298 0400     		.2byte	0x4
 4478 029a F3       		.byte	0xf3
 4479 029b 01       		.uleb128 0x1
 4480 029c 51       		.byte	0x51
 4481 029d 9F       		.byte	0x9f
 4482 029e 78000000 		.4byte	.LVL48
 4483 02a2 86000000 		.4byte	.LVL49
 4484 02a6 0100     		.2byte	0x1
 4485 02a8 51       		.byte	0x51
 4486 02a9 86000000 		.4byte	.LVL49
 4487 02ad 8A000000 		.4byte	.LVL50
 4488 02b1 0400     		.2byte	0x4
ARM GAS  /tmp/ccJYLV47.s 			page 80


 4489 02b3 F3       		.byte	0xf3
 4490 02b4 01       		.uleb128 0x1
 4491 02b5 51       		.byte	0x51
 4492 02b6 9F       		.byte	0x9f
 4493 02b7 8A000000 		.4byte	.LVL50
 4494 02bb 92000000 		.4byte	.LVL51
 4495 02bf 0100     		.2byte	0x1
 4496 02c1 51       		.byte	0x51
 4497 02c2 92000000 		.4byte	.LVL51
 4498 02c6 94000000 		.4byte	.LVL52
 4499 02ca 0400     		.2byte	0x4
 4500 02cc F3       		.byte	0xf3
 4501 02cd 01       		.uleb128 0x1
 4502 02ce 51       		.byte	0x51
 4503 02cf 9F       		.byte	0x9f
 4504 02d0 94000000 		.4byte	.LVL52
 4505 02d4 97000000 		.4byte	.LVL53-1
 4506 02d8 0100     		.2byte	0x1
 4507 02da 51       		.byte	0x51
 4508 02db 97000000 		.4byte	.LVL53-1
 4509 02df D2000000 		.4byte	.LFE207
 4510 02e3 0400     		.2byte	0x4
 4511 02e5 F3       		.byte	0xf3
 4512 02e6 01       		.uleb128 0x1
 4513 02e7 51       		.byte	0x51
 4514 02e8 9F       		.byte	0x9f
 4515 02e9 00000000 		.4byte	0
 4516 02ed 00000000 		.4byte	0
 4517              	.LLST14:
 4518 02f1 26000000 		.4byte	.LVL39
 4519 02f5 37000000 		.4byte	.LVL41-1
 4520 02f9 0100     		.2byte	0x1
 4521 02fb 52       		.byte	0x52
 4522 02fc 00000000 		.4byte	0
 4523 0300 00000000 		.4byte	0
 4524              	.LLST15:
 4525 0304 26000000 		.4byte	.LVL39
 4526 0308 37000000 		.4byte	.LVL41-1
 4527 030c 0F00     		.2byte	0xf
 4528 030e 70       		.byte	0x70
 4529 030f 10       		.sleb128 16
 4530 0310 06       		.byte	0x6
 4531 0311 23       		.byte	0x23
 4532 0312 02       		.uleb128 0x2
 4533 0313 94       		.byte	0x94
 4534 0314 02       		.byte	0x2
 4535 0315 0A       		.byte	0xa
 4536 0316 FFFF     		.2byte	0xffff
 4537 0318 1A       		.byte	0x1a
 4538 0319 72       		.byte	0x72
 4539 031a 00       		.sleb128 0
 4540 031b 1E       		.byte	0x1e
 4541 031c 9F       		.byte	0x9f
 4542 031d 00000000 		.4byte	0
 4543 0321 00000000 		.4byte	0
 4544              	.LLST16:
 4545 0325 60000000 		.4byte	.LVL44
ARM GAS  /tmp/ccJYLV47.s 			page 81


 4546 0329 78000000 		.4byte	.LVL48
 4547 032d 0300     		.2byte	0x3
 4548 032f 08       		.byte	0x8
 4549 0330 20       		.byte	0x20
 4550 0331 9F       		.byte	0x9f
 4551 0332 00000000 		.4byte	0
 4552 0336 00000000 		.4byte	0
 4553              	.LLST17:
 4554 033a 66000000 		.4byte	.LVL45
 4555 033e 78000000 		.4byte	.LVL48
 4556 0342 0300     		.2byte	0x3
 4557 0344 09       		.byte	0x9
 4558 0345 FF       		.byte	0xff
 4559 0346 9F       		.byte	0x9f
 4560 0347 00000000 		.4byte	0
 4561 034b 00000000 		.4byte	0
 4562              	.LLST18:
 4563 034f 66000000 		.4byte	.LVL45
 4564 0353 6E000000 		.4byte	.LVL46
 4565 0357 0300     		.2byte	0x3
 4566 0359 74       		.byte	0x74
 4567 035a 14       		.sleb128 20
 4568 035b 9F       		.byte	0x9f
 4569 035c 6E000000 		.4byte	.LVL46
 4570 0360 71000000 		.4byte	.LVL47-1
 4571 0364 0100     		.2byte	0x1
 4572 0366 50       		.byte	0x50
 4573 0367 71000000 		.4byte	.LVL47-1
 4574 036b 78000000 		.4byte	.LVL48
 4575 036f 0300     		.2byte	0x3
 4576 0371 74       		.byte	0x74
 4577 0372 14       		.sleb128 20
 4578 0373 9F       		.byte	0x9f
 4579 0374 00000000 		.4byte	0
 4580 0378 00000000 		.4byte	0
 4581              	.LLST19:
 4582 037c 72000000 		.4byte	.LVL47
 4583 0380 78000000 		.4byte	.LVL48
 4584 0384 0200     		.2byte	0x2
 4585 0386 30       		.byte	0x30
 4586 0387 9F       		.byte	0x9f
 4587 0388 00000000 		.4byte	0
 4588 038c 00000000 		.4byte	0
 4589              	.LLST20:
 4590 0390 B0000000 		.4byte	.LVL55
 4591 0394 C8000000 		.4byte	.LVL59
 4592 0398 0300     		.2byte	0x3
 4593 039a 08       		.byte	0x8
 4594 039b 20       		.byte	0x20
 4595 039c 9F       		.byte	0x9f
 4596 039d 00000000 		.4byte	0
 4597 03a1 00000000 		.4byte	0
 4598              	.LLST21:
 4599 03a5 B6000000 		.4byte	.LVL56
 4600 03a9 C8000000 		.4byte	.LVL59
 4601 03ad 0200     		.2byte	0x2
 4602 03af 30       		.byte	0x30
ARM GAS  /tmp/ccJYLV47.s 			page 82


 4603 03b0 9F       		.byte	0x9f
 4604 03b1 00000000 		.4byte	0
 4605 03b5 00000000 		.4byte	0
 4606              	.LLST22:
 4607 03b9 B6000000 		.4byte	.LVL56
 4608 03bd BC000000 		.4byte	.LVL57
 4609 03c1 0300     		.2byte	0x3
 4610 03c3 74       		.byte	0x74
 4611 03c4 14       		.sleb128 20
 4612 03c5 9F       		.byte	0x9f
 4613 03c6 BC000000 		.4byte	.LVL57
 4614 03ca BF000000 		.4byte	.LVL58-1
 4615 03ce 0100     		.2byte	0x1
 4616 03d0 50       		.byte	0x50
 4617 03d1 BF000000 		.4byte	.LVL58-1
 4618 03d5 C8000000 		.4byte	.LVL59
 4619 03d9 0300     		.2byte	0x3
 4620 03db 74       		.byte	0x74
 4621 03dc 14       		.sleb128 20
 4622 03dd 9F       		.byte	0x9f
 4623 03de 00000000 		.4byte	0
 4624 03e2 00000000 		.4byte	0
 4625              	.LLST23:
 4626 03e6 C0000000 		.4byte	.LVL58
 4627 03ea C8000000 		.4byte	.LVL59
 4628 03ee 0200     		.2byte	0x2
 4629 03f0 30       		.byte	0x30
 4630 03f1 9F       		.byte	0x9f
 4631 03f2 00000000 		.4byte	0
 4632 03f6 00000000 		.4byte	0
 4633              		.section	.debug_aranges,"",%progbits
 4634 0000 6C000000 		.4byte	0x6c
 4635 0004 0200     		.2byte	0x2
 4636 0006 00000000 		.4byte	.Ldebug_info0
 4637 000a 04       		.byte	0x4
 4638 000b 00       		.byte	0
 4639 000c 0000     		.2byte	0
 4640 000e 0000     		.2byte	0
 4641 0010 00000000 		.4byte	.LFB209
 4642 0014 34000000 		.4byte	.LFE209-.LFB209
 4643 0018 00000000 		.4byte	.LFB210
 4644 001c 64000000 		.4byte	.LFE210-.LFB210
 4645 0020 00000000 		.4byte	.LFB211
 4646 0024 38000000 		.4byte	.LFE211-.LFB211
 4647 0028 00000000 		.4byte	.LFB212
 4648 002c 96000000 		.4byte	.LFE212-.LFB212
 4649 0030 00000000 		.4byte	.LFB213
 4650 0034 2E000000 		.4byte	.LFE213-.LFB213
 4651 0038 00000000 		.4byte	.LFB208
 4652 003c 68000000 		.4byte	.LFE208-.LFB208
 4653 0040 00000000 		.4byte	.LFB207
 4654 0044 D2000000 		.4byte	.LFE207-.LFB207
 4655 0048 00000000 		.4byte	.LFB214
 4656 004c 10000000 		.4byte	.LFE214-.LFB214
 4657 0050 00000000 		.4byte	.LFB215
 4658 0054 10000000 		.4byte	.LFE215-.LFB215
 4659 0058 00000000 		.4byte	.LFB216
ARM GAS  /tmp/ccJYLV47.s 			page 83


 4660 005c 10000000 		.4byte	.LFE216-.LFB216
 4661 0060 00000000 		.4byte	.LFB217
 4662 0064 10000000 		.4byte	.LFE217-.LFB217
 4663 0068 00000000 		.4byte	0
 4664 006c 00000000 		.4byte	0
 4665              		.section	.debug_ranges,"",%progbits
 4666              	.Ldebug_ranges0:
 4667 0000 22000000 		.4byte	.LBB100
 4668 0004 32000000 		.4byte	.LBE100
 4669 0008 36000000 		.4byte	.LBB101
 4670 000c 38000000 		.4byte	.LBE101
 4671 0010 00000000 		.4byte	0
 4672 0014 00000000 		.4byte	0
 4673 0018 00000000 		.4byte	.LFB209
 4674 001c 34000000 		.4byte	.LFE209
 4675 0020 00000000 		.4byte	.LFB210
 4676 0024 64000000 		.4byte	.LFE210
 4677 0028 00000000 		.4byte	.LFB211
 4678 002c 38000000 		.4byte	.LFE211
 4679 0030 00000000 		.4byte	.LFB212
 4680 0034 96000000 		.4byte	.LFE212
 4681 0038 00000000 		.4byte	.LFB213
 4682 003c 2E000000 		.4byte	.LFE213
 4683 0040 00000000 		.4byte	.LFB208
 4684 0044 68000000 		.4byte	.LFE208
 4685 0048 00000000 		.4byte	.LFB207
 4686 004c D2000000 		.4byte	.LFE207
 4687 0050 00000000 		.4byte	.LFB214
 4688 0054 10000000 		.4byte	.LFE214
 4689 0058 00000000 		.4byte	.LFB215
 4690 005c 10000000 		.4byte	.LFE215
 4691 0060 00000000 		.4byte	.LFB216
 4692 0064 10000000 		.4byte	.LFE216
 4693 0068 00000000 		.4byte	.LFB217
 4694 006c 10000000 		.4byte	.LFE217
 4695 0070 00000000 		.4byte	0
 4696 0074 00000000 		.4byte	0
 4697              		.section	.debug_line,"",%progbits
 4698              	.Ldebug_line0:
 4699 0000 CB050000 		.section	.debug_str,"MS",%progbits,1
 4699      02007F03 
 4699      00000201 
 4699      FB0E0D00 
 4699      01010101 
 4700              	.LASF102:
 4701 0000 4D314152 		.ascii	"M1AR\000"
 4701      00
 4702              	.LASF159:
 4703 0005 73746D33 		.ascii	"stm32_dma_stream_t\000"
 4703      325F646D 
 4703      615F7374 
 4703      7265616D 
 4703      5F7400
 4704              	.LASF2:
 4705 0018 73697A65 		.ascii	"size_t\000"
 4705      5F7400
 4706              	.LASF192:
ARM GAS  /tmp/ccJYLV47.s 			page 84


 4707 001f 73717231 		.ascii	"sqr1\000"
 4707      00
 4708              	.LASF193:
 4709 0024 73717232 		.ascii	"sqr2\000"
 4709      00
 4710              	.LASF83:
 4711 0029 73697A65 		.ascii	"sizetype\000"
 4711      74797065 
 4711      00
 4712              	.LASF210:
 4713 0032 6164635F 		.ascii	"adc_lld_start\000"
 4713      6C6C645F 
 4713      73746172 
 4713      7400
 4714              	.LASF142:
 4715 0040 77747365 		.ascii	"wtsemp\000"
 4715      6D7000
 4716              	.LASF29:
 4717 0047 73797374 		.ascii	"systime_t\000"
 4717      696D655F 
 4717      7400
 4718              	.LASF130:
 4719 0051 504C4C49 		.ascii	"PLLI2SCFGR\000"
 4719      32534346 
 4719      475200
 4720              	.LASF34:
 4721 005c 705F6374 		.ascii	"p_ctx\000"
 4721      7800
 4722              	.LASF25:
 4723 0062 74707269 		.ascii	"tprio_t\000"
 4723      6F5F7400 
 4724              	.LASF184:
 4725 006a 61646363 		.ascii	"adccallback_t\000"
 4725      616C6C62 
 4725      61636B5F 
 4725      7400
 4726              	.LASF90:
 4727 0078 53515231 		.ascii	"SQR1\000"
 4727      00
 4728              	.LASF91:
 4729 007d 53515232 		.ascii	"SQR2\000"
 4729      00
 4730              	.LASF92:
 4731 0082 53515233 		.ascii	"SQR3\000"
 4731      00
 4732              	.LASF43:
 4733 0087 705F6D73 		.ascii	"p_msgqueue\000"
 4733      67717565 
 4733      756500
 4734              	.LASF59:
 4735 0092 725F6374 		.ascii	"r_ctx\000"
 4735      7800
 4736              	.LASF17:
 4737 0098 696E7433 		.ascii	"int32_t\000"
 4737      325F7400 
 4738              	.LASF168:
 4739 00a0 61646373 		.ascii	"adcstate_t\000"
ARM GAS  /tmp/ccJYLV47.s 			page 85


 4739      74617465 
 4739      5F7400
 4740              	.LASF230:
 4741 00ab 63685468 		.ascii	"chThdResumeI\000"
 4741      64526573 
 4741      756D6549 
 4741      00
 4742              	.LASF63:
 4743 00b8 76746675 		.ascii	"vtfunc_t\000"
 4743      6E635F74 
 4743      00
 4744              	.LASF229:
 4745 00c1 646D6153 		.ascii	"dmaStreamRelease\000"
 4745      74726561 
 4745      6D52656C 
 4745      65617365 
 4745      00
 4746              	.LASF72:
 4747 00d2 63685F76 		.ascii	"ch_virtual_timers_list\000"
 4747      69727475 
 4747      616C5F74 
 4747      696D6572 
 4747      735F6C69 
 4748              	.LASF233:
 4749 00e9 5F5F6675 		.ascii	"__func__\000"
 4749      6E635F5F 
 4749      00
 4750              	.LASF221:
 4751 00f2 61646353 		.ascii	"adcSTM32DisableTSVREFE\000"
 4751      544D3332 
 4751      44697361 
 4751      626C6554 
 4751      53565245 
 4752              	.LASF176:
 4753 0109 636F6E66 		.ascii	"config\000"
 4753      696700
 4754              	.LASF175:
 4755 0110 73746174 		.ascii	"state\000"
 4755      6500
 4756              	.LASF223:
 4757 0116 61646353 		.ascii	"adcSTM32DisableVBATE\000"
 4757      544D3332 
 4757      44697361 
 4757      626C6556 
 4757      42415445 
 4758              	.LASF189:
 4759 012b 6572726F 		.ascii	"error_cb\000"
 4759      725F6362 
 4759      00
 4760              	.LASF204:
 4761 0134 6F73616C 		.ascii	"osalSysLockFromISR\000"
 4761      5379734C 
 4761      6F636B46 
 4761      726F6D49 
 4761      535200
 4762              	.LASF206:
 4763 0147 6F73616C 		.ascii	"osalThreadResumeI\000"
ARM GAS  /tmp/ccJYLV47.s 			page 86


 4763      54687265 
 4763      61645265 
 4763      73756D65 
 4763      4900
 4764              	.LASF150:
 4765 0159 6D5F6F77 		.ascii	"m_owner\000"
 4765      6E657200 
 4766              	.LASF70:
 4767 0161 76745F70 		.ascii	"vt_par\000"
 4767      617200
 4768              	.LASF188:
 4769 0168 656E645F 		.ascii	"end_cb\000"
 4769      636200
 4770              	.LASF139:
 4771 016f 65786974 		.ascii	"exitcode\000"
 4771      636F6465 
 4771      00
 4772              	.LASF3:
 4773 0178 5F5F7569 		.ascii	"__uint8_t\000"
 4773      6E74385F 
 4773      7400
 4774              	.LASF144:
 4775 0182 65776D61 		.ascii	"ewmask\000"
 4775      736B00
 4776              	.LASF121:
 4777 0189 41484232 		.ascii	"AHB2LPENR\000"
 4777      4C50454E 
 4777      5200
 4778              	.LASF35:
 4779 0193 705F6E65 		.ascii	"p_newer\000"
 4779      77657200 
 4780              	.LASF9:
 4781 019b 6C6F6E67 		.ascii	"long int\000"
 4781      20696E74 
 4781      00
 4782              	.LASF31:
 4783 01a4 705F6E65 		.ascii	"p_next\000"
 4783      787400
 4784              	.LASF199:
 4785 01ab 706F7274 		.ascii	"port_unlock\000"
 4785      5F756E6C 
 4785      6F636B00 
 4786              	.LASF32:
 4787 01b7 705F7072 		.ascii	"p_prev\000"
 4787      657600
 4788              	.LASF202:
 4789 01be 63685379 		.ascii	"chSysLockFromISR\000"
 4789      734C6F63 
 4789      6B46726F 
 4789      6D495352 
 4789      00
 4790              	.LASF183:
 4791 01cf 646D616D 		.ascii	"dmamode\000"
 4791      6F646500 
 4792              	.LASF22:
 4793 01d7 74737461 		.ascii	"tstate_t\000"
 4793      74655F74 
ARM GAS  /tmp/ccJYLV47.s 			page 87


 4793      00
 4794              	.LASF53:
 4795 01e0 74687265 		.ascii	"threads_queue_t\000"
 4795      6164735F 
 4795      71756575 
 4795      655F7400 
 4796              	.LASF216:
 4797 01f0 56656374 		.ascii	"Vector88\000"
 4797      6F723838 
 4797      00
 4798              	.LASF46:
 4799 01f9 705F6D74 		.ascii	"p_mtxlist\000"
 4799      786C6973 
 4799      7400
 4800              	.LASF132:
 4801 0203 72656761 		.ascii	"regarm_t\000"
 4801      726D5F74 
 4801      00
 4802              	.LASF211:
 4803 020c 6164635F 		.ascii	"adc_lld_stop\000"
 4803      6C6C645F 
 4803      73746F70 
 4803      00
 4804              	.LASF118:
 4805 0219 41504232 		.ascii	"APB2ENR\000"
 4805      454E5200 
 4806              	.LASF120:
 4807 0221 41484231 		.ascii	"AHB1LPENR\000"
 4807      4C50454E 
 4807      5200
 4808              	.LASF220:
 4809 022b 61646353 		.ascii	"adcSTM32EnableTSVREFE\000"
 4809      544D3332 
 4809      456E6162 
 4809      6C655453 
 4809      56524546 
 4810              	.LASF1:
 4811 0241 7369676E 		.ascii	"signed char\000"
 4811      65642063 
 4811      68617200 
 4812              	.LASF41:
 4813 024d 705F7072 		.ascii	"p_preempt\000"
 4813      65656D70 
 4813      7400
 4814              	.LASF15:
 4815 0257 75696E74 		.ascii	"uint8_t\000"
 4815      385F7400 
 4816              	.LASF27:
 4817 025f 6576656E 		.ascii	"eventmask_t\000"
 4817      746D6173 
 4817      6B5F7400 
 4818              	.LASF134:
 4819 026b 636F6E74 		.ascii	"context\000"
 4819      65787400 
 4820              	.LASF141:
 4821 0273 77747472 		.ascii	"wttrp\000"
 4821      7000
ARM GAS  /tmp/ccJYLV47.s 			page 88


 4822              	.LASF203:
 4823 0279 63685379 		.ascii	"chSysUnlockFromISR\000"
 4823      73556E6C 
 4823      6F636B46 
 4823      726F6D49 
 4823      535200
 4824              	.LASF109:
 4825 028c 52455345 		.ascii	"RESERVED0\000"
 4825      52564544 
 4825      3000
 4826              	.LASF112:
 4827 0296 52455345 		.ascii	"RESERVED1\000"
 4827      52564544 
 4827      3100
 4828              	.LASF4:
 4829 02a0 756E7369 		.ascii	"unsigned char\000"
 4829      676E6564 
 4829      20636861 
 4829      7200
 4830              	.LASF119:
 4831 02ae 52455345 		.ascii	"RESERVED3\000"
 4831      52564544 
 4831      3300
 4832              	.LASF123:
 4833 02b8 52455345 		.ascii	"RESERVED4\000"
 4833      52564544 
 4833      3400
 4834              	.LASF126:
 4835 02c2 52455345 		.ascii	"RESERVED5\000"
 4835      52564544 
 4835      3500
 4836              	.LASF128:
 4837 02cc 52455345 		.ascii	"RESERVED6\000"
 4837      52564544 
 4837      3600
 4838              	.LASF76:
 4839 02d6 70616E69 		.ascii	"panic_msg\000"
 4839      635F6D73 
 4839      6700
 4840              	.LASF173:
 4841 02e0 61646365 		.ascii	"adcerror_t\000"
 4841      72726F72 
 4841      5F7400
 4842              	.LASF60:
 4843 02eb 725F6E65 		.ascii	"r_newer\000"
 4843      77657200 
 4844              	.LASF74:
 4845 02f3 73797374 		.ascii	"system_debug_t\000"
 4845      656D5F64 
 4845      65627567 
 4845      5F7400
 4846              	.LASF164:
 4847 0302 4144435F 		.ascii	"ADC_READY\000"
 4847      52454144 
 4847      5900
 4848              	.LASF161:
 4849 030c 5F426F6F 		.ascii	"_Bool\000"
ARM GAS  /tmp/ccJYLV47.s 			page 89


 4849      6C00
 4850              	.LASF116:
 4851 0312 52455345 		.ascii	"RESERVED2\000"
 4851      52564544 
 4851      3200
 4852              	.LASF169:
 4853 031c 61646373 		.ascii	"adcsample_t\000"
 4853      616D706C 
 4853      655F7400 
 4854              	.LASF152:
 4855 0328 63686172 		.ascii	"char\000"
 4855      00
 4856              	.LASF156:
 4857 032d 69736869 		.ascii	"ishift\000"
 4857      667400
 4858              	.LASF106:
 4859 0334 41484231 		.ascii	"AHB1RSTR\000"
 4859      52535452 
 4859      00
 4860              	.LASF33:
 4861 033d 705F7072 		.ascii	"p_prio\000"
 4861      696F00
 4862              	.LASF6:
 4863 0344 5F5F7569 		.ascii	"__uint16_t\000"
 4863      6E743136 
 4863      5F7400
 4864              	.LASF114:
 4865 034f 41484232 		.ascii	"AHB2ENR\000"
 4865      454E5200 
 4866              	.LASF140:
 4867 0357 77746F62 		.ascii	"wtobjp\000"
 4867      6A7000
 4868              	.LASF167:
 4869 035e 4144435F 		.ascii	"ADC_ERROR\000"
 4869      4552524F 
 4869      5200
 4870              	.LASF217:
 4871 0368 666C6167 		.ascii	"flags\000"
 4871      7300
 4872              	.LASF232:
 4873 036e 2F686F6D 		.ascii	"/home/peter/ChibiOS_16.1.4/os/hal/ports/STM32/LLD/A"
 4873      652F7065 
 4873      7465722F 
 4873      43686962 
 4873      694F535F 
 4874 03a1 44437632 		.ascii	"DCv2/adc_lld.c\000"
 4874      2F616463 
 4874      5F6C6C64 
 4874      2E6300
 4875              	.LASF133:
 4876 03b0 73746B61 		.ascii	"stkalign_t\000"
 4876      6C69676E 
 4876      5F7400
 4877              	.LASF194:
 4878 03bb 73717233 		.ascii	"sqr3\000"
 4878      00
 4879              	.LASF186:
ARM GAS  /tmp/ccJYLV47.s 			page 90


 4880 03c0 63697263 		.ascii	"circular\000"
 4880      756C6172 
 4880      00
 4881              	.LASF171:
 4882 03c9 4144435F 		.ascii	"ADC_ERR_DMAFAILURE\000"
 4882      4552525F 
 4882      444D4146 
 4882      41494C55 
 4882      524500
 4883              	.LASF154:
 4884 03dc 73747265 		.ascii	"stream\000"
 4884      616D00
 4885              	.LASF235:
 4886 03e3 646D6153 		.ascii	"dmaStreamAllocate\000"
 4886      74726561 
 4886      6D416C6C 
 4886      6F636174 
 4886      6500
 4887              	.LASF127:
 4888 03f5 42444352 		.ascii	"BDCR\000"
 4888      00
 4889              	.LASF177:
 4890 03fa 73616D70 		.ascii	"samples\000"
 4890      6C657300 
 4891              	.LASF28:
 4892 0402 636E745F 		.ascii	"cnt_t\000"
 4892      7400
 4893              	.LASF69:
 4894 0408 76745F66 		.ascii	"vt_func\000"
 4894      756E6300 
 4895              	.LASF98:
 4896 0410 4144435F 		.ascii	"ADC_TypeDef\000"
 4896      54797065 
 4896      44656600 
 4897              	.LASF45:
 4898 041c 705F6570 		.ascii	"p_epending\000"
 4898      656E6469 
 4898      6E6700
 4899              	.LASF143:
 4900 0427 77746D74 		.ascii	"wtmtxp\000"
 4900      787000
 4901              	.LASF56:
 4902 042e 63685F72 		.ascii	"ch_ready_list\000"
 4902      65616479 
 4902      5F6C6973 
 4902      7400
 4903              	.LASF105:
 4904 043c 43464752 		.ascii	"CFGR\000"
 4904      00
 4905              	.LASF170:
 4906 0441 6164635F 		.ascii	"adc_channels_num_t\000"
 4906      6368616E 
 4906      6E656C73 
 4906      5F6E756D 
 4906      5F7400
 4907              	.LASF208:
 4908 0454 6F73616C 		.ascii	"osalSysUnlockFromISR\000"
ARM GAS  /tmp/ccJYLV47.s 			page 91


 4908      53797355 
 4908      6E6C6F63 
 4908      6B46726F 
 4908      6D495352 
 4909              	.LASF13:
 4910 0469 5F5F7569 		.ascii	"__uint64_t\000"
 4910      6E743634 
 4910      5F7400
 4911              	.LASF11:
 4912 0474 6C6F6E67 		.ascii	"long unsigned int\000"
 4912      20756E73 
 4912      69676E65 
 4912      6420696E 
 4912      7400
 4913              	.LASF117:
 4914 0486 41504231 		.ascii	"APB1ENR\000"
 4914      454E5200 
 4915              	.LASF182:
 4916 048e 646D6173 		.ascii	"dmastp\000"
 4916      747000
 4917              	.LASF145:
 4918 0495 63685F73 		.ascii	"ch_semaphore\000"
 4918      656D6170 
 4918      686F7265 
 4918      00
 4919              	.LASF51:
 4920 04a2 63685F74 		.ascii	"ch_thread\000"
 4920      68726561 
 4920      6400
 4921              	.LASF71:
 4922 04ac 76697274 		.ascii	"virtual_timers_list_t\000"
 4922      75616C5F 
 4922      74696D65 
 4922      72735F6C 
 4922      6973745F 
 4923              	.LASF225:
 4924 04c2 5F73746D 		.ascii	"_stm32_dma_streams\000"
 4924      33325F64 
 4924      6D615F73 
 4924      74726561 
 4924      6D7300
 4925              	.LASF84:
 4926 04d5 534D5052 		.ascii	"SMPR1\000"
 4926      3100
 4927              	.LASF85:
 4928 04db 534D5052 		.ascii	"SMPR2\000"
 4928      3200
 4929              	.LASF64:
 4930 04e1 76697274 		.ascii	"virtual_timer_t\000"
 4930      75616C5F 
 4930      74696D65 
 4930      725F7400 
 4931              	.LASF55:
 4932 04f1 72656164 		.ascii	"ready_list_t\000"
 4932      795F6C69 
 4932      73745F74 
 4932      00
ARM GAS  /tmp/ccJYLV47.s 			page 92


 4933              	.LASF195:
 4934 04fe 41444343 		.ascii	"ADCConversionGroup\000"
 4934      6F6E7665 
 4934      7273696F 
 4934      6E47726F 
 4934      757000
 4935              	.LASF166:
 4936 0511 4144435F 		.ascii	"ADC_COMPLETE\000"
 4936      434F4D50 
 4936      4C455445 
 4936      00
 4937              	.LASF52:
 4938 051e 63685F74 		.ascii	"ch_threads_list\000"
 4938      68726561 
 4938      64735F6C 
 4938      69737400 
 4939              	.LASF190:
 4940 052e 736D7072 		.ascii	"smpr1\000"
 4940      3100
 4941              	.LASF191:
 4942 0534 736D7072 		.ascii	"smpr2\000"
 4942      3200
 4943              	.LASF213:
 4944 053a 6164635F 		.ascii	"adc_lld_start_conversion\000"
 4944      6C6C645F 
 4944      73746172 
 4944      745F636F 
 4944      6E766572 
 4945              	.LASF104:
 4946 0553 504C4C43 		.ascii	"PLLCFGR\000"
 4946      46475200 
 4947              	.LASF10:
 4948 055b 5F5F7569 		.ascii	"__uint32_t\000"
 4948      6E743332 
 4948      5F7400
 4949              	.LASF12:
 4950 0566 6C6F6E67 		.ascii	"long long int\000"
 4950      206C6F6E 
 4950      6720696E 
 4950      7400
 4951              	.LASF219:
 4952 0574 68616C66 		.ascii	"half_index\000"
 4952      5F696E64 
 4952      657800
 4953              	.LASF149:
 4954 057f 6D5F7175 		.ascii	"m_queue\000"
 4954      65756500 
 4955              	.LASF200:
 4956 0587 706F7274 		.ascii	"port_lock_from_isr\000"
 4956      5F6C6F63 
 4956      6B5F6672 
 4956      6F6D5F69 
 4956      737200
 4957              	.LASF129:
 4958 059a 53534347 		.ascii	"SSCGR\000"
 4958      5200
 4959              	.LASF66:
ARM GAS  /tmp/ccJYLV47.s 			page 93


 4960 05a0 76745F6E 		.ascii	"vt_next\000"
 4960      65787400 
 4961              	.LASF231:
 4962 05a8 474E5520 		.ascii	"GNU C 4.9.3 20150529 (prerelease) -mcpu=cortex-m3 -"
 4962      4320342E 
 4962      392E3320 
 4962      32303135 
 4962      30353239 
 4963 05db 6D6E6F2D 		.ascii	"mno-thumb-interwork -mthumb -ggdb -O2 -std=c99 -fom"
 4963      7468756D 
 4963      622D696E 
 4963      74657277 
 4963      6F726B20 
 4964 060e 69742D66 		.ascii	"it-frame-pointer -falign-functions=16 -ffunction-se"
 4964      72616D65 
 4964      2D706F69 
 4964      6E746572 
 4964      202D6661 
 4965 0641 6374696F 		.ascii	"ctions -fdata-sections -fno-common\000"
 4965      6E73202D 
 4965      66646174 
 4965      612D7365 
 4965      6374696F 
 4966              	.LASF67:
 4967 0664 76745F70 		.ascii	"vt_prev\000"
 4967      72657600 
 4968              	.LASF212:
 4969 066c 61646370 		.ascii	"adcp\000"
 4969      00
 4970              	.LASF185:
 4971 0671 61646365 		.ascii	"adcerrorcallback_t\000"
 4971      72726F72 
 4971      63616C6C 
 4971      6261636B 
 4971      5F7400
 4972              	.LASF111:
 4973 0684 41504232 		.ascii	"APB2RSTR\000"
 4973      52535452 
 4973      00
 4974              	.LASF178:
 4975 068d 64657074 		.ascii	"depth\000"
 4975      6800
 4976              	.LASF181:
 4977 0693 6D757465 		.ascii	"mutex\000"
 4977      7800
 4978              	.LASF224:
 4979 0699 49544D5F 		.ascii	"ITM_RxBuffer\000"
 4979      52784275 
 4979      66666572 
 4979      00
 4980              	.LASF125:
 4981 06a6 41504232 		.ascii	"APB2LPENR\000"
 4981      4C50454E 
 4981      5200
 4982              	.LASF42:
 4983 06b0 705F7761 		.ascii	"p_waiting\000"
 4983      6974696E 
ARM GAS  /tmp/ccJYLV47.s 			page 94


 4983      6700
 4984              	.LASF39:
 4985 06ba 705F666C 		.ascii	"p_flags\000"
 4985      61677300 
 4986              	.LASF82:
 4987 06c2 69646C65 		.ascii	"idle_thread_wa\000"
 4987      5F746872 
 4987      6561645F 
 4987      776100
 4988              	.LASF0:
 4989 06d1 756E7369 		.ascii	"unsigned int\000"
 4989      676E6564 
 4989      20696E74 
 4989      00
 4990              	.LASF20:
 4991 06de 7274636E 		.ascii	"rtcnt_t\000"
 4991      745F7400 
 4992              	.LASF48:
 4993 06e6 705F6D70 		.ascii	"p_mpool\000"
 4993      6F6F6C00 
 4994              	.LASF160:
 4995 06ee 73746D33 		.ascii	"stm32_dmaisr_t\000"
 4995      325F646D 
 4995      61697372 
 4995      5F7400
 4996              	.LASF40:
 4997 06fd 705F7265 		.ascii	"p_refs\000"
 4997      667300
 4998              	.LASF187:
 4999 0704 6E756D5F 		.ascii	"num_channels\000"
 4999      6368616E 
 4999      6E656C73 
 4999      00
 5000              	.LASF236:
 5001 0711 5F706F72 		.ascii	"_port_irq_epilogue\000"
 5001      745F6972 
 5001      715F6570 
 5001      696C6F67 
 5001      756500
 5002              	.LASF226:
 5003 0724 41444344 		.ascii	"ADCD1\000"
 5003      3100
 5004              	.LASF136:
 5005 072a 6F666673 		.ascii	"offset\000"
 5005      657400
 5006              	.LASF124:
 5007 0731 41504231 		.ascii	"APB1LPENR\000"
 5007      4C50454E 
 5007      5200
 5008              	.LASF215:
 5009 073b 6164635F 		.ascii	"adc_lld_stop_conversion\000"
 5009      6C6C645F 
 5009      73746F70 
 5009      5F636F6E 
 5009      76657273 
 5010              	.LASF103:
 5011 0753 444D415F 		.ascii	"DMA_Stream_TypeDef\000"
ARM GAS  /tmp/ccJYLV47.s 			page 95


 5011      53747265 
 5011      616D5F54 
 5011      79706544 
 5011      656600
 5012              	.LASF108:
 5013 0766 41484233 		.ascii	"AHB3RSTR\000"
 5013      52535452 
 5013      00
 5014              	.LASF30:
 5015 076f 74687265 		.ascii	"thread_t\000"
 5015      61645F74 
 5015      00
 5016              	.LASF49:
 5017 0778 74687265 		.ascii	"thread_reference_t\000"
 5017      61645F72 
 5017      65666572 
 5017      656E6365 
 5017      5F7400
 5018              	.LASF47:
 5019 078b 705F7265 		.ascii	"p_realprio\000"
 5019      616C7072 
 5019      696F00
 5020              	.LASF135:
 5021 0796 706F7274 		.ascii	"port_intctx\000"
 5021      5F696E74 
 5021      63747800 
 5022              	.LASF165:
 5023 07a2 4144435F 		.ascii	"ADC_ACTIVE\000"
 5023      41435449 
 5023      564500
 5024              	.LASF201:
 5025 07ad 706F7274 		.ascii	"port_unlock_from_isr\000"
 5025      5F756E6C 
 5025      6F636B5F 
 5025      66726F6D 
 5025      5F697372 
 5026              	.LASF68:
 5027 07c2 76745F64 		.ascii	"vt_delta\000"
 5027      656C7461 
 5027      00
 5028              	.LASF110:
 5029 07cb 41504231 		.ascii	"APB1RSTR\000"
 5029      52535452 
 5029      00
 5030              	.LASF65:
 5031 07d4 63685F76 		.ascii	"ch_virtual_timer\000"
 5031      69727475 
 5031      616C5F74 
 5031      696D6572 
 5031      00
 5032              	.LASF147:
 5033 07e5 735F636E 		.ascii	"s_cnt\000"
 5033      7400
 5034              	.LASF157:
 5035 07eb 73656C66 		.ascii	"selfindex\000"
 5035      696E6465 
 5035      7800
ARM GAS  /tmp/ccJYLV47.s 			page 96


 5036              	.LASF14:
 5037 07f5 6C6F6E67 		.ascii	"long long unsigned int\000"
 5037      206C6F6E 
 5037      6720756E 
 5037      7369676E 
 5037      65642069 
 5038              	.LASF36:
 5039 080c 705F6F6C 		.ascii	"p_older\000"
 5039      64657200 
 5040              	.LASF16:
 5041 0814 75696E74 		.ascii	"uint16_t\000"
 5041      31365F74 
 5041      00
 5042              	.LASF26:
 5043 081d 6D73675F 		.ascii	"msg_t\000"
 5043      7400
 5044              	.LASF54:
 5045 0823 63685F74 		.ascii	"ch_threads_queue\000"
 5045      68726561 
 5045      64735F71 
 5045      75657565 
 5045      00
 5046              	.LASF207:
 5047 0834 76616C75 		.ascii	"value\000"
 5047      6500
 5048              	.LASF24:
 5049 083a 74736C69 		.ascii	"tslices_t\000"
 5049      6365735F 
 5049      7400
 5050              	.LASF62:
 5051 0844 725F6375 		.ascii	"r_current\000"
 5051      7272656E 
 5051      7400
 5052              	.LASF174:
 5053 084e 41444344 		.ascii	"ADCDriver\000"
 5053      72697665 
 5053      7200
 5054              	.LASF209:
 5055 0858 6164635F 		.ascii	"adc_lld_init\000"
 5055      6C6C645F 
 5055      696E6974 
 5055      00
 5056              	.LASF158:
 5057 0865 76656374 		.ascii	"vector\000"
 5057      6F7200
 5058              	.LASF172:
 5059 086c 4144435F 		.ascii	"ADC_ERR_OVERFLOW\000"
 5059      4552525F 
 5059      4F564552 
 5059      464C4F57 
 5059      00
 5060              	.LASF218:
 5061 087d 68616C66 		.ascii	"half\000"
 5061      00
 5062              	.LASF81:
 5063 0882 6D61696E 		.ascii	"mainthread\000"
 5063      74687265 
ARM GAS  /tmp/ccJYLV47.s 			page 97


 5063      616400
 5064              	.LASF122:
 5065 088d 41484233 		.ascii	"AHB3LPENR\000"
 5065      4C50454E 
 5065      5200
 5066              	.LASF205:
 5067 0897 5F5F7365 		.ascii	"__set_BASEPRI\000"
 5067      745F4241 
 5067      53455052 
 5067      4900
 5068              	.LASF57:
 5069 08a5 725F7175 		.ascii	"r_queue\000"
 5069      65756500 
 5070              	.LASF222:
 5071 08ad 61646353 		.ascii	"adcSTM32EnableVBATE\000"
 5071      544D3332 
 5071      456E6162 
 5071      6C655642 
 5071      41544500 
 5072              	.LASF79:
 5073 08c1 726C6973 		.ascii	"rlist\000"
 5073      7400
 5074              	.LASF21:
 5075 08c7 746D6F64 		.ascii	"tmode_t\000"
 5075      655F7400 
 5076              	.LASF196:
 5077 08cf 64756D6D 		.ascii	"dummy\000"
 5077      7900
 5078              	.LASF163:
 5079 08d5 4144435F 		.ascii	"ADC_STOP\000"
 5079      53544F50 
 5079      00
 5080              	.LASF113:
 5081 08de 41484231 		.ascii	"AHB1ENR\000"
 5081      454E5200 
 5082              	.LASF73:
 5083 08e6 76745F73 		.ascii	"vt_systime\000"
 5083      79737469 
 5083      6D6500
 5084              	.LASF115:
 5085 08f1 41484233 		.ascii	"AHB3ENR\000"
 5085      454E5200 
 5086              	.LASF179:
 5087 08f9 67727070 		.ascii	"grpp\000"
 5087      00
 5088              	.LASF61:
 5089 08fe 725F6F6C 		.ascii	"r_older\000"
 5089      64657200 
 5090              	.LASF137:
 5091 0906 746D5F63 		.ascii	"tm_calibration_t\000"
 5091      616C6962 
 5091      72617469 
 5091      6F6E5F74 
 5091      00
 5092              	.LASF107:
 5093 0917 41484232 		.ascii	"AHB2RSTR\000"
 5093      52535452 
ARM GAS  /tmp/ccJYLV47.s 			page 98


 5093      00
 5094              	.LASF180:
 5095 0920 74687265 		.ascii	"thread\000"
 5095      616400
 5096              	.LASF101:
 5097 0927 4D304152 		.ascii	"M0AR\000"
 5097      00
 5098              	.LASF198:
 5099 092c 706F7274 		.ascii	"port_lock\000"
 5099      5F6C6F63 
 5099      6B00
 5100              	.LASF146:
 5101 0936 735F7175 		.ascii	"s_queue\000"
 5101      65756500 
 5102              	.LASF131:
 5103 093e 5243435F 		.ascii	"RCC_TypeDef\000"
 5103      54797065 
 5103      44656600 
 5104              	.LASF5:
 5105 094a 73686F72 		.ascii	"short int\000"
 5105      7420696E 
 5105      7400
 5106              	.LASF19:
 5107 0954 75696E74 		.ascii	"uint64_t\000"
 5107      36345F74 
 5107      00
 5108              	.LASF214:
 5109 095d 6D6F6465 		.ascii	"mode\000"
 5109      00
 5110              	.LASF148:
 5111 0962 63685F6D 		.ascii	"ch_mutex\000"
 5111      75746578 
 5111      00
 5112              	.LASF86:
 5113 096b 4A4F4652 		.ascii	"JOFR1\000"
 5113      3100
 5114              	.LASF87:
 5115 0971 4A4F4652 		.ascii	"JOFR2\000"
 5115      3200
 5116              	.LASF88:
 5117 0977 4A4F4652 		.ascii	"JOFR3\000"
 5117      3300
 5118              	.LASF89:
 5119 097d 4A4F4652 		.ascii	"JOFR4\000"
 5119      3400
 5120              	.LASF58:
 5121 0983 725F7072 		.ascii	"r_prio\000"
 5121      696F00
 5122              	.LASF75:
 5123 098a 63685F73 		.ascii	"ch_system_debug\000"
 5123      79737465 
 5123      6D5F6465 
 5123      62756700 
 5124              	.LASF227:
 5125 099a 6164634F 		.ascii	"adcObjectInit\000"
 5125      626A6563 
 5125      74496E69 
ARM GAS  /tmp/ccJYLV47.s 			page 99


 5125      7400
 5126              	.LASF94:
 5127 09a8 4A445231 		.ascii	"JDR1\000"
 5127      00
 5128              	.LASF95:
 5129 09ad 4A445232 		.ascii	"JDR2\000"
 5129      00
 5130              	.LASF96:
 5131 09b2 4A445233 		.ascii	"JDR3\000"
 5131      00
 5132              	.LASF97:
 5133 09b7 4A445234 		.ascii	"JDR4\000"
 5133      00
 5134              	.LASF93:
 5135 09bc 4A535152 		.ascii	"JSQR\000"
 5135      00
 5136              	.LASF80:
 5137 09c1 76746C69 		.ascii	"vtlist\000"
 5137      737400
 5138              	.LASF153:
 5139 09c8 6D757465 		.ascii	"mutex_t\000"
 5139      785F7400 
 5140              	.LASF23:
 5141 09d0 74726566 		.ascii	"trefs_t\000"
 5141      735F7400 
 5142              	.LASF50:
 5143 09d8 74687265 		.ascii	"threads_list_t\000"
 5143      6164735F 
 5143      6C697374 
 5143      5F7400
 5144              	.LASF78:
 5145 09e7 63685F73 		.ascii	"ch_system\000"
 5145      79737465 
 5145      6D00
 5146              	.LASF100:
 5147 09f1 4E445452 		.ascii	"NDTR\000"
 5147      00
 5148              	.LASF228:
 5149 09f6 6E766963 		.ascii	"nvicEnableVector\000"
 5149      456E6162 
 5149      6C655665 
 5149      63746F72 
 5149      00
 5150              	.LASF18:
 5151 0a07 75696E74 		.ascii	"uint32_t\000"
 5151      33325F74 
 5151      00
 5152              	.LASF234:
 5153 0a10 6164635F 		.ascii	"adc_lld_serve_rx_interrupt\000"
 5153      6C6C645F 
 5153      73657276 
 5153      655F7278 
 5153      5F696E74 
 5154              	.LASF138:
 5155 0a2b 7264796D 		.ascii	"rdymsg\000"
 5155      736700
 5156              	.LASF7:
ARM GAS  /tmp/ccJYLV47.s 			page 100


 5157 0a32 73686F72 		.ascii	"short unsigned int\000"
 5157      7420756E 
 5157      7369676E 
 5157      65642069 
 5157      6E7400
 5158              	.LASF162:
 5159 0a45 4144435F 		.ascii	"ADC_UNINIT\000"
 5159      554E494E 
 5159      495400
 5160              	.LASF77:
 5161 0a50 63685F73 		.ascii	"ch_system_t\000"
 5161      79737465 
 5161      6D5F7400 
 5162              	.LASF8:
 5163 0a5c 5F5F696E 		.ascii	"__int32_t\000"
 5163      7433325F 
 5163      7400
 5164              	.LASF99:
 5165 0a66 4144435F 		.ascii	"ADC_Common_TypeDef\000"
 5165      436F6D6D 
 5165      6F6E5F54 
 5165      79706544 
 5165      656600
 5166              	.LASF155:
 5167 0a79 69666372 		.ascii	"ifcr\000"
 5167      00
 5168              	.LASF37:
 5169 0a7e 705F6E61 		.ascii	"p_name\000"
 5169      6D6500
 5170              	.LASF151:
 5171 0a85 6D5F6E65 		.ascii	"m_next\000"
 5171      787400
 5172              	.LASF44:
 5173 0a8c 705F6D73 		.ascii	"p_msg\000"
 5173      6700
 5174              	.LASF197:
 5175 0a92 41444343 		.ascii	"ADCConfig\000"
 5175      6F6E6669 
 5175      6700
 5176              	.LASF38:
 5177 0a9c 705F7374 		.ascii	"p_state\000"
 5177      61746500 
 5178              		.ident	"GCC: (15:4.9.3+svn227297-1) 4.9.3 20150529 (prerelease)"
ARM GAS  /tmp/ccJYLV47.s 			page 101


DEFINED SYMBOLS
                            *ABS*:00000000 adc_lld.c
     /tmp/ccJYLV47.s:19     .text.adc_lld_init:00000000 $t
     /tmp/ccJYLV47.s:25     .text.adc_lld_init:00000000 adc_lld_init
     /tmp/ccJYLV47.s:72     .text.adc_lld_init:00000024 $d
     /tmp/ccJYLV47.s:80     .text.adc_lld_start:00000000 $t
     /tmp/ccJYLV47.s:86     .text.adc_lld_start:00000000 adc_lld_start
     /tmp/ccJYLV47.s:162    .text.adc_lld_start:00000050 $d
     /tmp/ccJYLV47.s:570    .text.adc_lld_serve_rx_interrupt:00000000 adc_lld_serve_rx_interrupt
     /tmp/ccJYLV47.s:172    .text.adc_lld_stop:00000000 $t
     /tmp/ccJYLV47.s:178    .text.adc_lld_stop:00000000 adc_lld_stop
     /tmp/ccJYLV47.s:228    .text.adc_lld_stop:00000030 $d
     /tmp/ccJYLV47.s:234    .text.adc_lld_start_conversion:00000000 $t
     /tmp/ccJYLV47.s:240    .text.adc_lld_start_conversion:00000000 adc_lld_start_conversion
     /tmp/ccJYLV47.s:373    .text.adc_lld_stop_conversion:00000000 $t
     /tmp/ccJYLV47.s:379    .text.adc_lld_stop_conversion:00000000 adc_lld_stop_conversion
     /tmp/ccJYLV47.s:433    .text.Vector88:00000000 $t
     /tmp/ccJYLV47.s:439    .text.Vector88:00000000 Vector88
     /tmp/ccJYLV47.s:558    .text.Vector88:0000005c $d
     /tmp/ccJYLV47.s:565    .text.adc_lld_serve_rx_interrupt:00000000 $t
     /tmp/ccJYLV47.s:828    .text.adcSTM32EnableTSVREFE:00000000 $t
     /tmp/ccJYLV47.s:834    .text.adcSTM32EnableTSVREFE:00000000 adcSTM32EnableTSVREFE
     /tmp/ccJYLV47.s:850    .text.adcSTM32EnableTSVREFE:0000000c $d
     /tmp/ccJYLV47.s:855    .text.adcSTM32DisableTSVREFE:00000000 $t
     /tmp/ccJYLV47.s:861    .text.adcSTM32DisableTSVREFE:00000000 adcSTM32DisableTSVREFE
     /tmp/ccJYLV47.s:877    .text.adcSTM32DisableTSVREFE:0000000c $d
     /tmp/ccJYLV47.s:882    .text.adcSTM32EnableVBATE:00000000 $t
     /tmp/ccJYLV47.s:888    .text.adcSTM32EnableVBATE:00000000 adcSTM32EnableVBATE
     /tmp/ccJYLV47.s:904    .text.adcSTM32EnableVBATE:0000000c $d
     /tmp/ccJYLV47.s:909    .text.adcSTM32DisableVBATE:00000000 $t
     /tmp/ccJYLV47.s:915    .text.adcSTM32DisableVBATE:00000000 adcSTM32DisableVBATE
     /tmp/ccJYLV47.s:931    .text.adcSTM32DisableVBATE:0000000c $d
     /tmp/ccJYLV47.s:941    .bss.ADCD1:00000000 ADCD1
     /tmp/ccJYLV47.s:937    .bss.ADCD1:00000000 $d
                     .debug_frame:00000010 $d
     /tmp/ccJYLV47.s:79     .text.adc_lld_init:00000034 $t
     /tmp/ccJYLV47.s:171    .text.adc_lld_start:00000064 $t
     /tmp/ccJYLV47.s:233    .text.adc_lld_stop:00000038 $t
     /tmp/ccJYLV47.s:564    .text.Vector88:00000068 $t

UNDEFINED SYMBOLS
adcObjectInit
nvicEnableVector
_stm32_dma_streams
dmaStreamAllocate
dmaStreamRelease
chThdResumeI
_port_irq_epilogue
