ARM GAS  /tmp/ccgYicFQ.s 			page 1


   1              		.syntax unified
   2              		.cpu cortex-m3
   3              		.fpu softvfp
   4              		.eabi_attribute 20, 1
   5              		.eabi_attribute 21, 1
   6              		.eabi_attribute 23, 3
   7              		.eabi_attribute 24, 1
   8              		.eabi_attribute 25, 1
   9              		.eabi_attribute 26, 1
  10              		.eabi_attribute 30, 2
  11              		.eabi_attribute 34, 1
  12              		.eabi_attribute 18, 4
  13              		.thumb
  14              		.file	"camera.c"
  15              		.text
  16              	.Ltext0:
  17              		.cfi_sections	.debug_frame
  18              		.section	.text.CameraProcessThread,"ax",%progbits
  19              		.align	2
  20              		.p2align 4,,15
  21              		.global	CameraProcessThread
  22              		.thumb
  23              		.thumb_func
  24              		.type	CameraProcessThread, %function
  25              	CameraProcessThread:
  26              	.LFB208:
  27              		.file 1 "camera.c"
  28              		.loc 1 66 0
  29              		.cfi_startproc
  30              		@ args = 0, pretend = 0, frame = 0
  31              		@ frame_needed = 0, uses_anonymous_args = 0
  32              	.LVL0:
  33 0000 38B5     		push	{r3, r4, r5, lr}
  34              		.cfi_def_cfa_offset 16
  35              		.cfi_offset 3, -16
  36              		.cfi_offset 4, -12
  37              		.cfi_offset 5, -8
  38              		.cfi_offset 14, -4
  39              		.loc 1 75 0
  40 0002 FFF7FEFF 		bl	chMsgWait
  41              	.LVL1:
  42              		.loc 1 77 0
  43 0006 036B     		ldr	r3, [r0, #48]
  44 0008 0F4C     		ldr	r4, .L14
  45 000a 012B     		cmp	r3, #1
  46 000c 0F4D     		ldr	r5, .L14+4
  47 000e 0FD0     		beq	.L12
  48              	.L2:
  49 0010 0F4B     		ldr	r3, .L14+8
  50 0012 104A     		ldr	r2, .L14+12
  51              	.L5:
  52              		.loc 1 83 0 discriminator 3
  53 0014 33F8021B 		ldrh	r1, [r3], #2
  54              		.loc 1 82 0 discriminator 3
  55 0018 A342     		cmp	r3, r4
  56              		.loc 1 83 0 discriminator 3
  57 001a 22F8021B 		strh	r1, [r2], #2	@ movhi
ARM GAS  /tmp/ccgYicFQ.s 			page 2


  58              	.LVL2:
  59              		.loc 1 82 0 discriminator 3
  60 001e F9D1     		bne	.L5
  61              		.loc 1 86 0
  62 0020 0021     		movs	r1, #0
  63 0022 FFF7FEFF 		bl	chMsgRelease
  64              	.LVL3:
  65              	.L13:
  66              		.loc 1 75 0
  67 0026 FFF7FEFF 		bl	chMsgWait
  68              	.LVL4:
  69              		.loc 1 77 0
  70 002a 036B     		ldr	r3, [r0, #48]
  71 002c 012B     		cmp	r3, #1
  72 002e EFD1     		bne	.L2
  73              	.L12:
  74 0030 094B     		ldr	r3, .L14+16
  75 0032 074A     		ldr	r2, .L14+8
  76              	.L3:
  77              		.loc 1 79 0 discriminator 3
  78 0034 33F8021B 		ldrh	r1, [r3], #2
  79              		.loc 1 78 0 discriminator 3
  80 0038 AB42     		cmp	r3, r5
  81              		.loc 1 79 0 discriminator 3
  82 003a 22F8021B 		strh	r1, [r2], #2	@ movhi
  83              		.loc 1 78 0 discriminator 3
  84 003e F9D1     		bne	.L3
  85              		.loc 1 86 0
  86 0040 0021     		movs	r1, #0
  87 0042 FFF7FEFF 		bl	chMsgRelease
  88              	.LVL5:
  89 0046 EEE7     		b	.L13
  90              	.L15:
  91              		.align	2
  92              	.L14:
  93 0048 0C000000 		.word	.LANCHOR1+12
  94 004c 0C000000 		.word	.LANCHOR0+12
  95 0050 00000000 		.word	.LANCHOR1
  96 0054 00000000 		.word	.LANCHOR2
  97 0058 00000000 		.word	.LANCHOR0
  98              		.cfi_endproc
  99              	.LFE208:
 100              		.size	CameraProcessThread, .-CameraProcessThread
 101 005c AFF30080 		.section	.text.get_camera_values,"ax",%progbits
 102              		.align	2
 103              		.p2align 4,,15
 104              		.global	get_camera_values
 105              		.thumb
 106              		.thumb_func
 107              		.type	get_camera_values, %function
 108              	get_camera_values:
 109              	.LFB209:
 110              		.loc 1 90 0
 111              		.cfi_startproc
 112              		@ args = 0, pretend = 0, frame = 0
 113              		@ frame_needed = 0, uses_anonymous_args = 0
 114              		@ link register save eliminated.
ARM GAS  /tmp/ccgYicFQ.s 			page 3


 115              		.loc 1 91 0
 116 0000 024B     		ldr	r3, .L17
 117 0002 0221     		movs	r1, #2
 118 0004 1868     		ldr	r0, [r3]
 119 0006 FFF7FEBF 		b	chMsgSend
 120              	.LVL6:
 121              	.L18:
 122 000a 00BF     		.align	2
 123              	.L17:
 124 000c 00000000 		.word	.LANCHOR3
 125              		.cfi_endproc
 126              	.LFE209:
 127              		.size	get_camera_values, .-get_camera_values
 128              		.section	.text.get_goal_degree,"ax",%progbits
 129              		.align	2
 130              		.p2align 4,,15
 131              		.global	get_goal_degree
 132              		.thumb
 133              		.thumb_func
 134              		.type	get_goal_degree, %function
 135              	get_goal_degree:
 136              	.LFB210:
 137              		.loc 1 94 0
 138              		.cfi_startproc
 139              		@ args = 0, pretend = 0, frame = 0
 140              		@ frame_needed = 0, uses_anonymous_args = 0
 141              		@ link register save eliminated.
 142              		.loc 1 95 0
 143 0000 014B     		ldr	r3, .L20
 144              		.loc 1 96 0
 145 0002 B3F90000 		ldrsh	r0, [r3]
 146 0006 7047     		bx	lr
 147              	.L21:
 148              		.align	2
 149              	.L20:
 150 0008 00000000 		.word	.LANCHOR2
 151              		.cfi_endproc
 152              	.LFE210:
 153              		.size	get_goal_degree, .-get_goal_degree
 154 000c AFF30080 		.section	.text.get_goal_distance,"ax",%progbits
 155              		.align	2
 156              		.p2align 4,,15
 157              		.global	get_goal_distance
 158              		.thumb
 159              		.thumb_func
 160              		.type	get_goal_distance, %function
 161              	get_goal_distance:
 162              	.LFB211:
 163              		.loc 1 98 0
 164              		.cfi_startproc
 165              		@ args = 0, pretend = 0, frame = 0
 166              		@ frame_needed = 0, uses_anonymous_args = 0
 167              		@ link register save eliminated.
 168              		.loc 1 99 0
 169 0000 014B     		ldr	r3, .L23
 170              		.loc 1 100 0
 171 0002 B3F90200 		ldrsh	r0, [r3, #2]
ARM GAS  /tmp/ccgYicFQ.s 			page 4


 172 0006 7047     		bx	lr
 173              	.L24:
 174              		.align	2
 175              	.L23:
 176 0008 00000000 		.word	.LANCHOR2
 177              		.cfi_endproc
 178              	.LFE211:
 179              		.size	get_goal_distance, .-get_goal_distance
 180 000c AFF30080 		.section	.text.get_ball_degree,"ax",%progbits
 181              		.align	2
 182              		.p2align 4,,15
 183              		.global	get_ball_degree
 184              		.thumb
 185              		.thumb_func
 186              		.type	get_ball_degree, %function
 187              	get_ball_degree:
 188              	.LFB212:
 189              		.loc 1 102 0
 190              		.cfi_startproc
 191              		@ args = 0, pretend = 0, frame = 0
 192              		@ frame_needed = 0, uses_anonymous_args = 0
 193              		@ link register save eliminated.
 194              		.loc 1 103 0
 195 0000 014B     		ldr	r3, .L26
 196              		.loc 1 104 0
 197 0002 B3F90400 		ldrsh	r0, [r3, #4]
 198 0006 7047     		bx	lr
 199              	.L27:
 200              		.align	2
 201              	.L26:
 202 0008 00000000 		.word	.LANCHOR2
 203              		.cfi_endproc
 204              	.LFE212:
 205              		.size	get_ball_degree, .-get_ball_degree
 206 000c AFF30080 		.section	.text.get_ball_distance,"ax",%progbits
 207              		.align	2
 208              		.p2align 4,,15
 209              		.global	get_ball_distance
 210              		.thumb
 211              		.thumb_func
 212              		.type	get_ball_distance, %function
 213              	get_ball_distance:
 214              	.LFB213:
 215              		.loc 1 106 0
 216              		.cfi_startproc
 217              		@ args = 0, pretend = 0, frame = 0
 218              		@ frame_needed = 0, uses_anonymous_args = 0
 219              		@ link register save eliminated.
 220              		.loc 1 107 0
 221 0000 014B     		ldr	r3, .L29
 222              		.loc 1 108 0
 223 0002 B3F90600 		ldrsh	r0, [r3, #6]
 224 0006 7047     		bx	lr
 225              	.L30:
 226              		.align	2
 227              	.L29:
 228 0008 00000000 		.word	.LANCHOR2
ARM GAS  /tmp/ccgYicFQ.s 			page 5


 229              		.cfi_endproc
 230              	.LFE213:
 231              		.size	get_ball_distance, .-get_ball_distance
 232 000c AFF30080 		.section	.text.get_start,"ax",%progbits
 233              		.align	2
 234              		.p2align 4,,15
 235              		.global	get_start
 236              		.thumb
 237              		.thumb_func
 238              		.type	get_start, %function
 239              	get_start:
 240              	.LFB214:
 241              		.loc 1 110 0
 242              		.cfi_startproc
 243              		@ args = 0, pretend = 0, frame = 0
 244              		@ frame_needed = 0, uses_anonymous_args = 0
 245              		@ link register save eliminated.
 246              		.loc 1 111 0
 247 0000 014B     		ldr	r3, .L32
 248              		.loc 1 112 0
 249 0002 B3F90800 		ldrsh	r0, [r3, #8]
 250 0006 7047     		bx	lr
 251              	.L33:
 252              		.align	2
 253              	.L32:
 254 0008 00000000 		.word	.LANCHOR2
 255              		.cfi_endproc
 256              	.LFE214:
 257              		.size	get_start, .-get_start
 258 000c AFF30080 		.section	.text.get_shooting_event,"ax",%progbits
 259              		.align	2
 260              		.p2align 4,,15
 261              		.global	get_shooting_event
 262              		.thumb
 263              		.thumb_func
 264              		.type	get_shooting_event, %function
 265              	get_shooting_event:
 266              	.LFB215:
 267              		.loc 1 114 0
 268              		.cfi_startproc
 269              		@ args = 0, pretend = 0, frame = 0
 270              		@ frame_needed = 0, uses_anonymous_args = 0
 271              		@ link register save eliminated.
 272              		.loc 1 115 0
 273 0000 014B     		ldr	r3, .L35
 274              		.loc 1 116 0
 275 0002 B3F90A00 		ldrsh	r0, [r3, #10]
 276 0006 7047     		bx	lr
 277              	.L36:
 278              		.align	2
 279              	.L35:
 280 0008 00000000 		.word	.LANCHOR2
 281              		.cfi_endproc
 282              	.LFE215:
 283              		.size	get_shooting_event, .-get_shooting_event
 284 000c AFF30080 		.section	.text.process_value,"ax",%progbits
 285              		.align	2
ARM GAS  /tmp/ccgYicFQ.s 			page 6


 286              		.p2align 4,,15
 287              		.global	process_value
 288              		.thumb
 289              		.thumb_func
 290              		.type	process_value, %function
 291              	process_value:
 292              	.LFB216:
 293              		.loc 1 118 0
 294              		.cfi_startproc
 295              		@ args = 0, pretend = 0, frame = 0
 296              		@ frame_needed = 0, uses_anonymous_args = 0
 297              	.LVL7:
 298 0000 38B5     		push	{r3, r4, r5, lr}
 299              		.cfi_def_cfa_offset 16
 300              		.cfi_offset 3, -16
 301              		.cfi_offset 4, -12
 302              		.cfi_offset 5, -8
 303              		.cfi_offset 14, -4
 304              	.LBB10:
 305              	.LBB11:
 306              		.file 2 "/home/peter/ChibiOS_16.1.4/os/rt/include/chqueues.h"
 307              		.loc 2 343 0
 308 0002 1B48     		ldr	r0, .L49
 309              	.LVL8:
 310 0004 4FF0FF31 		mov	r1, #-1
 311 0008 FFF7FEFF 		bl	chIQGetTimeout
 312              	.LVL9:
 313              	.LBE11:
 314              	.LBE10:
 315              		.loc 1 121 0
 316 000c 194D     		ldr	r5, .L49+4
 317 000e C0B2     		uxtb	r0, r0
 318              		.loc 1 122 0
 319 0010 2B28     		cmp	r0, #43
 320              		.loc 1 121 0
 321 0012 2870     		strb	r0, [r5]
 322              		.loc 1 122 0
 323 0014 29D0     		beq	.L43
 324 0016 2D28     		cmp	r0, #45
 325 0018 27D0     		beq	.L43
 326 001a 0024     		movs	r4, #0
 327 001c 01E0     		b	.L41
 328              	.LVL10:
 329              	.L40:
 330              		.loc 1 122 0 is_stmt 0 discriminator 1
 331 001e 2D28     		cmp	r0, #45
 332 0020 19D0     		beq	.L48
 333              	.LVL11:
 334              	.L41:
 335              		.loc 1 123 0 is_stmt 1
 336 0022 2044     		add	r0, r0, r4
 337              	.LVL12:
 338 0024 3038     		subs	r0, r0, #48
 339              		.loc 1 124 0
 340 0026 00EB8004 		add	r4, r0, r0, lsl #2
 341              	.LBB12:
 342              	.LBB13:
ARM GAS  /tmp/ccgYicFQ.s 			page 7


 343              		.loc 2 343 0
 344 002a 4FF0FF31 		mov	r1, #-1
 345 002e 1048     		ldr	r0, .L49
 346              	.LVL13:
 347 0030 FFF7FEFF 		bl	chIQGetTimeout
 348              	.LVL14:
 349              	.LBE13:
 350              	.LBE12:
 351              		.loc 1 124 0
 352 0034 6400     		lsls	r4, r4, #1
 353              		.loc 1 125 0
 354 0036 C0B2     		uxtb	r0, r0
 355              		.loc 1 124 0
 356 0038 A4B2     		uxth	r4, r4
 357              		.loc 1 122 0
 358 003a 2B28     		cmp	r0, #43
 359              		.loc 1 124 0
 360 003c A4B2     		uxth	r4, r4
 361              	.LVL15:
 362              		.loc 1 125 0
 363 003e 2870     		strb	r0, [r5]
 364              		.loc 1 122 0
 365 0040 EDD1     		bne	.L40
 366 0042 0D48     		ldr	r0, .L49+8
 367 0044 24B2     		sxth	r4, r4
 368 0046 80FB0430 		smull	r3, r0, r0, r4
 369 004a E417     		asrs	r4, r4, #31
 370              	.LVL16:
 371 004c C4EBA000 		rsb	r0, r4, r0, asr #2
 372 0050 80B2     		uxth	r0, r0
 373              	.LVL17:
 374              	.L42:
 375 0052 00B2     		sxth	r0, r0
 376              		.loc 1 130 0
 377 0054 38BD     		pop	{r3, r4, r5, pc}
 378              	.LVL18:
 379              	.L48:
 380 0056 0848     		ldr	r0, .L49+8
 381 0058 24B2     		sxth	r4, r4
 382 005a 80FB0430 		smull	r3, r0, r0, r4
 383 005e E417     		asrs	r4, r4, #31
 384              	.LVL19:
 385 0060 A4EBA000 		sub	r0, r4, r0, asr #2
 386 0064 80B2     		uxth	r0, r0
 387 0066 00B2     		sxth	r0, r0
 388 0068 38BD     		pop	{r3, r4, r5, pc}
 389              	.LVL20:
 390              	.L43:
 391              		.loc 1 122 0
 392 006a 0020     		movs	r0, #0
 393 006c F1E7     		b	.L42
 394              	.L50:
 395 006e 00BF     		.align	2
 396              	.L49:
 397 0070 0C000000 		.word	SD4+12
 398 0074 00000000 		.word	.LANCHOR4
 399 0078 67666666 		.word	1717986919
ARM GAS  /tmp/ccgYicFQ.s 			page 8


 400              		.cfi_endproc
 401              	.LFE216:
 402              		.size	process_value, .-process_value
 403 007c AFF30080 		.section	.text.CameraReadThread,"ax",%progbits
 404              		.align	2
 405              		.p2align 4,,15
 406              		.global	CameraReadThread
 407              		.thumb
 408              		.thumb_func
 409              		.type	CameraReadThread, %function
 410              	CameraReadThread:
 411              	.LFB207:
 412              		.loc 1 22 0
 413              		.cfi_startproc
 414              		@ args = 0, pretend = 0, frame = 0
 415              		@ frame_needed = 0, uses_anonymous_args = 0
 416              	.LVL21:
 417 0000 2DE9F84F 		push	{r3, r4, r5, r6, r7, r8, r9, r10, fp, lr}
 418              		.cfi_def_cfa_offset 40
 419              		.cfi_offset 3, -40
 420              		.cfi_offset 4, -36
 421              		.cfi_offset 5, -32
 422              		.cfi_offset 6, -28
 423              		.cfi_offset 7, -24
 424              		.cfi_offset 8, -20
 425              		.cfi_offset 9, -16
 426              		.cfi_offset 10, -12
 427              		.cfi_offset 11, -8
 428              		.cfi_offset 14, -4
 429              		.loc 1 30 0
 430 0004 2A4F     		ldr	r7, .L74
 431              		.loc 1 29 0
 432 0006 4FF4D275 		mov	r5, #420
 433              		.loc 1 30 0
 434 000a 0023     		movs	r3, #0
 435              		.loc 1 28 0
 436 000c 2C46     		mov	r4, r5
 437              		.loc 1 27 0
 438 000e AA46     		mov	r10, r5
 439              		.loc 1 26 0
 440 0010 A946     		mov	r9, r5
 441 0012 DFF8A480 		ldr	r8, .L74+8
 442 0016 DFF8A4B0 		ldr	fp, .L74+12
 443              		.loc 1 30 0
 444 001a 3B81     		strh	r3, [r7, #8]	@ movhi
 445 001c 0AE0     		b	.L62
 446              	.LVL22:
 447              	.L73:
 448              		.loc 1 61 0
 449 001e 3146     		mov	r1, r6
 450 0020 DBF80000 		ldr	r0, [fp]
 451              		.loc 1 59 0
 452 0024 FD80     		strh	r5, [r7, #6]	@ movhi
 453              		.loc 1 58 0
 454 0026 BC80     		strh	r4, [r7, #4]	@ movhi
 455              		.loc 1 56 0
 456 0028 A7F80090 		strh	r9, [r7]	@ movhi
ARM GAS  /tmp/ccgYicFQ.s 			page 9


 457              		.loc 1 57 0
 458 002c A7F802A0 		strh	r10, [r7, #2]	@ movhi
 459              		.loc 1 61 0
 460 0030 FFF7FEFF 		bl	chMsgSend
 461              	.LVL23:
 462              	.L62:
 463 0034 0226     		movs	r6, #2
 464              	.LVL24:
 465              	.L61:
 466              	.LBB14:
 467              	.LBB15:
 468              		.loc 2 343 0
 469 0036 1F48     		ldr	r0, .L74+4
 470              	.LVL25:
 471 0038 4FF0FF31 		mov	r1, #-1
 472 003c FFF7FEFF 		bl	chIQGetTimeout
 473              	.LVL26:
 474              	.LBE15:
 475              	.LBE14:
 476              		.loc 1 34 0
 477 0040 C0B2     		uxtb	r0, r0
 478              		.loc 1 35 0
 479 0042 7828     		cmp	r0, #120
 480              		.loc 1 34 0
 481 0044 88F80000 		strb	r0, [r8]
 482              		.loc 1 35 0
 483 0048 18D0     		beq	.L65
 484              		.loc 1 37 0
 485 004a 7928     		cmp	r0, #121
 486 004c 1AD0     		beq	.L66
 487              		.loc 1 39 0
 488 004e 7A28     		cmp	r0, #122
 489 0050 20D0     		beq	.L67
 490              		.loc 1 41 0
 491 0052 6928     		cmp	r0, #105
 492 0054 22D0     		beq	.L68
 493              		.loc 1 43 0
 494 0056 7028     		cmp	r0, #112
 495 0058 0DD0     		beq	.L69
 496              		.loc 1 45 0
 497 005a 7328     		cmp	r0, #115
 498 005c 16D0     		beq	.L70
 499              		.loc 1 47 0
 500 005e 6B28     		cmp	r0, #107
 501 0060 23D0     		beq	.L71
 502              		.loc 1 49 0
 503 0062 6128     		cmp	r0, #97
 504 0064 1ED0     		beq	.L72
 505              		.loc 1 51 0
 506 0066 6228     		cmp	r0, #98
 507              		.loc 1 52 0
 508 0068 04BF     		itt	eq
 509 006a 0023     		moveq	r3, #0	@ movhi
 510 006c 7B81     		strheq	r3, [r7, #10]	@ movhi
 511              	.L53:
 512              	.LVL27:
 513              		.loc 1 33 0 discriminator 2
ARM GAS  /tmp/ccgYicFQ.s 			page 10


 514 006e 012E     		cmp	r6, #1
 515 0070 D5D0     		beq	.L73
 516 0072 0126     		movs	r6, #1
 517              	.LVL28:
 518 0074 DFE7     		b	.L61
 519              	.LVL29:
 520              	.L69:
 521              		.loc 1 44 0
 522 0076 0123     		movs	r3, #1
 523 0078 3B81     		strh	r3, [r7, #8]	@ movhi
 524 007a F8E7     		b	.L53
 525              	.L65:
 526              		.loc 1 36 0
 527 007c FFF7FEFF 		bl	process_value
 528              	.LVL30:
 529 0080 8146     		mov	r9, r0
 530              	.LVL31:
 531 0082 F4E7     		b	.L53
 532              	.LVL32:
 533              	.L66:
 534              		.loc 1 38 0
 535 0084 FFF7FEFF 		bl	process_value
 536              	.LVL33:
 537 0088 8246     		mov	r10, r0
 538              	.LVL34:
 539 008a F0E7     		b	.L53
 540              	.LVL35:
 541              	.L70:
 542              		.loc 1 46 0
 543 008c 4FF00003 		mov	r3, #0	@ movhi
 544 0090 3B81     		strh	r3, [r7, #8]	@ movhi
 545 0092 ECE7     		b	.L53
 546              	.L67:
 547              		.loc 1 40 0
 548 0094 FFF7FEFF 		bl	process_value
 549              	.LVL36:
 550 0098 0446     		mov	r4, r0
 551              	.LVL37:
 552 009a E8E7     		b	.L53
 553              	.LVL38:
 554              	.L68:
 555              		.loc 1 42 0
 556 009c FFF7FEFF 		bl	process_value
 557              	.LVL39:
 558 00a0 0546     		mov	r5, r0
 559              	.LVL40:
 560 00a2 E4E7     		b	.L53
 561              	.LVL41:
 562              	.L72:
 563              		.loc 1 50 0
 564 00a4 0123     		movs	r3, #1
 565 00a6 7B81     		strh	r3, [r7, #10]	@ movhi
 566 00a8 E1E7     		b	.L53
 567              	.L71:
 568              		.loc 1 48 0
 569 00aa FFF7FEFF 		bl	kick
 570              	.LVL42:
ARM GAS  /tmp/ccgYicFQ.s 			page 11


 571 00ae DEE7     		b	.L53
 572              	.L75:
 573              		.align	2
 574              	.L74:
 575 00b0 00000000 		.word	.LANCHOR0
 576 00b4 0C000000 		.word	SD4+12
 577 00b8 00000000 		.word	.LANCHOR4
 578 00bc 00000000 		.word	.LANCHOR3
 579              		.cfi_endproc
 580              	.LFE207:
 581              		.size	CameraReadThread, .-CameraReadThread
 582              		.section	.text.camera_init,"ax",%progbits
 583              		.align	2
 584              		.p2align 4,,15
 585              		.global	camera_init
 586              		.thumb
 587              		.thumb_func
 588              		.type	camera_init, %function
 589              	camera_init:
 590              	.LFB217:
 591              		.loc 1 132 0
 592              		.cfi_startproc
 593              		@ args = 0, pretend = 0, frame = 0
 594              		@ frame_needed = 0, uses_anonymous_args = 0
 595 0000 10B5     		push	{r4, lr}
 596              		.cfi_def_cfa_offset 8
 597              		.cfi_offset 4, -8
 598              		.cfi_offset 14, -4
 599              		.loc 1 133 0
 600 0002 0024     		movs	r4, #0
 601              		.loc 1 132 0
 602 0004 82B0     		sub	sp, sp, #8
 603              		.cfi_def_cfa_offset 16
 604              		.loc 1 133 0
 605 0006 0094     		str	r4, [sp]
 606 0008 4FF4A471 		mov	r1, #328
 607 000c 4022     		movs	r2, #64
 608 000e 094B     		ldr	r3, .L78
 609 0010 0948     		ldr	r0, .L78+4
 610 0012 FFF7FEFF 		bl	chThdCreateStatic
 611              	.LVL43:
 612 0016 094B     		ldr	r3, .L78+8
 613              		.loc 1 134 0
 614 0018 0094     		str	r4, [sp]
 615 001a 4FF4A471 		mov	r1, #328
 616              		.loc 1 133 0
 617 001e 1860     		str	r0, [r3]
 618              		.loc 1 134 0
 619 0020 4022     		movs	r2, #64
 620 0022 074B     		ldr	r3, .L78+12
 621 0024 0748     		ldr	r0, .L78+16
 622 0026 FFF7FEFF 		bl	chThdCreateStatic
 623              	.LVL44:
 624 002a 074B     		ldr	r3, .L78+20
 625 002c 1860     		str	r0, [r3]
 626              		.loc 1 135 0
 627 002e 02B0     		add	sp, sp, #8
ARM GAS  /tmp/ccgYicFQ.s 			page 12


 628              		.cfi_def_cfa_offset 8
 629              		@ sp needed
 630 0030 10BD     		pop	{r4, pc}
 631              	.L79:
 632 0032 00BF     		.align	2
 633              	.L78:
 634 0034 00000000 		.word	CameraReadThread
 635 0038 00000000 		.word	.LANCHOR5
 636 003c 00000000 		.word	.LANCHOR6
 637 0040 00000000 		.word	CameraProcessThread
 638 0044 00000000 		.word	.LANCHOR7
 639 0048 00000000 		.word	.LANCHOR3
 640              		.cfi_endproc
 641              	.LFE217:
 642              		.size	camera_init, .-camera_init
 643              		.global	waCameraProcessThread
 644              		.global	waCameraReadThread
 645              		.global	current_value
 646              		.global	camera_values
 647              		.global	camera_actual_values
 648              		.global	camera_read_values
 649              		.global	camera_process_thread
 650              		.global	camera_read_thread
 651              		.section	.bss.current_value,"aw",%nobits
 652              		.set	.LANCHOR4,. + 0
 653              		.type	current_value, %object
 654              		.size	current_value, 1
 655              	current_value:
 656 0000 00       		.space	1
 657              		.section	.bss.camera_actual_values,"aw",%nobits
 658              		.align	2
 659              		.set	.LANCHOR1,. + 0
 660              		.type	camera_actual_values, %object
 661              		.size	camera_actual_values, 12
 662              	camera_actual_values:
 663 0000 00000000 		.space	12
 663      00000000 
 663      00000000 
 664              		.section	.bss.waCameraProcessThread,"aw",%nobits
 665              		.align	3
 666              		.set	.LANCHOR7,. + 0
 667              		.type	waCameraProcessThread, %object
 668              		.size	waCameraProcessThread, 328
 669              	waCameraProcessThread:
 670 0000 00000000 		.space	328
 670      00000000 
 670      00000000 
 670      00000000 
 670      00000000 
 671              		.section	.bss.camera_process_thread,"aw",%nobits
 672              		.align	2
 673              		.set	.LANCHOR3,. + 0
 674              		.type	camera_process_thread, %object
 675              		.size	camera_process_thread, 4
 676              	camera_process_thread:
 677 0000 00000000 		.space	4
 678              		.section	.bss.camera_read_thread,"aw",%nobits
ARM GAS  /tmp/ccgYicFQ.s 			page 13


 679              		.align	2
 680              		.set	.LANCHOR6,. + 0
 681              		.type	camera_read_thread, %object
 682              		.size	camera_read_thread, 4
 683              	camera_read_thread:
 684 0000 00000000 		.space	4
 685              		.section	.bss.waCameraReadThread,"aw",%nobits
 686              		.align	3
 687              		.set	.LANCHOR5,. + 0
 688              		.type	waCameraReadThread, %object
 689              		.size	waCameraReadThread, 328
 690              	waCameraReadThread:
 691 0000 00000000 		.space	328
 691      00000000 
 691      00000000 
 691      00000000 
 691      00000000 
 692              		.section	.bss.camera_values,"aw",%nobits
 693              		.align	2
 694              		.set	.LANCHOR2,. + 0
 695              		.type	camera_values, %object
 696              		.size	camera_values, 12
 697              	camera_values:
 698 0000 00000000 		.space	12
 698      00000000 
 698      00000000 
 699              		.section	.bss.camera_read_values,"aw",%nobits
 700              		.align	2
 701              		.set	.LANCHOR0,. + 0
 702              		.type	camera_read_values, %object
 703              		.size	camera_read_values, 12
 704              	camera_read_values:
 705 0000 00000000 		.space	12
 705      00000000 
 705      00000000 
 706              		.text
 707              	.Letext0:
 708              		.file 3 "/usr/lib/gcc/arm-none-eabi/4.9.3/include/stddef.h"
 709              		.file 4 "/usr/include/newlib/machine/_default_types.h"
 710              		.file 5 "/usr/include/newlib/stdint.h"
 711              		.file 6 "/home/peter/ChibiOS_16.1.4/os/rt/ports/ARMCMx/compilers/GCC/chtypes.h"
 712              		.file 7 "/home/peter/ChibiOS_16.1.4/os/rt/include/chsystypes.h"
 713              		.file 8 "/home/peter/ChibiOS_16.1.4/os/rt/include/chschd.h"
 714              		.file 9 "/home/peter/ChibiOS_16.1.4/os/ext/CMSIS/ST/STM32F2xx/stm32f205xx.h"
 715              		.file 10 "/home/peter/ChibiOS_16.1.4/os/rt/ports/ARMCMx/chcore.h"
 716              		.file 11 "/home/peter/ChibiOS_16.1.4/os/rt/ports/ARMCMx/chcore_v7m.h"
 717              		.file 12 "/home/peter/ChibiOS_16.1.4/os/rt/include/chtm.h"
 718              		.file 13 "/home/peter/ChibiOS_16.1.4/os/rt/include/chsem.h"
 719              		.file 14 "/home/peter/ChibiOS_16.1.4/os/rt/include/chmtx.h"
 720              		.file 15 "/home/peter/ChibiOS_16.1.4/os/rt/include/chthreads.h"
 721              		.file 16 "/home/peter/ChibiOS_16.1.4/os/rt/include/chevents.h"
 722              		.file 17 "/home/peter/ChibiOS_16.1.4/os/hal/include/serial.h"
 723              		.file 18 "/home/peter/ChibiOS_16.1.4/os/rt/include/chmsg.h"
 724              		.file 19 "/home/peter/ChibiOS_16.1.4/os/hal/ports/STM32/LLD/USARTv1/serial_lld.h"
 725              		.file 20 "/home/peter/ChibiOS_16.1.4/os/ext/CMSIS/include/core_cm3.h"
 726              		.file 21 "kicker.h"