ARM GAS  /tmp/ccxaZjUR.s 			page 1


   1              		.syntax unified
   2              		.cpu cortex-m3
   3              		.fpu softvfp
   4              		.eabi_attribute 20, 1
   5              		.eabi_attribute 21, 1
   6              		.eabi_attribute 23, 3
   7              		.eabi_attribute 24, 1
   8              		.eabi_attribute 25, 1
   9              		.eabi_attribute 26, 1
  10              		.eabi_attribute 30, 2
  11              		.eabi_attribute 34, 1
  12              		.eabi_attribute 18, 4
  13              		.thumb
  14              		.file	"chcore_v7m.c"
  15              		.text
  16              	.Ltext0:
  17              		.cfi_sections	.debug_frame
  18              		.section	.text.SVC_Handler,"ax",%progbits
  19              		.align	2
  20              		.p2align 4,,15
  21              		.global	SVC_Handler
  22              		.thumb
  23              		.thumb_func
  24              		.type	SVC_Handler, %function
  25              	SVC_Handler:
  26              	.LFB170:
  27              		.file 1 "/home/peter/ChibiOS_16.1.4/os/rt/ports/ARMCMx/chcore_v7m.c"
  28              		.loc 1 62 0
  29              		.cfi_startproc
  30              		@ args = 0, pretend = 0, frame = 0
  31              		@ frame_needed = 0, uses_anonymous_args = 0
  32              		@ link register save eliminated.
  33              	.LBB38:
  34              	.LBB39:
  35              		.file 2 "/home/peter/ChibiOS_16.1.4/os/ext/CMSIS/include/core_cmFunc.h"
  36              		.loc 2 430 0
  37              	@ 430 "/home/peter/ChibiOS_16.1.4/os/ext/CMSIS/include/core_cmFunc.h" 1
  38 0000 EFF30983 		MRS r3, psp
  39              	
  40              	@ 0 "" 2
  41              	.LVL0:
  42              		.thumb
  43              	.LBE39:
  44              	.LBE38:
  45              		.loc 1 76 0
  46 0004 2033     		adds	r3, r3, #32
  47              	.LVL1:
  48              	.LBB40:
  49              	.LBB41:
  50              		.loc 2 443 0
  51              	@ 443 "/home/peter/ChibiOS_16.1.4/os/ext/CMSIS/include/core_cmFunc.h" 1
  52 0006 83F30988 		MSR psp, r3
  53              	
  54              	@ 0 "" 2
  55              	.LVL2:
  56              		.thumb
  57              	.LBE41:
ARM GAS  /tmp/ccxaZjUR.s 			page 2


  58              	.LBE40:
  59              	.LBB42:
  60              	.LBB43:
  61              	.LBB44:
  62              	.LBB45:
  63              		.loc 2 548 0
  64 000a 0023     		movs	r3, #0
  65              	.LVL3:
  66              	@ 548 "/home/peter/ChibiOS_16.1.4/os/ext/CMSIS/include/core_cmFunc.h" 1
  67 000c 83F31188 		MSR basepri, r3
  68              	@ 0 "" 2
  69              		.thumb
  70 0010 7047     		bx	lr
  71              	.LBE45:
  72              	.LBE44:
  73              	.LBE43:
  74              	.LBE42:
  75              		.cfi_endproc
  76              	.LFE170:
  77              		.size	SVC_Handler, .-SVC_Handler
  78 0012 00BFAFF3 		.section	.text._port_irq_epilogue,"ax",%progbits
  78      0080AFF3 
  78      0080AFF3 
  78      0080
  79              		.align	2
  80              		.p2align 4,,15
  81              		.global	_port_irq_epilogue
  82              		.thumb
  83              		.thumb_func
  84              		.type	_port_irq_epilogue, %function
  85              	_port_irq_epilogue:
  86              	.LFB171:
  87              		.loc 1 122 0
  88              		.cfi_startproc
  89              		@ args = 0, pretend = 0, frame = 0
  90              		@ frame_needed = 0, uses_anonymous_args = 0
  91              	.LVL4:
  92              	.LBB46:
  93              	.LBB47:
  94              	.LBB48:
  95              	.LBB49:
  96              		.loc 2 548 0
  97 0000 2023     		movs	r3, #32
  98              	@ 548 "/home/peter/ChibiOS_16.1.4/os/ext/CMSIS/include/core_cmFunc.h" 1
  99 0002 83F31188 		MSR basepri, r3
 100              	@ 0 "" 2
 101              		.thumb
 102              	.LBE49:
 103              	.LBE48:
 104              	.LBE47:
 105              	.LBE46:
 106              		.loc 1 125 0
 107 0006 0F4B     		ldr	r3, .L10
 108 0008 5B68     		ldr	r3, [r3, #4]
 109 000a 13F40063 		ands	r3, r3, #2048
 110 000e 02D1     		bne	.L9
 111              	.LVL5:
ARM GAS  /tmp/ccxaZjUR.s 			page 3


 112              	.LBB50:
 113              	.LBB51:
 114              	.LBB52:
 115              	.LBB53:
 116              		.loc 2 548 0
 117              	@ 548 "/home/peter/ChibiOS_16.1.4/os/ext/CMSIS/include/core_cmFunc.h" 1
 118 0010 83F31188 		MSR basepri, r3
 119              	@ 0 "" 2
 120              		.thumb
 121 0014 7047     		bx	lr
 122              	.LVL6:
 123              	.L9:
 124              	.LBE53:
 125              	.LBE52:
 126              	.LBE51:
 127              	.LBE50:
 128              		.loc 1 122 0
 129 0016 10B5     		push	{r4, lr}
 130              		.cfi_def_cfa_offset 8
 131              		.cfi_offset 4, -8
 132              		.cfi_offset 14, -4
 133              	.LBB54:
 134              	.LBB55:
 135              	.LBB56:
 136              		.loc 2 430 0
 137              	@ 430 "/home/peter/ChibiOS_16.1.4/os/ext/CMSIS/include/core_cmFunc.h" 1
 138 0018 EFF30984 		MRS r4, psp
 139              	
 140              	@ 0 "" 2
 141              	.LVL7:
 142              		.thumb
 143              	.LBE56:
 144              	.LBE55:
 145              		.loc 1 141 0
 146 001c 4FF08073 		mov	r3, #16777216
 147 0020 44F8043C 		str	r3, [r4, #-4]
 148              	.LVL8:
 149              		.loc 1 138 0
 150 0024 A4F12003 		sub	r3, r4, #32
 151              	.LVL9:
 152              	.LBB57:
 153              	.LBB58:
 154              		.loc 2 443 0
 155              	@ 443 "/home/peter/ChibiOS_16.1.4/os/ext/CMSIS/include/core_cmFunc.h" 1
 156 0028 83F30988 		MSR psp, r3
 157              	
 158              	@ 0 "" 2
 159              		.thumb
 160              	.LBE58:
 161              	.LBE57:
 162              		.loc 1 151 0
 163 002c FFF7FEFF 		bl	chSchIsPreemptionRequired
 164              	.LVL10:
 165 0030 18B1     		cbz	r0, .L4
 166              		.loc 1 153 0
 167 0032 054B     		ldr	r3, .L10+4
 168 0034 44F8083C 		str	r3, [r4, #-8]
ARM GAS  /tmp/ccxaZjUR.s 			page 4


 169 0038 10BD     		pop	{r4, pc}
 170              	.LVL11:
 171              	.L4:
 172              		.loc 1 158 0
 173 003a 044B     		ldr	r3, .L10+8
 174 003c 44F8083C 		str	r3, [r4, #-8]
 175 0040 10BD     		pop	{r4, pc}
 176              	.LVL12:
 177              	.L11:
 178 0042 00BF     		.align	2
 179              	.L10:
 180 0044 00ED00E0 		.word	-536810240
 181 0048 00000000 		.word	_port_switch_from_isr
 182 004c 00000000 		.word	_port_exit_from_isr
 183              	.LBE54:
 184              		.cfi_endproc
 185              	.LFE171:
 186              		.size	_port_irq_epilogue, .-_port_irq_epilogue
 187              		.text
 188              	.Letext0:
 189              		.file 3 "/usr/include/newlib/machine/_default_types.h"
 190              		.file 4 "/usr/include/newlib/stdint.h"
 191              		.file 5 "/home/peter/ChibiOS_16.1.4/os/rt/ports/ARMCMx/compilers/GCC/chtypes.h"
 192              		.file 6 "/home/peter/ChibiOS_16.1.4/os/rt/include/chsystypes.h"
 193              		.file 7 "/home/peter/ChibiOS_16.1.4/os/rt/include/chschd.h"
 194              		.file 8 "/home/peter/ChibiOS_16.1.4/os/ext/CMSIS/include/core_cm3.h"
 195              		.file 9 "/home/peter/ChibiOS_16.1.4/os/rt/ports/ARMCMx/chcore.h"
 196              		.file 10 "/home/peter/ChibiOS_16.1.4/os/rt/ports/ARMCMx/chcore_v7m.h"
 197              		.file 11 "/home/peter/ChibiOS_16.1.4/os/rt/include/chtm.h"
 198              		.file 12 "/home/peter/ChibiOS_16.1.4/os/rt/include/chsem.h"
 199              		.file 13 "/home/peter/ChibiOS_16.1.4/os/rt/include/chmtx.h"
 200              		.section	.debug_info,"",%progbits
 201              	.Ldebug_info0:
 202 0000 6A0A0000 		.4byte	0xa6a
 203 0004 0400     		.2byte	0x4
 204 0006 00000000 		.4byte	.Ldebug_abbrev0
 205 000a 04       		.byte	0x4
 206 000b 01       		.uleb128 0x1
 207 000c 7B040000 		.4byte	.LASF135
 208 0010 01       		.byte	0x1
 209 0011 08010000 		.4byte	.LASF136
 210 0015 00000000 		.4byte	.Ldebug_ranges0+0
 211 0019 00000000 		.4byte	0
 212 001d 00000000 		.4byte	.Ldebug_line0
 213 0021 02       		.uleb128 0x2
 214 0022 04       		.byte	0x4
 215 0023 05       		.byte	0x5
 216 0024 696E7400 		.ascii	"int\000"
 217 0028 03       		.uleb128 0x3
 218 0029 04       		.byte	0x4
 219 002a 07       		.byte	0x7
 220 002b D8010000 		.4byte	.LASF0
 221 002f 03       		.uleb128 0x3
 222 0030 01       		.byte	0x1
 223 0031 06       		.byte	0x6
 224 0032 CA000000 		.4byte	.LASF1
 225 0036 04       		.uleb128 0x4
ARM GAS  /tmp/ccxaZjUR.s 			page 5


 226 0037 23000000 		.4byte	.LASF5
 227 003b 03       		.byte	0x3
 228 003c 1D       		.byte	0x1d
 229 003d 41000000 		.4byte	0x41
 230 0041 03       		.uleb128 0x3
 231 0042 01       		.byte	0x1
 232 0043 08       		.byte	0x8
 233 0044 80030000 		.4byte	.LASF2
 234 0048 03       		.uleb128 0x3
 235 0049 02       		.byte	0x2
 236 004a 05       		.byte	0x5
 237 004b AB030000 		.4byte	.LASF3
 238 004f 03       		.uleb128 0x3
 239 0050 02       		.byte	0x2
 240 0051 07       		.byte	0x7
 241 0052 E9030000 		.4byte	.LASF4
 242 0056 04       		.uleb128 0x4
 243 0057 7E020000 		.4byte	.LASF6
 244 005b 03       		.byte	0x3
 245 005c 3F       		.byte	0x3f
 246 005d 61000000 		.4byte	0x61
 247 0061 03       		.uleb128 0x3
 248 0062 04       		.byte	0x4
 249 0063 05       		.byte	0x5
 250 0064 4D010000 		.4byte	.LASF7
 251 0068 04       		.uleb128 0x4
 252 0069 7F050000 		.4byte	.LASF8
 253 006d 03       		.byte	0x3
 254 006e 41       		.byte	0x41
 255 006f 73000000 		.4byte	0x73
 256 0073 03       		.uleb128 0x3
 257 0074 04       		.byte	0x4
 258 0075 07       		.byte	0x7
 259 0076 69040000 		.4byte	.LASF9
 260 007a 03       		.uleb128 0x3
 261 007b 08       		.byte	0x8
 262 007c 05       		.byte	0x5
 263 007d BC000000 		.4byte	.LASF10
 264 0081 04       		.uleb128 0x4
 265 0082 21030000 		.4byte	.LASF11
 266 0086 03       		.byte	0x3
 267 0087 5B       		.byte	0x5b
 268 0088 8C000000 		.4byte	0x8c
 269 008c 03       		.uleb128 0x3
 270 008d 08       		.byte	0x8
 271 008e 07       		.byte	0x7
 272 008f 52000000 		.4byte	.LASF12
 273 0093 04       		.uleb128 0x4
 274 0094 14060000 		.4byte	.LASF13
 275 0098 04       		.byte	0x4
 276 0099 15       		.byte	0x15
 277 009a 36000000 		.4byte	0x36
 278 009e 04       		.uleb128 0x4
 279 009f 78030000 		.4byte	.LASF14
 280 00a3 04       		.byte	0x4
 281 00a4 2C       		.byte	0x2c
 282 00a5 56000000 		.4byte	0x56
ARM GAS  /tmp/ccxaZjUR.s 			page 6


 283 00a9 04       		.uleb128 0x4
 284 00aa 38040000 		.4byte	.LASF15
 285 00ae 04       		.byte	0x4
 286 00af 2D       		.byte	0x2d
 287 00b0 68000000 		.4byte	0x68
 288 00b4 04       		.uleb128 0x4
 289 00b5 1A000000 		.4byte	.LASF16
 290 00b9 04       		.byte	0x4
 291 00ba 39       		.byte	0x39
 292 00bb 81000000 		.4byte	0x81
 293 00bf 04       		.uleb128 0x4
 294 00c0 BD050000 		.4byte	.LASF17
 295 00c4 05       		.byte	0x5
 296 00c5 39       		.byte	0x39
 297 00c6 A9000000 		.4byte	0xa9
 298 00ca 04       		.uleb128 0x4
 299 00cb 4D020000 		.4byte	.LASF18
 300 00cf 05       		.byte	0x5
 301 00d0 3C       		.byte	0x3c
 302 00d1 93000000 		.4byte	0x93
 303 00d5 04       		.uleb128 0x4
 304 00d6 56010000 		.4byte	.LASF19
 305 00da 05       		.byte	0x5
 306 00db 3D       		.byte	0x3d
 307 00dc 93000000 		.4byte	0x93
 308 00e0 04       		.uleb128 0x4
 309 00e1 2C030000 		.4byte	.LASF20
 310 00e5 05       		.byte	0x5
 311 00e6 3E       		.byte	0x3e
 312 00e7 93000000 		.4byte	0x93
 313 00eb 04       		.uleb128 0x4
 314 00ec FE000000 		.4byte	.LASF21
 315 00f0 05       		.byte	0x5
 316 00f1 3F       		.byte	0x3f
 317 00f2 93000000 		.4byte	0x93
 318 00f6 04       		.uleb128 0x4
 319 00f7 5A030000 		.4byte	.LASF22
 320 00fb 05       		.byte	0x5
 321 00fc 40       		.byte	0x40
 322 00fd A9000000 		.4byte	0xa9
 323 0101 04       		.uleb128 0x4
 324 0102 23020000 		.4byte	.LASF23
 325 0106 05       		.byte	0x5
 326 0107 41       		.byte	0x41
 327 0108 9E000000 		.4byte	0x9e
 328 010c 04       		.uleb128 0x4
 329 010d 63020000 		.4byte	.LASF24
 330 0111 05       		.byte	0x5
 331 0112 43       		.byte	0x43
 332 0113 A9000000 		.4byte	0xa9
 333 0117 04       		.uleb128 0x4
 334 0118 D2010000 		.4byte	.LASF25
 335 011c 05       		.byte	0x5
 336 011d 45       		.byte	0x45
 337 011e 9E000000 		.4byte	0x9e
 338 0122 04       		.uleb128 0x4
 339 0123 61050000 		.4byte	.LASF26
ARM GAS  /tmp/ccxaZjUR.s 			page 7


 340 0127 06       		.byte	0x6
 341 0128 33       		.byte	0x33
 342 0129 A9000000 		.4byte	0xa9
 343 012d 04       		.uleb128 0x4
 344 012e 51050000 		.4byte	.LASF27
 345 0132 06       		.byte	0x6
 346 0133 3F       		.byte	0x3f
 347 0134 38010000 		.4byte	0x138
 348 0138 05       		.uleb128 0x5
 349 0139 14020000 		.4byte	.LASF48
 350 013d 44       		.byte	0x44
 351 013e 07       		.byte	0x7
 352 013f C2       		.byte	0xc2
 353 0140 31020000 		.4byte	0x231
 354 0144 06       		.uleb128 0x6
 355 0145 DA030000 		.4byte	.LASF28
 356 0149 07       		.byte	0x7
 357 014a C3       		.byte	0xc3
 358 014b 3C020000 		.4byte	0x23c
 359 014f 00       		.byte	0
 360 0150 06       		.uleb128 0x6
 361 0151 53030000 		.4byte	.LASF29
 362 0155 07       		.byte	0x7
 363 0156 C5       		.byte	0xc5
 364 0157 3C020000 		.4byte	0x23c
 365 015b 04       		.byte	0x4
 366 015c 06       		.uleb128 0x6
 367 015d AA000000 		.4byte	.LASF30
 368 0161 07       		.byte	0x7
 369 0162 C7       		.byte	0xc7
 370 0163 F6000000 		.4byte	0xf6
 371 0167 08       		.byte	0x8
 372 0168 06       		.uleb128 0x6
 373 0169 4A060000 		.4byte	.LASF31
 374 016d 07       		.byte	0x7
 375 016e C8       		.byte	0xc8
 376 016f 00060000 		.4byte	0x600
 377 0173 0C       		.byte	0xc
 378 0174 06       		.uleb128 0x6
 379 0175 79010000 		.4byte	.LASF32
 380 0179 07       		.byte	0x7
 381 017a CA       		.byte	0xca
 382 017b 3C020000 		.4byte	0x23c
 383 017f 10       		.byte	0x10
 384 0180 06       		.uleb128 0x6
 385 0181 E4020000 		.4byte	.LASF33
 386 0185 07       		.byte	0x7
 387 0186 CB       		.byte	0xcb
 388 0187 3C020000 		.4byte	0x23c
 389 018b 14       		.byte	0x14
 390 018c 06       		.uleb128 0x6
 391 018d 23060000 		.4byte	.LASF34
 392 0191 07       		.byte	0x7
 393 0192 D2       		.byte	0xd2
 394 0193 E7070000 		.4byte	0x7e7
 395 0197 18       		.byte	0x18
 396 0198 06       		.uleb128 0x6
ARM GAS  /tmp/ccxaZjUR.s 			page 8


 397 0199 B5030000 		.4byte	.LASF35
 398 019d 07       		.byte	0x7
 399 019e DD       		.byte	0xdd
 400 019f D5000000 		.4byte	0xd5
 401 01a3 1C       		.byte	0x1c
 402 01a4 06       		.uleb128 0x6
 403 01a5 E1030000 		.4byte	.LASF36
 404 01a9 07       		.byte	0x7
 405 01aa E1       		.byte	0xe1
 406 01ab CA000000 		.4byte	0xca
 407 01af 1D       		.byte	0x1d
 408 01b0 06       		.uleb128 0x6
 409 01b1 02060000 		.4byte	.LASF37
 410 01b5 07       		.byte	0x7
 411 01b6 E6       		.byte	0xe6
 412 01b7 E0000000 		.4byte	0xe0
 413 01bb 1E       		.byte	0x1e
 414 01bc 06       		.uleb128 0x6
 415 01bd BD030000 		.4byte	.LASF38
 416 01c1 07       		.byte	0x7
 417 01c2 EC       		.byte	0xec
 418 01c3 EB000000 		.4byte	0xeb
 419 01c7 1F       		.byte	0x1f
 420 01c8 07       		.uleb128 0x7
 421 01c9 705F7500 		.ascii	"p_u\000"
 422 01cd 07       		.byte	0x7
 423 01ce 3101     		.2byte	0x131
 424 01d0 22070000 		.4byte	0x722
 425 01d4 20       		.byte	0x20
 426 01d5 08       		.uleb128 0x8
 427 01d6 A2020000 		.4byte	.LASF39
 428 01da 07       		.byte	0x7
 429 01db 3601     		.2byte	0x136
 430 01dd 42020000 		.4byte	0x242
 431 01e1 24       		.byte	0x24
 432 01e2 08       		.uleb128 0x8
 433 01e3 FE010000 		.4byte	.LASF40
 434 01e7 07       		.byte	0x7
 435 01e8 3C01     		.2byte	0x13c
 436 01ea 66020000 		.4byte	0x266
 437 01ee 28       		.byte	0x28
 438 01ef 08       		.uleb128 0x8
 439 01f0 2A060000 		.4byte	.LASF41
 440 01f4 07       		.byte	0x7
 441 01f5 4001     		.2byte	0x140
 442 01f7 01010000 		.4byte	0x101
 443 01fb 30       		.byte	0x30
 444 01fc 08       		.uleb128 0x8
 445 01fd 2D040000 		.4byte	.LASF42
 446 0201 07       		.byte	0x7
 447 0202 4601     		.2byte	0x146
 448 0204 0C010000 		.4byte	0x10c
 449 0208 34       		.byte	0x34
 450 0209 08       		.uleb128 0x8
 451 020a A1030000 		.4byte	.LASF43
 452 020e 07       		.byte	0x7
 453 020f 4D01     		.2byte	0x14d
ARM GAS  /tmp/ccxaZjUR.s 			page 9


 454 0211 E1070000 		.4byte	0x7e1
 455 0215 38       		.byte	0x38
 456 0216 08       		.uleb128 0x8
 457 0217 6B050000 		.4byte	.LASF44
 458 021b 07       		.byte	0x7
 459 021c 5101     		.2byte	0x151
 460 021e F6000000 		.4byte	0xf6
 461 0222 3C       		.byte	0x3c
 462 0223 08       		.uleb128 0x8
 463 0224 D6000000 		.4byte	.LASF45
 464 0228 07       		.byte	0x7
 465 0229 5801     		.2byte	0x158
 466 022b 19030000 		.4byte	0x319
 467 022f 40       		.byte	0x40
 468 0230 00       		.byte	0
 469 0231 04       		.uleb128 0x4
 470 0232 B5020000 		.4byte	.LASF46
 471 0236 06       		.byte	0x6
 472 0237 44       		.byte	0x44
 473 0238 3C020000 		.4byte	0x23c
 474 023c 09       		.uleb128 0x9
 475 023d 04       		.byte	0x4
 476 023e 2D010000 		.4byte	0x12d
 477 0242 04       		.uleb128 0x4
 478 0243 93020000 		.4byte	.LASF47
 479 0247 06       		.byte	0x6
 480 0248 49       		.byte	0x49
 481 0249 4D020000 		.4byte	0x24d
 482 024d 05       		.uleb128 0x5
 483 024e 59040000 		.4byte	.LASF49
 484 0252 04       		.byte	0x4
 485 0253 07       		.byte	0x7
 486 0254 B0       		.byte	0xb0
 487 0255 66020000 		.4byte	0x266
 488 0259 06       		.uleb128 0x6
 489 025a DA030000 		.4byte	.LASF28
 490 025e 07       		.byte	0x7
 491 025f B1       		.byte	0xb1
 492 0260 3C020000 		.4byte	0x23c
 493 0264 00       		.byte	0
 494 0265 00       		.byte	0
 495 0266 04       		.uleb128 0x4
 496 0267 E9050000 		.4byte	.LASF50
 497 026b 06       		.byte	0x6
 498 026c 50       		.byte	0x50
 499 026d 71020000 		.4byte	0x271
 500 0271 05       		.uleb128 0x5
 501 0272 99000000 		.4byte	.LASF51
 502 0276 08       		.byte	0x8
 503 0277 07       		.byte	0x7
 504 0278 B7       		.byte	0xb7
 505 0279 96020000 		.4byte	0x296
 506 027d 06       		.uleb128 0x6
 507 027e DA030000 		.4byte	.LASF28
 508 0282 07       		.byte	0x7
 509 0283 B8       		.byte	0xb8
 510 0284 3C020000 		.4byte	0x23c
ARM GAS  /tmp/ccxaZjUR.s 			page 10


 511 0288 00       		.byte	0
 512 0289 06       		.uleb128 0x6
 513 028a 53030000 		.4byte	.LASF29
 514 028e 07       		.byte	0x7
 515 028f B9       		.byte	0xb9
 516 0290 3C020000 		.4byte	0x23c
 517 0294 04       		.byte	0x4
 518 0295 00       		.byte	0
 519 0296 04       		.uleb128 0x4
 520 0297 00000000 		.4byte	.LASF52
 521 029b 06       		.byte	0x6
 522 029c 57       		.byte	0x57
 523 029d A1020000 		.4byte	0x2a1
 524 02a1 0A       		.uleb128 0xa
 525 02a2 55020000 		.4byte	.LASF53
 526 02a6 1C       		.byte	0x1c
 527 02a7 07       		.byte	0x7
 528 02a8 9001     		.2byte	0x190
 529 02aa FD020000 		.4byte	0x2fd
 530 02ae 08       		.uleb128 0x8
 531 02af 48040000 		.4byte	.LASF54
 532 02b3 07       		.byte	0x7
 533 02b4 9101     		.2byte	0x191
 534 02b6 66020000 		.4byte	0x266
 535 02ba 00       		.byte	0
 536 02bb 08       		.uleb128 0x8
 537 02bc CC030000 		.4byte	.LASF55
 538 02c0 07       		.byte	0x7
 539 02c1 9201     		.2byte	0x192
 540 02c3 F6000000 		.4byte	0xf6
 541 02c7 08       		.byte	0x8
 542 02c8 08       		.uleb128 0x8
 543 02c9 EC020000 		.4byte	.LASF56
 544 02cd 07       		.byte	0x7
 545 02ce 9401     		.2byte	0x194
 546 02d0 00060000 		.4byte	0x600
 547 02d4 0C       		.byte	0xc
 548 02d5 08       		.uleb128 0x8
 549 02d6 93010000 		.4byte	.LASF57
 550 02da 07       		.byte	0x7
 551 02db 9701     		.2byte	0x197
 552 02dd 3C020000 		.4byte	0x23c
 553 02e1 10       		.byte	0x10
 554 02e2 08       		.uleb128 0x8
 555 02e3 19030000 		.4byte	.LASF58
 556 02e7 07       		.byte	0x7
 557 02e8 9801     		.2byte	0x198
 558 02ea 3C020000 		.4byte	0x23c
 559 02ee 14       		.byte	0x14
 560 02ef 08       		.uleb128 0x8
 561 02f0 0F030000 		.4byte	.LASF59
 562 02f4 07       		.byte	0x7
 563 02f5 9B01     		.2byte	0x19b
 564 02f7 3C020000 		.4byte	0x23c
 565 02fb 18       		.byte	0x18
 566 02fc 00       		.byte	0
 567 02fd 04       		.uleb128 0x4
ARM GAS  /tmp/ccxaZjUR.s 			page 11


 568 02fe 76050000 		.4byte	.LASF60
 569 0302 06       		.byte	0x6
 570 0303 5C       		.byte	0x5c
 571 0304 08030000 		.4byte	0x308
 572 0308 09       		.uleb128 0x9
 573 0309 04       		.byte	0x4
 574 030a 0E030000 		.4byte	0x30e
 575 030e 0B       		.uleb128 0xb
 576 030f 19030000 		.4byte	0x319
 577 0313 0C       		.uleb128 0xc
 578 0314 19030000 		.4byte	0x319
 579 0318 00       		.byte	0
 580 0319 0D       		.uleb128 0xd
 581 031a 04       		.byte	0x4
 582 031b 04       		.uleb128 0x4
 583 031c 43030000 		.4byte	.LASF61
 584 0320 06       		.byte	0x6
 585 0321 61       		.byte	0x61
 586 0322 26030000 		.4byte	0x326
 587 0326 0A       		.uleb128 0xa
 588 0327 0F040000 		.4byte	.LASF62
 589 032b 14       		.byte	0x14
 590 032c 07       		.byte	0x7
 591 032d 6B01     		.2byte	0x16b
 592 032f 75030000 		.4byte	0x375
 593 0333 08       		.uleb128 0x8
 594 0334 EF010000 		.4byte	.LASF63
 595 0338 07       		.byte	0x7
 596 0339 6C01     		.2byte	0x16c
 597 033b F9070000 		.4byte	0x7f9
 598 033f 00       		.byte	0
 599 0340 08       		.uleb128 0x8
 600 0341 A4010000 		.4byte	.LASF64
 601 0345 07       		.byte	0x7
 602 0346 6D01     		.2byte	0x16d
 603 0348 F9070000 		.4byte	0x7f9
 604 034c 04       		.byte	0x4
 605 034d 08       		.uleb128 0x8
 606 034e 50040000 		.4byte	.LASF65
 607 0352 07       		.byte	0x7
 608 0353 6E01     		.2byte	0x16e
 609 0355 22010000 		.4byte	0x122
 610 0359 08       		.byte	0x8
 611 035a 08       		.uleb128 0x8
 612 035b 50060000 		.4byte	.LASF66
 613 035f 07       		.byte	0x7
 614 0360 6F01     		.2byte	0x16f
 615 0362 FD020000 		.4byte	0x2fd
 616 0366 0C       		.byte	0xc
 617 0367 08       		.uleb128 0x8
 618 0368 E2050000 		.4byte	.LASF67
 619 036c 07       		.byte	0x7
 620 036d 7101     		.2byte	0x171
 621 036f 19030000 		.4byte	0x319
 622 0373 10       		.byte	0x10
 623 0374 00       		.byte	0
 624 0375 04       		.uleb128 0x4
ARM GAS  /tmp/ccxaZjUR.s 			page 12


 625 0376 7D000000 		.4byte	.LASF68
 626 037a 06       		.byte	0x6
 627 037b 66       		.byte	0x66
 628 037c 80030000 		.4byte	0x380
 629 0380 0A       		.uleb128 0xa
 630 0381 C8020000 		.4byte	.LASF69
 631 0385 10       		.byte	0x10
 632 0386 07       		.byte	0x7
 633 0387 7B01     		.2byte	0x17b
 634 0389 C2030000 		.4byte	0x3c2
 635 038d 08       		.uleb128 0x8
 636 038e EF010000 		.4byte	.LASF63
 637 0392 07       		.byte	0x7
 638 0393 7C01     		.2byte	0x17c
 639 0395 F9070000 		.4byte	0x7f9
 640 0399 00       		.byte	0
 641 039a 08       		.uleb128 0x8
 642 039b A4010000 		.4byte	.LASF64
 643 039f 07       		.byte	0x7
 644 03a0 7E01     		.2byte	0x17e
 645 03a2 F9070000 		.4byte	0x7f9
 646 03a6 04       		.byte	0x4
 647 03a7 08       		.uleb128 0x8
 648 03a8 50040000 		.4byte	.LASF65
 649 03ac 07       		.byte	0x7
 650 03ad 8001     		.2byte	0x180
 651 03af 22010000 		.4byte	0x122
 652 03b3 08       		.byte	0x8
 653 03b4 08       		.uleb128 0x8
 654 03b5 B1000000 		.4byte	.LASF70
 655 03b9 07       		.byte	0x7
 656 03ba 8201     		.2byte	0x182
 657 03bc FF070000 		.4byte	0x7ff
 658 03c0 0C       		.byte	0xc
 659 03c1 00       		.byte	0
 660 03c2 04       		.uleb128 0x4
 661 03c3 39000000 		.4byte	.LASF71
 662 03c7 06       		.byte	0x6
 663 03c8 6B       		.byte	0x6b
 664 03c9 CD030000 		.4byte	0x3cd
 665 03cd 0A       		.uleb128 0xa
 666 03ce 62030000 		.4byte	.LASF72
 667 03d2 04       		.byte	0x4
 668 03d3 07       		.byte	0x7
 669 03d4 A201     		.2byte	0x1a2
 670 03d6 E8030000 		.4byte	0x3e8
 671 03da 08       		.uleb128 0x8
 672 03db 98050000 		.4byte	.LASF73
 673 03df 07       		.byte	0x7
 674 03e0 AA01     		.2byte	0x1aa
 675 03e2 04080000 		.4byte	0x804
 676 03e6 00       		.byte	0
 677 03e7 00       		.byte	0
 678 03e8 04       		.uleb128 0x4
 679 03e9 B1050000 		.4byte	.LASF74
 680 03ed 06       		.byte	0x6
 681 03ee 70       		.byte	0x70
ARM GAS  /tmp/ccxaZjUR.s 			page 13


 682 03ef F3030000 		.4byte	0x3f3
 683 03f3 0E       		.uleb128 0xe
 684 03f4 43010000 		.4byte	.LASF75
 685 03f8 5001     		.2byte	0x150
 686 03fa 07       		.byte	0x7
 687 03fb C201     		.2byte	0x1c2
 688 03fd 4F040000 		.4byte	0x44f
 689 0401 08       		.uleb128 0x8
 690 0402 0E060000 		.4byte	.LASF76
 691 0406 07       		.byte	0x7
 692 0407 C601     		.2byte	0x1c6
 693 0409 96020000 		.4byte	0x296
 694 040d 00       		.byte	0
 695 040e 08       		.uleb128 0x8
 696 040f EB000000 		.4byte	.LASF77
 697 0413 07       		.byte	0x7
 698 0414 CA01     		.2byte	0x1ca
 699 0416 75030000 		.4byte	0x375
 700 041a 1C       		.byte	0x1c
 701 041b 07       		.uleb128 0x7
 702 041c 64626700 		.ascii	"dbg\000"
 703 0420 07       		.byte	0x7
 704 0421 CE01     		.2byte	0x1ce
 705 0423 C2030000 		.4byte	0x3c2
 706 0427 2C       		.byte	0x2c
 707 0428 08       		.uleb128 0x8
 708 0429 72000000 		.4byte	.LASF78
 709 042d 07       		.byte	0x7
 710 042e D201     		.2byte	0x1d2
 711 0430 2D010000 		.4byte	0x12d
 712 0434 30       		.byte	0x30
 713 0435 07       		.uleb128 0x7
 714 0436 746D00   		.ascii	"tm\000"
 715 0439 07       		.byte	0x7
 716 043a D701     		.2byte	0x1d7
 717 043c 17070000 		.4byte	0x717
 718 0440 74       		.byte	0x74
 719 0441 08       		.uleb128 0x8
 720 0442 C3010000 		.4byte	.LASF79
 721 0446 07       		.byte	0x7
 722 0447 E301     		.2byte	0x1e3
 723 0449 09080000 		.4byte	0x809
 724 044d 78       		.byte	0x78
 725 044e 00       		.byte	0
 726 044f 03       		.uleb128 0x3
 727 0450 04       		.byte	0x4
 728 0451 07       		.byte	0x7
 729 0452 AC020000 		.4byte	.LASF80
 730 0456 0F       		.uleb128 0xf
 731 0457 A9000000 		.4byte	0xa9
 732 045b 10       		.uleb128 0x10
 733 045c 8C       		.byte	0x8c
 734 045d 08       		.byte	0x8
 735 045e 8301     		.2byte	0x183
 736 0460 76050000 		.4byte	0x576
 737 0464 08       		.uleb128 0x8
 738 0465 93000000 		.4byte	.LASF81
ARM GAS  /tmp/ccxaZjUR.s 			page 14


 739 0469 08       		.byte	0x8
 740 046a 8501     		.2byte	0x185
 741 046c 76050000 		.4byte	0x576
 742 0470 00       		.byte	0
 743 0471 08       		.uleb128 0x8
 744 0472 1E020000 		.4byte	.LASF82
 745 0476 08       		.byte	0x8
 746 0477 8601     		.2byte	0x186
 747 0479 56040000 		.4byte	0x456
 748 047d 04       		.byte	0x4
 749 047e 08       		.uleb128 0x8
 750 047f 09020000 		.4byte	.LASF83
 751 0483 08       		.byte	0x8
 752 0484 8701     		.2byte	0x187
 753 0486 56040000 		.4byte	0x456
 754 048a 08       		.byte	0x8
 755 048b 08       		.uleb128 0x8
 756 048c 29020000 		.4byte	.LASF84
 757 0490 08       		.byte	0x8
 758 0491 8801     		.2byte	0x188
 759 0493 56040000 		.4byte	0x456
 760 0497 0C       		.byte	0xc
 761 0498 07       		.uleb128 0x7
 762 0499 53435200 		.ascii	"SCR\000"
 763 049d 08       		.byte	0x8
 764 049e 8901     		.2byte	0x189
 765 04a0 56040000 		.4byte	0x456
 766 04a4 10       		.byte	0x10
 767 04a5 07       		.uleb128 0x7
 768 04a6 43435200 		.ascii	"CCR\000"
 769 04aa 08       		.byte	0x8
 770 04ab 8A01     		.2byte	0x18a
 771 04ad 56040000 		.4byte	0x456
 772 04b1 14       		.byte	0x14
 773 04b2 07       		.uleb128 0x7
 774 04b3 53485000 		.ascii	"SHP\000"
 775 04b7 08       		.byte	0x8
 776 04b8 8B01     		.2byte	0x18b
 777 04ba 8B050000 		.4byte	0x58b
 778 04be 18       		.byte	0x18
 779 04bf 08       		.uleb128 0x8
 780 04c0 8E030000 		.4byte	.LASF85
 781 04c4 08       		.byte	0x8
 782 04c5 8C01     		.2byte	0x18c
 783 04c7 56040000 		.4byte	0x456
 784 04cb 24       		.byte	0x24
 785 04cc 08       		.uleb128 0x8
 786 04cd DF020000 		.4byte	.LASF86
 787 04d1 08       		.byte	0x8
 788 04d2 8D01     		.2byte	0x18d
 789 04d4 56040000 		.4byte	0x456
 790 04d8 28       		.byte	0x28
 791 04d9 08       		.uleb128 0x8
 792 04da 36060000 		.4byte	.LASF87
 793 04de 08       		.byte	0x8
 794 04df 8E01     		.2byte	0x18e
 795 04e1 56040000 		.4byte	0x456
ARM GAS  /tmp/ccxaZjUR.s 			page 15


 796 04e5 2C       		.byte	0x2c
 797 04e6 08       		.uleb128 0x8
 798 04e7 2F020000 		.4byte	.LASF88
 799 04eb 08       		.byte	0x8
 800 04ec 8F01     		.2byte	0x18f
 801 04ee 56040000 		.4byte	0x456
 802 04f2 30       		.byte	0x30
 803 04f3 08       		.uleb128 0x8
 804 04f4 34020000 		.4byte	.LASF89
 805 04f8 08       		.byte	0x8
 806 04f9 9001     		.2byte	0x190
 807 04fb 56040000 		.4byte	0x456
 808 04ff 34       		.byte	0x34
 809 0500 08       		.uleb128 0x8
 810 0501 89010000 		.4byte	.LASF90
 811 0505 08       		.byte	0x8
 812 0506 9101     		.2byte	0x191
 813 0508 56040000 		.4byte	0x456
 814 050c 38       		.byte	0x38
 815 050d 08       		.uleb128 0x8
 816 050e 8E010000 		.4byte	.LASF91
 817 0512 08       		.byte	0x8
 818 0513 9201     		.2byte	0x192
 819 0515 56040000 		.4byte	0x456
 820 0519 3C       		.byte	0x3c
 821 051a 07       		.uleb128 0x7
 822 051b 50465200 		.ascii	"PFR\000"
 823 051f 08       		.byte	0x8
 824 0520 9301     		.2byte	0x193
 825 0522 A0050000 		.4byte	0x5a0
 826 0526 40       		.byte	0x40
 827 0527 07       		.uleb128 0x7
 828 0528 44465200 		.ascii	"DFR\000"
 829 052c 08       		.byte	0x8
 830 052d 9401     		.2byte	0x194
 831 052f 76050000 		.4byte	0x576
 832 0533 48       		.byte	0x48
 833 0534 07       		.uleb128 0x7
 834 0535 41445200 		.ascii	"ADR\000"
 835 0539 08       		.byte	0x8
 836 053a 9501     		.2byte	0x195
 837 053c 76050000 		.4byte	0x576
 838 0540 4C       		.byte	0x4c
 839 0541 08       		.uleb128 0x8
 840 0542 09060000 		.4byte	.LASF92
 841 0546 08       		.byte	0x8
 842 0547 9601     		.2byte	0x196
 843 0549 BA050000 		.4byte	0x5ba
 844 054d 50       		.byte	0x50
 845 054e 08       		.uleb128 0x8
 846 054f E6000000 		.4byte	.LASF93
 847 0553 08       		.byte	0x8
 848 0554 9701     		.2byte	0x197
 849 0556 D4050000 		.4byte	0x5d4
 850 055a 60       		.byte	0x60
 851 055b 08       		.uleb128 0x8
 852 055c 34030000 		.4byte	.LASF94
ARM GAS  /tmp/ccxaZjUR.s 			page 16


 853 0560 08       		.byte	0x8
 854 0561 9801     		.2byte	0x198
 855 0563 C4050000 		.4byte	0x5c4
 856 0567 74       		.byte	0x74
 857 0568 08       		.uleb128 0x8
 858 0569 30060000 		.4byte	.LASF95
 859 056d 08       		.byte	0x8
 860 056e 9901     		.2byte	0x199
 861 0570 56040000 		.4byte	0x456
 862 0574 88       		.byte	0x88
 863 0575 00       		.byte	0
 864 0576 11       		.uleb128 0x11
 865 0577 56040000 		.4byte	0x456
 866 057b 12       		.uleb128 0x12
 867 057c 93000000 		.4byte	0x93
 868 0580 8B050000 		.4byte	0x58b
 869 0584 13       		.uleb128 0x13
 870 0585 4F040000 		.4byte	0x44f
 871 0589 0B       		.byte	0xb
 872 058a 00       		.byte	0
 873 058b 0F       		.uleb128 0xf
 874 058c 7B050000 		.4byte	0x57b
 875 0590 12       		.uleb128 0x12
 876 0591 A9000000 		.4byte	0xa9
 877 0595 A0050000 		.4byte	0x5a0
 878 0599 13       		.uleb128 0x13
 879 059a 4F040000 		.4byte	0x44f
 880 059e 01       		.byte	0x1
 881 059f 00       		.byte	0
 882 05a0 11       		.uleb128 0x11
 883 05a1 A5050000 		.4byte	0x5a5
 884 05a5 0F       		.uleb128 0xf
 885 05a6 90050000 		.4byte	0x590
 886 05aa 12       		.uleb128 0x12
 887 05ab A9000000 		.4byte	0xa9
 888 05af BA050000 		.4byte	0x5ba
 889 05b3 13       		.uleb128 0x13
 890 05b4 4F040000 		.4byte	0x44f
 891 05b8 03       		.byte	0x3
 892 05b9 00       		.byte	0
 893 05ba 11       		.uleb128 0x11
 894 05bb BF050000 		.4byte	0x5bf
 895 05bf 0F       		.uleb128 0xf
 896 05c0 AA050000 		.4byte	0x5aa
 897 05c4 12       		.uleb128 0x12
 898 05c5 A9000000 		.4byte	0xa9
 899 05c9 D4050000 		.4byte	0x5d4
 900 05cd 13       		.uleb128 0x13
 901 05ce 4F040000 		.4byte	0x44f
 902 05d2 04       		.byte	0x4
 903 05d3 00       		.byte	0
 904 05d4 11       		.uleb128 0x11
 905 05d5 D9050000 		.4byte	0x5d9
 906 05d9 0F       		.uleb128 0xf
 907 05da C4050000 		.4byte	0x5c4
 908 05de 14       		.uleb128 0x14
 909 05df AC010000 		.4byte	.LASF96
ARM GAS  /tmp/ccxaZjUR.s 			page 17


 910 05e3 08       		.byte	0x8
 911 05e4 9A01     		.2byte	0x19a
 912 05e6 5B040000 		.4byte	0x45b
 913 05ea 04       		.uleb128 0x4
 914 05eb 9B010000 		.4byte	.LASF97
 915 05ef 09       		.byte	0x9
 916 05f0 65       		.byte	0x65
 917 05f1 19030000 		.4byte	0x319
 918 05f5 04       		.uleb128 0x4
 919 05f6 88020000 		.4byte	.LASF98
 920 05fa 09       		.byte	0x9
 921 05fb 6D       		.byte	0x6d
 922 05fc B4000000 		.4byte	0xb4
 923 0600 05       		.uleb128 0x5
 924 0601 A9050000 		.4byte	.LASF99
 925 0605 04       		.byte	0x4
 926 0606 09       		.byte	0x9
 927 0607 89       		.byte	0x89
 928 0608 19060000 		.4byte	0x619
 929 060c 15       		.uleb128 0x15
 930 060d 72313300 		.ascii	"r13\000"
 931 0611 09       		.byte	0x9
 932 0612 8A       		.byte	0x8a
 933 0613 94060000 		.4byte	0x694
 934 0617 00       		.byte	0
 935 0618 00       		.byte	0
 936 0619 05       		.uleb128 0x5
 937 061a 2D000000 		.4byte	.LASF100
 938 061e 24       		.byte	0x24
 939 061f 0A       		.byte	0xa
 940 0620 FD       		.byte	0xfd
 941 0621 94060000 		.4byte	0x694
 942 0625 07       		.uleb128 0x7
 943 0626 723400   		.ascii	"r4\000"
 944 0629 0A       		.byte	0xa
 945 062a 1001     		.2byte	0x110
 946 062c EA050000 		.4byte	0x5ea
 947 0630 00       		.byte	0
 948 0631 07       		.uleb128 0x7
 949 0632 723500   		.ascii	"r5\000"
 950 0635 0A       		.byte	0xa
 951 0636 1101     		.2byte	0x111
 952 0638 EA050000 		.4byte	0x5ea
 953 063c 04       		.byte	0x4
 954 063d 07       		.uleb128 0x7
 955 063e 723600   		.ascii	"r6\000"
 956 0641 0A       		.byte	0xa
 957 0642 1201     		.2byte	0x112
 958 0644 EA050000 		.4byte	0x5ea
 959 0648 08       		.byte	0x8
 960 0649 07       		.uleb128 0x7
 961 064a 723700   		.ascii	"r7\000"
 962 064d 0A       		.byte	0xa
 963 064e 1301     		.2byte	0x113
 964 0650 EA050000 		.4byte	0x5ea
 965 0654 0C       		.byte	0xc
 966 0655 07       		.uleb128 0x7
ARM GAS  /tmp/ccxaZjUR.s 			page 18


 967 0656 723800   		.ascii	"r8\000"
 968 0659 0A       		.byte	0xa
 969 065a 1401     		.2byte	0x114
 970 065c EA050000 		.4byte	0x5ea
 971 0660 10       		.byte	0x10
 972 0661 07       		.uleb128 0x7
 973 0662 723900   		.ascii	"r9\000"
 974 0665 0A       		.byte	0xa
 975 0666 1501     		.2byte	0x115
 976 0668 EA050000 		.4byte	0x5ea
 977 066c 14       		.byte	0x14
 978 066d 07       		.uleb128 0x7
 979 066e 72313000 		.ascii	"r10\000"
 980 0672 0A       		.byte	0xa
 981 0673 1601     		.2byte	0x116
 982 0675 EA050000 		.4byte	0x5ea
 983 0679 18       		.byte	0x18
 984 067a 07       		.uleb128 0x7
 985 067b 72313100 		.ascii	"r11\000"
 986 067f 0A       		.byte	0xa
 987 0680 1701     		.2byte	0x117
 988 0682 EA050000 		.4byte	0x5ea
 989 0686 1C       		.byte	0x1c
 990 0687 07       		.uleb128 0x7
 991 0688 6C7200   		.ascii	"lr\000"
 992 068b 0A       		.byte	0xa
 993 068c 1801     		.2byte	0x118
 994 068e EA050000 		.4byte	0x5ea
 995 0692 20       		.byte	0x20
 996 0693 00       		.byte	0
 997 0694 09       		.uleb128 0x9
 998 0695 04       		.byte	0x4
 999 0696 19060000 		.4byte	0x619
 1000 069a 05       		.uleb128 0x5
 1001 069b F2020000 		.4byte	.LASF101
 1002 069f 20       		.byte	0x20
 1003 06a0 0A       		.byte	0xa
 1004 06a1 DE       		.byte	0xde
 1005 06a2 02070000 		.4byte	0x702
 1006 06a6 15       		.uleb128 0x15
 1007 06a7 723000   		.ascii	"r0\000"
 1008 06aa 0A       		.byte	0xa
 1009 06ab DF       		.byte	0xdf
 1010 06ac EA050000 		.4byte	0x5ea
 1011 06b0 00       		.byte	0
 1012 06b1 15       		.uleb128 0x15
 1013 06b2 723100   		.ascii	"r1\000"
 1014 06b5 0A       		.byte	0xa
 1015 06b6 E0       		.byte	0xe0
 1016 06b7 EA050000 		.4byte	0x5ea
 1017 06bb 04       		.byte	0x4
 1018 06bc 15       		.uleb128 0x15
 1019 06bd 723200   		.ascii	"r2\000"
 1020 06c0 0A       		.byte	0xa
 1021 06c1 E1       		.byte	0xe1
 1022 06c2 EA050000 		.4byte	0x5ea
 1023 06c6 08       		.byte	0x8
ARM GAS  /tmp/ccxaZjUR.s 			page 19


 1024 06c7 15       		.uleb128 0x15
 1025 06c8 723300   		.ascii	"r3\000"
 1026 06cb 0A       		.byte	0xa
 1027 06cc E2       		.byte	0xe2
 1028 06cd EA050000 		.4byte	0x5ea
 1029 06d1 0C       		.byte	0xc
 1030 06d2 15       		.uleb128 0x15
 1031 06d3 72313200 		.ascii	"r12\000"
 1032 06d7 0A       		.byte	0xa
 1033 06d8 E3       		.byte	0xe3
 1034 06d9 EA050000 		.4byte	0x5ea
 1035 06dd 10       		.byte	0x10
 1036 06de 06       		.uleb128 0x6
 1037 06df FC030000 		.4byte	.LASF102
 1038 06e3 0A       		.byte	0xa
 1039 06e4 E4       		.byte	0xe4
 1040 06e5 EA050000 		.4byte	0x5ea
 1041 06e9 14       		.byte	0x14
 1042 06ea 15       		.uleb128 0x15
 1043 06eb 706300   		.ascii	"pc\000"
 1044 06ee 0A       		.byte	0xa
 1045 06ef E5       		.byte	0xe5
 1046 06f0 EA050000 		.4byte	0x5ea
 1047 06f4 18       		.byte	0x18
 1048 06f5 06       		.uleb128 0x6
 1049 06f6 C7030000 		.4byte	.LASF103
 1050 06fa 0A       		.byte	0xa
 1051 06fb E6       		.byte	0xe6
 1052 06fc EA050000 		.4byte	0x5ea
 1053 0700 1C       		.byte	0x1c
 1054 0701 00       		.byte	0
 1055 0702 16       		.uleb128 0x16
 1056 0703 04       		.byte	0x4
 1057 0704 0B       		.byte	0xb
 1058 0705 38       		.byte	0x38
 1059 0706 17070000 		.4byte	0x717
 1060 070a 06       		.uleb128 0x6
 1061 070b A2050000 		.4byte	.LASF104
 1062 070f 0B       		.byte	0xb
 1063 0710 3C       		.byte	0x3c
 1064 0711 BF000000 		.4byte	0xbf
 1065 0715 00       		.byte	0
 1066 0716 00       		.byte	0
 1067 0717 04       		.uleb128 0x4
 1068 0718 FE020000 		.4byte	.LASF105
 1069 071c 0B       		.byte	0xb
 1070 071d 3D       		.byte	0x3d
 1071 071e 02070000 		.4byte	0x702
 1072 0722 17       		.uleb128 0x17
 1073 0723 04       		.byte	0x4
 1074 0724 07       		.byte	0x7
 1075 0725 FA       		.byte	0xfa
 1076 0726 7F070000 		.4byte	0x77f
 1077 072a 18       		.uleb128 0x18
 1078 072b 13000000 		.4byte	.LASF106
 1079 072f 07       		.byte	0x7
 1080 0730 0101     		.2byte	0x101
ARM GAS  /tmp/ccxaZjUR.s 			page 20


 1081 0732 01010000 		.4byte	0x101
 1082 0736 18       		.uleb128 0x18
 1083 0737 69000000 		.4byte	.LASF107
 1084 073b 07       		.byte	0x7
 1085 073c 0801     		.2byte	0x108
 1086 073e 01010000 		.4byte	0x101
 1087 0742 18       		.uleb128 0x18
 1088 0743 1C060000 		.4byte	.LASF108
 1089 0747 07       		.byte	0x7
 1090 0748 0F01     		.2byte	0x10f
 1091 074a 19030000 		.4byte	0x319
 1092 074e 18       		.uleb128 0x18
 1093 074f 0D000000 		.4byte	.LASF109
 1094 0753 07       		.byte	0x7
 1095 0754 1601     		.2byte	0x116
 1096 0756 7F070000 		.4byte	0x77f
 1097 075a 18       		.uleb128 0x18
 1098 075b F7010000 		.4byte	.LASF110
 1099 075f 07       		.byte	0x7
 1100 0760 1E01     		.2byte	0x11e
 1101 0762 AA070000 		.4byte	0x7aa
 1102 0766 18       		.uleb128 0x18
 1103 0767 41040000 		.4byte	.LASF111
 1104 076b 07       		.byte	0x7
 1105 076c 2701     		.2byte	0x127
 1106 076e E1070000 		.4byte	0x7e1
 1107 0772 18       		.uleb128 0x18
 1108 0773 D3030000 		.4byte	.LASF112
 1109 0777 07       		.byte	0x7
 1110 0778 2F01     		.2byte	0x12f
 1111 077a 0C010000 		.4byte	0x10c
 1112 077e 00       		.byte	0
 1113 077f 09       		.uleb128 0x9
 1114 0780 04       		.byte	0x4
 1115 0781 31020000 		.4byte	0x231
 1116 0785 05       		.uleb128 0x5
 1117 0786 20040000 		.4byte	.LASF113
 1118 078a 0C       		.byte	0xc
 1119 078b 0C       		.byte	0xc
 1120 078c 34       		.byte	0x34
 1121 078d AA070000 		.4byte	0x7aa
 1122 0791 06       		.uleb128 0x6
 1123 0792 81010000 		.4byte	.LASF114
 1124 0796 0C       		.byte	0xc
 1125 0797 35       		.byte	0x35
 1126 0798 66020000 		.4byte	0x266
 1127 079c 00       		.byte	0
 1128 079d 06       		.uleb128 0x6
 1129 079e 0E020000 		.4byte	.LASF115
 1130 07a2 0C       		.byte	0xc
 1131 07a3 37       		.byte	0x37
 1132 07a4 17010000 		.4byte	0x117
 1133 07a8 08       		.byte	0x8
 1134 07a9 00       		.byte	0
 1135 07aa 09       		.uleb128 0x9
 1136 07ab 04       		.byte	0x4
 1137 07ac 85070000 		.4byte	0x785
ARM GAS  /tmp/ccxaZjUR.s 			page 21


 1138 07b0 05       		.uleb128 0x5
 1139 07b1 F9050000 		.4byte	.LASF116
 1140 07b5 10       		.byte	0x10
 1141 07b6 0D       		.byte	0xd
 1142 07b7 39       		.byte	0x39
 1143 07b8 E1070000 		.4byte	0x7e1
 1144 07bc 06       		.uleb128 0x6
 1145 07bd DE000000 		.4byte	.LASF117
 1146 07c1 0D       		.byte	0xd
 1147 07c2 3A       		.byte	0x3a
 1148 07c3 66020000 		.4byte	0x266
 1149 07c7 00       		.byte	0
 1150 07c8 06       		.uleb128 0x6
 1151 07c9 3B060000 		.4byte	.LASF118
 1152 07cd 0D       		.byte	0xd
 1153 07ce 3C       		.byte	0x3c
 1154 07cf 3C020000 		.4byte	0x23c
 1155 07d3 08       		.byte	0x8
 1156 07d4 06       		.uleb128 0x6
 1157 07d5 5A050000 		.4byte	.LASF119
 1158 07d9 0D       		.byte	0xd
 1159 07da 3E       		.byte	0x3e
 1160 07db 24080000 		.4byte	0x824
 1161 07df 0C       		.byte	0xc
 1162 07e0 00       		.byte	0
 1163 07e1 09       		.uleb128 0x9
 1164 07e2 04       		.byte	0x4
 1165 07e3 B0070000 		.4byte	0x7b0
 1166 07e7 09       		.uleb128 0x9
 1167 07e8 04       		.byte	0x4
 1168 07e9 ED070000 		.4byte	0x7ed
 1169 07ed 11       		.uleb128 0x11
 1170 07ee F2070000 		.4byte	0x7f2
 1171 07f2 03       		.uleb128 0x3
 1172 07f3 01       		.byte	0x1
 1173 07f4 08       		.byte	0x8
 1174 07f5 37050000 		.4byte	.LASF120
 1175 07f9 09       		.uleb128 0x9
 1176 07fa 04       		.byte	0x4
 1177 07fb 1B030000 		.4byte	0x31b
 1178 07ff 0F       		.uleb128 0xf
 1179 0800 22010000 		.4byte	0x122
 1180 0804 0F       		.uleb128 0xf
 1181 0805 E7070000 		.4byte	0x7e7
 1182 0809 12       		.uleb128 0x12
 1183 080a F5050000 		.4byte	0x5f5
 1184 080e 19080000 		.4byte	0x819
 1185 0812 13       		.uleb128 0x13
 1186 0813 4F040000 		.4byte	0x44f
 1187 0817 1A       		.byte	0x1a
 1188 0818 00       		.byte	0
 1189 0819 04       		.uleb128 0x4
 1190 081a B5010000 		.4byte	.LASF121
 1191 081e 0D       		.byte	0xd
 1192 081f 34       		.byte	0x34
 1193 0820 B0070000 		.4byte	0x7b0
 1194 0824 09       		.uleb128 0x9
ARM GAS  /tmp/ccxaZjUR.s 			page 22


 1195 0825 04       		.byte	0x4
 1196 0826 19080000 		.4byte	0x819
 1197 082a 19       		.uleb128 0x19
 1198 082b 8A050000 		.4byte	.LASF124
 1199 082f 02       		.byte	0x2
 1200 0830 2202     		.2byte	0x222
 1201 0832 03       		.byte	0x3
 1202 0833 44080000 		.4byte	0x844
 1203 0837 1A       		.uleb128 0x1a
 1204 0838 BD010000 		.4byte	.LASF126
 1205 083c 02       		.byte	0x2
 1206 083d 2202     		.2byte	0x222
 1207 083f A9000000 		.4byte	0xa9
 1208 0843 00       		.byte	0
 1209 0844 1B       		.uleb128 0x1b
 1210 0845 48000000 		.4byte	.LASF122
 1211 0849 0A       		.byte	0xa
 1212 084a C801     		.2byte	0x1c8
 1213 084c 03       		.byte	0x3
 1214 084d 1B       		.uleb128 0x1b
 1215 084e F2000000 		.4byte	.LASF123
 1216 0852 0A       		.byte	0xa
 1217 0853 E001     		.2byte	0x1e0
 1218 0855 03       		.byte	0x3
 1219 0856 1C       		.uleb128 0x1c
 1220 0857 D8050000 		.4byte	.LASF137
 1221 085b 02       		.byte	0x2
 1222 085c AA01     		.2byte	0x1aa
 1223 085e A9000000 		.4byte	0xa9
 1224 0862 03       		.byte	0x3
 1225 0863 74080000 		.4byte	0x874
 1226 0867 1D       		.uleb128 0x1d
 1227 0868 43060000 		.4byte	.LASF138
 1228 086c 02       		.byte	0x2
 1229 086d AC01     		.2byte	0x1ac
 1230 086f A9000000 		.4byte	0xa9
 1231 0873 00       		.byte	0
 1232 0874 19       		.uleb128 0x19
 1233 0875 E5010000 		.4byte	.LASF125
 1234 0879 02       		.byte	0x2
 1235 087a B901     		.2byte	0x1b9
 1236 087c 03       		.byte	0x3
 1237 087d 8E080000 		.4byte	0x88e
 1238 0881 1A       		.uleb128 0x1a
 1239 0882 6F020000 		.4byte	.LASF127
 1240 0886 02       		.byte	0x2
 1241 0887 B901     		.2byte	0x1b9
 1242 0889 A9000000 		.4byte	0xa9
 1243 088d 00       		.byte	0
 1244 088e 1B       		.uleb128 0x1b
 1245 088f 3C050000 		.4byte	.LASF128
 1246 0893 0A       		.byte	0xa
 1247 0894 FA01     		.2byte	0x1fa
 1248 0896 03       		.byte	0x3
 1249 0897 1B       		.uleb128 0x1b
 1250 0898 C5050000 		.4byte	.LASF129
 1251 089c 0A       		.byte	0xa
ARM GAS  /tmp/ccxaZjUR.s 			page 23


 1252 089d EF01     		.2byte	0x1ef
 1253 089f 03       		.byte	0x3
 1254 08a0 1E       		.uleb128 0x1e
 1255 08a1 03040000 		.4byte	.LASF130
 1256 08a5 01       		.byte	0x1
 1257 08a6 3E       		.byte	0x3e
 1258 08a7 00000000 		.4byte	.LFB170
 1259 08ab 12000000 		.4byte	.LFE170-.LFB170
 1260 08af 01       		.uleb128 0x1
 1261 08b0 9C       		.byte	0x9c
 1262 08b1 41090000 		.4byte	0x941
 1263 08b5 1F       		.uleb128 0x1f
 1264 08b6 3E030000 		.4byte	.LASF132
 1265 08ba 01       		.byte	0x1
 1266 08bb 40       		.byte	0x40
 1267 08bc 41090000 		.4byte	0x941
 1268 08c0 00000000 		.4byte	.LLST0
 1269 08c4 20       		.uleb128 0x20
 1270 08c5 56080000 		.4byte	0x856
 1271 08c9 00000000 		.4byte	.LBB38
 1272 08cd 04000000 		.4byte	.LBE38-.LBB38
 1273 08d1 01       		.byte	0x1
 1274 08d2 48       		.byte	0x48
 1275 08d3 EB080000 		.4byte	0x8eb
 1276 08d7 21       		.uleb128 0x21
 1277 08d8 00000000 		.4byte	.LBB39
 1278 08dc 04000000 		.4byte	.LBE39-.LBB39
 1279 08e0 22       		.uleb128 0x22
 1280 08e1 67080000 		.4byte	0x867
 1281 08e5 20000000 		.4byte	.LLST1
 1282 08e9 00       		.byte	0
 1283 08ea 00       		.byte	0
 1284 08eb 20       		.uleb128 0x20
 1285 08ec 74080000 		.4byte	0x874
 1286 08f0 06000000 		.4byte	.LBB40
 1287 08f4 04000000 		.4byte	.LBE40-.LBB40
 1288 08f8 01       		.byte	0x1
 1289 08f9 4F       		.byte	0x4f
 1290 08fa 08090000 		.4byte	0x908
 1291 08fe 23       		.uleb128 0x23
 1292 08ff 81080000 		.4byte	0x881
 1293 0903 00000000 		.4byte	.LLST0
 1294 0907 00       		.byte	0
 1295 0908 24       		.uleb128 0x24
 1296 0909 8E080000 		.4byte	0x88e
 1297 090d 0A000000 		.4byte	.LBB42
 1298 0911 08000000 		.4byte	.LBE42-.LBB42
 1299 0915 01       		.byte	0x1
 1300 0916 52       		.byte	0x52
 1301 0917 25       		.uleb128 0x25
 1302 0918 4D080000 		.4byte	0x84d
 1303 091c 0A000000 		.4byte	.LBB43
 1304 0920 08000000 		.4byte	.LBE43-.LBB43
 1305 0924 0A       		.byte	0xa
 1306 0925 FC01     		.2byte	0x1fc
 1307 0927 25       		.uleb128 0x25
 1308 0928 2A080000 		.4byte	0x82a
ARM GAS  /tmp/ccxaZjUR.s 			page 24


 1309 092c 0A000000 		.4byte	.LBB44
 1310 0930 08000000 		.4byte	.LBE44-.LBB44
 1311 0934 0A       		.byte	0xa
 1312 0935 E301     		.2byte	0x1e3
 1313 0937 26       		.uleb128 0x26
 1314 0938 37080000 		.4byte	0x837
 1315 093c 00       		.byte	0
 1316 093d 00       		.byte	0
 1317 093e 00       		.byte	0
 1318 093f 00       		.byte	0
 1319 0940 00       		.byte	0
 1320 0941 09       		.uleb128 0x9
 1321 0942 04       		.byte	0x4
 1322 0943 9A060000 		.4byte	0x69a
 1323 0947 1E       		.uleb128 0x1e
 1324 0948 3A020000 		.4byte	.LASF131
 1325 094c 01       		.byte	0x1
 1326 094d 7A       		.byte	0x7a
 1327 094e 00000000 		.4byte	.LFB171
 1328 0952 50000000 		.4byte	.LFE171-.LFB171
 1329 0956 01       		.uleb128 0x1
 1330 0957 9C       		.byte	0x9c
 1331 0958 3E0A0000 		.4byte	0xa3e
 1332 095c 20       		.uleb128 0x20
 1333 095d 97080000 		.4byte	0x897
 1334 0961 00000000 		.4byte	.LBB46
 1335 0965 06000000 		.4byte	.LBE46-.LBB46
 1336 0969 01       		.byte	0x1
 1337 096a 7C       		.byte	0x7c
 1338 096b 98090000 		.4byte	0x998
 1339 096f 25       		.uleb128 0x25
 1340 0970 44080000 		.4byte	0x844
 1341 0974 00000000 		.4byte	.LBB47
 1342 0978 06000000 		.4byte	.LBE47-.LBB47
 1343 097c 0A       		.byte	0xa
 1344 097d F101     		.2byte	0x1f1
 1345 097f 25       		.uleb128 0x25
 1346 0980 2A080000 		.4byte	0x82a
 1347 0984 00000000 		.4byte	.LBB48
 1348 0988 06000000 		.4byte	.LBE48-.LBB48
 1349 098c 0A       		.byte	0xa
 1350 098d D001     		.2byte	0x1d0
 1351 098f 26       		.uleb128 0x26
 1352 0990 37080000 		.4byte	0x837
 1353 0994 20       		.byte	0x20
 1354 0995 00       		.byte	0
 1355 0996 00       		.byte	0
 1356 0997 00       		.byte	0
 1357 0998 20       		.uleb128 0x20
 1358 0999 8E080000 		.4byte	0x88e
 1359 099d 10000000 		.4byte	.LBB50
 1360 09a1 06000000 		.4byte	.LBE50-.LBB50
 1361 09a5 01       		.byte	0x1
 1362 09a6 A5       		.byte	0xa5
 1363 09a7 D7090000 		.4byte	0x9d7
 1364 09ab 25       		.uleb128 0x25
 1365 09ac 4D080000 		.4byte	0x84d
ARM GAS  /tmp/ccxaZjUR.s 			page 25


 1366 09b0 10000000 		.4byte	.LBB51
 1367 09b4 06000000 		.4byte	.LBE51-.LBB51
 1368 09b8 0A       		.byte	0xa
 1369 09b9 FC01     		.2byte	0x1fc
 1370 09bb 25       		.uleb128 0x25
 1371 09bc 2A080000 		.4byte	0x82a
 1372 09c0 10000000 		.4byte	.LBB52
 1373 09c4 06000000 		.4byte	.LBE52-.LBB52
 1374 09c8 0A       		.byte	0xa
 1375 09c9 E301     		.2byte	0x1e3
 1376 09cb 23       		.uleb128 0x23
 1377 09cc 37080000 		.4byte	0x837
 1378 09d0 40000000 		.4byte	.LLST3
 1379 09d4 00       		.byte	0
 1380 09d5 00       		.byte	0
 1381 09d6 00       		.byte	0
 1382 09d7 21       		.uleb128 0x21
 1383 09d8 18000000 		.4byte	.LBB54
 1384 09dc 38000000 		.4byte	.LBE54-.LBB54
 1385 09e0 1F       		.uleb128 0x1f
 1386 09e1 3E030000 		.4byte	.LASF132
 1387 09e5 01       		.byte	0x1
 1388 09e6 7E       		.byte	0x7e
 1389 09e7 41090000 		.4byte	0x941
 1390 09eb 54000000 		.4byte	.LLST4
 1391 09ef 20       		.uleb128 0x20
 1392 09f0 56080000 		.4byte	0x856
 1393 09f4 18000000 		.4byte	.LBB55
 1394 09f8 04000000 		.4byte	.LBE55-.LBB55
 1395 09fc 01       		.byte	0x1
 1396 09fd 86       		.byte	0x86
 1397 09fe 160A0000 		.4byte	0xa16
 1398 0a02 21       		.uleb128 0x21
 1399 0a03 18000000 		.4byte	.LBB56
 1400 0a07 04000000 		.4byte	.LBE56-.LBB56
 1401 0a0b 22       		.uleb128 0x22
 1402 0a0c 67080000 		.4byte	0x867
 1403 0a10 81000000 		.4byte	.LLST5
 1404 0a14 00       		.byte	0
 1405 0a15 00       		.byte	0
 1406 0a16 20       		.uleb128 0x20
 1407 0a17 74080000 		.4byte	0x874
 1408 0a1b 28000000 		.4byte	.LBB57
 1409 0a1f 04000000 		.4byte	.LBE57-.LBB57
 1410 0a23 01       		.byte	0x1
 1411 0a24 93       		.byte	0x93
 1412 0a25 330A0000 		.4byte	0xa33
 1413 0a29 23       		.uleb128 0x23
 1414 0a2a 81080000 		.4byte	0x881
 1415 0a2e 94000000 		.4byte	.LLST6
 1416 0a32 00       		.byte	0
 1417 0a33 27       		.uleb128 0x27
 1418 0a34 30000000 		.4byte	.LVL10
 1419 0a38 5A0A0000 		.4byte	0xa5a
 1420 0a3c 00       		.byte	0
 1421 0a3d 00       		.byte	0
 1422 0a3e 28       		.uleb128 0x28
ARM GAS  /tmp/ccxaZjUR.s 			page 26


 1423 0a3f 94030000 		.4byte	.LASF133
 1424 0a43 08       		.byte	0x8
 1425 0a44 5506     		.2byte	0x655
 1426 0a46 4A0A0000 		.4byte	0xa4a
 1427 0a4a 0F       		.uleb128 0xf
 1428 0a4b 9E000000 		.4byte	0x9e
 1429 0a4f 29       		.uleb128 0x29
 1430 0a50 636800   		.ascii	"ch\000"
 1431 0a53 07       		.byte	0x7
 1432 0a54 0902     		.2byte	0x209
 1433 0a56 E8030000 		.4byte	0x3e8
 1434 0a5a 2A       		.uleb128 0x2a
 1435 0a5b 5F010000 		.4byte	.LASF139
 1436 0a5f 07       		.byte	0x7
 1437 0a60 1802     		.2byte	0x218
 1438 0a62 660A0000 		.4byte	0xa66
 1439 0a66 03       		.uleb128 0x3
 1440 0a67 01       		.byte	0x1
 1441 0a68 02       		.byte	0x2
 1442 0a69 72030000 		.4byte	.LASF134
 1443 0a6d 00       		.byte	0
 1444              		.section	.debug_abbrev,"",%progbits
 1445              	.Ldebug_abbrev0:
 1446 0000 01       		.uleb128 0x1
 1447 0001 11       		.uleb128 0x11
 1448 0002 01       		.byte	0x1
 1449 0003 25       		.uleb128 0x25
 1450 0004 0E       		.uleb128 0xe
 1451 0005 13       		.uleb128 0x13
 1452 0006 0B       		.uleb128 0xb
 1453 0007 03       		.uleb128 0x3
 1454 0008 0E       		.uleb128 0xe
 1455 0009 55       		.uleb128 0x55
 1456 000a 17       		.uleb128 0x17
 1457 000b 11       		.uleb128 0x11
 1458 000c 01       		.uleb128 0x1
 1459 000d 10       		.uleb128 0x10
 1460 000e 17       		.uleb128 0x17
 1461 000f 00       		.byte	0
 1462 0010 00       		.byte	0
 1463 0011 02       		.uleb128 0x2
 1464 0012 24       		.uleb128 0x24
 1465 0013 00       		.byte	0
 1466 0014 0B       		.uleb128 0xb
 1467 0015 0B       		.uleb128 0xb
 1468 0016 3E       		.uleb128 0x3e
 1469 0017 0B       		.uleb128 0xb
 1470 0018 03       		.uleb128 0x3
 1471 0019 08       		.uleb128 0x8
 1472 001a 00       		.byte	0
 1473 001b 00       		.byte	0
 1474 001c 03       		.uleb128 0x3
 1475 001d 24       		.uleb128 0x24
 1476 001e 00       		.byte	0
 1477 001f 0B       		.uleb128 0xb
 1478 0020 0B       		.uleb128 0xb
 1479 0021 3E       		.uleb128 0x3e
ARM GAS  /tmp/ccxaZjUR.s 			page 27


 1480 0022 0B       		.uleb128 0xb
 1481 0023 03       		.uleb128 0x3
 1482 0024 0E       		.uleb128 0xe
 1483 0025 00       		.byte	0
 1484 0026 00       		.byte	0
 1485 0027 04       		.uleb128 0x4
 1486 0028 16       		.uleb128 0x16
 1487 0029 00       		.byte	0
 1488 002a 03       		.uleb128 0x3
 1489 002b 0E       		.uleb128 0xe
 1490 002c 3A       		.uleb128 0x3a
 1491 002d 0B       		.uleb128 0xb
 1492 002e 3B       		.uleb128 0x3b
 1493 002f 0B       		.uleb128 0xb
 1494 0030 49       		.uleb128 0x49
 1495 0031 13       		.uleb128 0x13
 1496 0032 00       		.byte	0
 1497 0033 00       		.byte	0
 1498 0034 05       		.uleb128 0x5
 1499 0035 13       		.uleb128 0x13
 1500 0036 01       		.byte	0x1
 1501 0037 03       		.uleb128 0x3
 1502 0038 0E       		.uleb128 0xe
 1503 0039 0B       		.uleb128 0xb
 1504 003a 0B       		.uleb128 0xb
 1505 003b 3A       		.uleb128 0x3a
 1506 003c 0B       		.uleb128 0xb
 1507 003d 3B       		.uleb128 0x3b
 1508 003e 0B       		.uleb128 0xb
 1509 003f 01       		.uleb128 0x1
 1510 0040 13       		.uleb128 0x13
 1511 0041 00       		.byte	0
 1512 0042 00       		.byte	0
 1513 0043 06       		.uleb128 0x6
 1514 0044 0D       		.uleb128 0xd
 1515 0045 00       		.byte	0
 1516 0046 03       		.uleb128 0x3
 1517 0047 0E       		.uleb128 0xe
 1518 0048 3A       		.uleb128 0x3a
 1519 0049 0B       		.uleb128 0xb
 1520 004a 3B       		.uleb128 0x3b
 1521 004b 0B       		.uleb128 0xb
 1522 004c 49       		.uleb128 0x49
 1523 004d 13       		.uleb128 0x13
 1524 004e 38       		.uleb128 0x38
 1525 004f 0B       		.uleb128 0xb
 1526 0050 00       		.byte	0
 1527 0051 00       		.byte	0
 1528 0052 07       		.uleb128 0x7
 1529 0053 0D       		.uleb128 0xd
 1530 0054 00       		.byte	0
 1531 0055 03       		.uleb128 0x3
 1532 0056 08       		.uleb128 0x8
 1533 0057 3A       		.uleb128 0x3a
 1534 0058 0B       		.uleb128 0xb
 1535 0059 3B       		.uleb128 0x3b
 1536 005a 05       		.uleb128 0x5
ARM GAS  /tmp/ccxaZjUR.s 			page 28


 1537 005b 49       		.uleb128 0x49
 1538 005c 13       		.uleb128 0x13
 1539 005d 38       		.uleb128 0x38
 1540 005e 0B       		.uleb128 0xb
 1541 005f 00       		.byte	0
 1542 0060 00       		.byte	0
 1543 0061 08       		.uleb128 0x8
 1544 0062 0D       		.uleb128 0xd
 1545 0063 00       		.byte	0
 1546 0064 03       		.uleb128 0x3
 1547 0065 0E       		.uleb128 0xe
 1548 0066 3A       		.uleb128 0x3a
 1549 0067 0B       		.uleb128 0xb
 1550 0068 3B       		.uleb128 0x3b
 1551 0069 05       		.uleb128 0x5
 1552 006a 49       		.uleb128 0x49
 1553 006b 13       		.uleb128 0x13
 1554 006c 38       		.uleb128 0x38
 1555 006d 0B       		.uleb128 0xb
 1556 006e 00       		.byte	0
 1557 006f 00       		.byte	0
 1558 0070 09       		.uleb128 0x9
 1559 0071 0F       		.uleb128 0xf
 1560 0072 00       		.byte	0
 1561 0073 0B       		.uleb128 0xb
 1562 0074 0B       		.uleb128 0xb
 1563 0075 49       		.uleb128 0x49
 1564 0076 13       		.uleb128 0x13
 1565 0077 00       		.byte	0
 1566 0078 00       		.byte	0
 1567 0079 0A       		.uleb128 0xa
 1568 007a 13       		.uleb128 0x13
 1569 007b 01       		.byte	0x1
 1570 007c 03       		.uleb128 0x3
 1571 007d 0E       		.uleb128 0xe
 1572 007e 0B       		.uleb128 0xb
 1573 007f 0B       		.uleb128 0xb
 1574 0080 3A       		.uleb128 0x3a
 1575 0081 0B       		.uleb128 0xb
 1576 0082 3B       		.uleb128 0x3b
 1577 0083 05       		.uleb128 0x5
 1578 0084 01       		.uleb128 0x1
 1579 0085 13       		.uleb128 0x13
 1580 0086 00       		.byte	0
 1581 0087 00       		.byte	0
 1582 0088 0B       		.uleb128 0xb
 1583 0089 15       		.uleb128 0x15
 1584 008a 01       		.byte	0x1
 1585 008b 27       		.uleb128 0x27
 1586 008c 19       		.uleb128 0x19
 1587 008d 01       		.uleb128 0x1
 1588 008e 13       		.uleb128 0x13
 1589 008f 00       		.byte	0
 1590 0090 00       		.byte	0
 1591 0091 0C       		.uleb128 0xc
 1592 0092 05       		.uleb128 0x5
 1593 0093 00       		.byte	0
ARM GAS  /tmp/ccxaZjUR.s 			page 29


 1594 0094 49       		.uleb128 0x49
 1595 0095 13       		.uleb128 0x13
 1596 0096 00       		.byte	0
 1597 0097 00       		.byte	0
 1598 0098 0D       		.uleb128 0xd
 1599 0099 0F       		.uleb128 0xf
 1600 009a 00       		.byte	0
 1601 009b 0B       		.uleb128 0xb
 1602 009c 0B       		.uleb128 0xb
 1603 009d 00       		.byte	0
 1604 009e 00       		.byte	0
 1605 009f 0E       		.uleb128 0xe
 1606 00a0 13       		.uleb128 0x13
 1607 00a1 01       		.byte	0x1
 1608 00a2 03       		.uleb128 0x3
 1609 00a3 0E       		.uleb128 0xe
 1610 00a4 0B       		.uleb128 0xb
 1611 00a5 05       		.uleb128 0x5
 1612 00a6 3A       		.uleb128 0x3a
 1613 00a7 0B       		.uleb128 0xb
 1614 00a8 3B       		.uleb128 0x3b
 1615 00a9 05       		.uleb128 0x5
 1616 00aa 01       		.uleb128 0x1
 1617 00ab 13       		.uleb128 0x13
 1618 00ac 00       		.byte	0
 1619 00ad 00       		.byte	0
 1620 00ae 0F       		.uleb128 0xf
 1621 00af 35       		.uleb128 0x35
 1622 00b0 00       		.byte	0
 1623 00b1 49       		.uleb128 0x49
 1624 00b2 13       		.uleb128 0x13
 1625 00b3 00       		.byte	0
 1626 00b4 00       		.byte	0
 1627 00b5 10       		.uleb128 0x10
 1628 00b6 13       		.uleb128 0x13
 1629 00b7 01       		.byte	0x1
 1630 00b8 0B       		.uleb128 0xb
 1631 00b9 0B       		.uleb128 0xb
 1632 00ba 3A       		.uleb128 0x3a
 1633 00bb 0B       		.uleb128 0xb
 1634 00bc 3B       		.uleb128 0x3b
 1635 00bd 05       		.uleb128 0x5
 1636 00be 01       		.uleb128 0x1
 1637 00bf 13       		.uleb128 0x13
 1638 00c0 00       		.byte	0
 1639 00c1 00       		.byte	0
 1640 00c2 11       		.uleb128 0x11
 1641 00c3 26       		.uleb128 0x26
 1642 00c4 00       		.byte	0
 1643 00c5 49       		.uleb128 0x49
 1644 00c6 13       		.uleb128 0x13
 1645 00c7 00       		.byte	0
 1646 00c8 00       		.byte	0
 1647 00c9 12       		.uleb128 0x12
 1648 00ca 01       		.uleb128 0x1
 1649 00cb 01       		.byte	0x1
 1650 00cc 49       		.uleb128 0x49
ARM GAS  /tmp/ccxaZjUR.s 			page 30


 1651 00cd 13       		.uleb128 0x13
 1652 00ce 01       		.uleb128 0x1
 1653 00cf 13       		.uleb128 0x13
 1654 00d0 00       		.byte	0
 1655 00d1 00       		.byte	0
 1656 00d2 13       		.uleb128 0x13
 1657 00d3 21       		.uleb128 0x21
 1658 00d4 00       		.byte	0
 1659 00d5 49       		.uleb128 0x49
 1660 00d6 13       		.uleb128 0x13
 1661 00d7 2F       		.uleb128 0x2f
 1662 00d8 0B       		.uleb128 0xb
 1663 00d9 00       		.byte	0
 1664 00da 00       		.byte	0
 1665 00db 14       		.uleb128 0x14
 1666 00dc 16       		.uleb128 0x16
 1667 00dd 00       		.byte	0
 1668 00de 03       		.uleb128 0x3
 1669 00df 0E       		.uleb128 0xe
 1670 00e0 3A       		.uleb128 0x3a
 1671 00e1 0B       		.uleb128 0xb
 1672 00e2 3B       		.uleb128 0x3b
 1673 00e3 05       		.uleb128 0x5
 1674 00e4 49       		.uleb128 0x49
 1675 00e5 13       		.uleb128 0x13
 1676 00e6 00       		.byte	0
 1677 00e7 00       		.byte	0
 1678 00e8 15       		.uleb128 0x15
 1679 00e9 0D       		.uleb128 0xd
 1680 00ea 00       		.byte	0
 1681 00eb 03       		.uleb128 0x3
 1682 00ec 08       		.uleb128 0x8
 1683 00ed 3A       		.uleb128 0x3a
 1684 00ee 0B       		.uleb128 0xb
 1685 00ef 3B       		.uleb128 0x3b
 1686 00f0 0B       		.uleb128 0xb
 1687 00f1 49       		.uleb128 0x49
 1688 00f2 13       		.uleb128 0x13
 1689 00f3 38       		.uleb128 0x38
 1690 00f4 0B       		.uleb128 0xb
 1691 00f5 00       		.byte	0
 1692 00f6 00       		.byte	0
 1693 00f7 16       		.uleb128 0x16
 1694 00f8 13       		.uleb128 0x13
 1695 00f9 01       		.byte	0x1
 1696 00fa 0B       		.uleb128 0xb
 1697 00fb 0B       		.uleb128 0xb
 1698 00fc 3A       		.uleb128 0x3a
 1699 00fd 0B       		.uleb128 0xb
 1700 00fe 3B       		.uleb128 0x3b
 1701 00ff 0B       		.uleb128 0xb
 1702 0100 01       		.uleb128 0x1
 1703 0101 13       		.uleb128 0x13
 1704 0102 00       		.byte	0
 1705 0103 00       		.byte	0
 1706 0104 17       		.uleb128 0x17
 1707 0105 17       		.uleb128 0x17
ARM GAS  /tmp/ccxaZjUR.s 			page 31


 1708 0106 01       		.byte	0x1
 1709 0107 0B       		.uleb128 0xb
 1710 0108 0B       		.uleb128 0xb
 1711 0109 3A       		.uleb128 0x3a
 1712 010a 0B       		.uleb128 0xb
 1713 010b 3B       		.uleb128 0x3b
 1714 010c 0B       		.uleb128 0xb
 1715 010d 01       		.uleb128 0x1
 1716 010e 13       		.uleb128 0x13
 1717 010f 00       		.byte	0
 1718 0110 00       		.byte	0
 1719 0111 18       		.uleb128 0x18
 1720 0112 0D       		.uleb128 0xd
 1721 0113 00       		.byte	0
 1722 0114 03       		.uleb128 0x3
 1723 0115 0E       		.uleb128 0xe
 1724 0116 3A       		.uleb128 0x3a
 1725 0117 0B       		.uleb128 0xb
 1726 0118 3B       		.uleb128 0x3b
 1727 0119 05       		.uleb128 0x5
 1728 011a 49       		.uleb128 0x49
 1729 011b 13       		.uleb128 0x13
 1730 011c 00       		.byte	0
 1731 011d 00       		.byte	0
 1732 011e 19       		.uleb128 0x19
 1733 011f 2E       		.uleb128 0x2e
 1734 0120 01       		.byte	0x1
 1735 0121 03       		.uleb128 0x3
 1736 0122 0E       		.uleb128 0xe
 1737 0123 3A       		.uleb128 0x3a
 1738 0124 0B       		.uleb128 0xb
 1739 0125 3B       		.uleb128 0x3b
 1740 0126 05       		.uleb128 0x5
 1741 0127 27       		.uleb128 0x27
 1742 0128 19       		.uleb128 0x19
 1743 0129 20       		.uleb128 0x20
 1744 012a 0B       		.uleb128 0xb
 1745 012b 01       		.uleb128 0x1
 1746 012c 13       		.uleb128 0x13
 1747 012d 00       		.byte	0
 1748 012e 00       		.byte	0
 1749 012f 1A       		.uleb128 0x1a
 1750 0130 05       		.uleb128 0x5
 1751 0131 00       		.byte	0
 1752 0132 03       		.uleb128 0x3
 1753 0133 0E       		.uleb128 0xe
 1754 0134 3A       		.uleb128 0x3a
 1755 0135 0B       		.uleb128 0xb
 1756 0136 3B       		.uleb128 0x3b
 1757 0137 05       		.uleb128 0x5
 1758 0138 49       		.uleb128 0x49
 1759 0139 13       		.uleb128 0x13
 1760 013a 00       		.byte	0
 1761 013b 00       		.byte	0
 1762 013c 1B       		.uleb128 0x1b
 1763 013d 2E       		.uleb128 0x2e
 1764 013e 00       		.byte	0
ARM GAS  /tmp/ccxaZjUR.s 			page 32


 1765 013f 03       		.uleb128 0x3
 1766 0140 0E       		.uleb128 0xe
 1767 0141 3A       		.uleb128 0x3a
 1768 0142 0B       		.uleb128 0xb
 1769 0143 3B       		.uleb128 0x3b
 1770 0144 05       		.uleb128 0x5
 1771 0145 27       		.uleb128 0x27
 1772 0146 19       		.uleb128 0x19
 1773 0147 20       		.uleb128 0x20
 1774 0148 0B       		.uleb128 0xb
 1775 0149 00       		.byte	0
 1776 014a 00       		.byte	0
 1777 014b 1C       		.uleb128 0x1c
 1778 014c 2E       		.uleb128 0x2e
 1779 014d 01       		.byte	0x1
 1780 014e 03       		.uleb128 0x3
 1781 014f 0E       		.uleb128 0xe
 1782 0150 3A       		.uleb128 0x3a
 1783 0151 0B       		.uleb128 0xb
 1784 0152 3B       		.uleb128 0x3b
 1785 0153 05       		.uleb128 0x5
 1786 0154 27       		.uleb128 0x27
 1787 0155 19       		.uleb128 0x19
 1788 0156 49       		.uleb128 0x49
 1789 0157 13       		.uleb128 0x13
 1790 0158 20       		.uleb128 0x20
 1791 0159 0B       		.uleb128 0xb
 1792 015a 01       		.uleb128 0x1
 1793 015b 13       		.uleb128 0x13
 1794 015c 00       		.byte	0
 1795 015d 00       		.byte	0
 1796 015e 1D       		.uleb128 0x1d
 1797 015f 34       		.uleb128 0x34
 1798 0160 00       		.byte	0
 1799 0161 03       		.uleb128 0x3
 1800 0162 0E       		.uleb128 0xe
 1801 0163 3A       		.uleb128 0x3a
 1802 0164 0B       		.uleb128 0xb
 1803 0165 3B       		.uleb128 0x3b
 1804 0166 05       		.uleb128 0x5
 1805 0167 49       		.uleb128 0x49
 1806 0168 13       		.uleb128 0x13
 1807 0169 00       		.byte	0
 1808 016a 00       		.byte	0
 1809 016b 1E       		.uleb128 0x1e
 1810 016c 2E       		.uleb128 0x2e
 1811 016d 01       		.byte	0x1
 1812 016e 3F       		.uleb128 0x3f
 1813 016f 19       		.uleb128 0x19
 1814 0170 03       		.uleb128 0x3
 1815 0171 0E       		.uleb128 0xe
 1816 0172 3A       		.uleb128 0x3a
 1817 0173 0B       		.uleb128 0xb
 1818 0174 3B       		.uleb128 0x3b
 1819 0175 0B       		.uleb128 0xb
 1820 0176 27       		.uleb128 0x27
 1821 0177 19       		.uleb128 0x19
ARM GAS  /tmp/ccxaZjUR.s 			page 33


 1822 0178 11       		.uleb128 0x11
 1823 0179 01       		.uleb128 0x1
 1824 017a 12       		.uleb128 0x12
 1825 017b 06       		.uleb128 0x6
 1826 017c 40       		.uleb128 0x40
 1827 017d 18       		.uleb128 0x18
 1828 017e 9742     		.uleb128 0x2117
 1829 0180 19       		.uleb128 0x19
 1830 0181 01       		.uleb128 0x1
 1831 0182 13       		.uleb128 0x13
 1832 0183 00       		.byte	0
 1833 0184 00       		.byte	0
 1834 0185 1F       		.uleb128 0x1f
 1835 0186 34       		.uleb128 0x34
 1836 0187 00       		.byte	0
 1837 0188 03       		.uleb128 0x3
 1838 0189 0E       		.uleb128 0xe
 1839 018a 3A       		.uleb128 0x3a
 1840 018b 0B       		.uleb128 0xb
 1841 018c 3B       		.uleb128 0x3b
 1842 018d 0B       		.uleb128 0xb
 1843 018e 49       		.uleb128 0x49
 1844 018f 13       		.uleb128 0x13
 1845 0190 02       		.uleb128 0x2
 1846 0191 17       		.uleb128 0x17
 1847 0192 00       		.byte	0
 1848 0193 00       		.byte	0
 1849 0194 20       		.uleb128 0x20
 1850 0195 1D       		.uleb128 0x1d
 1851 0196 01       		.byte	0x1
 1852 0197 31       		.uleb128 0x31
 1853 0198 13       		.uleb128 0x13
 1854 0199 11       		.uleb128 0x11
 1855 019a 01       		.uleb128 0x1
 1856 019b 12       		.uleb128 0x12
 1857 019c 06       		.uleb128 0x6
 1858 019d 58       		.uleb128 0x58
 1859 019e 0B       		.uleb128 0xb
 1860 019f 59       		.uleb128 0x59
 1861 01a0 0B       		.uleb128 0xb
 1862 01a1 01       		.uleb128 0x1
 1863 01a2 13       		.uleb128 0x13
 1864 01a3 00       		.byte	0
 1865 01a4 00       		.byte	0
 1866 01a5 21       		.uleb128 0x21
 1867 01a6 0B       		.uleb128 0xb
 1868 01a7 01       		.byte	0x1
 1869 01a8 11       		.uleb128 0x11
 1870 01a9 01       		.uleb128 0x1
 1871 01aa 12       		.uleb128 0x12
 1872 01ab 06       		.uleb128 0x6
 1873 01ac 00       		.byte	0
 1874 01ad 00       		.byte	0
 1875 01ae 22       		.uleb128 0x22
 1876 01af 34       		.uleb128 0x34
 1877 01b0 00       		.byte	0
 1878 01b1 31       		.uleb128 0x31
ARM GAS  /tmp/ccxaZjUR.s 			page 34


 1879 01b2 13       		.uleb128 0x13
 1880 01b3 02       		.uleb128 0x2
 1881 01b4 17       		.uleb128 0x17
 1882 01b5 00       		.byte	0
 1883 01b6 00       		.byte	0
 1884 01b7 23       		.uleb128 0x23
 1885 01b8 05       		.uleb128 0x5
 1886 01b9 00       		.byte	0
 1887 01ba 31       		.uleb128 0x31
 1888 01bb 13       		.uleb128 0x13
 1889 01bc 02       		.uleb128 0x2
 1890 01bd 17       		.uleb128 0x17
 1891 01be 00       		.byte	0
 1892 01bf 00       		.byte	0
 1893 01c0 24       		.uleb128 0x24
 1894 01c1 1D       		.uleb128 0x1d
 1895 01c2 01       		.byte	0x1
 1896 01c3 31       		.uleb128 0x31
 1897 01c4 13       		.uleb128 0x13
 1898 01c5 11       		.uleb128 0x11
 1899 01c6 01       		.uleb128 0x1
 1900 01c7 12       		.uleb128 0x12
 1901 01c8 06       		.uleb128 0x6
 1902 01c9 58       		.uleb128 0x58
 1903 01ca 0B       		.uleb128 0xb
 1904 01cb 59       		.uleb128 0x59
 1905 01cc 0B       		.uleb128 0xb
 1906 01cd 00       		.byte	0
 1907 01ce 00       		.byte	0
 1908 01cf 25       		.uleb128 0x25
 1909 01d0 1D       		.uleb128 0x1d
 1910 01d1 01       		.byte	0x1
 1911 01d2 31       		.uleb128 0x31
 1912 01d3 13       		.uleb128 0x13
 1913 01d4 11       		.uleb128 0x11
 1914 01d5 01       		.uleb128 0x1
 1915 01d6 12       		.uleb128 0x12
 1916 01d7 06       		.uleb128 0x6
 1917 01d8 58       		.uleb128 0x58
 1918 01d9 0B       		.uleb128 0xb
 1919 01da 59       		.uleb128 0x59
 1920 01db 05       		.uleb128 0x5
 1921 01dc 00       		.byte	0
 1922 01dd 00       		.byte	0
 1923 01de 26       		.uleb128 0x26
 1924 01df 05       		.uleb128 0x5
 1925 01e0 00       		.byte	0
 1926 01e1 31       		.uleb128 0x31
 1927 01e2 13       		.uleb128 0x13
 1928 01e3 1C       		.uleb128 0x1c
 1929 01e4 0B       		.uleb128 0xb
 1930 01e5 00       		.byte	0
 1931 01e6 00       		.byte	0
 1932 01e7 27       		.uleb128 0x27
 1933 01e8 898201   		.uleb128 0x4109
 1934 01eb 00       		.byte	0
 1935 01ec 11       		.uleb128 0x11
ARM GAS  /tmp/ccxaZjUR.s 			page 35


 1936 01ed 01       		.uleb128 0x1
 1937 01ee 31       		.uleb128 0x31
 1938 01ef 13       		.uleb128 0x13
 1939 01f0 00       		.byte	0
 1940 01f1 00       		.byte	0
 1941 01f2 28       		.uleb128 0x28
 1942 01f3 34       		.uleb128 0x34
 1943 01f4 00       		.byte	0
 1944 01f5 03       		.uleb128 0x3
 1945 01f6 0E       		.uleb128 0xe
 1946 01f7 3A       		.uleb128 0x3a
 1947 01f8 0B       		.uleb128 0xb
 1948 01f9 3B       		.uleb128 0x3b
 1949 01fa 05       		.uleb128 0x5
 1950 01fb 49       		.uleb128 0x49
 1951 01fc 13       		.uleb128 0x13
 1952 01fd 3F       		.uleb128 0x3f
 1953 01fe 19       		.uleb128 0x19
 1954 01ff 3C       		.uleb128 0x3c
 1955 0200 19       		.uleb128 0x19
 1956 0201 00       		.byte	0
 1957 0202 00       		.byte	0
 1958 0203 29       		.uleb128 0x29
 1959 0204 34       		.uleb128 0x34
 1960 0205 00       		.byte	0
 1961 0206 03       		.uleb128 0x3
 1962 0207 08       		.uleb128 0x8
 1963 0208 3A       		.uleb128 0x3a
 1964 0209 0B       		.uleb128 0xb
 1965 020a 3B       		.uleb128 0x3b
 1966 020b 05       		.uleb128 0x5
 1967 020c 49       		.uleb128 0x49
 1968 020d 13       		.uleb128 0x13
 1969 020e 3F       		.uleb128 0x3f
 1970 020f 19       		.uleb128 0x19
 1971 0210 3C       		.uleb128 0x3c
 1972 0211 19       		.uleb128 0x19
 1973 0212 00       		.byte	0
 1974 0213 00       		.byte	0
 1975 0214 2A       		.uleb128 0x2a
 1976 0215 2E       		.uleb128 0x2e
 1977 0216 00       		.byte	0
 1978 0217 3F       		.uleb128 0x3f
 1979 0218 19       		.uleb128 0x19
 1980 0219 03       		.uleb128 0x3
 1981 021a 0E       		.uleb128 0xe
 1982 021b 3A       		.uleb128 0x3a
 1983 021c 0B       		.uleb128 0xb
 1984 021d 3B       		.uleb128 0x3b
 1985 021e 05       		.uleb128 0x5
 1986 021f 27       		.uleb128 0x27
 1987 0220 19       		.uleb128 0x19
 1988 0221 49       		.uleb128 0x49
 1989 0222 13       		.uleb128 0x13
 1990 0223 3C       		.uleb128 0x3c
 1991 0224 19       		.uleb128 0x19
 1992 0225 00       		.byte	0
ARM GAS  /tmp/ccxaZjUR.s 			page 36


 1993 0226 00       		.byte	0
 1994 0227 00       		.byte	0
 1995              		.section	.debug_loc,"",%progbits
 1996              	.Ldebug_loc0:
 1997              	.LLST0:
 1998 0000 04000000 		.4byte	.LVL0
 1999 0004 06000000 		.4byte	.LVL1
 2000 0008 0300     		.2byte	0x3
 2001 000a 73       		.byte	0x73
 2002 000b 20       		.sleb128 32
 2003 000c 9F       		.byte	0x9f
 2004 000d 06000000 		.4byte	.LVL1
 2005 0011 0C000000 		.4byte	.LVL3
 2006 0015 0100     		.2byte	0x1
 2007 0017 53       		.byte	0x53
 2008 0018 00000000 		.4byte	0
 2009 001c 00000000 		.4byte	0
 2010              	.LLST1:
 2011 0020 04000000 		.4byte	.LVL0
 2012 0024 06000000 		.4byte	.LVL1
 2013 0028 0100     		.2byte	0x1
 2014 002a 53       		.byte	0x53
 2015 002b 06000000 		.4byte	.LVL1
 2016 002f 0C000000 		.4byte	.LVL3
 2017 0033 0300     		.2byte	0x3
 2018 0035 73       		.byte	0x73
 2019 0036 60       		.sleb128 -32
 2020 0037 9F       		.byte	0x9f
 2021 0038 00000000 		.4byte	0
 2022 003c 00000000 		.4byte	0
 2023              	.LLST3:
 2024 0040 10000000 		.4byte	.LVL5
 2025 0044 16000000 		.4byte	.LVL6
 2026 0048 0200     		.2byte	0x2
 2027 004a 30       		.byte	0x30
 2028 004b 9F       		.byte	0x9f
 2029 004c 00000000 		.4byte	0
 2030 0050 00000000 		.4byte	0
 2031              	.LLST4:
 2032 0054 1C000000 		.4byte	.LVL7
 2033 0058 28000000 		.4byte	.LVL9
 2034 005c 0300     		.2byte	0x3
 2035 005e 74       		.byte	0x74
 2036 005f 60       		.sleb128 -32
 2037 0060 9F       		.byte	0x9f
 2038 0061 28000000 		.4byte	.LVL9
 2039 0065 2F000000 		.4byte	.LVL10-1
 2040 0069 0100     		.2byte	0x1
 2041 006b 53       		.byte	0x53
 2042 006c 2F000000 		.4byte	.LVL10-1
 2043 0070 42000000 		.4byte	.LVL12
 2044 0074 0300     		.2byte	0x3
 2045 0076 74       		.byte	0x74
 2046 0077 60       		.sleb128 -32
 2047 0078 9F       		.byte	0x9f
 2048 0079 00000000 		.4byte	0
 2049 007d 00000000 		.4byte	0
ARM GAS  /tmp/ccxaZjUR.s 			page 37


 2050              	.LLST5:
 2051 0081 1C000000 		.4byte	.LVL7
 2052 0085 42000000 		.4byte	.LVL12
 2053 0089 0100     		.2byte	0x1
 2054 008b 54       		.byte	0x54
 2055 008c 00000000 		.4byte	0
 2056 0090 00000000 		.4byte	0
 2057              	.LLST6:
 2058 0094 24000000 		.4byte	.LVL8
 2059 0098 28000000 		.4byte	.LVL9
 2060 009c 0300     		.2byte	0x3
 2061 009e 74       		.byte	0x74
 2062 009f 60       		.sleb128 -32
 2063 00a0 9F       		.byte	0x9f
 2064 00a1 28000000 		.4byte	.LVL9
 2065 00a5 2F000000 		.4byte	.LVL10-1
 2066 00a9 0100     		.2byte	0x1
 2067 00ab 53       		.byte	0x53
 2068 00ac 2F000000 		.4byte	.LVL10-1
 2069 00b0 42000000 		.4byte	.LVL12
 2070 00b4 0300     		.2byte	0x3
 2071 00b6 74       		.byte	0x74
 2072 00b7 60       		.sleb128 -32
 2073 00b8 9F       		.byte	0x9f
 2074 00b9 00000000 		.4byte	0
 2075 00bd 00000000 		.4byte	0
 2076              		.section	.debug_aranges,"",%progbits
 2077 0000 24000000 		.4byte	0x24
 2078 0004 0200     		.2byte	0x2
 2079 0006 00000000 		.4byte	.Ldebug_info0
 2080 000a 04       		.byte	0x4
 2081 000b 00       		.byte	0
 2082 000c 0000     		.2byte	0
 2083 000e 0000     		.2byte	0
 2084 0010 00000000 		.4byte	.LFB170
 2085 0014 12000000 		.4byte	.LFE170-.LFB170
 2086 0018 00000000 		.4byte	.LFB171
 2087 001c 50000000 		.4byte	.LFE171-.LFB171
 2088 0020 00000000 		.4byte	0
 2089 0024 00000000 		.4byte	0
 2090              		.section	.debug_ranges,"",%progbits
 2091              	.Ldebug_ranges0:
 2092 0000 00000000 		.4byte	.LFB170
 2093 0004 12000000 		.4byte	.LFE170
 2094 0008 00000000 		.4byte	.LFB171
 2095 000c 50000000 		.4byte	.LFE171
 2096 0010 00000000 		.4byte	0
 2097 0014 00000000 		.4byte	0
 2098              		.section	.debug_line,"",%progbits
 2099              	.Ldebug_line0:
 2100 0000 28020000 		.section	.debug_str,"MS",%progbits,1
 2100      0200BA01 
 2100      00000201 
 2100      FB0E0D00 
 2100      01010101 
 2101              	.LASF52:
 2102 0000 72656164 		.ascii	"ready_list_t\000"
ARM GAS  /tmp/ccxaZjUR.s 			page 38


 2102      795F6C69 
 2102      73745F74 
 2102      00
 2103              	.LASF109:
 2104 000d 77747472 		.ascii	"wttrp\000"
 2104      7000
 2105              	.LASF106:
 2106 0013 7264796D 		.ascii	"rdymsg\000"
 2106      736700
 2107              	.LASF16:
 2108 001a 75696E74 		.ascii	"uint64_t\000"
 2108      36345F74 
 2108      00
 2109              	.LASF5:
 2110 0023 5F5F7569 		.ascii	"__uint8_t\000"
 2110      6E74385F 
 2110      7400
 2111              	.LASF100:
 2112 002d 706F7274 		.ascii	"port_intctx\000"
 2112      5F696E74 
 2112      63747800 
 2113              	.LASF71:
 2114 0039 73797374 		.ascii	"system_debug_t\000"
 2114      656D5F64 
 2114      65627567 
 2114      5F7400
 2115              	.LASF122:
 2116 0048 706F7274 		.ascii	"port_lock\000"
 2116      5F6C6F63 
 2116      6B00
 2117              	.LASF12:
 2118 0052 6C6F6E67 		.ascii	"long long unsigned int\000"
 2118      206C6F6E 
 2118      6720756E 
 2118      7369676E 
 2118      65642069 
 2119              	.LASF107:
 2120 0069 65786974 		.ascii	"exitcode\000"
 2120      636F6465 
 2120      00
 2121              	.LASF78:
 2122 0072 6D61696E 		.ascii	"mainthread\000"
 2122      74687265 
 2122      616400
 2123              	.LASF68:
 2124 007d 76697274 		.ascii	"virtual_timers_list_t\000"
 2124      75616C5F 
 2124      74696D65 
 2124      72735F6C 
 2124      6973745F 
 2125              	.LASF81:
 2126 0093 43505549 		.ascii	"CPUID\000"
 2126      4400
 2127              	.LASF51:
 2128 0099 63685F74 		.ascii	"ch_threads_queue\000"
 2128      68726561 
 2128      64735F71 
ARM GAS  /tmp/ccxaZjUR.s 			page 39


 2128      75657565 
 2128      00
 2129              	.LASF30:
 2130 00aa 705F7072 		.ascii	"p_prio\000"
 2130      696F00
 2131              	.LASF70:
 2132 00b1 76745F73 		.ascii	"vt_systime\000"
 2132      79737469 
 2132      6D6500
 2133              	.LASF10:
 2134 00bc 6C6F6E67 		.ascii	"long long int\000"
 2134      206C6F6E 
 2134      6720696E 
 2134      7400
 2135              	.LASF1:
 2136 00ca 7369676E 		.ascii	"signed char\000"
 2136      65642063 
 2136      68617200 
 2137              	.LASF45:
 2138 00d6 705F6D70 		.ascii	"p_mpool\000"
 2138      6F6F6C00 
 2139              	.LASF117:
 2140 00de 6D5F7175 		.ascii	"m_queue\000"
 2140      65756500 
 2141              	.LASF93:
 2142 00e6 49534152 		.ascii	"ISAR\000"
 2142      00
 2143              	.LASF77:
 2144 00eb 76746C69 		.ascii	"vtlist\000"
 2144      737400
 2145              	.LASF123:
 2146 00f2 706F7274 		.ascii	"port_unlock\000"
 2146      5F756E6C 
 2146      6F636B00 
 2147              	.LASF21:
 2148 00fe 74736C69 		.ascii	"tslices_t\000"
 2148      6365735F 
 2148      7400
 2149              	.LASF136:
 2150 0108 2F686F6D 		.ascii	"/home/peter/ChibiOS_16.1.4/os/rt/ports/ARMCMx/chcor"
 2150      652F7065 
 2150      7465722F 
 2150      43686962 
 2150      694F535F 
 2151 013b 655F7637 		.ascii	"e_v7m.c\000"
 2151      6D2E6300 
 2152              	.LASF75:
 2153 0143 63685F73 		.ascii	"ch_system\000"
 2153      79737465 
 2153      6D00
 2154              	.LASF7:
 2155 014d 6C6F6E67 		.ascii	"long int\000"
 2155      20696E74 
 2155      00
 2156              	.LASF19:
 2157 0156 74737461 		.ascii	"tstate_t\000"
 2157      74655F74 
ARM GAS  /tmp/ccxaZjUR.s 			page 40


 2157      00
 2158              	.LASF139:
 2159 015f 63685363 		.ascii	"chSchIsPreemptionRequired\000"
 2159      68497350 
 2159      7265656D 
 2159      7074696F 
 2159      6E526571 
 2160              	.LASF32:
 2161 0179 705F6E65 		.ascii	"p_newer\000"
 2161      77657200 
 2162              	.LASF114:
 2163 0181 735F7175 		.ascii	"s_queue\000"
 2163      65756500 
 2164              	.LASF90:
 2165 0189 42464152 		.ascii	"BFAR\000"
 2165      00
 2166              	.LASF91:
 2167 018e 41465352 		.ascii	"AFSR\000"
 2167      00
 2168              	.LASF57:
 2169 0193 725F6E65 		.ascii	"r_newer\000"
 2169      77657200 
 2170              	.LASF97:
 2171 019b 72656761 		.ascii	"regarm_t\000"
 2171      726D5F74 
 2171      00
 2172              	.LASF64:
 2173 01a4 76745F70 		.ascii	"vt_prev\000"
 2173      72657600 
 2174              	.LASF96:
 2175 01ac 5343425F 		.ascii	"SCB_Type\000"
 2175      54797065 
 2175      00
 2176              	.LASF121:
 2177 01b5 6D757465 		.ascii	"mutex_t\000"
 2177      785F7400 
 2178              	.LASF126:
 2179 01bd 76616C75 		.ascii	"value\000"
 2179      6500
 2180              	.LASF79:
 2181 01c3 69646C65 		.ascii	"idle_thread_wa\000"
 2181      5F746872 
 2181      6561645F 
 2181      776100
 2182              	.LASF25:
 2183 01d2 636E745F 		.ascii	"cnt_t\000"
 2183      7400
 2184              	.LASF0:
 2185 01d8 756E7369 		.ascii	"unsigned int\000"
 2185      676E6564 
 2185      20696E74 
 2185      00
 2186              	.LASF125:
 2187 01e5 5F5F7365 		.ascii	"__set_PSP\000"
 2187      745F5053 
 2187      5000
 2188              	.LASF63:
ARM GAS  /tmp/ccxaZjUR.s 			page 41


 2189 01ef 76745F6E 		.ascii	"vt_next\000"
 2189      65787400 
 2190              	.LASF110:
 2191 01f7 77747365 		.ascii	"wtsemp\000"
 2191      6D7000
 2192              	.LASF40:
 2193 01fe 705F6D73 		.ascii	"p_msgqueue\000"
 2193      67717565 
 2193      756500
 2194              	.LASF83:
 2195 0209 56544F52 		.ascii	"VTOR\000"
 2195      00
 2196              	.LASF115:
 2197 020e 735F636E 		.ascii	"s_cnt\000"
 2197      7400
 2198              	.LASF48:
 2199 0214 63685F74 		.ascii	"ch_thread\000"
 2199      68726561 
 2199      6400
 2200              	.LASF82:
 2201 021e 49435352 		.ascii	"ICSR\000"
 2201      00
 2202              	.LASF23:
 2203 0223 6D73675F 		.ascii	"msg_t\000"
 2203      7400
 2204              	.LASF84:
 2205 0229 41495243 		.ascii	"AIRCR\000"
 2205      5200
 2206              	.LASF88:
 2207 022f 44465352 		.ascii	"DFSR\000"
 2207      00
 2208              	.LASF89:
 2209 0234 4D4D4641 		.ascii	"MMFAR\000"
 2209      5200
 2210              	.LASF131:
 2211 023a 5F706F72 		.ascii	"_port_irq_epilogue\000"
 2211      745F6972 
 2211      715F6570 
 2211      696C6F67 
 2211      756500
 2212              	.LASF18:
 2213 024d 746D6F64 		.ascii	"tmode_t\000"
 2213      655F7400 
 2214              	.LASF53:
 2215 0255 63685F72 		.ascii	"ch_ready_list\000"
 2215      65616479 
 2215      5F6C6973 
 2215      7400
 2216              	.LASF24:
 2217 0263 6576656E 		.ascii	"eventmask_t\000"
 2217      746D6173 
 2217      6B5F7400 
 2218              	.LASF127:
 2219 026f 746F704F 		.ascii	"topOfProcStack\000"
 2219      6650726F 
 2219      63537461 
 2219      636B00
ARM GAS  /tmp/ccxaZjUR.s 			page 42


 2220              	.LASF6:
 2221 027e 5F5F696E 		.ascii	"__int32_t\000"
 2221      7433325F 
 2221      7400
 2222              	.LASF98:
 2223 0288 73746B61 		.ascii	"stkalign_t\000"
 2223      6C69676E 
 2223      5F7400
 2224              	.LASF47:
 2225 0293 74687265 		.ascii	"threads_list_t\000"
 2225      6164735F 
 2225      6C697374 
 2225      5F7400
 2226              	.LASF39:
 2227 02a2 705F7761 		.ascii	"p_waiting\000"
 2227      6974696E 
 2227      6700
 2228              	.LASF80:
 2229 02ac 73697A65 		.ascii	"sizetype\000"
 2229      74797065 
 2229      00
 2230              	.LASF46:
 2231 02b5 74687265 		.ascii	"thread_reference_t\000"
 2231      61645F72 
 2231      65666572 
 2231      656E6365 
 2231      5F7400
 2232              	.LASF69:
 2233 02c8 63685F76 		.ascii	"ch_virtual_timers_list\000"
 2233      69727475 
 2233      616C5F74 
 2233      696D6572 
 2233      735F6C69 
 2234              	.LASF86:
 2235 02df 43465352 		.ascii	"CFSR\000"
 2235      00
 2236              	.LASF33:
 2237 02e4 705F6F6C 		.ascii	"p_older\000"
 2237      64657200 
 2238              	.LASF56:
 2239 02ec 725F6374 		.ascii	"r_ctx\000"
 2239      7800
 2240              	.LASF101:
 2241 02f2 706F7274 		.ascii	"port_extctx\000"
 2241      5F657874 
 2241      63747800 
 2242              	.LASF105:
 2243 02fe 746D5F63 		.ascii	"tm_calibration_t\000"
 2243      616C6962 
 2243      72617469 
 2243      6F6E5F74 
 2243      00
 2244              	.LASF59:
 2245 030f 725F6375 		.ascii	"r_current\000"
 2245      7272656E 
 2245      7400
 2246              	.LASF58:
ARM GAS  /tmp/ccxaZjUR.s 			page 43


 2247 0319 725F6F6C 		.ascii	"r_older\000"
 2247      64657200 
 2248              	.LASF11:
 2249 0321 5F5F7569 		.ascii	"__uint64_t\000"
 2249      6E743634 
 2249      5F7400
 2250              	.LASF20:
 2251 032c 74726566 		.ascii	"trefs_t\000"
 2251      735F7400 
 2252              	.LASF94:
 2253 0334 52455345 		.ascii	"RESERVED0\000"
 2253      52564544 
 2253      3000
 2254              	.LASF132:
 2255 033e 63747870 		.ascii	"ctxp\000"
 2255      00
 2256              	.LASF61:
 2257 0343 76697274 		.ascii	"virtual_timer_t\000"
 2257      75616C5F 
 2257      74696D65 
 2257      725F7400 
 2258              	.LASF29:
 2259 0353 705F7072 		.ascii	"p_prev\000"
 2259      657600
 2260              	.LASF22:
 2261 035a 74707269 		.ascii	"tprio_t\000"
 2261      6F5F7400 
 2262              	.LASF72:
 2263 0362 63685F73 		.ascii	"ch_system_debug\000"
 2263      79737465 
 2263      6D5F6465 
 2263      62756700 
 2264              	.LASF134:
 2265 0372 5F426F6F 		.ascii	"_Bool\000"
 2265      6C00
 2266              	.LASF14:
 2267 0378 696E7433 		.ascii	"int32_t\000"
 2267      325F7400 
 2268              	.LASF2:
 2269 0380 756E7369 		.ascii	"unsigned char\000"
 2269      676E6564 
 2269      20636861 
 2269      7200
 2270              	.LASF85:
 2271 038e 53484353 		.ascii	"SHCSR\000"
 2271      5200
 2272              	.LASF133:
 2273 0394 49544D5F 		.ascii	"ITM_RxBuffer\000"
 2273      52784275 
 2273      66666572 
 2273      00
 2274              	.LASF43:
 2275 03a1 705F6D74 		.ascii	"p_mtxlist\000"
 2275      786C6973 
 2275      7400
 2276              	.LASF3:
 2277 03ab 73686F72 		.ascii	"short int\000"
ARM GAS  /tmp/ccxaZjUR.s 			page 44


 2277      7420696E 
 2277      7400
 2278              	.LASF35:
 2279 03b5 705F7374 		.ascii	"p_state\000"
 2279      61746500 
 2280              	.LASF38:
 2281 03bd 705F7072 		.ascii	"p_preempt\000"
 2281      65656D70 
 2281      7400
 2282              	.LASF103:
 2283 03c7 78707372 		.ascii	"xpsr\000"
 2283      00
 2284              	.LASF55:
 2285 03cc 725F7072 		.ascii	"r_prio\000"
 2285      696F00
 2286              	.LASF112:
 2287 03d3 65776D61 		.ascii	"ewmask\000"
 2287      736B00
 2288              	.LASF28:
 2289 03da 705F6E65 		.ascii	"p_next\000"
 2289      787400
 2290              	.LASF36:
 2291 03e1 705F666C 		.ascii	"p_flags\000"
 2291      61677300 
 2292              	.LASF4:
 2293 03e9 73686F72 		.ascii	"short unsigned int\000"
 2293      7420756E 
 2293      7369676E 
 2293      65642069 
 2293      6E7400
 2294              	.LASF102:
 2295 03fc 6C725F74 		.ascii	"lr_thd\000"
 2295      686400
 2296              	.LASF130:
 2297 0403 5356435F 		.ascii	"SVC_Handler\000"
 2297      48616E64 
 2297      6C657200 
 2298              	.LASF62:
 2299 040f 63685F76 		.ascii	"ch_virtual_timer\000"
 2299      69727475 
 2299      616C5F74 
 2299      696D6572 
 2299      00
 2300              	.LASF113:
 2301 0420 63685F73 		.ascii	"ch_semaphore\000"
 2301      656D6170 
 2301      686F7265 
 2301      00
 2302              	.LASF42:
 2303 042d 705F6570 		.ascii	"p_epending\000"
 2303      656E6469 
 2303      6E6700
 2304              	.LASF15:
 2305 0438 75696E74 		.ascii	"uint32_t\000"
 2305      33325F74 
 2305      00
 2306              	.LASF111:
ARM GAS  /tmp/ccxaZjUR.s 			page 45


 2307 0441 77746D74 		.ascii	"wtmtxp\000"
 2307      787000
 2308              	.LASF54:
 2309 0448 725F7175 		.ascii	"r_queue\000"
 2309      65756500 
 2310              	.LASF65:
 2311 0450 76745F64 		.ascii	"vt_delta\000"
 2311      656C7461 
 2311      00
 2312              	.LASF49:
 2313 0459 63685F74 		.ascii	"ch_threads_list\000"
 2313      68726561 
 2313      64735F6C 
 2313      69737400 
 2314              	.LASF9:
 2315 0469 6C6F6E67 		.ascii	"long unsigned int\000"
 2315      20756E73 
 2315      69676E65 
 2315      6420696E 
 2315      7400
 2316              	.LASF135:
 2317 047b 474E5520 		.ascii	"GNU C 4.9.3 20150529 (prerelease) -mcpu=cortex-m3 -"
 2317      4320342E 
 2317      392E3320 
 2317      32303135 
 2317      30353239 
 2318 04ae 6D6E6F2D 		.ascii	"mno-thumb-interwork -mthumb -ggdb -O2 -std=c99 -fom"
 2318      7468756D 
 2318      622D696E 
 2318      74657277 
 2318      6F726B20 
 2319 04e1 69742D66 		.ascii	"it-frame-pointer -falign-functions=16 -ffunction-se"
 2319      72616D65 
 2319      2D706F69 
 2319      6E746572 
 2319      202D6661 
 2320 0514 6374696F 		.ascii	"ctions -fdata-sections -fno-common\000"
 2320      6E73202D 
 2320      66646174 
 2320      612D7365 
 2320      6374696F 
 2321              	.LASF120:
 2322 0537 63686172 		.ascii	"char\000"
 2322      00
 2323              	.LASF128:
 2324 053c 706F7274 		.ascii	"port_unlock_from_isr\000"
 2324      5F756E6C 
 2324      6F636B5F 
 2324      66726F6D 
 2324      5F697372 
 2325              	.LASF27:
 2326 0551 74687265 		.ascii	"thread_t\000"
 2326      61645F74 
 2326      00
 2327              	.LASF119:
 2328 055a 6D5F6E65 		.ascii	"m_next\000"
 2328      787400
ARM GAS  /tmp/ccxaZjUR.s 			page 46


 2329              	.LASF26:
 2330 0561 73797374 		.ascii	"systime_t\000"
 2330      696D655F 
 2330      7400
 2331              	.LASF44:
 2332 056b 705F7265 		.ascii	"p_realprio\000"
 2332      616C7072 
 2332      696F00
 2333              	.LASF60:
 2334 0576 76746675 		.ascii	"vtfunc_t\000"
 2334      6E635F74 
 2334      00
 2335              	.LASF8:
 2336 057f 5F5F7569 		.ascii	"__uint32_t\000"
 2336      6E743332 
 2336      5F7400
 2337              	.LASF124:
 2338 058a 5F5F7365 		.ascii	"__set_BASEPRI\000"
 2338      745F4241 
 2338      53455052 
 2338      4900
 2339              	.LASF73:
 2340 0598 70616E69 		.ascii	"panic_msg\000"
 2340      635F6D73 
 2340      6700
 2341              	.LASF104:
 2342 05a2 6F666673 		.ascii	"offset\000"
 2342      657400
 2343              	.LASF99:
 2344 05a9 636F6E74 		.ascii	"context\000"
 2344      65787400 
 2345              	.LASF74:
 2346 05b1 63685F73 		.ascii	"ch_system_t\000"
 2346      79737465 
 2346      6D5F7400 
 2347              	.LASF17:
 2348 05bd 7274636E 		.ascii	"rtcnt_t\000"
 2348      745F7400 
 2349              	.LASF129:
 2350 05c5 706F7274 		.ascii	"port_lock_from_isr\000"
 2350      5F6C6F63 
 2350      6B5F6672 
 2350      6F6D5F69 
 2350      737200
 2351              	.LASF137:
 2352 05d8 5F5F6765 		.ascii	"__get_PSP\000"
 2352      745F5053 
 2352      5000
 2353              	.LASF67:
 2354 05e2 76745F70 		.ascii	"vt_par\000"
 2354      617200
 2355              	.LASF50:
 2356 05e9 74687265 		.ascii	"threads_queue_t\000"
 2356      6164735F 
 2356      71756575 
 2356      655F7400 
 2357              	.LASF116:
ARM GAS  /tmp/ccxaZjUR.s 			page 47


 2358 05f9 63685F6D 		.ascii	"ch_mutex\000"
 2358      75746578 
 2358      00
 2359              	.LASF37:
 2360 0602 705F7265 		.ascii	"p_refs\000"
 2360      667300
 2361              	.LASF92:
 2362 0609 4D4D4652 		.ascii	"MMFR\000"
 2362      00
 2363              	.LASF76:
 2364 060e 726C6973 		.ascii	"rlist\000"
 2364      7400
 2365              	.LASF13:
 2366 0614 75696E74 		.ascii	"uint8_t\000"
 2366      385F7400 
 2367              	.LASF108:
 2368 061c 77746F62 		.ascii	"wtobjp\000"
 2368      6A7000
 2369              	.LASF34:
 2370 0623 705F6E61 		.ascii	"p_name\000"
 2370      6D6500
 2371              	.LASF41:
 2372 062a 705F6D73 		.ascii	"p_msg\000"
 2372      6700
 2373              	.LASF95:
 2374 0630 43504143 		.ascii	"CPACR\000"
 2374      5200
 2375              	.LASF87:
 2376 0636 48465352 		.ascii	"HFSR\000"
 2376      00
 2377              	.LASF118:
 2378 063b 6D5F6F77 		.ascii	"m_owner\000"
 2378      6E657200 
 2379              	.LASF138:
 2380 0643 72657375 		.ascii	"result\000"
 2380      6C7400
 2381              	.LASF31:
 2382 064a 705F6374 		.ascii	"p_ctx\000"
 2382      7800
 2383              	.LASF66:
 2384 0650 76745F66 		.ascii	"vt_func\000"
 2384      756E6300 
 2385              		.ident	"GCC: (15:4.9.3+svn227297-1) 4.9.3 20150529 (prerelease)"
ARM GAS  /tmp/ccxaZjUR.s 			page 48


DEFINED SYMBOLS
                            *ABS*:00000000 chcore_v7m.c
     /tmp/ccxaZjUR.s:19     .text.SVC_Handler:00000000 $t
     /tmp/ccxaZjUR.s:25     .text.SVC_Handler:00000000 SVC_Handler
     /tmp/ccxaZjUR.s:79     .text._port_irq_epilogue:00000000 $t
     /tmp/ccxaZjUR.s:85     .text._port_irq_epilogue:00000000 _port_irq_epilogue
     /tmp/ccxaZjUR.s:180    .text._port_irq_epilogue:00000044 $d
                     .debug_frame:00000010 $d

UNDEFINED SYMBOLS
chSchIsPreemptionRequired
_port_switch_from_isr
_port_exit_from_isr
