ARM GAS  /tmp/cc7MI5SV.s 			page 1


   1              		.syntax unified
   2              		.cpu cortex-m3
   3              		.fpu softvfp
   4              		.eabi_attribute 20, 1
   5              		.eabi_attribute 21, 1
   6              		.eabi_attribute 23, 3
   7              		.eabi_attribute 24, 1
   8              		.eabi_attribute 25, 1
   9              		.eabi_attribute 26, 1
  10              		.eabi_attribute 30, 2
  11              		.eabi_attribute 34, 1
  12              		.eabi_attribute 18, 4
  13              		.thumb
  14              		.file	"chcond.c"
  15              		.text
  16              	.Ltext0:
  17              		.cfi_sections	.debug_frame
  18              		.section	.text.chCondObjectInit,"ax",%progbits
  19              		.align	2
  20              		.p2align 4,,15
  21              		.global	chCondObjectInit
  22              		.thumb
  23              		.thumb_func
  24              		.type	chCondObjectInit, %function
  25              	chCondObjectInit:
  26              	.LFB170:
  27              		.file 1 "/home/peter/ChibiOS_16.1.4/os/rt/src/chcond.c"
  28              		.loc 1 75 0
  29              		.cfi_startproc
  30              		@ args = 0, pretend = 0, frame = 0
  31              		@ frame_needed = 0, uses_anonymous_args = 0
  32              		@ link register save eliminated.
  33              	.LVL0:
  34              	.LBB83:
  35              	.LBB84:
  36              		.file 2 "/home/peter/ChibiOS_16.1.4/os/rt/include/chschd.h"
  37              		.loc 2 604 0
  38 0000 0060     		str	r0, [r0]
  39              		.loc 2 605 0
  40 0002 4060     		str	r0, [r0, #4]
  41 0004 7047     		bx	lr
  42              	.LBE84:
  43              	.LBE83:
  44              		.cfi_endproc
  45              	.LFE170:
  46              		.size	chCondObjectInit, .-chCondObjectInit
  47 0006 00BFAFF3 		.section	.text.chCondSignal,"ax",%progbits
  47      0080AFF3 
  47      0080
  48              		.align	2
  49              		.p2align 4,,15
  50              		.global	chCondSignal
  51              		.thumb
  52              		.thumb_func
  53              		.type	chCondSignal, %function
  54              	chCondSignal:
  55              	.LFB171:
ARM GAS  /tmp/cc7MI5SV.s 			page 2


  56              		.loc 1 89 0
  57              		.cfi_startproc
  58              		@ args = 0, pretend = 0, frame = 0
  59              		@ frame_needed = 0, uses_anonymous_args = 0
  60              	.LVL1:
  61              	.LBB85:
  62              	.LBB86:
  63              	.LBB87:
  64              	.LBB88:
  65              		.file 3 "/home/peter/ChibiOS_16.1.4/os/ext/CMSIS/include/core_cmFunc.h"
  66              		.loc 3 548 0
  67 0000 2023     		movs	r3, #32
  68              	@ 548 "/home/peter/ChibiOS_16.1.4/os/ext/CMSIS/include/core_cmFunc.h" 1
  69 0002 83F31188 		MSR basepri, r3
  70              	@ 0 "" 2
  71              	.LVL2:
  72              		.thumb
  73              	.LBE88:
  74              	.LBE87:
  75              	.LBE86:
  76              	.LBE85:
  77              	.LBB89:
  78              	.LBB90:
  79              		.loc 2 631 0
  80 0006 0268     		ldr	r2, [r0]
  81              	.LBE90:
  82              	.LBE89:
  83              		.loc 1 94 0
  84 0008 8242     		cmp	r2, r0
  85 000a 0CD0     		beq	.L5
  86 000c 0346     		mov	r3, r0
  87              	.LVL3:
  88              		.loc 1 89 0
  89 000e 10B5     		push	{r4, lr}
  90              		.cfi_def_cfa_offset 8
  91              		.cfi_offset 4, -8
  92              		.cfi_offset 14, -4
  93              	.LBB91:
  94              	.LBB92:
  95              		.loc 2 674 0
  96 0010 1468     		ldr	r4, [r2]
  97              	.LBE92:
  98              	.LBE91:
  99              		.loc 1 95 0
 100 0012 1046     		mov	r0, r2
 101              	.LVL4:
 102              	.LBB95:
 103              	.LBB93:
 104              		.loc 2 674 0
 105 0014 1C60     		str	r4, [r3]
 106              	.LBE93:
 107              	.LBE95:
 108              		.loc 1 95 0
 109 0016 0021     		movs	r1, #0
 110              	.LBB96:
 111              	.LBB94:
 112              		.loc 2 675 0
ARM GAS  /tmp/cc7MI5SV.s 			page 3


 113 0018 6360     		str	r3, [r4, #4]
 114              	.LBE94:
 115              	.LBE96:
 116              		.loc 1 95 0
 117 001a FFF7FEFF 		bl	chSchWakeupS
 118              	.LVL5:
 119              	.LBB97:
 120              	.LBB98:
 121              	.LBB99:
 122              	.LBB100:
 123              	.LBB101:
 124              		.loc 3 548 0
 125 001e 0023     		movs	r3, #0
 126              	@ 548 "/home/peter/ChibiOS_16.1.4/os/ext/CMSIS/include/core_cmFunc.h" 1
 127 0020 83F31188 		MSR basepri, r3
 128              	@ 0 "" 2
 129              		.thumb
 130 0024 10BD     		pop	{r4, pc}
 131              	.LVL6:
 132              	.L5:
 133              		.cfi_def_cfa_offset 0
 134              		.cfi_restore 4
 135              		.cfi_restore 14
 136 0026 0023     		movs	r3, #0
 137              	@ 548 "/home/peter/ChibiOS_16.1.4/os/ext/CMSIS/include/core_cmFunc.h" 1
 138 0028 83F31188 		MSR basepri, r3
 139              	@ 0 "" 2
 140              		.thumb
 141 002c 7047     		bx	lr
 142              	.LBE101:
 143              	.LBE100:
 144              	.LBE99:
 145              	.LBE98:
 146              	.LBE97:
 147              		.cfi_endproc
 148              	.LFE171:
 149              		.size	chCondSignal, .-chCondSignal
 150 002e 00BF     		.section	.text.chCondSignalI,"ax",%progbits
 151              		.align	2
 152              		.p2align 4,,15
 153              		.global	chCondSignalI
 154              		.thumb
 155              		.thumb_func
 156              		.type	chCondSignalI, %function
 157              	chCondSignalI:
 158              	.LFB172:
 159              		.loc 1 111 0
 160              		.cfi_startproc
 161              		@ args = 0, pretend = 0, frame = 0
 162              		@ frame_needed = 0, uses_anonymous_args = 0
 163              		@ link register save eliminated.
 164              	.LVL7:
 165              	.LBB102:
 166              	.LBB103:
 167              		.loc 2 631 0
 168 0000 0268     		ldr	r2, [r0]
 169              	.LBE103:
ARM GAS  /tmp/cc7MI5SV.s 			page 4


 170              	.LBE102:
 171              		.loc 1 111 0
 172 0002 0346     		mov	r3, r0
 173              	.LVL8:
 174              		.loc 1 116 0
 175 0004 9042     		cmp	r0, r2
 176 0006 0AD0     		beq	.L10
 177              	.LVL9:
 178              	.LBB104:
 179              	.LBB105:
 180              	.LBB106:
 181              		.loc 2 674 0
 182 0008 1168     		ldr	r1, [r2]
 183              	.LBE106:
 184              	.LBE105:
 185              	.LBE104:
 186              		.loc 1 111 0
 187 000a 10B4     		push	{r4}
 188              		.cfi_def_cfa_offset 4
 189              		.cfi_offset 4, -4
 190              	.LBB109:
 191              		.loc 1 118 0
 192 000c 0024     		movs	r4, #0
 193              	.LBB108:
 194              	.LBB107:
 195              		.loc 2 674 0
 196 000e 0160     		str	r1, [r0]
 197              		.loc 2 675 0
 198 0010 4B60     		str	r3, [r1, #4]
 199              	.LBE107:
 200              	.LBE108:
 201              		.loc 1 118 0
 202 0012 1462     		str	r4, [r2, #32]
 203              		.loc 1 119 0
 204 0014 1046     		mov	r0, r2
 205              	.LVL10:
 206              	.LBE109:
 207              		.loc 1 121 0
 208 0016 5DF8044B 		ldr	r4, [sp], #4
 209              		.cfi_restore 4
 210              		.cfi_def_cfa_offset 0
 211              	.LBB110:
 212              		.loc 1 119 0
 213 001a FFF7FEBF 		b	chSchReadyI
 214              	.LVL11:
 215              	.L10:
 216 001e 7047     		bx	lr
 217              	.LBE110:
 218              		.cfi_endproc
 219              	.LFE172:
 220              		.size	chCondSignalI, .-chCondSignalI
 221              		.section	.text.chCondBroadcastI,"ax",%progbits
 222              		.align	2
 223              		.p2align 4,,15
 224              		.global	chCondBroadcastI
 225              		.thumb
 226              		.thumb_func
ARM GAS  /tmp/cc7MI5SV.s 			page 5


 227              		.type	chCondBroadcastI, %function
 228              	chCondBroadcastI:
 229              	.LFB174:
 230              		.loc 1 149 0
 231              		.cfi_startproc
 232              		@ args = 0, pretend = 0, frame = 0
 233              		@ frame_needed = 0, uses_anonymous_args = 0
 234              	.LVL12:
 235 0000 38B5     		push	{r3, r4, r5, lr}
 236              		.cfi_def_cfa_offset 16
 237              		.cfi_offset 3, -16
 238              		.cfi_offset 4, -12
 239              		.cfi_offset 5, -8
 240              		.cfi_offset 14, -4
 241              		.loc 1 149 0
 242 0002 0446     		mov	r4, r0
 243              	.LVL13:
 244              	.LBB111:
 245              	.LBB112:
 246              		.loc 2 631 0
 247 0004 0068     		ldr	r0, [r0]
 248              	.LVL14:
 249              	.LBE112:
 250              	.LBE111:
 251              		.loc 1 157 0
 252 0006 8442     		cmp	r4, r0
 253 0008 0AD0     		beq	.L11
 254              		.loc 1 158 0
 255 000a 6FF00105 		mvn	r5, #1
 256              	.L13:
 257              	.LVL15:
 258              	.LBB114:
 259              	.LBB115:
 260              		.loc 2 674 0
 261 000e 0368     		ldr	r3, [r0]
 262 0010 2360     		str	r3, [r4]
 263              		.loc 2 675 0
 264 0012 5C60     		str	r4, [r3, #4]
 265              	.LBE115:
 266              	.LBE114:
 267              		.loc 1 158 0
 268 0014 FFF7FEFF 		bl	chSchReadyI
 269              	.LVL16:
 270 0018 0562     		str	r5, [r0, #32]
 271              	.LBB116:
 272              	.LBB113:
 273              		.loc 2 631 0
 274 001a 2068     		ldr	r0, [r4]
 275              	.LBE113:
 276              	.LBE116:
 277              		.loc 1 157 0
 278 001c A042     		cmp	r0, r4
 279 001e F6D1     		bne	.L13
 280              	.LVL17:
 281              	.L11:
 282 0020 38BD     		pop	{r3, r4, r5, pc}
 283              		.cfi_endproc
ARM GAS  /tmp/cc7MI5SV.s 			page 6


 284              	.LFE174:
 285              		.size	chCondBroadcastI, .-chCondBroadcastI
 286 0022 00BFAFF3 		.section	.text.chCondBroadcast,"ax",%progbits
 286      0080AFF3 
 286      0080AFF3 
 286      0080
 287              		.align	2
 288              		.p2align 4,,15
 289              		.global	chCondBroadcast
 290              		.thumb
 291              		.thumb_func
 292              		.type	chCondBroadcast, %function
 293              	chCondBroadcast:
 294              	.LFB173:
 295              		.loc 1 130 0
 296              		.cfi_startproc
 297              		@ args = 0, pretend = 0, frame = 0
 298              		@ frame_needed = 0, uses_anonymous_args = 0
 299              	.LVL18:
 300 0000 08B5     		push	{r3, lr}
 301              		.cfi_def_cfa_offset 8
 302              		.cfi_offset 3, -8
 303              		.cfi_offset 14, -4
 304              	.LBB117:
 305              	.LBB118:
 306              	.LBB119:
 307              	.LBB120:
 308              		.loc 3 548 0
 309 0002 2023     		movs	r3, #32
 310              	@ 548 "/home/peter/ChibiOS_16.1.4/os/ext/CMSIS/include/core_cmFunc.h" 1
 311 0004 83F31188 		MSR basepri, r3
 312              	@ 0 "" 2
 313              		.thumb
 314              	.LBE120:
 315              	.LBE119:
 316              	.LBE118:
 317              	.LBE117:
 318              		.loc 1 133 0
 319 0008 FFF7FEFF 		bl	chCondBroadcastI
 320              	.LVL19:
 321              		.loc 1 134 0
 322 000c FFF7FEFF 		bl	chSchRescheduleS
 323              	.LVL20:
 324              	.LBB121:
 325              	.LBB122:
 326              	.LBB123:
 327              	.LBB124:
 328              	.LBB125:
 329              		.loc 3 548 0
 330 0010 0023     		movs	r3, #0
 331              	@ 548 "/home/peter/ChibiOS_16.1.4/os/ext/CMSIS/include/core_cmFunc.h" 1
 332 0012 83F31188 		MSR basepri, r3
 333              	@ 0 "" 2
 334              		.thumb
 335 0016 08BD     		pop	{r3, pc}
 336              	.LBE125:
 337              	.LBE124:
ARM GAS  /tmp/cc7MI5SV.s 			page 7


 338              	.LBE123:
 339              	.LBE122:
 340              	.LBE121:
 341              		.cfi_endproc
 342              	.LFE173:
 343              		.size	chCondBroadcast, .-chCondBroadcast
 344 0018 AFF30080 		.section	.text.chCondWaitS,"ax",%progbits
 344      AFF30080 
 345              		.align	2
 346              		.p2align 4,,15
 347              		.global	chCondWaitS
 348              		.thumb
 349              		.thumb_func
 350              		.type	chCondWaitS, %function
 351              	chCondWaitS:
 352              	.LFB176:
 353              		.loc 1 205 0
 354              		.cfi_startproc
 355              		@ args = 0, pretend = 0, frame = 0
 356              		@ frame_needed = 0, uses_anonymous_args = 0
 357              	.LVL21:
 358 0000 70B5     		push	{r4, r5, r6, lr}
 359              		.cfi_def_cfa_offset 16
 360              		.cfi_offset 4, -16
 361              		.cfi_offset 5, -12
 362              		.cfi_offset 6, -8
 363              		.cfi_offset 14, -4
 364              		.loc 1 205 0
 365 0002 0546     		mov	r5, r0
 366              		.loc 1 206 0
 367 0004 0E4B     		ldr	r3, .L27
 368 0006 9C69     		ldr	r4, [r3, #24]
 369              	.LVL22:
 370              	.LBB126:
 371              	.LBB127:
 372              		.file 4 "/home/peter/ChibiOS_16.1.4/os/rt/include/chmtx.h"
 373              		.loc 4 146 0
 374 0008 A66B     		ldr	r6, [r4, #56]
 375              	.LBE127:
 376              	.LBE126:
 377              		.loc 1 216 0
 378 000a 3046     		mov	r0, r6
 379              	.LVL23:
 380 000c FFF7FEFF 		bl	chMtxUnlockS
 381              	.LVL24:
 382              	.LBB128:
 383              	.LBB129:
 384              		.loc 2 653 0
 385 0010 2B46     		mov	r3, r5
 386              	.LBE129:
 387              	.LBE128:
 388              		.loc 1 220 0
 389 0012 2562     		str	r5, [r4, #32]
 390              	.LVL25:
 391 0014 03E0     		b	.L21
 392              	.LVL26:
 393              	.L26:
ARM GAS  /tmp/cc7MI5SV.s 			page 8


 394              	.LBB132:
 395              	.LBB130:
 396              		.loc 2 656 0
 397 0016 9968     		ldr	r1, [r3, #8]
 398 0018 A268     		ldr	r2, [r4, #8]
 399 001a 9142     		cmp	r1, r2
 400 001c 02D3     		bcc	.L22
 401              	.L21:
 402              		.loc 2 655 0
 403 001e 1B68     		ldr	r3, [r3]
 404              	.LVL27:
 405              		.loc 2 656 0
 406 0020 9D42     		cmp	r5, r3
 407 0022 F8D1     		bne	.L26
 408              	.L22:
 409              		.loc 2 658 0
 410 0024 5A68     		ldr	r2, [r3, #4]
 411              	.LBE130:
 412              	.LBE132:
 413              		.loc 1 222 0
 414 0026 0720     		movs	r0, #7
 415              	.LBB133:
 416              	.LBB131:
 417              		.loc 2 657 0
 418 0028 2360     		str	r3, [r4]
 419              		.loc 2 658 0
 420 002a 6260     		str	r2, [r4, #4]
 421              		.loc 2 659 0
 422 002c 1460     		str	r4, [r2]
 423              		.loc 2 660 0
 424 002e 5C60     		str	r4, [r3, #4]
 425              	.LBE131:
 426              	.LBE133:
 427              		.loc 1 222 0
 428 0030 FFF7FEFF 		bl	chSchGoSleepS
 429              	.LVL28:
 430              		.loc 1 223 0
 431 0034 246A     		ldr	r4, [r4, #32]
 432              	.LVL29:
 433              		.loc 1 224 0
 434 0036 3046     		mov	r0, r6
 435 0038 FFF7FEFF 		bl	chMtxLockS
 436              	.LVL30:
 437              		.loc 1 227 0
 438 003c 2046     		mov	r0, r4
 439 003e 70BD     		pop	{r4, r5, r6, pc}
 440              	.LVL31:
 441              	.L28:
 442              		.align	2
 443              	.L27:
 444 0040 00000000 		.word	ch
 445              		.cfi_endproc
 446              	.LFE176:
 447              		.size	chCondWaitS, .-chCondWaitS
 448 0044 AFF30080 		.section	.text.chCondWait,"ax",%progbits
 448      AFF30080 
 448      AFF30080 
ARM GAS  /tmp/cc7MI5SV.s 			page 9


 449              		.align	2
 450              		.p2align 4,,15
 451              		.global	chCondWait
 452              		.thumb
 453              		.thumb_func
 454              		.type	chCondWait, %function
 455              	chCondWait:
 456              	.LFB175:
 457              		.loc 1 179 0
 458              		.cfi_startproc
 459              		@ args = 0, pretend = 0, frame = 0
 460              		@ frame_needed = 0, uses_anonymous_args = 0
 461              	.LVL32:
 462 0000 08B5     		push	{r3, lr}
 463              		.cfi_def_cfa_offset 8
 464              		.cfi_offset 3, -8
 465              		.cfi_offset 14, -4
 466              	.LBB134:
 467              	.LBB135:
 468              	.LBB136:
 469              	.LBB137:
 470              		.loc 3 548 0
 471 0002 2023     		movs	r3, #32
 472              	@ 548 "/home/peter/ChibiOS_16.1.4/os/ext/CMSIS/include/core_cmFunc.h" 1
 473 0004 83F31188 		MSR basepri, r3
 474              	@ 0 "" 2
 475              		.thumb
 476              	.LBE137:
 477              	.LBE136:
 478              	.LBE135:
 479              	.LBE134:
 480              		.loc 1 183 0
 481 0008 FFF7FEFF 		bl	chCondWaitS
 482              	.LVL33:
 483              	.LBB138:
 484              	.LBB139:
 485              	.LBB140:
 486              	.LBB141:
 487              	.LBB142:
 488              		.loc 3 548 0
 489 000c 0023     		movs	r3, #0
 490              	@ 548 "/home/peter/ChibiOS_16.1.4/os/ext/CMSIS/include/core_cmFunc.h" 1
 491 000e 83F31188 		MSR basepri, r3
 492              	@ 0 "" 2
 493              		.thumb
 494              	.LBE142:
 495              	.LBE141:
 496              	.LBE140:
 497              	.LBE139:
 498              	.LBE138:
 499              		.loc 1 186 0
 500 0012 08BD     		pop	{r3, pc}
 501              		.cfi_endproc
 502              	.LFE175:
 503              		.size	chCondWait, .-chCondWait
 504 0014 AFF30080 		.section	.text.chCondWaitTimeoutS,"ax",%progbits
 504      AFF30080 
ARM GAS  /tmp/cc7MI5SV.s 			page 10


 504      AFF30080 
 505              		.align	2
 506              		.p2align 4,,15
 507              		.global	chCondWaitTimeoutS
 508              		.thumb
 509              		.thumb_func
 510              		.type	chCondWaitTimeoutS, %function
 511              	chCondWaitTimeoutS:
 512              	.LFB178:
 513              		.loc 1 296 0
 514              		.cfi_startproc
 515              		@ args = 0, pretend = 0, frame = 0
 516              		@ frame_needed = 0, uses_anonymous_args = 0
 517              	.LVL34:
 518 0000 F8B5     		push	{r3, r4, r5, r6, r7, lr}
 519              		.cfi_def_cfa_offset 24
 520              		.cfi_offset 3, -24
 521              		.cfi_offset 4, -20
 522              		.cfi_offset 5, -16
 523              		.cfi_offset 6, -12
 524              		.cfi_offset 7, -8
 525              		.cfi_offset 14, -4
 526              		.loc 1 296 0
 527 0002 0546     		mov	r5, r0
 528              	.LBB143:
 529              	.LBB144:
 530              	.LBB145:
 531              	.LBB146:
 532              		.file 5 "/home/peter/ChibiOS_16.1.4/os/rt/include/chthreads.h"
 533              		.loc 5 176 0
 534 0004 114C     		ldr	r4, .L39
 535              	.LBE146:
 536              	.LBE145:
 537              	.LBE144:
 538              	.LBE143:
 539              		.loc 1 296 0
 540 0006 0F46     		mov	r7, r1
 541              	.LBB148:
 542              	.LBB147:
 543              		.loc 4 146 0
 544 0008 A369     		ldr	r3, [r4, #24]
 545 000a 9E6B     		ldr	r6, [r3, #56]
 546              	.LBE147:
 547              	.LBE148:
 548              		.loc 1 306 0
 549 000c 3046     		mov	r0, r6
 550              	.LVL35:
 551 000e FFF7FEFF 		bl	chMtxUnlockS
 552              	.LVL36:
 553              		.loc 1 310 0
 554 0012 A469     		ldr	r4, [r4, #24]
 555              	.LBB149:
 556              	.LBB150:
 557              		.loc 2 653 0
 558 0014 2B46     		mov	r3, r5
 559              	.LBE150:
 560              	.LBE149:
ARM GAS  /tmp/cc7MI5SV.s 			page 11


 561              		.loc 1 310 0
 562 0016 2562     		str	r5, [r4, #32]
 563              	.LVL37:
 564 0018 03E0     		b	.L35
 565              	.LVL38:
 566              	.L32:
 567              	.LBB154:
 568              	.LBB151:
 569              		.loc 2 656 0
 570 001a 9868     		ldr	r0, [r3, #8]
 571 001c A268     		ldr	r2, [r4, #8]
 572 001e 9042     		cmp	r0, r2
 573 0020 02D3     		bcc	.L36
 574              	.L35:
 575              		.loc 2 655 0
 576 0022 1B68     		ldr	r3, [r3]
 577              	.LVL39:
 578              		.loc 2 656 0
 579 0024 9D42     		cmp	r5, r3
 580 0026 F8D1     		bne	.L32
 581              	.L36:
 582              		.loc 2 658 0
 583 0028 5A68     		ldr	r2, [r3, #4]
 584              	.LBE151:
 585              	.LBE154:
 586              		.loc 1 312 0
 587 002a 3946     		mov	r1, r7
 588              	.LBB155:
 589              	.LBB152:
 590              		.loc 2 657 0
 591 002c 2360     		str	r3, [r4]
 592              		.loc 2 658 0
 593 002e 6260     		str	r2, [r4, #4]
 594              	.LBE152:
 595              	.LBE155:
 596              		.loc 1 312 0
 597 0030 0720     		movs	r0, #7
 598              	.LBB156:
 599              	.LBB153:
 600              		.loc 2 659 0
 601 0032 1460     		str	r4, [r2]
 602              		.loc 2 660 0
 603 0034 5C60     		str	r4, [r3, #4]
 604              	.LBE153:
 605              	.LBE156:
 606              		.loc 1 312 0
 607 0036 FFF7FEFF 		bl	chSchGoSleepTimeoutS
 608              	.LVL40:
 609              		.loc 1 313 0
 610 003a 431C     		adds	r3, r0, #1
 611              		.loc 1 312 0
 612 003c 0446     		mov	r4, r0
 613              	.LVL41:
 614              		.loc 1 313 0
 615 003e 02D0     		beq	.L34
 616              		.loc 1 314 0
 617 0040 3046     		mov	r0, r6
ARM GAS  /tmp/cc7MI5SV.s 			page 12


 618              	.LVL42:
 619 0042 FFF7FEFF 		bl	chMtxLockS
 620              	.LVL43:
 621              	.L34:
 622              		.loc 1 318 0
 623 0046 2046     		mov	r0, r4
 624 0048 F8BD     		pop	{r3, r4, r5, r6, r7, pc}
 625              	.LVL44:
 626              	.L40:
 627 004a 00BF     		.align	2
 628              	.L39:
 629 004c 00000000 		.word	ch
 630              		.cfi_endproc
 631              	.LFE178:
 632              		.size	chCondWaitTimeoutS, .-chCondWaitTimeoutS
 633              		.section	.text.chCondWaitTimeout,"ax",%progbits
 634              		.align	2
 635              		.p2align 4,,15
 636              		.global	chCondWaitTimeout
 637              		.thumb
 638              		.thumb_func
 639              		.type	chCondWaitTimeout, %function
 640              	chCondWaitTimeout:
 641              	.LFB177:
 642              		.loc 1 258 0
 643              		.cfi_startproc
 644              		@ args = 0, pretend = 0, frame = 0
 645              		@ frame_needed = 0, uses_anonymous_args = 0
 646              	.LVL45:
 647 0000 08B5     		push	{r3, lr}
 648              		.cfi_def_cfa_offset 8
 649              		.cfi_offset 3, -8
 650              		.cfi_offset 14, -4
 651              	.LBB157:
 652              	.LBB158:
 653              	.LBB159:
 654              	.LBB160:
 655              		.loc 3 548 0
 656 0002 2023     		movs	r3, #32
 657              	@ 548 "/home/peter/ChibiOS_16.1.4/os/ext/CMSIS/include/core_cmFunc.h" 1
 658 0004 83F31188 		MSR basepri, r3
 659              	@ 0 "" 2
 660              		.thumb
 661              	.LBE160:
 662              	.LBE159:
 663              	.LBE158:
 664              	.LBE157:
 665              		.loc 1 262 0
 666 0008 FFF7FEFF 		bl	chCondWaitTimeoutS
 667              	.LVL46:
 668              	.LBB161:
 669              	.LBB162:
 670              	.LBB163:
 671              	.LBB164:
 672              	.LBB165:
 673              		.loc 3 548 0
 674 000c 0023     		movs	r3, #0
ARM GAS  /tmp/cc7MI5SV.s 			page 13


 675              	@ 548 "/home/peter/ChibiOS_16.1.4/os/ext/CMSIS/include/core_cmFunc.h" 1
 676 000e 83F31188 		MSR basepri, r3
 677              	@ 0 "" 2
 678              		.thumb
 679              	.LBE165:
 680              	.LBE164:
 681              	.LBE163:
 682              	.LBE162:
 683              	.LBE161:
 684              		.loc 1 266 0
 685 0012 08BD     		pop	{r3, pc}
 686              		.cfi_endproc
 687              	.LFE177:
 688              		.size	chCondWaitTimeout, .-chCondWaitTimeout
 689 0014 AFF30080 		.text
 689      AFF30080 
 689      AFF30080 
 690              	.Letext0:
 691              		.file 6 "/usr/include/newlib/machine/_default_types.h"
 692              		.file 7 "/usr/include/newlib/stdint.h"
 693              		.file 8 "/home/peter/ChibiOS_16.1.4/os/rt/ports/ARMCMx/compilers/GCC/chtypes.h"
 694              		.file 9 "/home/peter/ChibiOS_16.1.4/os/rt/include/chsystypes.h"
 695              		.file 10 "/home/peter/ChibiOS_16.1.4/os/rt/ports/ARMCMx/chcore.h"
 696              		.file 11 "/home/peter/ChibiOS_16.1.4/os/rt/ports/ARMCMx/chcore_v7m.h"
 697              		.file 12 "/home/peter/ChibiOS_16.1.4/os/rt/include/chtm.h"
 698              		.file 13 "/home/peter/ChibiOS_16.1.4/os/rt/include/chsem.h"
 699              		.file 14 "/home/peter/ChibiOS_16.1.4/os/rt/include/chcond.h"
 700              		.file 15 "/home/peter/ChibiOS_16.1.4/os/rt/include/chsys.h"
 701              		.file 16 "/home/peter/ChibiOS_16.1.4/os/ext/CMSIS/include/core_cm3.h"
 702              		.section	.debug_info,"",%progbits
 703              	.Ldebug_info0:
 704 0000 1D0F0000 		.4byte	0xf1d
 705 0004 0400     		.2byte	0x4
 706 0006 00000000 		.4byte	.Ldebug_abbrev0
 707 000a 04       		.byte	0x4
 708 000b 01       		.uleb128 0x1
 709 000c CD040000 		.4byte	.LASF136
 710 0010 01       		.byte	0x1
 711 0011 D7030000 		.4byte	.LASF137
 712 0015 D0000000 		.4byte	.Ldebug_ranges0+0xd0
 713 0019 00000000 		.4byte	0
 714 001d 00000000 		.4byte	.Ldebug_line0
 715 0021 02       		.uleb128 0x2
 716 0022 04       		.byte	0x4
 717 0023 05       		.byte	0x5
 718 0024 696E7400 		.ascii	"int\000"
 719 0028 03       		.uleb128 0x3
 720 0029 04       		.byte	0x4
 721 002a 07       		.byte	0x7
 722 002b ED010000 		.4byte	.LASF0
 723 002f 03       		.uleb128 0x3
 724 0030 01       		.byte	0x1
 725 0031 06       		.byte	0x6
 726 0032 E2000000 		.4byte	.LASF1
 727 0036 04       		.uleb128 0x4
 728 0037 23000000 		.4byte	.LASF5
 729 003b 06       		.byte	0x6
ARM GAS  /tmp/cc7MI5SV.s 			page 14


 730 003c 1D       		.byte	0x1d
 731 003d 41000000 		.4byte	0x41
 732 0041 03       		.uleb128 0x3
 733 0042 01       		.byte	0x1
 734 0043 08       		.byte	0x8
 735 0044 A3030000 		.4byte	.LASF2
 736 0048 03       		.uleb128 0x3
 737 0049 02       		.byte	0x2
 738 004a 05       		.byte	0x5
 739 004b BB030000 		.4byte	.LASF3
 740 004f 03       		.uleb128 0x3
 741 0050 02       		.byte	0x2
 742 0051 07       		.byte	0x7
 743 0052 23020000 		.4byte	.LASF4
 744 0056 04       		.uleb128 0x4
 745 0057 81020000 		.4byte	.LASF6
 746 005b 06       		.byte	0x6
 747 005c 3F       		.byte	0x3f
 748 005d 61000000 		.4byte	0x61
 749 0061 03       		.uleb128 0x3
 750 0062 04       		.byte	0x4
 751 0063 05       		.byte	0x5
 752 0064 3A010000 		.4byte	.LASF7
 753 0068 04       		.uleb128 0x4
 754 0069 DB050000 		.4byte	.LASF8
 755 006d 06       		.byte	0x6
 756 006e 41       		.byte	0x41
 757 006f 73000000 		.4byte	0x73
 758 0073 03       		.uleb128 0x3
 759 0074 04       		.byte	0x4
 760 0075 07       		.byte	0x7
 761 0076 BB040000 		.4byte	.LASF9
 762 007a 03       		.uleb128 0x3
 763 007b 08       		.byte	0x8
 764 007c 05       		.byte	0x5
 765 007d D4000000 		.4byte	.LASF10
 766 0081 04       		.uleb128 0x4
 767 0082 55030000 		.4byte	.LASF11
 768 0086 06       		.byte	0x6
 769 0087 5B       		.byte	0x5b
 770 0088 8C000000 		.4byte	0x8c
 771 008c 03       		.uleb128 0x3
 772 008d 08       		.byte	0x8
 773 008e 07       		.byte	0x7
 774 008f 6E000000 		.4byte	.LASF12
 775 0093 04       		.uleb128 0x4
 776 0094 64060000 		.4byte	.LASF13
 777 0098 07       		.byte	0x7
 778 0099 15       		.byte	0x15
 779 009a 36000000 		.4byte	0x36
 780 009e 04       		.uleb128 0x4
 781 009f 9B030000 		.4byte	.LASF14
 782 00a3 07       		.byte	0x7
 783 00a4 2C       		.byte	0x2c
 784 00a5 56000000 		.4byte	0x56
 785 00a9 04       		.uleb128 0x4
 786 00aa 87040000 		.4byte	.LASF15
ARM GAS  /tmp/cc7MI5SV.s 			page 15


 787 00ae 07       		.byte	0x7
 788 00af 2D       		.byte	0x2d
 789 00b0 68000000 		.4byte	0x68
 790 00b4 04       		.uleb128 0x4
 791 00b5 1A000000 		.4byte	.LASF16
 792 00b9 07       		.byte	0x7
 793 00ba 39       		.byte	0x39
 794 00bb 81000000 		.4byte	0x81
 795 00bf 04       		.uleb128 0x4
 796 00c0 0D060000 		.4byte	.LASF17
 797 00c4 08       		.byte	0x8
 798 00c5 39       		.byte	0x39
 799 00c6 A9000000 		.4byte	0xa9
 800 00ca 04       		.uleb128 0x4
 801 00cb 5F020000 		.4byte	.LASF18
 802 00cf 08       		.byte	0x8
 803 00d0 3C       		.byte	0x3c
 804 00d1 93000000 		.4byte	0x93
 805 00d5 04       		.uleb128 0x4
 806 00d6 43010000 		.4byte	.LASF19
 807 00da 08       		.byte	0x8
 808 00db 3D       		.byte	0x3d
 809 00dc 93000000 		.4byte	0x93
 810 00e0 04       		.uleb128 0x4
 811 00e1 60030000 		.4byte	.LASF20
 812 00e5 08       		.byte	0x8
 813 00e6 3E       		.byte	0x3e
 814 00e7 93000000 		.4byte	0x93
 815 00eb 04       		.uleb128 0x4
 816 00ec 26010000 		.4byte	.LASF21
 817 00f0 08       		.byte	0x8
 818 00f1 3F       		.byte	0x3f
 819 00f2 93000000 		.4byte	0x93
 820 00f6 04       		.uleb128 0x4
 821 00f7 7F030000 		.4byte	.LASF22
 822 00fb 08       		.byte	0x8
 823 00fc 40       		.byte	0x40
 824 00fd A9000000 		.4byte	0xa9
 825 0101 04       		.uleb128 0x4
 826 0102 4D020000 		.4byte	.LASF23
 827 0106 08       		.byte	0x8
 828 0107 41       		.byte	0x41
 829 0108 9E000000 		.4byte	0x9e
 830 010c 04       		.uleb128 0x4
 831 010d 75020000 		.4byte	.LASF24
 832 0111 08       		.byte	0x8
 833 0112 43       		.byte	0x43
 834 0113 A9000000 		.4byte	0xa9
 835 0117 04       		.uleb128 0x4
 836 0118 DA010000 		.4byte	.LASF25
 837 011c 08       		.byte	0x8
 838 011d 45       		.byte	0x45
 839 011e 9E000000 		.4byte	0x9e
 840 0122 04       		.uleb128 0x4
 841 0123 BD050000 		.4byte	.LASF26
 842 0127 09       		.byte	0x9
 843 0128 33       		.byte	0x33
ARM GAS  /tmp/cc7MI5SV.s 			page 16


 844 0129 A9000000 		.4byte	0xa9
 845 012d 04       		.uleb128 0x4
 846 012e 47060000 		.4byte	.LASF27
 847 0132 09       		.byte	0x9
 848 0133 3F       		.byte	0x3f
 849 0134 38010000 		.4byte	0x138
 850 0138 05       		.uleb128 0x5
 851 0139 36020000 		.4byte	.LASF48
 852 013d 44       		.byte	0x44
 853 013e 02       		.byte	0x2
 854 013f C2       		.byte	0xc2
 855 0140 31020000 		.4byte	0x231
 856 0144 06       		.uleb128 0x6
 857 0145 13040000 		.4byte	.LASF28
 858 0149 02       		.byte	0x2
 859 014a C3       		.byte	0xc3
 860 014b 3C020000 		.4byte	0x23c
 861 014f 00       		.byte	0
 862 0150 06       		.uleb128 0x6
 863 0151 78030000 		.4byte	.LASF29
 864 0155 02       		.byte	0x2
 865 0156 C5       		.byte	0xc5
 866 0157 3C020000 		.4byte	0x23c
 867 015b 04       		.byte	0x4
 868 015c 06       		.uleb128 0x6
 869 015d CD000000 		.4byte	.LASF30
 870 0161 02       		.byte	0x2
 871 0162 C7       		.byte	0xc7
 872 0163 F6000000 		.4byte	0xf6
 873 0167 08       		.byte	0x8
 874 0168 06       		.uleb128 0x6
 875 0169 D8060000 		.4byte	.LASF31
 876 016d 02       		.byte	0x2
 877 016e C8       		.byte	0xc8
 878 016f 6C040000 		.4byte	0x46c
 879 0173 0C       		.byte	0xc
 880 0174 06       		.uleb128 0x6
 881 0175 66010000 		.4byte	.LASF32
 882 0179 02       		.byte	0x2
 883 017a CA       		.byte	0xca
 884 017b 3C020000 		.4byte	0x23c
 885 017f 10       		.byte	0x10
 886 0180 06       		.uleb128 0x6
 887 0181 08030000 		.4byte	.LASF33
 888 0185 02       		.byte	0x2
 889 0186 CB       		.byte	0xcb
 890 0187 3C020000 		.4byte	0x23c
 891 018b 14       		.byte	0x14
 892 018c 06       		.uleb128 0x6
 893 018d 73060000 		.4byte	.LASF34
 894 0191 02       		.byte	0x2
 895 0192 D2       		.byte	0xd2
 896 0193 EB050000 		.4byte	0x5eb
 897 0197 18       		.byte	0x18
 898 0198 06       		.uleb128 0x6
 899 0199 C5030000 		.4byte	.LASF35
 900 019d 02       		.byte	0x2
ARM GAS  /tmp/cc7MI5SV.s 			page 17


 901 019e DD       		.byte	0xdd
 902 019f D5000000 		.4byte	0xd5
 903 01a3 1C       		.byte	0x1c
 904 01a4 06       		.uleb128 0x6
 905 01a5 1A040000 		.4byte	.LASF36
 906 01a9 02       		.byte	0x2
 907 01aa E1       		.byte	0xe1
 908 01ab CA000000 		.4byte	0xca
 909 01af 1D       		.byte	0x1d
 910 01b0 06       		.uleb128 0x6
 911 01b1 40060000 		.4byte	.LASF37
 912 01b5 02       		.byte	0x2
 913 01b6 E6       		.byte	0xe6
 914 01b7 E0000000 		.4byte	0xe0
 915 01bb 1E       		.byte	0x1e
 916 01bc 06       		.uleb128 0x6
 917 01bd CD030000 		.4byte	.LASF38
 918 01c1 02       		.byte	0x2
 919 01c2 EC       		.byte	0xec
 920 01c3 EB000000 		.4byte	0xeb
 921 01c7 1F       		.byte	0x1f
 922 01c8 07       		.uleb128 0x7
 923 01c9 705F7500 		.ascii	"p_u\000"
 924 01cd 02       		.byte	0x2
 925 01ce 3101     		.2byte	0x131
 926 01d0 26050000 		.4byte	0x526
 927 01d4 20       		.byte	0x20
 928 01d5 08       		.uleb128 0x8
 929 01d6 A5020000 		.4byte	.LASF39
 930 01da 02       		.byte	0x2
 931 01db 3601     		.2byte	0x136
 932 01dd 42020000 		.4byte	0x242
 933 01e1 24       		.byte	0x24
 934 01e2 08       		.uleb128 0x8
 935 01e3 12020000 		.4byte	.LASF40
 936 01e7 02       		.byte	0x2
 937 01e8 3C01     		.2byte	0x13c
 938 01ea 66020000 		.4byte	0x266
 939 01ee 28       		.byte	0x28
 940 01ef 08       		.uleb128 0x8
 941 01f0 B8060000 		.4byte	.LASF41
 942 01f4 02       		.byte	0x2
 943 01f5 4001     		.2byte	0x140
 944 01f7 01010000 		.4byte	0x101
 945 01fb 30       		.byte	0x30
 946 01fc 08       		.uleb128 0x8
 947 01fd 69040000 		.4byte	.LASF42
 948 0201 02       		.byte	0x2
 949 0202 4601     		.2byte	0x146
 950 0204 0C010000 		.4byte	0x10c
 951 0208 34       		.byte	0x34
 952 0209 08       		.uleb128 0x8
 953 020a B1030000 		.4byte	.LASF43
 954 020e 02       		.byte	0x2
 955 020f 4D01     		.2byte	0x14d
 956 0211 E5050000 		.4byte	0x5e5
 957 0215 38       		.byte	0x38
ARM GAS  /tmp/cc7MI5SV.s 			page 18


 958 0216 08       		.uleb128 0x8
 959 0217 C7050000 		.4byte	.LASF44
 960 021b 02       		.byte	0x2
 961 021c 5101     		.2byte	0x151
 962 021e F6000000 		.4byte	0xf6
 963 0222 3C       		.byte	0x3c
 964 0223 08       		.uleb128 0x8
 965 0224 03010000 		.4byte	.LASF45
 966 0228 02       		.byte	0x2
 967 0229 5801     		.2byte	0x158
 968 022b 19030000 		.4byte	0x319
 969 022f 40       		.byte	0x40
 970 0230 00       		.byte	0
 971 0231 04       		.uleb128 0x4
 972 0232 B8020000 		.4byte	.LASF46
 973 0236 09       		.byte	0x9
 974 0237 44       		.byte	0x44
 975 0238 3C020000 		.4byte	0x23c
 976 023c 09       		.uleb128 0x9
 977 023d 04       		.byte	0x4
 978 023e 2D010000 		.4byte	0x12d
 979 0242 04       		.uleb128 0x4
 980 0243 96020000 		.4byte	.LASF47
 981 0247 09       		.byte	0x9
 982 0248 49       		.byte	0x49
 983 0249 4D020000 		.4byte	0x24d
 984 024d 05       		.uleb128 0x5
 985 024e AB040000 		.4byte	.LASF49
 986 0252 04       		.byte	0x4
 987 0253 02       		.byte	0x2
 988 0254 B0       		.byte	0xb0
 989 0255 66020000 		.4byte	0x266
 990 0259 06       		.uleb128 0x6
 991 025a 13040000 		.4byte	.LASF28
 992 025e 02       		.byte	0x2
 993 025f B1       		.byte	0xb1
 994 0260 3C020000 		.4byte	0x23c
 995 0264 00       		.byte	0
 996 0265 00       		.byte	0
 997 0266 04       		.uleb128 0x4
 998 0267 27060000 		.4byte	.LASF50
 999 026b 09       		.byte	0x9
 1000 026c 50       		.byte	0x50
 1001 026d 71020000 		.4byte	0x271
 1002 0271 05       		.uleb128 0x5
 1003 0272 BC000000 		.4byte	.LASF51
 1004 0276 08       		.byte	0x8
 1005 0277 02       		.byte	0x2
 1006 0278 B7       		.byte	0xb7
 1007 0279 96020000 		.4byte	0x296
 1008 027d 06       		.uleb128 0x6
 1009 027e 13040000 		.4byte	.LASF28
 1010 0282 02       		.byte	0x2
 1011 0283 B8       		.byte	0xb8
 1012 0284 3C020000 		.4byte	0x23c
 1013 0288 00       		.byte	0
 1014 0289 06       		.uleb128 0x6
ARM GAS  /tmp/cc7MI5SV.s 			page 19


 1015 028a 78030000 		.4byte	.LASF29
 1016 028e 02       		.byte	0x2
 1017 028f B9       		.byte	0xb9
 1018 0290 3C020000 		.4byte	0x23c
 1019 0294 04       		.byte	0x4
 1020 0295 00       		.byte	0
 1021 0296 04       		.uleb128 0x4
 1022 0297 00000000 		.4byte	.LASF52
 1023 029b 09       		.byte	0x9
 1024 029c 57       		.byte	0x57
 1025 029d A1020000 		.4byte	0x2a1
 1026 02a1 0A       		.uleb128 0xa
 1027 02a2 67020000 		.4byte	.LASF53
 1028 02a6 1C       		.byte	0x1c
 1029 02a7 02       		.byte	0x2
 1030 02a8 9001     		.2byte	0x190
 1031 02aa FD020000 		.4byte	0x2fd
 1032 02ae 08       		.uleb128 0x8
 1033 02af 97040000 		.4byte	.LASF54
 1034 02b3 02       		.byte	0x2
 1035 02b4 9101     		.2byte	0x191
 1036 02b6 66020000 		.4byte	0x266
 1037 02ba 00       		.byte	0
 1038 02bb 08       		.uleb128 0x8
 1039 02bc 05040000 		.4byte	.LASF55
 1040 02c0 02       		.byte	0x2
 1041 02c1 9201     		.2byte	0x192
 1042 02c3 F6000000 		.4byte	0xf6
 1043 02c7 08       		.byte	0x8
 1044 02c8 08       		.uleb128 0x8
 1045 02c9 10030000 		.4byte	.LASF56
 1046 02cd 02       		.byte	0x2
 1047 02ce 9401     		.2byte	0x194
 1048 02d0 6C040000 		.4byte	0x46c
 1049 02d4 0C       		.byte	0xc
 1050 02d5 08       		.uleb128 0x8
 1051 02d6 87010000 		.4byte	.LASF57
 1052 02da 02       		.byte	0x2
 1053 02db 9701     		.2byte	0x197
 1054 02dd 3C020000 		.4byte	0x23c
 1055 02e1 10       		.byte	0x10
 1056 02e2 08       		.uleb128 0x8
 1057 02e3 3D030000 		.4byte	.LASF58
 1058 02e7 02       		.byte	0x2
 1059 02e8 9801     		.2byte	0x198
 1060 02ea 3C020000 		.4byte	0x23c
 1061 02ee 14       		.byte	0x14
 1062 02ef 08       		.uleb128 0x8
 1063 02f0 33030000 		.4byte	.LASF59
 1064 02f4 02       		.byte	0x2
 1065 02f5 9B01     		.2byte	0x19b
 1066 02f7 3C020000 		.4byte	0x23c
 1067 02fb 18       		.byte	0x18
 1068 02fc 00       		.byte	0
 1069 02fd 04       		.uleb128 0x4
 1070 02fe D2050000 		.4byte	.LASF60
 1071 0302 09       		.byte	0x9
ARM GAS  /tmp/cc7MI5SV.s 			page 20


 1072 0303 5C       		.byte	0x5c
 1073 0304 08030000 		.4byte	0x308
 1074 0308 09       		.uleb128 0x9
 1075 0309 04       		.byte	0x4
 1076 030a 0E030000 		.4byte	0x30e
 1077 030e 0B       		.uleb128 0xb
 1078 030f 19030000 		.4byte	0x319
 1079 0313 0C       		.uleb128 0xc
 1080 0314 19030000 		.4byte	0x319
 1081 0318 00       		.byte	0
 1082 0319 0D       		.uleb128 0xd
 1083 031a 04       		.byte	0x4
 1084 031b 04       		.uleb128 0x4
 1085 031c 68030000 		.4byte	.LASF61
 1086 0320 09       		.byte	0x9
 1087 0321 61       		.byte	0x61
 1088 0322 26030000 		.4byte	0x326
 1089 0326 0A       		.uleb128 0xa
 1090 0327 35040000 		.4byte	.LASF62
 1091 032b 14       		.byte	0x14
 1092 032c 02       		.byte	0x2
 1093 032d 6B01     		.2byte	0x16b
 1094 032f 75030000 		.4byte	0x375
 1095 0333 08       		.uleb128 0x8
 1096 0334 FA010000 		.4byte	.LASF63
 1097 0338 02       		.byte	0x2
 1098 0339 6C01     		.2byte	0x16c
 1099 033b FD050000 		.4byte	0x5fd
 1100 033f 00       		.byte	0
 1101 0340 08       		.uleb128 0x8
 1102 0341 98010000 		.4byte	.LASF64
 1103 0345 02       		.byte	0x2
 1104 0346 6D01     		.2byte	0x16d
 1105 0348 FD050000 		.4byte	0x5fd
 1106 034c 04       		.byte	0x4
 1107 034d 08       		.uleb128 0x8
 1108 034e 09020000 		.4byte	.LASF65
 1109 0352 02       		.byte	0x2
 1110 0353 6E01     		.2byte	0x16e
 1111 0355 22010000 		.4byte	0x122
 1112 0359 08       		.byte	0x8
 1113 035a 08       		.uleb128 0x8
 1114 035b DE060000 		.4byte	.LASF66
 1115 035f 02       		.byte	0x2
 1116 0360 6F01     		.2byte	0x16f
 1117 0362 FD020000 		.4byte	0x2fd
 1118 0366 0C       		.byte	0xc
 1119 0367 08       		.uleb128 0x8
 1120 0368 20060000 		.4byte	.LASF67
 1121 036c 02       		.byte	0x2
 1122 036d 7101     		.2byte	0x171
 1123 036f 19030000 		.4byte	0x319
 1124 0373 10       		.byte	0x10
 1125 0374 00       		.byte	0
 1126 0375 04       		.uleb128 0x4
 1127 0376 99000000 		.4byte	.LASF68
 1128 037a 09       		.byte	0x9
ARM GAS  /tmp/cc7MI5SV.s 			page 21


 1129 037b 66       		.byte	0x66
 1130 037c 80030000 		.4byte	0x380
 1131 0380 0A       		.uleb128 0xa
 1132 0381 CB020000 		.4byte	.LASF69
 1133 0385 10       		.byte	0x10
 1134 0386 02       		.byte	0x2
 1135 0387 7B01     		.2byte	0x17b
 1136 0389 C2030000 		.4byte	0x3c2
 1137 038d 08       		.uleb128 0x8
 1138 038e FA010000 		.4byte	.LASF63
 1139 0392 02       		.byte	0x2
 1140 0393 7C01     		.2byte	0x17c
 1141 0395 FD050000 		.4byte	0x5fd
 1142 0399 00       		.byte	0
 1143 039a 08       		.uleb128 0x8
 1144 039b 98010000 		.4byte	.LASF64
 1145 039f 02       		.byte	0x2
 1146 03a0 7E01     		.2byte	0x17e
 1147 03a2 FD050000 		.4byte	0x5fd
 1148 03a6 04       		.byte	0x4
 1149 03a7 08       		.uleb128 0x8
 1150 03a8 09020000 		.4byte	.LASF65
 1151 03ac 02       		.byte	0x2
 1152 03ad 8001     		.2byte	0x180
 1153 03af 22010000 		.4byte	0x122
 1154 03b3 08       		.byte	0x8
 1155 03b4 08       		.uleb128 0x8
 1156 03b5 8C060000 		.4byte	.LASF70
 1157 03b9 02       		.byte	0x2
 1158 03ba 8201     		.2byte	0x182
 1159 03bc 03060000 		.4byte	0x603
 1160 03c0 0C       		.byte	0xc
 1161 03c1 00       		.byte	0
 1162 03c2 04       		.uleb128 0x4
 1163 03c3 39000000 		.4byte	.LASF71
 1164 03c7 09       		.byte	0x9
 1165 03c8 6B       		.byte	0x6b
 1166 03c9 CD030000 		.4byte	0x3cd
 1167 03cd 0A       		.uleb128 0xa
 1168 03ce A0010000 		.4byte	.LASF72
 1169 03d2 04       		.byte	0x4
 1170 03d3 02       		.byte	0x2
 1171 03d4 A201     		.2byte	0x1a2
 1172 03d6 E8030000 		.4byte	0x3e8
 1173 03da 08       		.uleb128 0x8
 1174 03db F4050000 		.4byte	.LASF73
 1175 03df 02       		.byte	0x2
 1176 03e0 AA01     		.2byte	0x1aa
 1177 03e2 08060000 		.4byte	0x608
 1178 03e6 00       		.byte	0
 1179 03e7 00       		.byte	0
 1180 03e8 04       		.uleb128 0x4
 1181 03e9 53020000 		.4byte	.LASF74
 1182 03ed 09       		.byte	0x9
 1183 03ee 70       		.byte	0x70
 1184 03ef F3030000 		.4byte	0x3f3
 1185 03f3 0E       		.uleb128 0xe
ARM GAS  /tmp/cc7MI5SV.s 			page 22


 1186 03f4 30010000 		.4byte	.LASF75
 1187 03f8 5001     		.2byte	0x150
 1188 03fa 02       		.byte	0x2
 1189 03fb C201     		.2byte	0x1c2
 1190 03fd 4F040000 		.4byte	0x44f
 1191 0401 08       		.uleb128 0x8
 1192 0402 50060000 		.4byte	.LASF76
 1193 0406 02       		.byte	0x2
 1194 0407 C601     		.2byte	0x1c6
 1195 0409 96020000 		.4byte	0x296
 1196 040d 00       		.byte	0
 1197 040e 08       		.uleb128 0x8
 1198 040f 13010000 		.4byte	.LASF77
 1199 0413 02       		.byte	0x2
 1200 0414 CA01     		.2byte	0x1ca
 1201 0416 75030000 		.4byte	0x375
 1202 041a 1C       		.byte	0x1c
 1203 041b 07       		.uleb128 0x7
 1204 041c 64626700 		.ascii	"dbg\000"
 1205 0420 02       		.byte	0x2
 1206 0421 CE01     		.2byte	0x1ce
 1207 0423 C2030000 		.4byte	0x3c2
 1208 0427 2C       		.byte	0x2c
 1209 0428 08       		.uleb128 0x8
 1210 0429 8E000000 		.4byte	.LASF78
 1211 042d 02       		.byte	0x2
 1212 042e D201     		.2byte	0x1d2
 1213 0430 2D010000 		.4byte	0x12d
 1214 0434 30       		.byte	0x30
 1215 0435 07       		.uleb128 0x7
 1216 0436 746D00   		.ascii	"tm\000"
 1217 0439 02       		.byte	0x2
 1218 043a D701     		.2byte	0x1d7
 1219 043c 1B050000 		.4byte	0x51b
 1220 0440 74       		.byte	0x74
 1221 0441 08       		.uleb128 0x8
 1222 0442 CB010000 		.4byte	.LASF79
 1223 0446 02       		.byte	0x2
 1224 0447 E301     		.2byte	0x1e3
 1225 0449 0D060000 		.4byte	0x60d
 1226 044d 78       		.byte	0x78
 1227 044e 00       		.byte	0
 1228 044f 03       		.uleb128 0x3
 1229 0450 04       		.byte	0x4
 1230 0451 07       		.byte	0x7
 1231 0452 AF020000 		.4byte	.LASF80
 1232 0456 04       		.uleb128 0x4
 1233 0457 8F010000 		.4byte	.LASF81
 1234 045b 0A       		.byte	0xa
 1235 045c 65       		.byte	0x65
 1236 045d 19030000 		.4byte	0x319
 1237 0461 04       		.uleb128 0x4
 1238 0462 8B020000 		.4byte	.LASF82
 1239 0466 0A       		.byte	0xa
 1240 0467 6D       		.byte	0x6d
 1241 0468 B4000000 		.4byte	0xb4
 1242 046c 05       		.uleb128 0x5
ARM GAS  /tmp/cc7MI5SV.s 			page 23


 1243 046d 05060000 		.4byte	.LASF83
 1244 0471 04       		.byte	0x4
 1245 0472 0A       		.byte	0xa
 1246 0473 89       		.byte	0x89
 1247 0474 85040000 		.4byte	0x485
 1248 0478 0F       		.uleb128 0xf
 1249 0479 72313300 		.ascii	"r13\000"
 1250 047d 0A       		.byte	0xa
 1251 047e 8A       		.byte	0x8a
 1252 047f 00050000 		.4byte	0x500
 1253 0483 00       		.byte	0
 1254 0484 00       		.byte	0
 1255 0485 05       		.uleb128 0x5
 1256 0486 2D000000 		.4byte	.LASF84
 1257 048a 24       		.byte	0x24
 1258 048b 0B       		.byte	0xb
 1259 048c FD       		.byte	0xfd
 1260 048d 00050000 		.4byte	0x500
 1261 0491 07       		.uleb128 0x7
 1262 0492 723400   		.ascii	"r4\000"
 1263 0495 0B       		.byte	0xb
 1264 0496 1001     		.2byte	0x110
 1265 0498 56040000 		.4byte	0x456
 1266 049c 00       		.byte	0
 1267 049d 07       		.uleb128 0x7
 1268 049e 723500   		.ascii	"r5\000"
 1269 04a1 0B       		.byte	0xb
 1270 04a2 1101     		.2byte	0x111
 1271 04a4 56040000 		.4byte	0x456
 1272 04a8 04       		.byte	0x4
 1273 04a9 07       		.uleb128 0x7
 1274 04aa 723600   		.ascii	"r6\000"
 1275 04ad 0B       		.byte	0xb
 1276 04ae 1201     		.2byte	0x112
 1277 04b0 56040000 		.4byte	0x456
 1278 04b4 08       		.byte	0x8
 1279 04b5 07       		.uleb128 0x7
 1280 04b6 723700   		.ascii	"r7\000"
 1281 04b9 0B       		.byte	0xb
 1282 04ba 1301     		.2byte	0x113
 1283 04bc 56040000 		.4byte	0x456
 1284 04c0 0C       		.byte	0xc
 1285 04c1 07       		.uleb128 0x7
 1286 04c2 723800   		.ascii	"r8\000"
 1287 04c5 0B       		.byte	0xb
 1288 04c6 1401     		.2byte	0x114
 1289 04c8 56040000 		.4byte	0x456
 1290 04cc 10       		.byte	0x10
 1291 04cd 07       		.uleb128 0x7
 1292 04ce 723900   		.ascii	"r9\000"
 1293 04d1 0B       		.byte	0xb
 1294 04d2 1501     		.2byte	0x115
 1295 04d4 56040000 		.4byte	0x456
 1296 04d8 14       		.byte	0x14
 1297 04d9 07       		.uleb128 0x7
 1298 04da 72313000 		.ascii	"r10\000"
 1299 04de 0B       		.byte	0xb
ARM GAS  /tmp/cc7MI5SV.s 			page 24


 1300 04df 1601     		.2byte	0x116
 1301 04e1 56040000 		.4byte	0x456
 1302 04e5 18       		.byte	0x18
 1303 04e6 07       		.uleb128 0x7
 1304 04e7 72313100 		.ascii	"r11\000"
 1305 04eb 0B       		.byte	0xb
 1306 04ec 1701     		.2byte	0x117
 1307 04ee 56040000 		.4byte	0x456
 1308 04f2 1C       		.byte	0x1c
 1309 04f3 07       		.uleb128 0x7
 1310 04f4 6C7200   		.ascii	"lr\000"
 1311 04f7 0B       		.byte	0xb
 1312 04f8 1801     		.2byte	0x118
 1313 04fa 56040000 		.4byte	0x456
 1314 04fe 20       		.byte	0x20
 1315 04ff 00       		.byte	0
 1316 0500 09       		.uleb128 0x9
 1317 0501 04       		.byte	0x4
 1318 0502 85040000 		.4byte	0x485
 1319 0506 10       		.uleb128 0x10
 1320 0507 04       		.byte	0x4
 1321 0508 0C       		.byte	0xc
 1322 0509 38       		.byte	0x38
 1323 050a 1B050000 		.4byte	0x51b
 1324 050e 06       		.uleb128 0x6
 1325 050f FE050000 		.4byte	.LASF85
 1326 0513 0C       		.byte	0xc
 1327 0514 3C       		.byte	0x3c
 1328 0515 BF000000 		.4byte	0xbf
 1329 0519 00       		.byte	0
 1330 051a 00       		.byte	0
 1331 051b 04       		.uleb128 0x4
 1332 051c 16030000 		.4byte	.LASF86
 1333 0520 0C       		.byte	0xc
 1334 0521 3D       		.byte	0x3d
 1335 0522 06050000 		.4byte	0x506
 1336 0526 11       		.uleb128 0x11
 1337 0527 04       		.byte	0x4
 1338 0528 02       		.byte	0x2
 1339 0529 FA       		.byte	0xfa
 1340 052a 83050000 		.4byte	0x583
 1341 052e 12       		.uleb128 0x12
 1342 052f 13000000 		.4byte	.LASF87
 1343 0533 02       		.byte	0x2
 1344 0534 0101     		.2byte	0x101
 1345 0536 01010000 		.4byte	0x101
 1346 053a 12       		.uleb128 0x12
 1347 053b 85000000 		.4byte	.LASF88
 1348 053f 02       		.byte	0x2
 1349 0540 0801     		.2byte	0x108
 1350 0542 01010000 		.4byte	0x101
 1351 0546 12       		.uleb128 0x12
 1352 0547 6C060000 		.4byte	.LASF89
 1353 054b 02       		.byte	0x2
 1354 054c 0F01     		.2byte	0x10f
 1355 054e 19030000 		.4byte	0x319
 1356 0552 12       		.uleb128 0x12
ARM GAS  /tmp/cc7MI5SV.s 			page 25


 1357 0553 0D000000 		.4byte	.LASF90
 1358 0557 02       		.byte	0x2
 1359 0558 1601     		.2byte	0x116
 1360 055a 83050000 		.4byte	0x583
 1361 055e 12       		.uleb128 0x12
 1362 055f 02020000 		.4byte	.LASF91
 1363 0563 02       		.byte	0x2
 1364 0564 1E01     		.2byte	0x11e
 1365 0566 AE050000 		.4byte	0x5ae
 1366 056a 12       		.uleb128 0x12
 1367 056b 90040000 		.4byte	.LASF92
 1368 056f 02       		.byte	0x2
 1369 0570 2701     		.2byte	0x127
 1370 0572 E5050000 		.4byte	0x5e5
 1371 0576 12       		.uleb128 0x12
 1372 0577 0C040000 		.4byte	.LASF93
 1373 057b 02       		.byte	0x2
 1374 057c 2F01     		.2byte	0x12f
 1375 057e 0C010000 		.4byte	0x10c
 1376 0582 00       		.byte	0
 1377 0583 09       		.uleb128 0x9
 1378 0584 04       		.byte	0x4
 1379 0585 31020000 		.4byte	0x231
 1380 0589 05       		.uleb128 0x5
 1381 058a 4E040000 		.4byte	.LASF94
 1382 058e 0C       		.byte	0xc
 1383 058f 0D       		.byte	0xd
 1384 0590 34       		.byte	0x34
 1385 0591 AE050000 		.4byte	0x5ae
 1386 0595 06       		.uleb128 0x6
 1387 0596 6E010000 		.4byte	.LASF95
 1388 059a 0D       		.byte	0xd
 1389 059b 35       		.byte	0x35
 1390 059c 66020000 		.4byte	0x266
 1391 05a0 00       		.byte	0
 1392 05a1 06       		.uleb128 0x6
 1393 05a2 1D020000 		.4byte	.LASF96
 1394 05a6 0D       		.byte	0xd
 1395 05a7 37       		.byte	0x37
 1396 05a8 17010000 		.4byte	0x117
 1397 05ac 08       		.byte	0x8
 1398 05ad 00       		.byte	0
 1399 05ae 09       		.uleb128 0x9
 1400 05af 04       		.byte	0x4
 1401 05b0 89050000 		.4byte	0x589
 1402 05b4 05       		.uleb128 0x5
 1403 05b5 37060000 		.4byte	.LASF97
 1404 05b9 10       		.byte	0x10
 1405 05ba 04       		.byte	0x4
 1406 05bb 39       		.byte	0x39
 1407 05bc E5050000 		.4byte	0x5e5
 1408 05c0 06       		.uleb128 0x6
 1409 05c1 0B010000 		.4byte	.LASF98
 1410 05c5 04       		.byte	0x4
 1411 05c6 3A       		.byte	0x3a
 1412 05c7 66020000 		.4byte	0x266
 1413 05cb 00       		.byte	0
ARM GAS  /tmp/cc7MI5SV.s 			page 26


 1414 05cc 06       		.uleb128 0x6
 1415 05cd D0060000 		.4byte	.LASF99
 1416 05d1 04       		.byte	0x4
 1417 05d2 3C       		.byte	0x3c
 1418 05d3 3C020000 		.4byte	0x23c
 1419 05d7 08       		.byte	0x8
 1420 05d8 06       		.uleb128 0x6
 1421 05d9 27030000 		.4byte	.LASF100
 1422 05dd 04       		.byte	0x4
 1423 05de 3E       		.byte	0x3e
 1424 05df 28060000 		.4byte	0x628
 1425 05e3 0C       		.byte	0xc
 1426 05e4 00       		.byte	0
 1427 05e5 09       		.uleb128 0x9
 1428 05e6 04       		.byte	0x4
 1429 05e7 B4050000 		.4byte	0x5b4
 1430 05eb 09       		.uleb128 0x9
 1431 05ec 04       		.byte	0x4
 1432 05ed F1050000 		.4byte	0x5f1
 1433 05f1 13       		.uleb128 0x13
 1434 05f2 F6050000 		.4byte	0x5f6
 1435 05f6 03       		.uleb128 0x3
 1436 05f7 01       		.byte	0x1
 1437 05f8 08       		.byte	0x8
 1438 05f9 89050000 		.4byte	.LASF101
 1439 05fd 09       		.uleb128 0x9
 1440 05fe 04       		.byte	0x4
 1441 05ff 1B030000 		.4byte	0x31b
 1442 0603 14       		.uleb128 0x14
 1443 0604 22010000 		.4byte	0x122
 1444 0608 14       		.uleb128 0x14
 1445 0609 EB050000 		.4byte	0x5eb
 1446 060d 15       		.uleb128 0x15
 1447 060e 61040000 		.4byte	0x461
 1448 0612 1D060000 		.4byte	0x61d
 1449 0616 16       		.uleb128 0x16
 1450 0617 4F040000 		.4byte	0x44f
 1451 061b 1A       		.byte	0x1a
 1452 061c 00       		.byte	0
 1453 061d 04       		.uleb128 0x4
 1454 061e B0010000 		.4byte	.LASF102
 1455 0622 04       		.byte	0x4
 1456 0623 34       		.byte	0x34
 1457 0624 B4050000 		.4byte	0x5b4
 1458 0628 09       		.uleb128 0x9
 1459 0629 04       		.byte	0x4
 1460 062a 1D060000 		.4byte	0x61d
 1461 062e 05       		.uleb128 0x5
 1462 062f E2020000 		.4byte	.LASF103
 1463 0633 08       		.byte	0x8
 1464 0634 0E       		.byte	0xe
 1465 0635 3B       		.byte	0x3b
 1466 0636 47060000 		.4byte	0x647
 1467 063a 06       		.uleb128 0x6
 1468 063b 46040000 		.4byte	.LASF104
 1469 063f 0E       		.byte	0xe
 1470 0640 3C       		.byte	0x3c
ARM GAS  /tmp/cc7MI5SV.s 			page 27


 1471 0641 66020000 		.4byte	0x266
 1472 0645 00       		.byte	0
 1473 0646 00       		.byte	0
 1474 0647 04       		.uleb128 0x4
 1475 0648 EE000000 		.4byte	.LASF105
 1476 064c 0E       		.byte	0xe
 1477 064d 3E       		.byte	0x3e
 1478 064e 2E060000 		.4byte	0x62e
 1479 0652 17       		.uleb128 0x17
 1480 0653 E6050000 		.4byte	.LASF108
 1481 0657 03       		.byte	0x3
 1482 0658 2202     		.2byte	0x222
 1483 065a 03       		.byte	0x3
 1484 065b 6C060000 		.4byte	0x66c
 1485 065f 18       		.uleb128 0x18
 1486 0660 B8010000 		.4byte	.LASF110
 1487 0664 03       		.byte	0x3
 1488 0665 2202     		.2byte	0x222
 1489 0667 A9000000 		.4byte	0xa9
 1490 066b 00       		.byte	0
 1491 066c 19       		.uleb128 0x19
 1492 066d 53000000 		.4byte	.LASF106
 1493 0671 0B       		.byte	0xb
 1494 0672 C801     		.2byte	0x1c8
 1495 0674 03       		.byte	0x3
 1496 0675 19       		.uleb128 0x19
 1497 0676 1A010000 		.4byte	.LASF107
 1498 067a 0B       		.byte	0xb
 1499 067b E001     		.2byte	0x1e0
 1500 067d 03       		.byte	0x3
 1501 067e 1A       		.uleb128 0x1a
 1502 067f 56060000 		.4byte	.LASF117
 1503 0683 05       		.byte	0x5
 1504 0684 AE       		.byte	0xae
 1505 0685 3C020000 		.4byte	0x23c
 1506 0689 03       		.byte	0x3
 1507 068a 17       		.uleb128 0x17
 1508 068b 48000000 		.4byte	.LASF109
 1509 068f 02       		.byte	0x2
 1510 0690 5A02     		.2byte	0x25a
 1511 0692 03       		.byte	0x3
 1512 0693 A4060000 		.4byte	0x6a4
 1513 0697 1B       		.uleb128 0x1b
 1514 0698 74717000 		.ascii	"tqp\000"
 1515 069c 02       		.byte	0x2
 1516 069d 5A02     		.2byte	0x25a
 1517 069f A4060000 		.4byte	0x6a4
 1518 06a3 00       		.byte	0
 1519 06a4 09       		.uleb128 0x9
 1520 06a5 04       		.byte	0x4
 1521 06a6 66020000 		.4byte	0x266
 1522 06aa 19       		.uleb128 0x19
 1523 06ab 2B040000 		.4byte	.LASF111
 1524 06af 0F       		.byte	0xf
 1525 06b0 5A01     		.2byte	0x15a
 1526 06b2 03       		.byte	0x3
 1527 06b3 1C       		.uleb128 0x1c
ARM GAS  /tmp/cc7MI5SV.s 			page 28


 1528 06b4 4C010000 		.4byte	.LASF113
 1529 06b8 02       		.byte	0x2
 1530 06b9 7502     		.2byte	0x275
 1531 06bb D1060000 		.4byte	0x6d1
 1532 06bf 03       		.byte	0x3
 1533 06c0 D1060000 		.4byte	0x6d1
 1534 06c4 1B       		.uleb128 0x1b
 1535 06c5 74717000 		.ascii	"tqp\000"
 1536 06c9 02       		.byte	0x2
 1537 06ca 7502     		.2byte	0x275
 1538 06cc D8060000 		.4byte	0x6d8
 1539 06d0 00       		.byte	0
 1540 06d1 03       		.uleb128 0x3
 1541 06d2 01       		.byte	0x1
 1542 06d3 02       		.byte	0x2
 1543 06d4 95030000 		.4byte	.LASF112
 1544 06d8 09       		.uleb128 0x9
 1545 06d9 04       		.byte	0x4
 1546 06da DE060000 		.4byte	0x6de
 1547 06de 13       		.uleb128 0x13
 1548 06df 66020000 		.4byte	0x266
 1549 06e3 1C       		.uleb128 0x1c
 1550 06e4 AB050000 		.4byte	.LASF114
 1551 06e8 02       		.byte	0x2
 1552 06e9 9F02     		.2byte	0x29f
 1553 06eb 3C020000 		.4byte	0x23c
 1554 06ef 03       		.byte	0x3
 1555 06f0 0C070000 		.4byte	0x70c
 1556 06f4 1B       		.uleb128 0x1b
 1557 06f5 74717000 		.ascii	"tqp\000"
 1558 06f9 02       		.byte	0x2
 1559 06fa 9F02     		.2byte	0x29f
 1560 06fc A4060000 		.4byte	0x6a4
 1561 0700 1D       		.uleb128 0x1d
 1562 0701 747000   		.ascii	"tp\000"
 1563 0704 02       		.byte	0x2
 1564 0705 A002     		.2byte	0x2a0
 1565 0707 3C020000 		.4byte	0x23c
 1566 070b 00       		.byte	0
 1567 070c 17       		.uleb128 0x17
 1568 070d AC060000 		.4byte	.LASF115
 1569 0711 0F       		.byte	0xf
 1570 0712 6601     		.2byte	0x166
 1571 0714 03       		.byte	0x3
 1572 0715 27070000 		.4byte	0x727
 1573 0719 1E       		.uleb128 0x1e
 1574 071a 22040000 		.4byte	.LASF116
 1575 071e 37070000 		.4byte	0x737
 1576 0722 AC060000 		.4byte	.LASF115
 1577 0726 00       		.byte	0
 1578 0727 15       		.uleb128 0x15
 1579 0728 F6050000 		.4byte	0x5f6
 1580 072c 37070000 		.4byte	0x737
 1581 0730 16       		.uleb128 0x16
 1582 0731 4F040000 		.4byte	0x44f
 1583 0735 0B       		.byte	0xb
 1584 0736 00       		.byte	0
ARM GAS  /tmp/cc7MI5SV.s 			page 29


 1585 0737 13       		.uleb128 0x13
 1586 0738 27070000 		.4byte	0x727
 1587 073c 1A       		.uleb128 0x1a
 1588 073d 74040000 		.4byte	.LASF118
 1589 0741 04       		.byte	0x4
 1590 0742 90       		.byte	0x90
 1591 0743 28060000 		.4byte	0x628
 1592 0747 03       		.byte	0x3
 1593 0748 17       		.uleb128 0x17
 1594 0749 BE060000 		.4byte	.LASF119
 1595 074d 02       		.byte	0x2
 1596 074e 8B02     		.2byte	0x28b
 1597 0750 03       		.byte	0x3
 1598 0751 78070000 		.4byte	0x778
 1599 0755 1B       		.uleb128 0x1b
 1600 0756 747000   		.ascii	"tp\000"
 1601 0759 02       		.byte	0x2
 1602 075a 8B02     		.2byte	0x28b
 1603 075c 3C020000 		.4byte	0x23c
 1604 0760 1B       		.uleb128 0x1b
 1605 0761 74717000 		.ascii	"tqp\000"
 1606 0765 02       		.byte	0x2
 1607 0766 8B02     		.2byte	0x28b
 1608 0768 A4060000 		.4byte	0x6a4
 1609 076c 1D       		.uleb128 0x1d
 1610 076d 637000   		.ascii	"cp\000"
 1611 0770 02       		.byte	0x2
 1612 0771 8D02     		.2byte	0x28d
 1613 0773 3C020000 		.4byte	0x23c
 1614 0777 00       		.byte	0
 1615 0778 1F       		.uleb128 0x1f
 1616 0779 9A050000 		.4byte	.LASF120
 1617 077d 01       		.byte	0x1
 1618 077e 4B       		.byte	0x4b
 1619 077f 00000000 		.4byte	.LFB170
 1620 0783 06000000 		.4byte	.LFE170-.LFB170
 1621 0787 01       		.uleb128 0x1
 1622 0788 9C       		.byte	0x9c
 1623 0789 BA070000 		.4byte	0x7ba
 1624 078d 20       		.uleb128 0x20
 1625 078e 637000   		.ascii	"cp\000"
 1626 0791 01       		.byte	0x1
 1627 0792 4B       		.byte	0x4b
 1628 0793 BA070000 		.4byte	0x7ba
 1629 0797 01       		.uleb128 0x1
 1630 0798 50       		.byte	0x50
 1631 0799 21       		.uleb128 0x21
 1632 079a 22040000 		.4byte	.LASF116
 1633 079e D0070000 		.4byte	0x7d0
 1634 07a2 22       		.uleb128 0x22
 1635 07a3 8A060000 		.4byte	0x68a
 1636 07a7 00000000 		.4byte	.LBB83
 1637 07ab 06000000 		.4byte	.LBE83-.LBB83
 1638 07af 01       		.byte	0x1
 1639 07b0 4F       		.byte	0x4f
 1640 07b1 23       		.uleb128 0x23
 1641 07b2 97060000 		.4byte	0x697
ARM GAS  /tmp/cc7MI5SV.s 			page 30


 1642 07b6 01       		.uleb128 0x1
 1643 07b7 50       		.byte	0x50
 1644 07b8 00       		.byte	0
 1645 07b9 00       		.byte	0
 1646 07ba 09       		.uleb128 0x9
 1647 07bb 04       		.byte	0x4
 1648 07bc 47060000 		.4byte	0x647
 1649 07c0 15       		.uleb128 0x15
 1650 07c1 F6050000 		.4byte	0x5f6
 1651 07c5 D0070000 		.4byte	0x7d0
 1652 07c9 16       		.uleb128 0x16
 1653 07ca 4F040000 		.4byte	0x44f
 1654 07ce 10       		.byte	0x10
 1655 07cf 00       		.byte	0
 1656 07d0 13       		.uleb128 0x13
 1657 07d1 C0070000 		.4byte	0x7c0
 1658 07d5 1F       		.uleb128 0x1f
 1659 07d6 BE010000 		.4byte	.LASF121
 1660 07da 01       		.byte	0x1
 1661 07db 59       		.byte	0x59
 1662 07dc 00000000 		.4byte	.LFB171
 1663 07e0 2E000000 		.4byte	.LFE171-.LFB171
 1664 07e4 01       		.uleb128 0x1
 1665 07e5 9C       		.byte	0x9c
 1666 07e6 E1080000 		.4byte	0x8e1
 1667 07ea 24       		.uleb128 0x24
 1668 07eb 637000   		.ascii	"cp\000"
 1669 07ee 01       		.byte	0x1
 1670 07ef 59       		.byte	0x59
 1671 07f0 BA070000 		.4byte	0x7ba
 1672 07f4 00000000 		.4byte	.LLST0
 1673 07f8 21       		.uleb128 0x21
 1674 07f9 22040000 		.4byte	.LASF116
 1675 07fd F1080000 		.4byte	0x8f1
 1676 0801 25       		.uleb128 0x25
 1677 0802 AA060000 		.4byte	0x6aa
 1678 0806 00000000 		.4byte	.LBB85
 1679 080a 06000000 		.4byte	.LBE85-.LBB85
 1680 080e 01       		.byte	0x1
 1681 080f 5D       		.byte	0x5d
 1682 0810 3D080000 		.4byte	0x83d
 1683 0814 26       		.uleb128 0x26
 1684 0815 6C060000 		.4byte	0x66c
 1685 0819 00000000 		.4byte	.LBB86
 1686 081d 06000000 		.4byte	.LBE86-.LBB86
 1687 0821 0F       		.byte	0xf
 1688 0822 5C01     		.2byte	0x15c
 1689 0824 26       		.uleb128 0x26
 1690 0825 52060000 		.4byte	0x652
 1691 0829 00000000 		.4byte	.LBB87
 1692 082d 06000000 		.4byte	.LBE87-.LBB87
 1693 0831 0B       		.byte	0xb
 1694 0832 D001     		.2byte	0x1d0
 1695 0834 27       		.uleb128 0x27
 1696 0835 5F060000 		.4byte	0x65f
 1697 0839 20       		.byte	0x20
 1698 083a 00       		.byte	0
ARM GAS  /tmp/cc7MI5SV.s 			page 31


 1699 083b 00       		.byte	0
 1700 083c 00       		.byte	0
 1701 083d 25       		.uleb128 0x25
 1702 083e B3060000 		.4byte	0x6b3
 1703 0842 06000000 		.4byte	.LBB89
 1704 0846 02000000 		.4byte	.LBE89-.LBB89
 1705 084a 01       		.byte	0x1
 1706 084b 5E       		.byte	0x5e
 1707 084c 5A080000 		.4byte	0x85a
 1708 0850 28       		.uleb128 0x28
 1709 0851 C4060000 		.4byte	0x6c4
 1710 0855 37000000 		.4byte	.LLST1
 1711 0859 00       		.byte	0
 1712 085a 29       		.uleb128 0x29
 1713 085b E3060000 		.4byte	0x6e3
 1714 085f 10000000 		.4byte	.LBB91
 1715 0863 00000000 		.4byte	.Ldebug_ranges0+0
 1716 0867 01       		.byte	0x1
 1717 0868 5F       		.byte	0x5f
 1718 0869 86080000 		.4byte	0x886
 1719 086d 28       		.uleb128 0x28
 1720 086e F4060000 		.4byte	0x6f4
 1721 0872 6E000000 		.4byte	.LLST2
 1722 0876 2A       		.uleb128 0x2a
 1723 0877 00000000 		.4byte	.Ldebug_ranges0+0
 1724 087b 2B       		.uleb128 0x2b
 1725 087c 00070000 		.4byte	0x700
 1726 0880 9A000000 		.4byte	.LLST3
 1727 0884 00       		.byte	0
 1728 0885 00       		.byte	0
 1729 0886 25       		.uleb128 0x25
 1730 0887 0C070000 		.4byte	0x70c
 1731 088b 1E000000 		.4byte	.LBB97
 1732 088f 10000000 		.4byte	.LBE97-.LBB97
 1733 0893 01       		.byte	0x1
 1734 0894 61       		.byte	0x61
 1735 0895 D1080000 		.4byte	0x8d1
 1736 0899 2C       		.uleb128 0x2c
 1737 089a 1E000000 		.4byte	.LBB98
 1738 089e 10000000 		.4byte	.LBE98-.LBB98
 1739 08a2 2D       		.uleb128 0x2d
 1740 08a3 19070000 		.4byte	0x719
 1741 08a7 26       		.uleb128 0x26
 1742 08a8 75060000 		.4byte	0x675
 1743 08ac 1E000000 		.4byte	.LBB99
 1744 08b0 10000000 		.4byte	.LBE99-.LBB99
 1745 08b4 0F       		.byte	0xf
 1746 08b5 7301     		.2byte	0x173
 1747 08b7 26       		.uleb128 0x26
 1748 08b8 52060000 		.4byte	0x652
 1749 08bc 1E000000 		.4byte	.LBB100
 1750 08c0 10000000 		.4byte	.LBE100-.LBB100
 1751 08c4 0B       		.byte	0xb
 1752 08c5 E301     		.2byte	0x1e3
 1753 08c7 27       		.uleb128 0x27
 1754 08c8 5F060000 		.4byte	0x65f
 1755 08cc 00       		.byte	0
ARM GAS  /tmp/cc7MI5SV.s 			page 32


 1756 08cd 00       		.byte	0
 1757 08ce 00       		.byte	0
 1758 08cf 00       		.byte	0
 1759 08d0 00       		.byte	0
 1760 08d1 2E       		.uleb128 0x2e
 1761 08d2 1E000000 		.4byte	.LVL5
 1762 08d6 A00E0000 		.4byte	0xea0
 1763 08da 2F       		.uleb128 0x2f
 1764 08db 01       		.uleb128 0x1
 1765 08dc 51       		.byte	0x51
 1766 08dd 01       		.uleb128 0x1
 1767 08de 30       		.byte	0x30
 1768 08df 00       		.byte	0
 1769 08e0 00       		.byte	0
 1770 08e1 15       		.uleb128 0x15
 1771 08e2 F6050000 		.4byte	0x5f6
 1772 08e6 F1080000 		.4byte	0x8f1
 1773 08ea 16       		.uleb128 0x16
 1774 08eb 4F040000 		.4byte	0x44f
 1775 08ef 0C       		.byte	0xc
 1776 08f0 00       		.byte	0
 1777 08f1 13       		.uleb128 0x13
 1778 08f2 E1080000 		.4byte	0x8e1
 1779 08f6 1F       		.uleb128 0x1f
 1780 08f7 87030000 		.4byte	.LASF122
 1781 08fb 01       		.byte	0x1
 1782 08fc 6F       		.byte	0x6f
 1783 08fd 00000000 		.4byte	.LFB172
 1784 0901 20000000 		.4byte	.LFE172-.LFB172
 1785 0905 01       		.uleb128 0x1
 1786 0906 9C       		.byte	0x9c
 1787 0907 85090000 		.4byte	0x985
 1788 090b 24       		.uleb128 0x24
 1789 090c 637000   		.ascii	"cp\000"
 1790 090f 01       		.byte	0x1
 1791 0910 6F       		.byte	0x6f
 1792 0911 BA070000 		.4byte	0x7ba
 1793 0915 AD000000 		.4byte	.LLST4
 1794 0919 21       		.uleb128 0x21
 1795 091a 22040000 		.4byte	.LASF116
 1796 091e 95090000 		.4byte	0x995
 1797 0922 25       		.uleb128 0x25
 1798 0923 B3060000 		.4byte	0x6b3
 1799 0927 00000000 		.4byte	.LBB102
 1800 092b 02000000 		.4byte	.LBE102-.LBB102
 1801 092f 01       		.byte	0x1
 1802 0930 74       		.byte	0x74
 1803 0931 3F090000 		.4byte	0x93f
 1804 0935 28       		.uleb128 0x28
 1805 0936 C4060000 		.4byte	0x6c4
 1806 093a E4000000 		.4byte	.LLST5
 1807 093e 00       		.byte	0
 1808 093f 2A       		.uleb128 0x2a
 1809 0940 20000000 		.4byte	.Ldebug_ranges0+0x20
 1810 0944 30       		.uleb128 0x30
 1811 0945 747000   		.ascii	"tp\000"
 1812 0948 01       		.byte	0x1
ARM GAS  /tmp/cc7MI5SV.s 			page 33


 1813 0949 75       		.byte	0x75
 1814 094a 3C020000 		.4byte	0x23c
 1815 094e 29       		.uleb128 0x29
 1816 094f E3060000 		.4byte	0x6e3
 1817 0953 08000000 		.4byte	.LBB105
 1818 0957 40000000 		.4byte	.Ldebug_ranges0+0x40
 1819 095b 01       		.byte	0x1
 1820 095c 75       		.byte	0x75
 1821 095d 7A090000 		.4byte	0x97a
 1822 0961 28       		.uleb128 0x28
 1823 0962 F4060000 		.4byte	0x6f4
 1824 0966 1B010000 		.4byte	.LLST6
 1825 096a 2A       		.uleb128 0x2a
 1826 096b 40000000 		.4byte	.Ldebug_ranges0+0x40
 1827 096f 2B       		.uleb128 0x2b
 1828 0970 00070000 		.4byte	0x700
 1829 0974 47010000 		.4byte	.LLST7
 1830 0978 00       		.byte	0
 1831 0979 00       		.byte	0
 1832 097a 31       		.uleb128 0x31
 1833 097b 1E000000 		.4byte	.LVL11
 1834 097f B70E0000 		.4byte	0xeb7
 1835 0983 00       		.byte	0
 1836 0984 00       		.byte	0
 1837 0985 15       		.uleb128 0x15
 1838 0986 F6050000 		.4byte	0x5f6
 1839 098a 95090000 		.4byte	0x995
 1840 098e 16       		.uleb128 0x16
 1841 098f 4F040000 		.4byte	0x44f
 1842 0993 0D       		.byte	0xd
 1843 0994 00       		.byte	0
 1844 0995 13       		.uleb128 0x13
 1845 0996 85090000 		.4byte	0x985
 1846 099a 1F       		.uleb128 0x1f
 1847 099b 5D000000 		.4byte	.LASF123
 1848 099f 01       		.byte	0x1
 1849 09a0 95       		.byte	0x95
 1850 09a1 00000000 		.4byte	.LFB174
 1851 09a5 22000000 		.4byte	.LFE174-.LFB174
 1852 09a9 01       		.uleb128 0x1
 1853 09aa 9C       		.byte	0x9c
 1854 09ab 1D0A0000 		.4byte	0xa1d
 1855 09af 24       		.uleb128 0x24
 1856 09b0 637000   		.ascii	"cp\000"
 1857 09b3 01       		.byte	0x1
 1858 09b4 95       		.byte	0x95
 1859 09b5 BA070000 		.4byte	0x7ba
 1860 09b9 5A010000 		.4byte	.LLST8
 1861 09bd 21       		.uleb128 0x21
 1862 09be 22040000 		.4byte	.LASF116
 1863 09c2 1D0A0000 		.4byte	0xa1d
 1864 09c6 29       		.uleb128 0x29
 1865 09c7 B3060000 		.4byte	0x6b3
 1866 09cb 04000000 		.4byte	.LBB111
 1867 09cf 58000000 		.4byte	.Ldebug_ranges0+0x58
 1868 09d3 01       		.byte	0x1
 1869 09d4 9D       		.byte	0x9d
ARM GAS  /tmp/cc7MI5SV.s 			page 34


 1870 09d5 E3090000 		.4byte	0x9e3
 1871 09d9 28       		.uleb128 0x28
 1872 09da C4060000 		.4byte	0x6c4
 1873 09de 78010000 		.4byte	.LLST9
 1874 09e2 00       		.byte	0
 1875 09e3 25       		.uleb128 0x25
 1876 09e4 E3060000 		.4byte	0x6e3
 1877 09e8 0E000000 		.4byte	.LBB114
 1878 09ec 06000000 		.4byte	.LBE114-.LBB114
 1879 09f0 01       		.byte	0x1
 1880 09f1 9E       		.byte	0x9e
 1881 09f2 130A0000 		.4byte	0xa13
 1882 09f6 28       		.uleb128 0x28
 1883 09f7 F4060000 		.4byte	0x6f4
 1884 09fb 96010000 		.4byte	.LLST10
 1885 09ff 2C       		.uleb128 0x2c
 1886 0a00 0E000000 		.4byte	.LBB115
 1887 0a04 06000000 		.4byte	.LBE115-.LBB115
 1888 0a08 2B       		.uleb128 0x2b
 1889 0a09 00070000 		.4byte	0x700
 1890 0a0d A9010000 		.4byte	.LLST11
 1891 0a11 00       		.byte	0
 1892 0a12 00       		.byte	0
 1893 0a13 32       		.uleb128 0x32
 1894 0a14 18000000 		.4byte	.LVL16
 1895 0a18 B70E0000 		.4byte	0xeb7
 1896 0a1c 00       		.byte	0
 1897 0a1d 13       		.uleb128 0x13
 1898 0a1e C0070000 		.4byte	0x7c0
 1899 0a22 1F       		.uleb128 0x1f
 1900 0a23 45030000 		.4byte	.LASF124
 1901 0a27 01       		.byte	0x1
 1902 0a28 82       		.byte	0x82
 1903 0a29 00000000 		.4byte	.LFB173
 1904 0a2d 18000000 		.4byte	.LFE173-.LFB173
 1905 0a31 01       		.uleb128 0x1
 1906 0a32 9C       		.byte	0x9c
 1907 0a33 EB0A0000 		.4byte	0xaeb
 1908 0a37 24       		.uleb128 0x24
 1909 0a38 637000   		.ascii	"cp\000"
 1910 0a3b 01       		.byte	0x1
 1911 0a3c 82       		.byte	0x82
 1912 0a3d BA070000 		.4byte	0x7ba
 1913 0a41 BC010000 		.4byte	.LLST12
 1914 0a45 25       		.uleb128 0x25
 1915 0a46 AA060000 		.4byte	0x6aa
 1916 0a4a 02000000 		.4byte	.LBB117
 1917 0a4e 06000000 		.4byte	.LBE117-.LBB117
 1918 0a52 01       		.byte	0x1
 1919 0a53 84       		.byte	0x84
 1920 0a54 810A0000 		.4byte	0xa81
 1921 0a58 26       		.uleb128 0x26
 1922 0a59 6C060000 		.4byte	0x66c
 1923 0a5d 02000000 		.4byte	.LBB118
 1924 0a61 06000000 		.4byte	.LBE118-.LBB118
 1925 0a65 0F       		.byte	0xf
 1926 0a66 5C01     		.2byte	0x15c
ARM GAS  /tmp/cc7MI5SV.s 			page 35


 1927 0a68 26       		.uleb128 0x26
 1928 0a69 52060000 		.4byte	0x652
 1929 0a6d 02000000 		.4byte	.LBB119
 1930 0a71 06000000 		.4byte	.LBE119-.LBB119
 1931 0a75 0B       		.byte	0xb
 1932 0a76 D001     		.2byte	0x1d0
 1933 0a78 27       		.uleb128 0x27
 1934 0a79 5F060000 		.4byte	0x65f
 1935 0a7d 20       		.byte	0x20
 1936 0a7e 00       		.byte	0
 1937 0a7f 00       		.byte	0
 1938 0a80 00       		.byte	0
 1939 0a81 25       		.uleb128 0x25
 1940 0a82 0C070000 		.4byte	0x70c
 1941 0a86 10000000 		.4byte	.LBB121
 1942 0a8a 08000000 		.4byte	.LBE121-.LBB121
 1943 0a8e 01       		.byte	0x1
 1944 0a8f 87       		.byte	0x87
 1945 0a90 CC0A0000 		.4byte	0xacc
 1946 0a94 2C       		.uleb128 0x2c
 1947 0a95 10000000 		.4byte	.LBB122
 1948 0a99 08000000 		.4byte	.LBE122-.LBB122
 1949 0a9d 2D       		.uleb128 0x2d
 1950 0a9e 19070000 		.4byte	0x719
 1951 0aa2 26       		.uleb128 0x26
 1952 0aa3 75060000 		.4byte	0x675
 1953 0aa7 10000000 		.4byte	.LBB123
 1954 0aab 08000000 		.4byte	.LBE123-.LBB123
 1955 0aaf 0F       		.byte	0xf
 1956 0ab0 7301     		.2byte	0x173
 1957 0ab2 26       		.uleb128 0x26
 1958 0ab3 52060000 		.4byte	0x652
 1959 0ab7 10000000 		.4byte	.LBB124
 1960 0abb 08000000 		.4byte	.LBE124-.LBB124
 1961 0abf 0B       		.byte	0xb
 1962 0ac0 E301     		.2byte	0x1e3
 1963 0ac2 27       		.uleb128 0x27
 1964 0ac3 5F060000 		.4byte	0x65f
 1965 0ac7 00       		.byte	0
 1966 0ac8 00       		.byte	0
 1967 0ac9 00       		.byte	0
 1968 0aca 00       		.byte	0
 1969 0acb 00       		.byte	0
 1970 0acc 33       		.uleb128 0x33
 1971 0acd 0C000000 		.4byte	.LVL19
 1972 0ad1 9A090000 		.4byte	0x99a
 1973 0ad5 E10A0000 		.4byte	0xae1
 1974 0ad9 2F       		.uleb128 0x2f
 1975 0ada 01       		.uleb128 0x1
 1976 0adb 50       		.byte	0x50
 1977 0adc 03       		.uleb128 0x3
 1978 0add F3       		.byte	0xf3
 1979 0ade 01       		.uleb128 0x1
 1980 0adf 50       		.byte	0x50
 1981 0ae0 00       		.byte	0
 1982 0ae1 32       		.uleb128 0x32
 1983 0ae2 10000000 		.4byte	.LVL20
ARM GAS  /tmp/cc7MI5SV.s 			page 36


 1984 0ae6 CD0E0000 		.4byte	0xecd
 1985 0aea 00       		.byte	0
 1986 0aeb 34       		.uleb128 0x34
 1987 0aec 8E050000 		.4byte	.LASF125
 1988 0af0 01       		.byte	0x1
 1989 0af1 CD       		.byte	0xcd
 1990 0af2 01010000 		.4byte	0x101
 1991 0af6 00000000 		.4byte	.LFB176
 1992 0afa 44000000 		.4byte	.LFE176-.LFB176
 1993 0afe 01       		.uleb128 0x1
 1994 0aff 9C       		.byte	0x9c
 1995 0b00 BF0B0000 		.4byte	0xbbf
 1996 0b04 24       		.uleb128 0x24
 1997 0b05 637000   		.ascii	"cp\000"
 1998 0b08 01       		.byte	0x1
 1999 0b09 CD       		.byte	0xcd
 2000 0b0a BA070000 		.4byte	0x7ba
 2001 0b0e DD010000 		.4byte	.LLST13
 2002 0b12 35       		.uleb128 0x35
 2003 0b13 63747000 		.ascii	"ctp\000"
 2004 0b17 01       		.byte	0x1
 2005 0b18 CE       		.byte	0xce
 2006 0b19 3C020000 		.4byte	0x23c
 2007 0b1d 09020000 		.4byte	.LLST14
 2008 0b21 30       		.uleb128 0x30
 2009 0b22 6D7000   		.ascii	"mp\000"
 2010 0b25 01       		.byte	0x1
 2011 0b26 CF       		.byte	0xcf
 2012 0b27 28060000 		.4byte	0x628
 2013 0b2b 35       		.uleb128 0x35
 2014 0b2c 6D736700 		.ascii	"msg\000"
 2015 0b30 01       		.byte	0x1
 2016 0b31 D0       		.byte	0xd0
 2017 0b32 01010000 		.4byte	0x101
 2018 0b36 1C020000 		.4byte	.LLST15
 2019 0b3a 21       		.uleb128 0x21
 2020 0b3b 22040000 		.4byte	.LASF116
 2021 0b3f BF0B0000 		.4byte	0xbbf
 2022 0b43 36       		.uleb128 0x36
 2023 0b44 3C070000 		.4byte	0x73c
 2024 0b48 08000000 		.4byte	.LBB126
 2025 0b4c 02000000 		.4byte	.LBE126-.LBB126
 2026 0b50 01       		.byte	0x1
 2027 0b51 D7       		.byte	0xd7
 2028 0b52 29       		.uleb128 0x29
 2029 0b53 48070000 		.4byte	0x748
 2030 0b57 10000000 		.4byte	.LBB128
 2031 0b5b 70000000 		.4byte	.Ldebug_ranges0+0x70
 2032 0b5f 01       		.byte	0x1
 2033 0b60 DD       		.byte	0xdd
 2034 0b61 870B0000 		.4byte	0xb87
 2035 0b65 28       		.uleb128 0x28
 2036 0b66 60070000 		.4byte	0x760
 2037 0b6a 3A020000 		.4byte	.LLST16
 2038 0b6e 28       		.uleb128 0x28
 2039 0b6f 55070000 		.4byte	0x755
 2040 0b73 5B020000 		.4byte	.LLST17
ARM GAS  /tmp/cc7MI5SV.s 			page 37


 2041 0b77 2A       		.uleb128 0x2a
 2042 0b78 70000000 		.4byte	.Ldebug_ranges0+0x70
 2043 0b7c 2B       		.uleb128 0x2b
 2044 0b7d 6C070000 		.4byte	0x76c
 2045 0b81 6E020000 		.4byte	.LLST18
 2046 0b85 00       		.byte	0
 2047 0b86 00       		.byte	0
 2048 0b87 33       		.uleb128 0x33
 2049 0b88 10000000 		.4byte	.LVL24
 2050 0b8c D50E0000 		.4byte	0xed5
 2051 0b90 9B0B0000 		.4byte	0xb9b
 2052 0b94 2F       		.uleb128 0x2f
 2053 0b95 01       		.uleb128 0x1
 2054 0b96 50       		.byte	0x50
 2055 0b97 02       		.uleb128 0x2
 2056 0b98 76       		.byte	0x76
 2057 0b99 00       		.sleb128 0
 2058 0b9a 00       		.byte	0
 2059 0b9b 33       		.uleb128 0x33
 2060 0b9c 34000000 		.4byte	.LVL28
 2061 0ba0 E60E0000 		.4byte	0xee6
 2062 0ba4 AE0B0000 		.4byte	0xbae
 2063 0ba8 2F       		.uleb128 0x2f
 2064 0ba9 01       		.uleb128 0x1
 2065 0baa 50       		.byte	0x50
 2066 0bab 01       		.uleb128 0x1
 2067 0bac 37       		.byte	0x37
 2068 0bad 00       		.byte	0
 2069 0bae 2E       		.uleb128 0x2e
 2070 0baf 3C000000 		.4byte	.LVL30
 2071 0bb3 F80E0000 		.4byte	0xef8
 2072 0bb7 2F       		.uleb128 0x2f
 2073 0bb8 01       		.uleb128 0x1
 2074 0bb9 50       		.byte	0x50
 2075 0bba 02       		.uleb128 0x2
 2076 0bbb 76       		.byte	0x76
 2077 0bbc 00       		.sleb128 0
 2078 0bbd 00       		.byte	0
 2079 0bbe 00       		.byte	0
 2080 0bbf 13       		.uleb128 0x13
 2081 0bc0 27070000 		.4byte	0x727
 2082 0bc4 34       		.uleb128 0x34
 2083 0bc5 15060000 		.4byte	.LASF126
 2084 0bc9 01       		.byte	0x1
 2085 0bca B3       		.byte	0xb3
 2086 0bcb 01010000 		.4byte	0x101
 2087 0bcf 00000000 		.4byte	.LFB175
 2088 0bd3 14000000 		.4byte	.LFE175-.LFB175
 2089 0bd7 01       		.uleb128 0x1
 2090 0bd8 9C       		.byte	0x9c
 2091 0bd9 910C0000 		.4byte	0xc91
 2092 0bdd 24       		.uleb128 0x24
 2093 0bde 637000   		.ascii	"cp\000"
 2094 0be1 01       		.byte	0x1
 2095 0be2 B3       		.byte	0xb3
 2096 0be3 BA070000 		.4byte	0x7ba
 2097 0be7 8C020000 		.4byte	.LLST19
ARM GAS  /tmp/cc7MI5SV.s 			page 38


 2098 0beb 37       		.uleb128 0x37
 2099 0bec 6D736700 		.ascii	"msg\000"
 2100 0bf0 01       		.byte	0x1
 2101 0bf1 B4       		.byte	0xb4
 2102 0bf2 01010000 		.4byte	0x101
 2103 0bf6 01       		.uleb128 0x1
 2104 0bf7 50       		.byte	0x50
 2105 0bf8 25       		.uleb128 0x25
 2106 0bf9 AA060000 		.4byte	0x6aa
 2107 0bfd 02000000 		.4byte	.LBB134
 2108 0c01 06000000 		.4byte	.LBE134-.LBB134
 2109 0c05 01       		.byte	0x1
 2110 0c06 B6       		.byte	0xb6
 2111 0c07 340C0000 		.4byte	0xc34
 2112 0c0b 26       		.uleb128 0x26
 2113 0c0c 6C060000 		.4byte	0x66c
 2114 0c10 02000000 		.4byte	.LBB135
 2115 0c14 06000000 		.4byte	.LBE135-.LBB135
 2116 0c18 0F       		.byte	0xf
 2117 0c19 5C01     		.2byte	0x15c
 2118 0c1b 26       		.uleb128 0x26
 2119 0c1c 52060000 		.4byte	0x652
 2120 0c20 02000000 		.4byte	.LBB136
 2121 0c24 06000000 		.4byte	.LBE136-.LBB136
 2122 0c28 0B       		.byte	0xb
 2123 0c29 D001     		.2byte	0x1d0
 2124 0c2b 27       		.uleb128 0x27
 2125 0c2c 5F060000 		.4byte	0x65f
 2126 0c30 20       		.byte	0x20
 2127 0c31 00       		.byte	0
 2128 0c32 00       		.byte	0
 2129 0c33 00       		.byte	0
 2130 0c34 25       		.uleb128 0x25
 2131 0c35 0C070000 		.4byte	0x70c
 2132 0c39 0C000000 		.4byte	.LBB138
 2133 0c3d 06000000 		.4byte	.LBE138-.LBB138
 2134 0c41 01       		.byte	0x1
 2135 0c42 B8       		.byte	0xb8
 2136 0c43 7F0C0000 		.4byte	0xc7f
 2137 0c47 2C       		.uleb128 0x2c
 2138 0c48 0C000000 		.4byte	.LBB139
 2139 0c4c 06000000 		.4byte	.LBE139-.LBB139
 2140 0c50 2D       		.uleb128 0x2d
 2141 0c51 19070000 		.4byte	0x719
 2142 0c55 26       		.uleb128 0x26
 2143 0c56 75060000 		.4byte	0x675
 2144 0c5a 0C000000 		.4byte	.LBB140
 2145 0c5e 06000000 		.4byte	.LBE140-.LBB140
 2146 0c62 0F       		.byte	0xf
 2147 0c63 7301     		.2byte	0x173
 2148 0c65 26       		.uleb128 0x26
 2149 0c66 52060000 		.4byte	0x652
 2150 0c6a 0C000000 		.4byte	.LBB141
 2151 0c6e 06000000 		.4byte	.LBE141-.LBB141
 2152 0c72 0B       		.byte	0xb
 2153 0c73 E301     		.2byte	0x1e3
 2154 0c75 27       		.uleb128 0x27
ARM GAS  /tmp/cc7MI5SV.s 			page 39


 2155 0c76 5F060000 		.4byte	0x65f
 2156 0c7a 00       		.byte	0
 2157 0c7b 00       		.byte	0
 2158 0c7c 00       		.byte	0
 2159 0c7d 00       		.byte	0
 2160 0c7e 00       		.byte	0
 2161 0c7f 2E       		.uleb128 0x2e
 2162 0c80 0C000000 		.4byte	.LVL33
 2163 0c84 EB0A0000 		.4byte	0xaeb
 2164 0c88 2F       		.uleb128 0x2f
 2165 0c89 01       		.uleb128 0x1
 2166 0c8a 50       		.byte	0x50
 2167 0c8b 03       		.uleb128 0x3
 2168 0c8c F3       		.byte	0xf3
 2169 0c8d 01       		.uleb128 0x1
 2170 0c8e 50       		.byte	0x50
 2171 0c8f 00       		.byte	0
 2172 0c90 00       		.byte	0
 2173 0c91 38       		.uleb128 0x38
 2174 0c92 F5020000 		.4byte	.LASF127
 2175 0c96 01       		.byte	0x1
 2176 0c97 2801     		.2byte	0x128
 2177 0c99 01010000 		.4byte	0x101
 2178 0c9d 00000000 		.4byte	.LFB178
 2179 0ca1 50000000 		.4byte	.LFE178-.LFB178
 2180 0ca5 01       		.uleb128 0x1
 2181 0ca6 9C       		.byte	0x9c
 2182 0ca7 860D0000 		.4byte	0xd86
 2183 0cab 39       		.uleb128 0x39
 2184 0cac 637000   		.ascii	"cp\000"
 2185 0caf 01       		.byte	0x1
 2186 0cb0 2801     		.2byte	0x128
 2187 0cb2 BA070000 		.4byte	0x7ba
 2188 0cb6 AD020000 		.4byte	.LLST20
 2189 0cba 3A       		.uleb128 0x3a
 2190 0cbb 2E030000 		.4byte	.LASF128
 2191 0cbf 01       		.byte	0x1
 2192 0cc0 2801     		.2byte	0x128
 2193 0cc2 22010000 		.4byte	0x122
 2194 0cc6 D9020000 		.4byte	.LLST21
 2195 0cca 1D       		.uleb128 0x1d
 2196 0ccb 6D7000   		.ascii	"mp\000"
 2197 0cce 01       		.byte	0x1
 2198 0ccf 2901     		.2byte	0x129
 2199 0cd1 28060000 		.4byte	0x628
 2200 0cd5 3B       		.uleb128 0x3b
 2201 0cd6 6D736700 		.ascii	"msg\000"
 2202 0cda 01       		.byte	0x1
 2203 0cdb 2A01     		.2byte	0x12a
 2204 0cdd 01010000 		.4byte	0x101
 2205 0ce1 05030000 		.4byte	.LLST22
 2206 0ce5 21       		.uleb128 0x21
 2207 0ce6 22040000 		.4byte	.LASF116
 2208 0cea 960D0000 		.4byte	0xd96
 2209 0cee 3C       		.uleb128 0x3c
 2210 0cef 3C070000 		.4byte	0x73c
 2211 0cf3 04000000 		.4byte	.LBB143
ARM GAS  /tmp/cc7MI5SV.s 			page 40


 2212 0cf7 90000000 		.4byte	.Ldebug_ranges0+0x90
 2213 0cfb 01       		.byte	0x1
 2214 0cfc 3101     		.2byte	0x131
 2215 0cfe 120D0000 		.4byte	0xd12
 2216 0d02 36       		.uleb128 0x36
 2217 0d03 7E060000 		.4byte	0x67e
 2218 0d07 04000000 		.4byte	.LBB145
 2219 0d0b 02000000 		.4byte	.LBE145-.LBB145
 2220 0d0f 04       		.byte	0x4
 2221 0d10 92       		.byte	0x92
 2222 0d11 00       		.byte	0
 2223 0d12 3C       		.uleb128 0x3c
 2224 0d13 48070000 		.4byte	0x748
 2225 0d17 14000000 		.4byte	.LBB149
 2226 0d1b A8000000 		.4byte	.Ldebug_ranges0+0xa8
 2227 0d1f 01       		.byte	0x1
 2228 0d20 3701     		.2byte	0x137
 2229 0d22 480D0000 		.4byte	0xd48
 2230 0d26 28       		.uleb128 0x28
 2231 0d27 60070000 		.4byte	0x760
 2232 0d2b 2E030000 		.4byte	.LLST23
 2233 0d2f 28       		.uleb128 0x28
 2234 0d30 55070000 		.4byte	0x755
 2235 0d34 4F030000 		.4byte	.LLST24
 2236 0d38 2A       		.uleb128 0x2a
 2237 0d39 A8000000 		.4byte	.Ldebug_ranges0+0xa8
 2238 0d3d 2B       		.uleb128 0x2b
 2239 0d3e 6C070000 		.4byte	0x76c
 2240 0d42 62030000 		.4byte	.LLST25
 2241 0d46 00       		.byte	0
 2242 0d47 00       		.byte	0
 2243 0d48 33       		.uleb128 0x33
 2244 0d49 12000000 		.4byte	.LVL36
 2245 0d4d D50E0000 		.4byte	0xed5
 2246 0d51 5C0D0000 		.4byte	0xd5c
 2247 0d55 2F       		.uleb128 0x2f
 2248 0d56 01       		.uleb128 0x1
 2249 0d57 50       		.byte	0x50
 2250 0d58 02       		.uleb128 0x2
 2251 0d59 76       		.byte	0x76
 2252 0d5a 00       		.sleb128 0
 2253 0d5b 00       		.byte	0
 2254 0d5c 33       		.uleb128 0x33
 2255 0d5d 3A000000 		.4byte	.LVL40
 2256 0d61 090F0000 		.4byte	0xf09
 2257 0d65 750D0000 		.4byte	0xd75
 2258 0d69 2F       		.uleb128 0x2f
 2259 0d6a 01       		.uleb128 0x1
 2260 0d6b 51       		.byte	0x51
 2261 0d6c 02       		.uleb128 0x2
 2262 0d6d 77       		.byte	0x77
 2263 0d6e 00       		.sleb128 0
 2264 0d6f 2F       		.uleb128 0x2f
 2265 0d70 01       		.uleb128 0x1
 2266 0d71 50       		.byte	0x50
 2267 0d72 01       		.uleb128 0x1
 2268 0d73 37       		.byte	0x37
ARM GAS  /tmp/cc7MI5SV.s 			page 41


 2269 0d74 00       		.byte	0
 2270 0d75 2E       		.uleb128 0x2e
 2271 0d76 46000000 		.4byte	.LVL43
 2272 0d7a F80E0000 		.4byte	0xef8
 2273 0d7e 2F       		.uleb128 0x2f
 2274 0d7f 01       		.uleb128 0x1
 2275 0d80 50       		.byte	0x50
 2276 0d81 02       		.uleb128 0x2
 2277 0d82 76       		.byte	0x76
 2278 0d83 00       		.sleb128 0
 2279 0d84 00       		.byte	0
 2280 0d85 00       		.byte	0
 2281 0d86 15       		.uleb128 0x15
 2282 0d87 F6050000 		.4byte	0x5f6
 2283 0d8b 960D0000 		.4byte	0xd96
 2284 0d8f 16       		.uleb128 0x16
 2285 0d90 4F040000 		.4byte	0x44f
 2286 0d94 12       		.byte	0x12
 2287 0d95 00       		.byte	0
 2288 0d96 13       		.uleb128 0x13
 2289 0d97 860D0000 		.4byte	0xd86
 2290 0d9b 38       		.uleb128 0x38
 2291 0d9c 7A060000 		.4byte	.LASF129
 2292 0da0 01       		.byte	0x1
 2293 0da1 0201     		.2byte	0x102
 2294 0da3 01010000 		.4byte	0x101
 2295 0da7 00000000 		.4byte	.LFB177
 2296 0dab 14000000 		.4byte	.LFE177-.LFB177
 2297 0daf 01       		.uleb128 0x1
 2298 0db0 9C       		.byte	0x9c
 2299 0db1 840E0000 		.4byte	0xe84
 2300 0db5 39       		.uleb128 0x39
 2301 0db6 637000   		.ascii	"cp\000"
 2302 0db9 01       		.byte	0x1
 2303 0dba 0201     		.2byte	0x102
 2304 0dbc BA070000 		.4byte	0x7ba
 2305 0dc0 80030000 		.4byte	.LLST26
 2306 0dc4 3A       		.uleb128 0x3a
 2307 0dc5 2E030000 		.4byte	.LASF128
 2308 0dc9 01       		.byte	0x1
 2309 0dca 0201     		.2byte	0x102
 2310 0dcc 22010000 		.4byte	0x122
 2311 0dd0 A1030000 		.4byte	.LLST27
 2312 0dd4 3D       		.uleb128 0x3d
 2313 0dd5 6D736700 		.ascii	"msg\000"
 2314 0dd9 01       		.byte	0x1
 2315 0dda 0301     		.2byte	0x103
 2316 0ddc 01010000 		.4byte	0x101
 2317 0de0 01       		.uleb128 0x1
 2318 0de1 50       		.byte	0x50
 2319 0de2 3E       		.uleb128 0x3e
 2320 0de3 AA060000 		.4byte	0x6aa
 2321 0de7 02000000 		.4byte	.LBB157
 2322 0deb 06000000 		.4byte	.LBE157-.LBB157
 2323 0def 01       		.byte	0x1
 2324 0df0 0501     		.2byte	0x105
 2325 0df2 1F0E0000 		.4byte	0xe1f
ARM GAS  /tmp/cc7MI5SV.s 			page 42


 2326 0df6 26       		.uleb128 0x26
 2327 0df7 6C060000 		.4byte	0x66c
 2328 0dfb 02000000 		.4byte	.LBB158
 2329 0dff 06000000 		.4byte	.LBE158-.LBB158
 2330 0e03 0F       		.byte	0xf
 2331 0e04 5C01     		.2byte	0x15c
 2332 0e06 26       		.uleb128 0x26
 2333 0e07 52060000 		.4byte	0x652
 2334 0e0b 02000000 		.4byte	.LBB159
 2335 0e0f 06000000 		.4byte	.LBE159-.LBB159
 2336 0e13 0B       		.byte	0xb
 2337 0e14 D001     		.2byte	0x1d0
 2338 0e16 27       		.uleb128 0x27
 2339 0e17 5F060000 		.4byte	0x65f
 2340 0e1b 20       		.byte	0x20
 2341 0e1c 00       		.byte	0
 2342 0e1d 00       		.byte	0
 2343 0e1e 00       		.byte	0
 2344 0e1f 3E       		.uleb128 0x3e
 2345 0e20 0C070000 		.4byte	0x70c
 2346 0e24 0C000000 		.4byte	.LBB161
 2347 0e28 06000000 		.4byte	.LBE161-.LBB161
 2348 0e2c 01       		.byte	0x1
 2349 0e2d 0701     		.2byte	0x107
 2350 0e2f 6B0E0000 		.4byte	0xe6b
 2351 0e33 2C       		.uleb128 0x2c
 2352 0e34 0C000000 		.4byte	.LBB162
 2353 0e38 06000000 		.4byte	.LBE162-.LBB162
 2354 0e3c 2D       		.uleb128 0x2d
 2355 0e3d 19070000 		.4byte	0x719
 2356 0e41 26       		.uleb128 0x26
 2357 0e42 75060000 		.4byte	0x675
 2358 0e46 0C000000 		.4byte	.LBB163
 2359 0e4a 06000000 		.4byte	.LBE163-.LBB163
 2360 0e4e 0F       		.byte	0xf
 2361 0e4f 7301     		.2byte	0x173
 2362 0e51 26       		.uleb128 0x26
 2363 0e52 52060000 		.4byte	0x652
 2364 0e56 0C000000 		.4byte	.LBB164
 2365 0e5a 06000000 		.4byte	.LBE164-.LBB164
 2366 0e5e 0B       		.byte	0xb
 2367 0e5f E301     		.2byte	0x1e3
 2368 0e61 27       		.uleb128 0x27
 2369 0e62 5F060000 		.4byte	0x65f
 2370 0e66 00       		.byte	0
 2371 0e67 00       		.byte	0
 2372 0e68 00       		.byte	0
 2373 0e69 00       		.byte	0
 2374 0e6a 00       		.byte	0
 2375 0e6b 2E       		.uleb128 0x2e
 2376 0e6c 0C000000 		.4byte	.LVL46
 2377 0e70 910C0000 		.4byte	0xc91
 2378 0e74 2F       		.uleb128 0x2f
 2379 0e75 01       		.uleb128 0x1
 2380 0e76 51       		.byte	0x51
 2381 0e77 03       		.uleb128 0x3
 2382 0e78 F3       		.byte	0xf3
ARM GAS  /tmp/cc7MI5SV.s 			page 43


 2383 0e79 01       		.uleb128 0x1
 2384 0e7a 51       		.byte	0x51
 2385 0e7b 2F       		.uleb128 0x2f
 2386 0e7c 01       		.uleb128 0x1
 2387 0e7d 50       		.byte	0x50
 2388 0e7e 03       		.uleb128 0x3
 2389 0e7f F3       		.byte	0xf3
 2390 0e80 01       		.uleb128 0x1
 2391 0e81 50       		.byte	0x50
 2392 0e82 00       		.byte	0
 2393 0e83 00       		.byte	0
 2394 0e84 3F       		.uleb128 0x3f
 2395 0e85 AF000000 		.4byte	.LASF130
 2396 0e89 10       		.byte	0x10
 2397 0e8a 5506     		.2byte	0x655
 2398 0e8c 900E0000 		.4byte	0xe90
 2399 0e90 14       		.uleb128 0x14
 2400 0e91 9E000000 		.4byte	0x9e
 2401 0e95 40       		.uleb128 0x40
 2402 0e96 636800   		.ascii	"ch\000"
 2403 0e99 02       		.byte	0x2
 2404 0e9a 0902     		.2byte	0x209
 2405 0e9c E8030000 		.4byte	0x3e8
 2406 0ea0 41       		.uleb128 0x41
 2407 0ea1 40020000 		.4byte	.LASF131
 2408 0ea5 02       		.byte	0x2
 2409 0ea6 1602     		.2byte	0x216
 2410 0ea8 B70E0000 		.4byte	0xeb7
 2411 0eac 0C       		.uleb128 0xc
 2412 0ead 3C020000 		.4byte	0x23c
 2413 0eb1 0C       		.uleb128 0xc
 2414 0eb2 01010000 		.4byte	0x101
 2415 0eb6 00       		.byte	0
 2416 0eb7 42       		.uleb128 0x42
 2417 0eb8 9F040000 		.4byte	.LASF138
 2418 0ebc 02       		.byte	0x2
 2419 0ebd 1302     		.2byte	0x213
 2420 0ebf 3C020000 		.4byte	0x23c
 2421 0ec3 CD0E0000 		.4byte	0xecd
 2422 0ec7 0C       		.uleb128 0xc
 2423 0ec8 3C020000 		.4byte	0x23c
 2424 0ecc 00       		.byte	0
 2425 0ecd 43       		.uleb128 0x43
 2426 0ece 76010000 		.4byte	.LASF139
 2427 0ed2 02       		.byte	0x2
 2428 0ed3 1702     		.2byte	0x217
 2429 0ed5 44       		.uleb128 0x44
 2430 0ed6 E0010000 		.4byte	.LASF132
 2431 0eda 04       		.byte	0x4
 2432 0edb 6D       		.byte	0x6d
 2433 0edc E60E0000 		.4byte	0xee6
 2434 0ee0 0C       		.uleb128 0xc
 2435 0ee1 28060000 		.4byte	0x628
 2436 0ee5 00       		.byte	0
 2437 0ee6 41       		.uleb128 0x41
 2438 0ee7 5B040000 		.4byte	.LASF133
 2439 0eeb 02       		.byte	0x2
ARM GAS  /tmp/cc7MI5SV.s 			page 44


 2440 0eec 1402     		.2byte	0x214
 2441 0eee F80E0000 		.4byte	0xef8
 2442 0ef2 0C       		.uleb128 0xc
 2443 0ef3 D5000000 		.4byte	0xd5
 2444 0ef7 00       		.byte	0
 2445 0ef8 44       		.uleb128 0x44
 2446 0ef9 5B010000 		.4byte	.LASF134
 2447 0efd 04       		.byte	0x4
 2448 0efe 69       		.byte	0x69
 2449 0eff 090F0000 		.4byte	0xf09
 2450 0f03 0C       		.uleb128 0xc
 2451 0f04 28060000 		.4byte	0x628
 2452 0f08 00       		.byte	0
 2453 0f09 45       		.uleb128 0x45
 2454 0f0a 97060000 		.4byte	.LASF135
 2455 0f0e 02       		.byte	0x2
 2456 0f0f 1502     		.2byte	0x215
 2457 0f11 01010000 		.4byte	0x101
 2458 0f15 0C       		.uleb128 0xc
 2459 0f16 D5000000 		.4byte	0xd5
 2460 0f1a 0C       		.uleb128 0xc
 2461 0f1b 22010000 		.4byte	0x122
 2462 0f1f 00       		.byte	0
 2463 0f20 00       		.byte	0
 2464              		.section	.debug_abbrev,"",%progbits
 2465              	.Ldebug_abbrev0:
 2466 0000 01       		.uleb128 0x1
 2467 0001 11       		.uleb128 0x11
 2468 0002 01       		.byte	0x1
 2469 0003 25       		.uleb128 0x25
 2470 0004 0E       		.uleb128 0xe
 2471 0005 13       		.uleb128 0x13
 2472 0006 0B       		.uleb128 0xb
 2473 0007 03       		.uleb128 0x3
 2474 0008 0E       		.uleb128 0xe
 2475 0009 55       		.uleb128 0x55
 2476 000a 17       		.uleb128 0x17
 2477 000b 11       		.uleb128 0x11
 2478 000c 01       		.uleb128 0x1
 2479 000d 10       		.uleb128 0x10
 2480 000e 17       		.uleb128 0x17
 2481 000f 00       		.byte	0
 2482 0010 00       		.byte	0
 2483 0011 02       		.uleb128 0x2
 2484 0012 24       		.uleb128 0x24
 2485 0013 00       		.byte	0
 2486 0014 0B       		.uleb128 0xb
 2487 0015 0B       		.uleb128 0xb
 2488 0016 3E       		.uleb128 0x3e
 2489 0017 0B       		.uleb128 0xb
 2490 0018 03       		.uleb128 0x3
 2491 0019 08       		.uleb128 0x8
 2492 001a 00       		.byte	0
 2493 001b 00       		.byte	0
 2494 001c 03       		.uleb128 0x3
 2495 001d 24       		.uleb128 0x24
 2496 001e 00       		.byte	0
ARM GAS  /tmp/cc7MI5SV.s 			page 45


 2497 001f 0B       		.uleb128 0xb
 2498 0020 0B       		.uleb128 0xb
 2499 0021 3E       		.uleb128 0x3e
 2500 0022 0B       		.uleb128 0xb
 2501 0023 03       		.uleb128 0x3
 2502 0024 0E       		.uleb128 0xe
 2503 0025 00       		.byte	0
 2504 0026 00       		.byte	0
 2505 0027 04       		.uleb128 0x4
 2506 0028 16       		.uleb128 0x16
 2507 0029 00       		.byte	0
 2508 002a 03       		.uleb128 0x3
 2509 002b 0E       		.uleb128 0xe
 2510 002c 3A       		.uleb128 0x3a
 2511 002d 0B       		.uleb128 0xb
 2512 002e 3B       		.uleb128 0x3b
 2513 002f 0B       		.uleb128 0xb
 2514 0030 49       		.uleb128 0x49
 2515 0031 13       		.uleb128 0x13
 2516 0032 00       		.byte	0
 2517 0033 00       		.byte	0
 2518 0034 05       		.uleb128 0x5
 2519 0035 13       		.uleb128 0x13
 2520 0036 01       		.byte	0x1
 2521 0037 03       		.uleb128 0x3
 2522 0038 0E       		.uleb128 0xe
 2523 0039 0B       		.uleb128 0xb
 2524 003a 0B       		.uleb128 0xb
 2525 003b 3A       		.uleb128 0x3a
 2526 003c 0B       		.uleb128 0xb
 2527 003d 3B       		.uleb128 0x3b
 2528 003e 0B       		.uleb128 0xb
 2529 003f 01       		.uleb128 0x1
 2530 0040 13       		.uleb128 0x13
 2531 0041 00       		.byte	0
 2532 0042 00       		.byte	0
 2533 0043 06       		.uleb128 0x6
 2534 0044 0D       		.uleb128 0xd
 2535 0045 00       		.byte	0
 2536 0046 03       		.uleb128 0x3
 2537 0047 0E       		.uleb128 0xe
 2538 0048 3A       		.uleb128 0x3a
 2539 0049 0B       		.uleb128 0xb
 2540 004a 3B       		.uleb128 0x3b
 2541 004b 0B       		.uleb128 0xb
 2542 004c 49       		.uleb128 0x49
 2543 004d 13       		.uleb128 0x13
 2544 004e 38       		.uleb128 0x38
 2545 004f 0B       		.uleb128 0xb
 2546 0050 00       		.byte	0
 2547 0051 00       		.byte	0
 2548 0052 07       		.uleb128 0x7
 2549 0053 0D       		.uleb128 0xd
 2550 0054 00       		.byte	0
 2551 0055 03       		.uleb128 0x3
 2552 0056 08       		.uleb128 0x8
 2553 0057 3A       		.uleb128 0x3a
ARM GAS  /tmp/cc7MI5SV.s 			page 46


 2554 0058 0B       		.uleb128 0xb
 2555 0059 3B       		.uleb128 0x3b
 2556 005a 05       		.uleb128 0x5
 2557 005b 49       		.uleb128 0x49
 2558 005c 13       		.uleb128 0x13
 2559 005d 38       		.uleb128 0x38
 2560 005e 0B       		.uleb128 0xb
 2561 005f 00       		.byte	0
 2562 0060 00       		.byte	0
 2563 0061 08       		.uleb128 0x8
 2564 0062 0D       		.uleb128 0xd
 2565 0063 00       		.byte	0
 2566 0064 03       		.uleb128 0x3
 2567 0065 0E       		.uleb128 0xe
 2568 0066 3A       		.uleb128 0x3a
 2569 0067 0B       		.uleb128 0xb
 2570 0068 3B       		.uleb128 0x3b
 2571 0069 05       		.uleb128 0x5
 2572 006a 49       		.uleb128 0x49
 2573 006b 13       		.uleb128 0x13
 2574 006c 38       		.uleb128 0x38
 2575 006d 0B       		.uleb128 0xb
 2576 006e 00       		.byte	0
 2577 006f 00       		.byte	0
 2578 0070 09       		.uleb128 0x9
 2579 0071 0F       		.uleb128 0xf
 2580 0072 00       		.byte	0
 2581 0073 0B       		.uleb128 0xb
 2582 0074 0B       		.uleb128 0xb
 2583 0075 49       		.uleb128 0x49
 2584 0076 13       		.uleb128 0x13
 2585 0077 00       		.byte	0
 2586 0078 00       		.byte	0
 2587 0079 0A       		.uleb128 0xa
 2588 007a 13       		.uleb128 0x13
 2589 007b 01       		.byte	0x1
 2590 007c 03       		.uleb128 0x3
 2591 007d 0E       		.uleb128 0xe
 2592 007e 0B       		.uleb128 0xb
 2593 007f 0B       		.uleb128 0xb
 2594 0080 3A       		.uleb128 0x3a
 2595 0081 0B       		.uleb128 0xb
 2596 0082 3B       		.uleb128 0x3b
 2597 0083 05       		.uleb128 0x5
 2598 0084 01       		.uleb128 0x1
 2599 0085 13       		.uleb128 0x13
 2600 0086 00       		.byte	0
 2601 0087 00       		.byte	0
 2602 0088 0B       		.uleb128 0xb
 2603 0089 15       		.uleb128 0x15
 2604 008a 01       		.byte	0x1
 2605 008b 27       		.uleb128 0x27
 2606 008c 19       		.uleb128 0x19
 2607 008d 01       		.uleb128 0x1
 2608 008e 13       		.uleb128 0x13
 2609 008f 00       		.byte	0
 2610 0090 00       		.byte	0
ARM GAS  /tmp/cc7MI5SV.s 			page 47


 2611 0091 0C       		.uleb128 0xc
 2612 0092 05       		.uleb128 0x5
 2613 0093 00       		.byte	0
 2614 0094 49       		.uleb128 0x49
 2615 0095 13       		.uleb128 0x13
 2616 0096 00       		.byte	0
 2617 0097 00       		.byte	0
 2618 0098 0D       		.uleb128 0xd
 2619 0099 0F       		.uleb128 0xf
 2620 009a 00       		.byte	0
 2621 009b 0B       		.uleb128 0xb
 2622 009c 0B       		.uleb128 0xb
 2623 009d 00       		.byte	0
 2624 009e 00       		.byte	0
 2625 009f 0E       		.uleb128 0xe
 2626 00a0 13       		.uleb128 0x13
 2627 00a1 01       		.byte	0x1
 2628 00a2 03       		.uleb128 0x3
 2629 00a3 0E       		.uleb128 0xe
 2630 00a4 0B       		.uleb128 0xb
 2631 00a5 05       		.uleb128 0x5
 2632 00a6 3A       		.uleb128 0x3a
 2633 00a7 0B       		.uleb128 0xb
 2634 00a8 3B       		.uleb128 0x3b
 2635 00a9 05       		.uleb128 0x5
 2636 00aa 01       		.uleb128 0x1
 2637 00ab 13       		.uleb128 0x13
 2638 00ac 00       		.byte	0
 2639 00ad 00       		.byte	0
 2640 00ae 0F       		.uleb128 0xf
 2641 00af 0D       		.uleb128 0xd
 2642 00b0 00       		.byte	0
 2643 00b1 03       		.uleb128 0x3
 2644 00b2 08       		.uleb128 0x8
 2645 00b3 3A       		.uleb128 0x3a
 2646 00b4 0B       		.uleb128 0xb
 2647 00b5 3B       		.uleb128 0x3b
 2648 00b6 0B       		.uleb128 0xb
 2649 00b7 49       		.uleb128 0x49
 2650 00b8 13       		.uleb128 0x13
 2651 00b9 38       		.uleb128 0x38
 2652 00ba 0B       		.uleb128 0xb
 2653 00bb 00       		.byte	0
 2654 00bc 00       		.byte	0
 2655 00bd 10       		.uleb128 0x10
 2656 00be 13       		.uleb128 0x13
 2657 00bf 01       		.byte	0x1
 2658 00c0 0B       		.uleb128 0xb
 2659 00c1 0B       		.uleb128 0xb
 2660 00c2 3A       		.uleb128 0x3a
 2661 00c3 0B       		.uleb128 0xb
 2662 00c4 3B       		.uleb128 0x3b
 2663 00c5 0B       		.uleb128 0xb
 2664 00c6 01       		.uleb128 0x1
 2665 00c7 13       		.uleb128 0x13
 2666 00c8 00       		.byte	0
 2667 00c9 00       		.byte	0
ARM GAS  /tmp/cc7MI5SV.s 			page 48


 2668 00ca 11       		.uleb128 0x11
 2669 00cb 17       		.uleb128 0x17
 2670 00cc 01       		.byte	0x1
 2671 00cd 0B       		.uleb128 0xb
 2672 00ce 0B       		.uleb128 0xb
 2673 00cf 3A       		.uleb128 0x3a
 2674 00d0 0B       		.uleb128 0xb
 2675 00d1 3B       		.uleb128 0x3b
 2676 00d2 0B       		.uleb128 0xb
 2677 00d3 01       		.uleb128 0x1
 2678 00d4 13       		.uleb128 0x13
 2679 00d5 00       		.byte	0
 2680 00d6 00       		.byte	0
 2681 00d7 12       		.uleb128 0x12
 2682 00d8 0D       		.uleb128 0xd
 2683 00d9 00       		.byte	0
 2684 00da 03       		.uleb128 0x3
 2685 00db 0E       		.uleb128 0xe
 2686 00dc 3A       		.uleb128 0x3a
 2687 00dd 0B       		.uleb128 0xb
 2688 00de 3B       		.uleb128 0x3b
 2689 00df 05       		.uleb128 0x5
 2690 00e0 49       		.uleb128 0x49
 2691 00e1 13       		.uleb128 0x13
 2692 00e2 00       		.byte	0
 2693 00e3 00       		.byte	0
 2694 00e4 13       		.uleb128 0x13
 2695 00e5 26       		.uleb128 0x26
 2696 00e6 00       		.byte	0
 2697 00e7 49       		.uleb128 0x49
 2698 00e8 13       		.uleb128 0x13
 2699 00e9 00       		.byte	0
 2700 00ea 00       		.byte	0
 2701 00eb 14       		.uleb128 0x14
 2702 00ec 35       		.uleb128 0x35
 2703 00ed 00       		.byte	0
 2704 00ee 49       		.uleb128 0x49
 2705 00ef 13       		.uleb128 0x13
 2706 00f0 00       		.byte	0
 2707 00f1 00       		.byte	0
 2708 00f2 15       		.uleb128 0x15
 2709 00f3 01       		.uleb128 0x1
 2710 00f4 01       		.byte	0x1
 2711 00f5 49       		.uleb128 0x49
 2712 00f6 13       		.uleb128 0x13
 2713 00f7 01       		.uleb128 0x1
 2714 00f8 13       		.uleb128 0x13
 2715 00f9 00       		.byte	0
 2716 00fa 00       		.byte	0
 2717 00fb 16       		.uleb128 0x16
 2718 00fc 21       		.uleb128 0x21
 2719 00fd 00       		.byte	0
 2720 00fe 49       		.uleb128 0x49
 2721 00ff 13       		.uleb128 0x13
 2722 0100 2F       		.uleb128 0x2f
 2723 0101 0B       		.uleb128 0xb
 2724 0102 00       		.byte	0
ARM GAS  /tmp/cc7MI5SV.s 			page 49


 2725 0103 00       		.byte	0
 2726 0104 17       		.uleb128 0x17
 2727 0105 2E       		.uleb128 0x2e
 2728 0106 01       		.byte	0x1
 2729 0107 03       		.uleb128 0x3
 2730 0108 0E       		.uleb128 0xe
 2731 0109 3A       		.uleb128 0x3a
 2732 010a 0B       		.uleb128 0xb
 2733 010b 3B       		.uleb128 0x3b
 2734 010c 05       		.uleb128 0x5
 2735 010d 27       		.uleb128 0x27
 2736 010e 19       		.uleb128 0x19
 2737 010f 20       		.uleb128 0x20
 2738 0110 0B       		.uleb128 0xb
 2739 0111 01       		.uleb128 0x1
 2740 0112 13       		.uleb128 0x13
 2741 0113 00       		.byte	0
 2742 0114 00       		.byte	0
 2743 0115 18       		.uleb128 0x18
 2744 0116 05       		.uleb128 0x5
 2745 0117 00       		.byte	0
 2746 0118 03       		.uleb128 0x3
 2747 0119 0E       		.uleb128 0xe
 2748 011a 3A       		.uleb128 0x3a
 2749 011b 0B       		.uleb128 0xb
 2750 011c 3B       		.uleb128 0x3b
 2751 011d 05       		.uleb128 0x5
 2752 011e 49       		.uleb128 0x49
 2753 011f 13       		.uleb128 0x13
 2754 0120 00       		.byte	0
 2755 0121 00       		.byte	0
 2756 0122 19       		.uleb128 0x19
 2757 0123 2E       		.uleb128 0x2e
 2758 0124 00       		.byte	0
 2759 0125 03       		.uleb128 0x3
 2760 0126 0E       		.uleb128 0xe
 2761 0127 3A       		.uleb128 0x3a
 2762 0128 0B       		.uleb128 0xb
 2763 0129 3B       		.uleb128 0x3b
 2764 012a 05       		.uleb128 0x5
 2765 012b 27       		.uleb128 0x27
 2766 012c 19       		.uleb128 0x19
 2767 012d 20       		.uleb128 0x20
 2768 012e 0B       		.uleb128 0xb
 2769 012f 00       		.byte	0
 2770 0130 00       		.byte	0
 2771 0131 1A       		.uleb128 0x1a
 2772 0132 2E       		.uleb128 0x2e
 2773 0133 00       		.byte	0
 2774 0134 03       		.uleb128 0x3
 2775 0135 0E       		.uleb128 0xe
 2776 0136 3A       		.uleb128 0x3a
 2777 0137 0B       		.uleb128 0xb
 2778 0138 3B       		.uleb128 0x3b
 2779 0139 0B       		.uleb128 0xb
 2780 013a 27       		.uleb128 0x27
 2781 013b 19       		.uleb128 0x19
ARM GAS  /tmp/cc7MI5SV.s 			page 50


 2782 013c 49       		.uleb128 0x49
 2783 013d 13       		.uleb128 0x13
 2784 013e 20       		.uleb128 0x20
 2785 013f 0B       		.uleb128 0xb
 2786 0140 00       		.byte	0
 2787 0141 00       		.byte	0
 2788 0142 1B       		.uleb128 0x1b
 2789 0143 05       		.uleb128 0x5
 2790 0144 00       		.byte	0
 2791 0145 03       		.uleb128 0x3
 2792 0146 08       		.uleb128 0x8
 2793 0147 3A       		.uleb128 0x3a
 2794 0148 0B       		.uleb128 0xb
 2795 0149 3B       		.uleb128 0x3b
 2796 014a 05       		.uleb128 0x5
 2797 014b 49       		.uleb128 0x49
 2798 014c 13       		.uleb128 0x13
 2799 014d 00       		.byte	0
 2800 014e 00       		.byte	0
 2801 014f 1C       		.uleb128 0x1c
 2802 0150 2E       		.uleb128 0x2e
 2803 0151 01       		.byte	0x1
 2804 0152 03       		.uleb128 0x3
 2805 0153 0E       		.uleb128 0xe
 2806 0154 3A       		.uleb128 0x3a
 2807 0155 0B       		.uleb128 0xb
 2808 0156 3B       		.uleb128 0x3b
 2809 0157 05       		.uleb128 0x5
 2810 0158 27       		.uleb128 0x27
 2811 0159 19       		.uleb128 0x19
 2812 015a 49       		.uleb128 0x49
 2813 015b 13       		.uleb128 0x13
 2814 015c 20       		.uleb128 0x20
 2815 015d 0B       		.uleb128 0xb
 2816 015e 01       		.uleb128 0x1
 2817 015f 13       		.uleb128 0x13
 2818 0160 00       		.byte	0
 2819 0161 00       		.byte	0
 2820 0162 1D       		.uleb128 0x1d
 2821 0163 34       		.uleb128 0x34
 2822 0164 00       		.byte	0
 2823 0165 03       		.uleb128 0x3
 2824 0166 08       		.uleb128 0x8
 2825 0167 3A       		.uleb128 0x3a
 2826 0168 0B       		.uleb128 0xb
 2827 0169 3B       		.uleb128 0x3b
 2828 016a 05       		.uleb128 0x5
 2829 016b 49       		.uleb128 0x49
 2830 016c 13       		.uleb128 0x13
 2831 016d 00       		.byte	0
 2832 016e 00       		.byte	0
 2833 016f 1E       		.uleb128 0x1e
 2834 0170 34       		.uleb128 0x34
 2835 0171 00       		.byte	0
 2836 0172 03       		.uleb128 0x3
 2837 0173 0E       		.uleb128 0xe
 2838 0174 49       		.uleb128 0x49
ARM GAS  /tmp/cc7MI5SV.s 			page 51


 2839 0175 13       		.uleb128 0x13
 2840 0176 34       		.uleb128 0x34
 2841 0177 19       		.uleb128 0x19
 2842 0178 1C       		.uleb128 0x1c
 2843 0179 0E       		.uleb128 0xe
 2844 017a 00       		.byte	0
 2845 017b 00       		.byte	0
 2846 017c 1F       		.uleb128 0x1f
 2847 017d 2E       		.uleb128 0x2e
 2848 017e 01       		.byte	0x1
 2849 017f 3F       		.uleb128 0x3f
 2850 0180 19       		.uleb128 0x19
 2851 0181 03       		.uleb128 0x3
 2852 0182 0E       		.uleb128 0xe
 2853 0183 3A       		.uleb128 0x3a
 2854 0184 0B       		.uleb128 0xb
 2855 0185 3B       		.uleb128 0x3b
 2856 0186 0B       		.uleb128 0xb
 2857 0187 27       		.uleb128 0x27
 2858 0188 19       		.uleb128 0x19
 2859 0189 11       		.uleb128 0x11
 2860 018a 01       		.uleb128 0x1
 2861 018b 12       		.uleb128 0x12
 2862 018c 06       		.uleb128 0x6
 2863 018d 40       		.uleb128 0x40
 2864 018e 18       		.uleb128 0x18
 2865 018f 9742     		.uleb128 0x2117
 2866 0191 19       		.uleb128 0x19
 2867 0192 01       		.uleb128 0x1
 2868 0193 13       		.uleb128 0x13
 2869 0194 00       		.byte	0
 2870 0195 00       		.byte	0
 2871 0196 20       		.uleb128 0x20
 2872 0197 05       		.uleb128 0x5
 2873 0198 00       		.byte	0
 2874 0199 03       		.uleb128 0x3
 2875 019a 08       		.uleb128 0x8
 2876 019b 3A       		.uleb128 0x3a
 2877 019c 0B       		.uleb128 0xb
 2878 019d 3B       		.uleb128 0x3b
 2879 019e 0B       		.uleb128 0xb
 2880 019f 49       		.uleb128 0x49
 2881 01a0 13       		.uleb128 0x13
 2882 01a1 02       		.uleb128 0x2
 2883 01a2 18       		.uleb128 0x18
 2884 01a3 00       		.byte	0
 2885 01a4 00       		.byte	0
 2886 01a5 21       		.uleb128 0x21
 2887 01a6 34       		.uleb128 0x34
 2888 01a7 00       		.byte	0
 2889 01a8 03       		.uleb128 0x3
 2890 01a9 0E       		.uleb128 0xe
 2891 01aa 49       		.uleb128 0x49
 2892 01ab 13       		.uleb128 0x13
 2893 01ac 34       		.uleb128 0x34
 2894 01ad 19       		.uleb128 0x19
 2895 01ae 00       		.byte	0
ARM GAS  /tmp/cc7MI5SV.s 			page 52


 2896 01af 00       		.byte	0
 2897 01b0 22       		.uleb128 0x22
 2898 01b1 1D       		.uleb128 0x1d
 2899 01b2 01       		.byte	0x1
 2900 01b3 31       		.uleb128 0x31
 2901 01b4 13       		.uleb128 0x13
 2902 01b5 11       		.uleb128 0x11
 2903 01b6 01       		.uleb128 0x1
 2904 01b7 12       		.uleb128 0x12
 2905 01b8 06       		.uleb128 0x6
 2906 01b9 58       		.uleb128 0x58
 2907 01ba 0B       		.uleb128 0xb
 2908 01bb 59       		.uleb128 0x59
 2909 01bc 0B       		.uleb128 0xb
 2910 01bd 00       		.byte	0
 2911 01be 00       		.byte	0
 2912 01bf 23       		.uleb128 0x23
 2913 01c0 05       		.uleb128 0x5
 2914 01c1 00       		.byte	0
 2915 01c2 31       		.uleb128 0x31
 2916 01c3 13       		.uleb128 0x13
 2917 01c4 02       		.uleb128 0x2
 2918 01c5 18       		.uleb128 0x18
 2919 01c6 00       		.byte	0
 2920 01c7 00       		.byte	0
 2921 01c8 24       		.uleb128 0x24
 2922 01c9 05       		.uleb128 0x5
 2923 01ca 00       		.byte	0
 2924 01cb 03       		.uleb128 0x3
 2925 01cc 08       		.uleb128 0x8
 2926 01cd 3A       		.uleb128 0x3a
 2927 01ce 0B       		.uleb128 0xb
 2928 01cf 3B       		.uleb128 0x3b
 2929 01d0 0B       		.uleb128 0xb
 2930 01d1 49       		.uleb128 0x49
 2931 01d2 13       		.uleb128 0x13
 2932 01d3 02       		.uleb128 0x2
 2933 01d4 17       		.uleb128 0x17
 2934 01d5 00       		.byte	0
 2935 01d6 00       		.byte	0
 2936 01d7 25       		.uleb128 0x25
 2937 01d8 1D       		.uleb128 0x1d
 2938 01d9 01       		.byte	0x1
 2939 01da 31       		.uleb128 0x31
 2940 01db 13       		.uleb128 0x13
 2941 01dc 11       		.uleb128 0x11
 2942 01dd 01       		.uleb128 0x1
 2943 01de 12       		.uleb128 0x12
 2944 01df 06       		.uleb128 0x6
 2945 01e0 58       		.uleb128 0x58
 2946 01e1 0B       		.uleb128 0xb
 2947 01e2 59       		.uleb128 0x59
 2948 01e3 0B       		.uleb128 0xb
 2949 01e4 01       		.uleb128 0x1
 2950 01e5 13       		.uleb128 0x13
 2951 01e6 00       		.byte	0
 2952 01e7 00       		.byte	0
ARM GAS  /tmp/cc7MI5SV.s 			page 53


 2953 01e8 26       		.uleb128 0x26
 2954 01e9 1D       		.uleb128 0x1d
 2955 01ea 01       		.byte	0x1
 2956 01eb 31       		.uleb128 0x31
 2957 01ec 13       		.uleb128 0x13
 2958 01ed 11       		.uleb128 0x11
 2959 01ee 01       		.uleb128 0x1
 2960 01ef 12       		.uleb128 0x12
 2961 01f0 06       		.uleb128 0x6
 2962 01f1 58       		.uleb128 0x58
 2963 01f2 0B       		.uleb128 0xb
 2964 01f3 59       		.uleb128 0x59
 2965 01f4 05       		.uleb128 0x5
 2966 01f5 00       		.byte	0
 2967 01f6 00       		.byte	0
 2968 01f7 27       		.uleb128 0x27
 2969 01f8 05       		.uleb128 0x5
 2970 01f9 00       		.byte	0
 2971 01fa 31       		.uleb128 0x31
 2972 01fb 13       		.uleb128 0x13
 2973 01fc 1C       		.uleb128 0x1c
 2974 01fd 0B       		.uleb128 0xb
 2975 01fe 00       		.byte	0
 2976 01ff 00       		.byte	0
 2977 0200 28       		.uleb128 0x28
 2978 0201 05       		.uleb128 0x5
 2979 0202 00       		.byte	0
 2980 0203 31       		.uleb128 0x31
 2981 0204 13       		.uleb128 0x13
 2982 0205 02       		.uleb128 0x2
 2983 0206 17       		.uleb128 0x17
 2984 0207 00       		.byte	0
 2985 0208 00       		.byte	0
 2986 0209 29       		.uleb128 0x29
 2987 020a 1D       		.uleb128 0x1d
 2988 020b 01       		.byte	0x1
 2989 020c 31       		.uleb128 0x31
 2990 020d 13       		.uleb128 0x13
 2991 020e 52       		.uleb128 0x52
 2992 020f 01       		.uleb128 0x1
 2993 0210 55       		.uleb128 0x55
 2994 0211 17       		.uleb128 0x17
 2995 0212 58       		.uleb128 0x58
 2996 0213 0B       		.uleb128 0xb
 2997 0214 59       		.uleb128 0x59
 2998 0215 0B       		.uleb128 0xb
 2999 0216 01       		.uleb128 0x1
 3000 0217 13       		.uleb128 0x13
 3001 0218 00       		.byte	0
 3002 0219 00       		.byte	0
 3003 021a 2A       		.uleb128 0x2a
 3004 021b 0B       		.uleb128 0xb
 3005 021c 01       		.byte	0x1
 3006 021d 55       		.uleb128 0x55
 3007 021e 17       		.uleb128 0x17
 3008 021f 00       		.byte	0
 3009 0220 00       		.byte	0
ARM GAS  /tmp/cc7MI5SV.s 			page 54


 3010 0221 2B       		.uleb128 0x2b
 3011 0222 34       		.uleb128 0x34
 3012 0223 00       		.byte	0
 3013 0224 31       		.uleb128 0x31
 3014 0225 13       		.uleb128 0x13
 3015 0226 02       		.uleb128 0x2
 3016 0227 17       		.uleb128 0x17
 3017 0228 00       		.byte	0
 3018 0229 00       		.byte	0
 3019 022a 2C       		.uleb128 0x2c
 3020 022b 0B       		.uleb128 0xb
 3021 022c 01       		.byte	0x1
 3022 022d 11       		.uleb128 0x11
 3023 022e 01       		.uleb128 0x1
 3024 022f 12       		.uleb128 0x12
 3025 0230 06       		.uleb128 0x6
 3026 0231 00       		.byte	0
 3027 0232 00       		.byte	0
 3028 0233 2D       		.uleb128 0x2d
 3029 0234 34       		.uleb128 0x34
 3030 0235 00       		.byte	0
 3031 0236 31       		.uleb128 0x31
 3032 0237 13       		.uleb128 0x13
 3033 0238 00       		.byte	0
 3034 0239 00       		.byte	0
 3035 023a 2E       		.uleb128 0x2e
 3036 023b 898201   		.uleb128 0x4109
 3037 023e 01       		.byte	0x1
 3038 023f 11       		.uleb128 0x11
 3039 0240 01       		.uleb128 0x1
 3040 0241 31       		.uleb128 0x31
 3041 0242 13       		.uleb128 0x13
 3042 0243 00       		.byte	0
 3043 0244 00       		.byte	0
 3044 0245 2F       		.uleb128 0x2f
 3045 0246 8A8201   		.uleb128 0x410a
 3046 0249 00       		.byte	0
 3047 024a 02       		.uleb128 0x2
 3048 024b 18       		.uleb128 0x18
 3049 024c 9142     		.uleb128 0x2111
 3050 024e 18       		.uleb128 0x18
 3051 024f 00       		.byte	0
 3052 0250 00       		.byte	0
 3053 0251 30       		.uleb128 0x30
 3054 0252 34       		.uleb128 0x34
 3055 0253 00       		.byte	0
 3056 0254 03       		.uleb128 0x3
 3057 0255 08       		.uleb128 0x8
 3058 0256 3A       		.uleb128 0x3a
 3059 0257 0B       		.uleb128 0xb
 3060 0258 3B       		.uleb128 0x3b
 3061 0259 0B       		.uleb128 0xb
 3062 025a 49       		.uleb128 0x49
 3063 025b 13       		.uleb128 0x13
 3064 025c 00       		.byte	0
 3065 025d 00       		.byte	0
 3066 025e 31       		.uleb128 0x31
ARM GAS  /tmp/cc7MI5SV.s 			page 55


 3067 025f 898201   		.uleb128 0x4109
 3068 0262 00       		.byte	0
 3069 0263 11       		.uleb128 0x11
 3070 0264 01       		.uleb128 0x1
 3071 0265 9542     		.uleb128 0x2115
 3072 0267 19       		.uleb128 0x19
 3073 0268 31       		.uleb128 0x31
 3074 0269 13       		.uleb128 0x13
 3075 026a 00       		.byte	0
 3076 026b 00       		.byte	0
 3077 026c 32       		.uleb128 0x32
 3078 026d 898201   		.uleb128 0x4109
 3079 0270 00       		.byte	0
 3080 0271 11       		.uleb128 0x11
 3081 0272 01       		.uleb128 0x1
 3082 0273 31       		.uleb128 0x31
 3083 0274 13       		.uleb128 0x13
 3084 0275 00       		.byte	0
 3085 0276 00       		.byte	0
 3086 0277 33       		.uleb128 0x33
 3087 0278 898201   		.uleb128 0x4109
 3088 027b 01       		.byte	0x1
 3089 027c 11       		.uleb128 0x11
 3090 027d 01       		.uleb128 0x1
 3091 027e 31       		.uleb128 0x31
 3092 027f 13       		.uleb128 0x13
 3093 0280 01       		.uleb128 0x1
 3094 0281 13       		.uleb128 0x13
 3095 0282 00       		.byte	0
 3096 0283 00       		.byte	0
 3097 0284 34       		.uleb128 0x34
 3098 0285 2E       		.uleb128 0x2e
 3099 0286 01       		.byte	0x1
 3100 0287 3F       		.uleb128 0x3f
 3101 0288 19       		.uleb128 0x19
 3102 0289 03       		.uleb128 0x3
 3103 028a 0E       		.uleb128 0xe
 3104 028b 3A       		.uleb128 0x3a
 3105 028c 0B       		.uleb128 0xb
 3106 028d 3B       		.uleb128 0x3b
 3107 028e 0B       		.uleb128 0xb
 3108 028f 27       		.uleb128 0x27
 3109 0290 19       		.uleb128 0x19
 3110 0291 49       		.uleb128 0x49
 3111 0292 13       		.uleb128 0x13
 3112 0293 11       		.uleb128 0x11
 3113 0294 01       		.uleb128 0x1
 3114 0295 12       		.uleb128 0x12
 3115 0296 06       		.uleb128 0x6
 3116 0297 40       		.uleb128 0x40
 3117 0298 18       		.uleb128 0x18
 3118 0299 9742     		.uleb128 0x2117
 3119 029b 19       		.uleb128 0x19
 3120 029c 01       		.uleb128 0x1
 3121 029d 13       		.uleb128 0x13
 3122 029e 00       		.byte	0
 3123 029f 00       		.byte	0
ARM GAS  /tmp/cc7MI5SV.s 			page 56


 3124 02a0 35       		.uleb128 0x35
 3125 02a1 34       		.uleb128 0x34
 3126 02a2 00       		.byte	0
 3127 02a3 03       		.uleb128 0x3
 3128 02a4 08       		.uleb128 0x8
 3129 02a5 3A       		.uleb128 0x3a
 3130 02a6 0B       		.uleb128 0xb
 3131 02a7 3B       		.uleb128 0x3b
 3132 02a8 0B       		.uleb128 0xb
 3133 02a9 49       		.uleb128 0x49
 3134 02aa 13       		.uleb128 0x13
 3135 02ab 02       		.uleb128 0x2
 3136 02ac 17       		.uleb128 0x17
 3137 02ad 00       		.byte	0
 3138 02ae 00       		.byte	0
 3139 02af 36       		.uleb128 0x36
 3140 02b0 1D       		.uleb128 0x1d
 3141 02b1 00       		.byte	0
 3142 02b2 31       		.uleb128 0x31
 3143 02b3 13       		.uleb128 0x13
 3144 02b4 11       		.uleb128 0x11
 3145 02b5 01       		.uleb128 0x1
 3146 02b6 12       		.uleb128 0x12
 3147 02b7 06       		.uleb128 0x6
 3148 02b8 58       		.uleb128 0x58
 3149 02b9 0B       		.uleb128 0xb
 3150 02ba 59       		.uleb128 0x59
 3151 02bb 0B       		.uleb128 0xb
 3152 02bc 00       		.byte	0
 3153 02bd 00       		.byte	0
 3154 02be 37       		.uleb128 0x37
 3155 02bf 34       		.uleb128 0x34
 3156 02c0 00       		.byte	0
 3157 02c1 03       		.uleb128 0x3
 3158 02c2 08       		.uleb128 0x8
 3159 02c3 3A       		.uleb128 0x3a
 3160 02c4 0B       		.uleb128 0xb
 3161 02c5 3B       		.uleb128 0x3b
 3162 02c6 0B       		.uleb128 0xb
 3163 02c7 49       		.uleb128 0x49
 3164 02c8 13       		.uleb128 0x13
 3165 02c9 02       		.uleb128 0x2
 3166 02ca 18       		.uleb128 0x18
 3167 02cb 00       		.byte	0
 3168 02cc 00       		.byte	0
 3169 02cd 38       		.uleb128 0x38
 3170 02ce 2E       		.uleb128 0x2e
 3171 02cf 01       		.byte	0x1
 3172 02d0 3F       		.uleb128 0x3f
 3173 02d1 19       		.uleb128 0x19
 3174 02d2 03       		.uleb128 0x3
 3175 02d3 0E       		.uleb128 0xe
 3176 02d4 3A       		.uleb128 0x3a
 3177 02d5 0B       		.uleb128 0xb
 3178 02d6 3B       		.uleb128 0x3b
 3179 02d7 05       		.uleb128 0x5
 3180 02d8 27       		.uleb128 0x27
ARM GAS  /tmp/cc7MI5SV.s 			page 57


 3181 02d9 19       		.uleb128 0x19
 3182 02da 49       		.uleb128 0x49
 3183 02db 13       		.uleb128 0x13
 3184 02dc 11       		.uleb128 0x11
 3185 02dd 01       		.uleb128 0x1
 3186 02de 12       		.uleb128 0x12
 3187 02df 06       		.uleb128 0x6
 3188 02e0 40       		.uleb128 0x40
 3189 02e1 18       		.uleb128 0x18
 3190 02e2 9742     		.uleb128 0x2117
 3191 02e4 19       		.uleb128 0x19
 3192 02e5 01       		.uleb128 0x1
 3193 02e6 13       		.uleb128 0x13
 3194 02e7 00       		.byte	0
 3195 02e8 00       		.byte	0
 3196 02e9 39       		.uleb128 0x39
 3197 02ea 05       		.uleb128 0x5
 3198 02eb 00       		.byte	0
 3199 02ec 03       		.uleb128 0x3
 3200 02ed 08       		.uleb128 0x8
 3201 02ee 3A       		.uleb128 0x3a
 3202 02ef 0B       		.uleb128 0xb
 3203 02f0 3B       		.uleb128 0x3b
 3204 02f1 05       		.uleb128 0x5
 3205 02f2 49       		.uleb128 0x49
 3206 02f3 13       		.uleb128 0x13
 3207 02f4 02       		.uleb128 0x2
 3208 02f5 17       		.uleb128 0x17
 3209 02f6 00       		.byte	0
 3210 02f7 00       		.byte	0
 3211 02f8 3A       		.uleb128 0x3a
 3212 02f9 05       		.uleb128 0x5
 3213 02fa 00       		.byte	0
 3214 02fb 03       		.uleb128 0x3
 3215 02fc 0E       		.uleb128 0xe
 3216 02fd 3A       		.uleb128 0x3a
 3217 02fe 0B       		.uleb128 0xb
 3218 02ff 3B       		.uleb128 0x3b
 3219 0300 05       		.uleb128 0x5
 3220 0301 49       		.uleb128 0x49
 3221 0302 13       		.uleb128 0x13
 3222 0303 02       		.uleb128 0x2
 3223 0304 17       		.uleb128 0x17
 3224 0305 00       		.byte	0
 3225 0306 00       		.byte	0
 3226 0307 3B       		.uleb128 0x3b
 3227 0308 34       		.uleb128 0x34
 3228 0309 00       		.byte	0
 3229 030a 03       		.uleb128 0x3
 3230 030b 08       		.uleb128 0x8
 3231 030c 3A       		.uleb128 0x3a
 3232 030d 0B       		.uleb128 0xb
 3233 030e 3B       		.uleb128 0x3b
 3234 030f 05       		.uleb128 0x5
 3235 0310 49       		.uleb128 0x49
 3236 0311 13       		.uleb128 0x13
 3237 0312 02       		.uleb128 0x2
ARM GAS  /tmp/cc7MI5SV.s 			page 58


 3238 0313 17       		.uleb128 0x17
 3239 0314 00       		.byte	0
 3240 0315 00       		.byte	0
 3241 0316 3C       		.uleb128 0x3c
 3242 0317 1D       		.uleb128 0x1d
 3243 0318 01       		.byte	0x1
 3244 0319 31       		.uleb128 0x31
 3245 031a 13       		.uleb128 0x13
 3246 031b 52       		.uleb128 0x52
 3247 031c 01       		.uleb128 0x1
 3248 031d 55       		.uleb128 0x55
 3249 031e 17       		.uleb128 0x17
 3250 031f 58       		.uleb128 0x58
 3251 0320 0B       		.uleb128 0xb
 3252 0321 59       		.uleb128 0x59
 3253 0322 05       		.uleb128 0x5
 3254 0323 01       		.uleb128 0x1
 3255 0324 13       		.uleb128 0x13
 3256 0325 00       		.byte	0
 3257 0326 00       		.byte	0
 3258 0327 3D       		.uleb128 0x3d
 3259 0328 34       		.uleb128 0x34
 3260 0329 00       		.byte	0
 3261 032a 03       		.uleb128 0x3
 3262 032b 08       		.uleb128 0x8
 3263 032c 3A       		.uleb128 0x3a
 3264 032d 0B       		.uleb128 0xb
 3265 032e 3B       		.uleb128 0x3b
 3266 032f 05       		.uleb128 0x5
 3267 0330 49       		.uleb128 0x49
 3268 0331 13       		.uleb128 0x13
 3269 0332 02       		.uleb128 0x2
 3270 0333 18       		.uleb128 0x18
 3271 0334 00       		.byte	0
 3272 0335 00       		.byte	0
 3273 0336 3E       		.uleb128 0x3e
 3274 0337 1D       		.uleb128 0x1d
 3275 0338 01       		.byte	0x1
 3276 0339 31       		.uleb128 0x31
 3277 033a 13       		.uleb128 0x13
 3278 033b 11       		.uleb128 0x11
 3279 033c 01       		.uleb128 0x1
 3280 033d 12       		.uleb128 0x12
 3281 033e 06       		.uleb128 0x6
 3282 033f 58       		.uleb128 0x58
 3283 0340 0B       		.uleb128 0xb
 3284 0341 59       		.uleb128 0x59
 3285 0342 05       		.uleb128 0x5
 3286 0343 01       		.uleb128 0x1
 3287 0344 13       		.uleb128 0x13
 3288 0345 00       		.byte	0
 3289 0346 00       		.byte	0
 3290 0347 3F       		.uleb128 0x3f
 3291 0348 34       		.uleb128 0x34
 3292 0349 00       		.byte	0
 3293 034a 03       		.uleb128 0x3
 3294 034b 0E       		.uleb128 0xe
ARM GAS  /tmp/cc7MI5SV.s 			page 59


 3295 034c 3A       		.uleb128 0x3a
 3296 034d 0B       		.uleb128 0xb
 3297 034e 3B       		.uleb128 0x3b
 3298 034f 05       		.uleb128 0x5
 3299 0350 49       		.uleb128 0x49
 3300 0351 13       		.uleb128 0x13
 3301 0352 3F       		.uleb128 0x3f
 3302 0353 19       		.uleb128 0x19
 3303 0354 3C       		.uleb128 0x3c
 3304 0355 19       		.uleb128 0x19
 3305 0356 00       		.byte	0
 3306 0357 00       		.byte	0
 3307 0358 40       		.uleb128 0x40
 3308 0359 34       		.uleb128 0x34
 3309 035a 00       		.byte	0
 3310 035b 03       		.uleb128 0x3
 3311 035c 08       		.uleb128 0x8
 3312 035d 3A       		.uleb128 0x3a
 3313 035e 0B       		.uleb128 0xb
 3314 035f 3B       		.uleb128 0x3b
 3315 0360 05       		.uleb128 0x5
 3316 0361 49       		.uleb128 0x49
 3317 0362 13       		.uleb128 0x13
 3318 0363 3F       		.uleb128 0x3f
 3319 0364 19       		.uleb128 0x19
 3320 0365 3C       		.uleb128 0x3c
 3321 0366 19       		.uleb128 0x19
 3322 0367 00       		.byte	0
 3323 0368 00       		.byte	0
 3324 0369 41       		.uleb128 0x41
 3325 036a 2E       		.uleb128 0x2e
 3326 036b 01       		.byte	0x1
 3327 036c 3F       		.uleb128 0x3f
 3328 036d 19       		.uleb128 0x19
 3329 036e 03       		.uleb128 0x3
 3330 036f 0E       		.uleb128 0xe
 3331 0370 3A       		.uleb128 0x3a
 3332 0371 0B       		.uleb128 0xb
 3333 0372 3B       		.uleb128 0x3b
 3334 0373 05       		.uleb128 0x5
 3335 0374 27       		.uleb128 0x27
 3336 0375 19       		.uleb128 0x19
 3337 0376 3C       		.uleb128 0x3c
 3338 0377 19       		.uleb128 0x19
 3339 0378 01       		.uleb128 0x1
 3340 0379 13       		.uleb128 0x13
 3341 037a 00       		.byte	0
 3342 037b 00       		.byte	0
 3343 037c 42       		.uleb128 0x42
 3344 037d 2E       		.uleb128 0x2e
 3345 037e 01       		.byte	0x1
 3346 037f 3F       		.uleb128 0x3f
 3347 0380 19       		.uleb128 0x19
 3348 0381 03       		.uleb128 0x3
 3349 0382 0E       		.uleb128 0xe
 3350 0383 3A       		.uleb128 0x3a
 3351 0384 0B       		.uleb128 0xb
ARM GAS  /tmp/cc7MI5SV.s 			page 60


 3352 0385 3B       		.uleb128 0x3b
 3353 0386 05       		.uleb128 0x5
 3354 0387 27       		.uleb128 0x27
 3355 0388 19       		.uleb128 0x19
 3356 0389 49       		.uleb128 0x49
 3357 038a 13       		.uleb128 0x13
 3358 038b 3C       		.uleb128 0x3c
 3359 038c 19       		.uleb128 0x19
 3360 038d 01       		.uleb128 0x1
 3361 038e 13       		.uleb128 0x13
 3362 038f 00       		.byte	0
 3363 0390 00       		.byte	0
 3364 0391 43       		.uleb128 0x43
 3365 0392 2E       		.uleb128 0x2e
 3366 0393 00       		.byte	0
 3367 0394 3F       		.uleb128 0x3f
 3368 0395 19       		.uleb128 0x19
 3369 0396 03       		.uleb128 0x3
 3370 0397 0E       		.uleb128 0xe
 3371 0398 3A       		.uleb128 0x3a
 3372 0399 0B       		.uleb128 0xb
 3373 039a 3B       		.uleb128 0x3b
 3374 039b 05       		.uleb128 0x5
 3375 039c 27       		.uleb128 0x27
 3376 039d 19       		.uleb128 0x19
 3377 039e 3C       		.uleb128 0x3c
 3378 039f 19       		.uleb128 0x19
 3379 03a0 00       		.byte	0
 3380 03a1 00       		.byte	0
 3381 03a2 44       		.uleb128 0x44
 3382 03a3 2E       		.uleb128 0x2e
 3383 03a4 01       		.byte	0x1
 3384 03a5 3F       		.uleb128 0x3f
 3385 03a6 19       		.uleb128 0x19
 3386 03a7 03       		.uleb128 0x3
 3387 03a8 0E       		.uleb128 0xe
 3388 03a9 3A       		.uleb128 0x3a
 3389 03aa 0B       		.uleb128 0xb
 3390 03ab 3B       		.uleb128 0x3b
 3391 03ac 0B       		.uleb128 0xb
 3392 03ad 27       		.uleb128 0x27
 3393 03ae 19       		.uleb128 0x19
 3394 03af 3C       		.uleb128 0x3c
 3395 03b0 19       		.uleb128 0x19
 3396 03b1 01       		.uleb128 0x1
 3397 03b2 13       		.uleb128 0x13
 3398 03b3 00       		.byte	0
 3399 03b4 00       		.byte	0
 3400 03b5 45       		.uleb128 0x45
 3401 03b6 2E       		.uleb128 0x2e
 3402 03b7 01       		.byte	0x1
 3403 03b8 3F       		.uleb128 0x3f
 3404 03b9 19       		.uleb128 0x19
 3405 03ba 03       		.uleb128 0x3
 3406 03bb 0E       		.uleb128 0xe
 3407 03bc 3A       		.uleb128 0x3a
 3408 03bd 0B       		.uleb128 0xb
ARM GAS  /tmp/cc7MI5SV.s 			page 61


 3409 03be 3B       		.uleb128 0x3b
 3410 03bf 05       		.uleb128 0x5
 3411 03c0 27       		.uleb128 0x27
 3412 03c1 19       		.uleb128 0x19
 3413 03c2 49       		.uleb128 0x49
 3414 03c3 13       		.uleb128 0x13
 3415 03c4 3C       		.uleb128 0x3c
 3416 03c5 19       		.uleb128 0x19
 3417 03c6 00       		.byte	0
 3418 03c7 00       		.byte	0
 3419 03c8 00       		.byte	0
 3420              		.section	.debug_loc,"",%progbits
 3421              	.Ldebug_loc0:
 3422              	.LLST0:
 3423 0000 00000000 		.4byte	.LVL1
 3424 0004 14000000 		.4byte	.LVL4
 3425 0008 0100     		.2byte	0x1
 3426 000a 50       		.byte	0x50
 3427 000b 14000000 		.4byte	.LVL4
 3428 000f 1D000000 		.4byte	.LVL5-1
 3429 0013 0100     		.2byte	0x1
 3430 0015 53       		.byte	0x53
 3431 0016 1D000000 		.4byte	.LVL5-1
 3432 001a 26000000 		.4byte	.LVL6
 3433 001e 0400     		.2byte	0x4
 3434 0020 F3       		.byte	0xf3
 3435 0021 01       		.uleb128 0x1
 3436 0022 50       		.byte	0x50
 3437 0023 9F       		.byte	0x9f
 3438 0024 26000000 		.4byte	.LVL6
 3439 0028 2E000000 		.4byte	.LFE171
 3440 002c 0100     		.2byte	0x1
 3441 002e 50       		.byte	0x50
 3442 002f 00000000 		.4byte	0
 3443 0033 00000000 		.4byte	0
 3444              	.LLST1:
 3445 0037 06000000 		.4byte	.LVL2
 3446 003b 14000000 		.4byte	.LVL4
 3447 003f 0100     		.2byte	0x1
 3448 0041 50       		.byte	0x50
 3449 0042 14000000 		.4byte	.LVL4
 3450 0046 1D000000 		.4byte	.LVL5-1
 3451 004a 0100     		.2byte	0x1
 3452 004c 53       		.byte	0x53
 3453 004d 1D000000 		.4byte	.LVL5-1
 3454 0051 26000000 		.4byte	.LVL6
 3455 0055 0400     		.2byte	0x4
 3456 0057 F3       		.byte	0xf3
 3457 0058 01       		.uleb128 0x1
 3458 0059 50       		.byte	0x50
 3459 005a 9F       		.byte	0x9f
 3460 005b 26000000 		.4byte	.LVL6
 3461 005f 2E000000 		.4byte	.LFE171
 3462 0063 0100     		.2byte	0x1
 3463 0065 50       		.byte	0x50
 3464 0066 00000000 		.4byte	0
 3465 006a 00000000 		.4byte	0
ARM GAS  /tmp/cc7MI5SV.s 			page 62


 3466              	.LLST2:
 3467 006e 0E000000 		.4byte	.LVL3
 3468 0072 14000000 		.4byte	.LVL4
 3469 0076 0100     		.2byte	0x1
 3470 0078 50       		.byte	0x50
 3471 0079 14000000 		.4byte	.LVL4
 3472 007d 1D000000 		.4byte	.LVL5-1
 3473 0081 0100     		.2byte	0x1
 3474 0083 53       		.byte	0x53
 3475 0084 1D000000 		.4byte	.LVL5-1
 3476 0088 26000000 		.4byte	.LVL6
 3477 008c 0400     		.2byte	0x4
 3478 008e F3       		.byte	0xf3
 3479 008f 01       		.uleb128 0x1
 3480 0090 50       		.byte	0x50
 3481 0091 9F       		.byte	0x9f
 3482 0092 00000000 		.4byte	0
 3483 0096 00000000 		.4byte	0
 3484              	.LLST3:
 3485 009a 0E000000 		.4byte	.LVL3
 3486 009e 1D000000 		.4byte	.LVL5-1
 3487 00a2 0100     		.2byte	0x1
 3488 00a4 52       		.byte	0x52
 3489 00a5 00000000 		.4byte	0
 3490 00a9 00000000 		.4byte	0
 3491              	.LLST4:
 3492 00ad 00000000 		.4byte	.LVL7
 3493 00b1 16000000 		.4byte	.LVL10
 3494 00b5 0100     		.2byte	0x1
 3495 00b7 50       		.byte	0x50
 3496 00b8 16000000 		.4byte	.LVL10
 3497 00bc 1D000000 		.4byte	.LVL11-1
 3498 00c0 0100     		.2byte	0x1
 3499 00c2 53       		.byte	0x53
 3500 00c3 1D000000 		.4byte	.LVL11-1
 3501 00c7 1E000000 		.4byte	.LVL11
 3502 00cb 0400     		.2byte	0x4
 3503 00cd F3       		.byte	0xf3
 3504 00ce 01       		.uleb128 0x1
 3505 00cf 50       		.byte	0x50
 3506 00d0 9F       		.byte	0x9f
 3507 00d1 1E000000 		.4byte	.LVL11
 3508 00d5 20000000 		.4byte	.LFE172
 3509 00d9 0100     		.2byte	0x1
 3510 00db 50       		.byte	0x50
 3511 00dc 00000000 		.4byte	0
 3512 00e0 00000000 		.4byte	0
 3513              	.LLST5:
 3514 00e4 04000000 		.4byte	.LVL8
 3515 00e8 16000000 		.4byte	.LVL10
 3516 00ec 0100     		.2byte	0x1
 3517 00ee 50       		.byte	0x50
 3518 00ef 16000000 		.4byte	.LVL10
 3519 00f3 1D000000 		.4byte	.LVL11-1
 3520 00f7 0100     		.2byte	0x1
 3521 00f9 53       		.byte	0x53
 3522 00fa 1D000000 		.4byte	.LVL11-1
ARM GAS  /tmp/cc7MI5SV.s 			page 63


 3523 00fe 1E000000 		.4byte	.LVL11
 3524 0102 0400     		.2byte	0x4
 3525 0104 F3       		.byte	0xf3
 3526 0105 01       		.uleb128 0x1
 3527 0106 50       		.byte	0x50
 3528 0107 9F       		.byte	0x9f
 3529 0108 1E000000 		.4byte	.LVL11
 3530 010c 20000000 		.4byte	.LFE172
 3531 0110 0100     		.2byte	0x1
 3532 0112 50       		.byte	0x50
 3533 0113 00000000 		.4byte	0
 3534 0117 00000000 		.4byte	0
 3535              	.LLST6:
 3536 011b 08000000 		.4byte	.LVL9
 3537 011f 16000000 		.4byte	.LVL10
 3538 0123 0100     		.2byte	0x1
 3539 0125 50       		.byte	0x50
 3540 0126 16000000 		.4byte	.LVL10
 3541 012a 1D000000 		.4byte	.LVL11-1
 3542 012e 0100     		.2byte	0x1
 3543 0130 53       		.byte	0x53
 3544 0131 1D000000 		.4byte	.LVL11-1
 3545 0135 1E000000 		.4byte	.LVL11
 3546 0139 0400     		.2byte	0x4
 3547 013b F3       		.byte	0xf3
 3548 013c 01       		.uleb128 0x1
 3549 013d 50       		.byte	0x50
 3550 013e 9F       		.byte	0x9f
 3551 013f 00000000 		.4byte	0
 3552 0143 00000000 		.4byte	0
 3553              	.LLST7:
 3554 0147 08000000 		.4byte	.LVL9
 3555 014b 1D000000 		.4byte	.LVL11-1
 3556 014f 0100     		.2byte	0x1
 3557 0151 52       		.byte	0x52
 3558 0152 00000000 		.4byte	0
 3559 0156 00000000 		.4byte	0
 3560              	.LLST8:
 3561 015a 00000000 		.4byte	.LVL12
 3562 015e 06000000 		.4byte	.LVL14
 3563 0162 0100     		.2byte	0x1
 3564 0164 50       		.byte	0x50
 3565 0165 06000000 		.4byte	.LVL14
 3566 0169 22000000 		.4byte	.LFE174
 3567 016d 0100     		.2byte	0x1
 3568 016f 54       		.byte	0x54
 3569 0170 00000000 		.4byte	0
 3570 0174 00000000 		.4byte	0
 3571              	.LLST9:
 3572 0178 04000000 		.4byte	.LVL13
 3573 017c 06000000 		.4byte	.LVL14
 3574 0180 0100     		.2byte	0x1
 3575 0182 50       		.byte	0x50
 3576 0183 06000000 		.4byte	.LVL14
 3577 0187 22000000 		.4byte	.LFE174
 3578 018b 0100     		.2byte	0x1
 3579 018d 54       		.byte	0x54
ARM GAS  /tmp/cc7MI5SV.s 			page 64


 3580 018e 00000000 		.4byte	0
 3581 0192 00000000 		.4byte	0
 3582              	.LLST10:
 3583 0196 0E000000 		.4byte	.LVL15
 3584 019a 20000000 		.4byte	.LVL17
 3585 019e 0100     		.2byte	0x1
 3586 01a0 54       		.byte	0x54
 3587 01a1 00000000 		.4byte	0
 3588 01a5 00000000 		.4byte	0
 3589              	.LLST11:
 3590 01a9 0E000000 		.4byte	.LVL15
 3591 01ad 17000000 		.4byte	.LVL16-1
 3592 01b1 0100     		.2byte	0x1
 3593 01b3 50       		.byte	0x50
 3594 01b4 00000000 		.4byte	0
 3595 01b8 00000000 		.4byte	0
 3596              	.LLST12:
 3597 01bc 00000000 		.4byte	.LVL18
 3598 01c0 0B000000 		.4byte	.LVL19-1
 3599 01c4 0100     		.2byte	0x1
 3600 01c6 50       		.byte	0x50
 3601 01c7 0B000000 		.4byte	.LVL19-1
 3602 01cb 18000000 		.4byte	.LFE173
 3603 01cf 0400     		.2byte	0x4
 3604 01d1 F3       		.byte	0xf3
 3605 01d2 01       		.uleb128 0x1
 3606 01d3 50       		.byte	0x50
 3607 01d4 9F       		.byte	0x9f
 3608 01d5 00000000 		.4byte	0
 3609 01d9 00000000 		.4byte	0
 3610              	.LLST13:
 3611 01dd 00000000 		.4byte	.LVL21
 3612 01e1 0C000000 		.4byte	.LVL23
 3613 01e5 0100     		.2byte	0x1
 3614 01e7 50       		.byte	0x50
 3615 01e8 0C000000 		.4byte	.LVL23
 3616 01ec 40000000 		.4byte	.LVL31
 3617 01f0 0100     		.2byte	0x1
 3618 01f2 55       		.byte	0x55
 3619 01f3 40000000 		.4byte	.LVL31
 3620 01f7 44000000 		.4byte	.LFE176
 3621 01fb 0400     		.2byte	0x4
 3622 01fd F3       		.byte	0xf3
 3623 01fe 01       		.uleb128 0x1
 3624 01ff 50       		.byte	0x50
 3625 0200 9F       		.byte	0x9f
 3626 0201 00000000 		.4byte	0
 3627 0205 00000000 		.4byte	0
 3628              	.LLST14:
 3629 0209 08000000 		.4byte	.LVL22
 3630 020d 36000000 		.4byte	.LVL29
 3631 0211 0100     		.2byte	0x1
 3632 0213 54       		.byte	0x54
 3633 0214 00000000 		.4byte	0
 3634 0218 00000000 		.4byte	0
 3635              	.LLST15:
 3636 021c 36000000 		.4byte	.LVL29
ARM GAS  /tmp/cc7MI5SV.s 			page 65


 3637 0220 40000000 		.4byte	.LVL31
 3638 0224 0100     		.2byte	0x1
 3639 0226 54       		.byte	0x54
 3640 0227 40000000 		.4byte	.LVL31
 3641 022b 44000000 		.4byte	.LFE176
 3642 022f 0100     		.2byte	0x1
 3643 0231 50       		.byte	0x50
 3644 0232 00000000 		.4byte	0
 3645 0236 00000000 		.4byte	0
 3646              	.LLST16:
 3647 023a 14000000 		.4byte	.LVL25
 3648 023e 40000000 		.4byte	.LVL31
 3649 0242 0100     		.2byte	0x1
 3650 0244 55       		.byte	0x55
 3651 0245 40000000 		.4byte	.LVL31
 3652 0249 44000000 		.4byte	.LFE176
 3653 024d 0400     		.2byte	0x4
 3654 024f F3       		.byte	0xf3
 3655 0250 01       		.uleb128 0x1
 3656 0251 50       		.byte	0x50
 3657 0252 9F       		.byte	0x9f
 3658 0253 00000000 		.4byte	0
 3659 0257 00000000 		.4byte	0
 3660              	.LLST17:
 3661 025b 14000000 		.4byte	.LVL25
 3662 025f 36000000 		.4byte	.LVL29
 3663 0263 0100     		.2byte	0x1
 3664 0265 54       		.byte	0x54
 3665 0266 00000000 		.4byte	0
 3666 026a 00000000 		.4byte	0
 3667              	.LLST18:
 3668 026e 14000000 		.4byte	.LVL25
 3669 0272 16000000 		.4byte	.LVL26
 3670 0276 0100     		.2byte	0x1
 3671 0278 55       		.byte	0x55
 3672 0279 16000000 		.4byte	.LVL26
 3673 027d 33000000 		.4byte	.LVL28-1
 3674 0281 0100     		.2byte	0x1
 3675 0283 53       		.byte	0x53
 3676 0284 00000000 		.4byte	0
 3677 0288 00000000 		.4byte	0
 3678              	.LLST19:
 3679 028c 00000000 		.4byte	.LVL32
 3680 0290 0B000000 		.4byte	.LVL33-1
 3681 0294 0100     		.2byte	0x1
 3682 0296 50       		.byte	0x50
 3683 0297 0B000000 		.4byte	.LVL33-1
 3684 029b 14000000 		.4byte	.LFE175
 3685 029f 0400     		.2byte	0x4
 3686 02a1 F3       		.byte	0xf3
 3687 02a2 01       		.uleb128 0x1
 3688 02a3 50       		.byte	0x50
 3689 02a4 9F       		.byte	0x9f
 3690 02a5 00000000 		.4byte	0
 3691 02a9 00000000 		.4byte	0
 3692              	.LLST20:
 3693 02ad 00000000 		.4byte	.LVL34
ARM GAS  /tmp/cc7MI5SV.s 			page 66


 3694 02b1 0E000000 		.4byte	.LVL35
 3695 02b5 0100     		.2byte	0x1
 3696 02b7 50       		.byte	0x50
 3697 02b8 0E000000 		.4byte	.LVL35
 3698 02bc 4A000000 		.4byte	.LVL44
 3699 02c0 0100     		.2byte	0x1
 3700 02c2 55       		.byte	0x55
 3701 02c3 4A000000 		.4byte	.LVL44
 3702 02c7 50000000 		.4byte	.LFE178
 3703 02cb 0400     		.2byte	0x4
 3704 02cd F3       		.byte	0xf3
 3705 02ce 01       		.uleb128 0x1
 3706 02cf 50       		.byte	0x50
 3707 02d0 9F       		.byte	0x9f
 3708 02d1 00000000 		.4byte	0
 3709 02d5 00000000 		.4byte	0
 3710              	.LLST21:
 3711 02d9 00000000 		.4byte	.LVL34
 3712 02dd 11000000 		.4byte	.LVL36-1
 3713 02e1 0100     		.2byte	0x1
 3714 02e3 51       		.byte	0x51
 3715 02e4 11000000 		.4byte	.LVL36-1
 3716 02e8 4A000000 		.4byte	.LVL44
 3717 02ec 0100     		.2byte	0x1
 3718 02ee 57       		.byte	0x57
 3719 02ef 4A000000 		.4byte	.LVL44
 3720 02f3 50000000 		.4byte	.LFE178
 3721 02f7 0400     		.2byte	0x4
 3722 02f9 F3       		.byte	0xf3
 3723 02fa 01       		.uleb128 0x1
 3724 02fb 51       		.byte	0x51
 3725 02fc 9F       		.byte	0x9f
 3726 02fd 00000000 		.4byte	0
 3727 0301 00000000 		.4byte	0
 3728              	.LLST22:
 3729 0305 3E000000 		.4byte	.LVL41
 3730 0309 42000000 		.4byte	.LVL42
 3731 030d 0100     		.2byte	0x1
 3732 030f 50       		.byte	0x50
 3733 0310 42000000 		.4byte	.LVL42
 3734 0314 4A000000 		.4byte	.LVL44
 3735 0318 0100     		.2byte	0x1
 3736 031a 54       		.byte	0x54
 3737 031b 4A000000 		.4byte	.LVL44
 3738 031f 50000000 		.4byte	.LFE178
 3739 0323 0100     		.2byte	0x1
 3740 0325 50       		.byte	0x50
 3741 0326 00000000 		.4byte	0
 3742 032a 00000000 		.4byte	0
 3743              	.LLST23:
 3744 032e 18000000 		.4byte	.LVL37
 3745 0332 4A000000 		.4byte	.LVL44
 3746 0336 0100     		.2byte	0x1
 3747 0338 55       		.byte	0x55
 3748 0339 4A000000 		.4byte	.LVL44
 3749 033d 50000000 		.4byte	.LFE178
 3750 0341 0400     		.2byte	0x4
ARM GAS  /tmp/cc7MI5SV.s 			page 67


 3751 0343 F3       		.byte	0xf3
 3752 0344 01       		.uleb128 0x1
 3753 0345 50       		.byte	0x50
 3754 0346 9F       		.byte	0x9f
 3755 0347 00000000 		.4byte	0
 3756 034b 00000000 		.4byte	0
 3757              	.LLST24:
 3758 034f 18000000 		.4byte	.LVL37
 3759 0353 3E000000 		.4byte	.LVL41
 3760 0357 0100     		.2byte	0x1
 3761 0359 54       		.byte	0x54
 3762 035a 00000000 		.4byte	0
 3763 035e 00000000 		.4byte	0
 3764              	.LLST25:
 3765 0362 18000000 		.4byte	.LVL37
 3766 0366 1A000000 		.4byte	.LVL38
 3767 036a 0100     		.2byte	0x1
 3768 036c 55       		.byte	0x55
 3769 036d 1A000000 		.4byte	.LVL38
 3770 0371 39000000 		.4byte	.LVL40-1
 3771 0375 0100     		.2byte	0x1
 3772 0377 53       		.byte	0x53
 3773 0378 00000000 		.4byte	0
 3774 037c 00000000 		.4byte	0
 3775              	.LLST26:
 3776 0380 00000000 		.4byte	.LVL45
 3777 0384 0B000000 		.4byte	.LVL46-1
 3778 0388 0100     		.2byte	0x1
 3779 038a 50       		.byte	0x50
 3780 038b 0B000000 		.4byte	.LVL46-1
 3781 038f 14000000 		.4byte	.LFE177
 3782 0393 0400     		.2byte	0x4
 3783 0395 F3       		.byte	0xf3
 3784 0396 01       		.uleb128 0x1
 3785 0397 50       		.byte	0x50
 3786 0398 9F       		.byte	0x9f
 3787 0399 00000000 		.4byte	0
 3788 039d 00000000 		.4byte	0
 3789              	.LLST27:
 3790 03a1 00000000 		.4byte	.LVL45
 3791 03a5 0B000000 		.4byte	.LVL46-1
 3792 03a9 0100     		.2byte	0x1
 3793 03ab 51       		.byte	0x51
 3794 03ac 0B000000 		.4byte	.LVL46-1
 3795 03b0 14000000 		.4byte	.LFE177
 3796 03b4 0400     		.2byte	0x4
 3797 03b6 F3       		.byte	0xf3
 3798 03b7 01       		.uleb128 0x1
 3799 03b8 51       		.byte	0x51
 3800 03b9 9F       		.byte	0x9f
 3801 03ba 00000000 		.4byte	0
 3802 03be 00000000 		.4byte	0
 3803              		.section	.debug_aranges,"",%progbits
 3804 0000 5C000000 		.4byte	0x5c
 3805 0004 0200     		.2byte	0x2
 3806 0006 00000000 		.4byte	.Ldebug_info0
 3807 000a 04       		.byte	0x4
ARM GAS  /tmp/cc7MI5SV.s 			page 68


 3808 000b 00       		.byte	0
 3809 000c 0000     		.2byte	0
 3810 000e 0000     		.2byte	0
 3811 0010 00000000 		.4byte	.LFB170
 3812 0014 06000000 		.4byte	.LFE170-.LFB170
 3813 0018 00000000 		.4byte	.LFB171
 3814 001c 2E000000 		.4byte	.LFE171-.LFB171
 3815 0020 00000000 		.4byte	.LFB172
 3816 0024 20000000 		.4byte	.LFE172-.LFB172
 3817 0028 00000000 		.4byte	.LFB174
 3818 002c 22000000 		.4byte	.LFE174-.LFB174
 3819 0030 00000000 		.4byte	.LFB173
 3820 0034 18000000 		.4byte	.LFE173-.LFB173
 3821 0038 00000000 		.4byte	.LFB176
 3822 003c 44000000 		.4byte	.LFE176-.LFB176
 3823 0040 00000000 		.4byte	.LFB175
 3824 0044 14000000 		.4byte	.LFE175-.LFB175
 3825 0048 00000000 		.4byte	.LFB178
 3826 004c 50000000 		.4byte	.LFE178-.LFB178
 3827 0050 00000000 		.4byte	.LFB177
 3828 0054 14000000 		.4byte	.LFE177-.LFB177
 3829 0058 00000000 		.4byte	0
 3830 005c 00000000 		.4byte	0
 3831              		.section	.debug_ranges,"",%progbits
 3832              	.Ldebug_ranges0:
 3833 0000 10000000 		.4byte	.LBB91
 3834 0004 12000000 		.4byte	.LBE91
 3835 0008 14000000 		.4byte	.LBB95
 3836 000c 16000000 		.4byte	.LBE95
 3837 0010 18000000 		.4byte	.LBB96
 3838 0014 1A000000 		.4byte	.LBE96
 3839 0018 00000000 		.4byte	0
 3840 001c 00000000 		.4byte	0
 3841 0020 08000000 		.4byte	.LBB104
 3842 0024 0A000000 		.4byte	.LBE104
 3843 0028 0C000000 		.4byte	.LBB109
 3844 002c 16000000 		.4byte	.LBE109
 3845 0030 1A000000 		.4byte	.LBB110
 3846 0034 20000000 		.4byte	.LBE110
 3847 0038 00000000 		.4byte	0
 3848 003c 00000000 		.4byte	0
 3849 0040 08000000 		.4byte	.LBB105
 3850 0044 0A000000 		.4byte	.LBE105
 3851 0048 0E000000 		.4byte	.LBB108
 3852 004c 12000000 		.4byte	.LBE108
 3853 0050 00000000 		.4byte	0
 3854 0054 00000000 		.4byte	0
 3855 0058 04000000 		.4byte	.LBB111
 3856 005c 06000000 		.4byte	.LBE111
 3857 0060 1A000000 		.4byte	.LBB116
 3858 0064 1C000000 		.4byte	.LBE116
 3859 0068 00000000 		.4byte	0
 3860 006c 00000000 		.4byte	0
 3861 0070 10000000 		.4byte	.LBB128
 3862 0074 12000000 		.4byte	.LBE128
 3863 0078 16000000 		.4byte	.LBB132
 3864 007c 26000000 		.4byte	.LBE132
ARM GAS  /tmp/cc7MI5SV.s 			page 69


 3865 0080 28000000 		.4byte	.LBB133
 3866 0084 30000000 		.4byte	.LBE133
 3867 0088 00000000 		.4byte	0
 3868 008c 00000000 		.4byte	0
 3869 0090 04000000 		.4byte	.LBB143
 3870 0094 06000000 		.4byte	.LBE143
 3871 0098 08000000 		.4byte	.LBB148
 3872 009c 0C000000 		.4byte	.LBE148
 3873 00a0 00000000 		.4byte	0
 3874 00a4 00000000 		.4byte	0
 3875 00a8 14000000 		.4byte	.LBB149
 3876 00ac 16000000 		.4byte	.LBE149
 3877 00b0 1A000000 		.4byte	.LBB154
 3878 00b4 2A000000 		.4byte	.LBE154
 3879 00b8 2C000000 		.4byte	.LBB155
 3880 00bc 30000000 		.4byte	.LBE155
 3881 00c0 32000000 		.4byte	.LBB156
 3882 00c4 36000000 		.4byte	.LBE156
 3883 00c8 00000000 		.4byte	0
 3884 00cc 00000000 		.4byte	0
 3885 00d0 00000000 		.4byte	.LFB170
 3886 00d4 06000000 		.4byte	.LFE170
 3887 00d8 00000000 		.4byte	.LFB171
 3888 00dc 2E000000 		.4byte	.LFE171
 3889 00e0 00000000 		.4byte	.LFB172
 3890 00e4 20000000 		.4byte	.LFE172
 3891 00e8 00000000 		.4byte	.LFB174
 3892 00ec 22000000 		.4byte	.LFE174
 3893 00f0 00000000 		.4byte	.LFB173
 3894 00f4 18000000 		.4byte	.LFE173
 3895 00f8 00000000 		.4byte	.LFB176
 3896 00fc 44000000 		.4byte	.LFE176
 3897 0100 00000000 		.4byte	.LFB175
 3898 0104 14000000 		.4byte	.LFE175
 3899 0108 00000000 		.4byte	.LFB178
 3900 010c 50000000 		.4byte	.LFE178
 3901 0110 00000000 		.4byte	.LFB177
 3902 0114 14000000 		.4byte	.LFE177
 3903 0118 00000000 		.4byte	0
 3904 011c 00000000 		.4byte	0
 3905              		.section	.debug_line,"",%progbits
 3906              	.Ldebug_line0:
 3907 0000 FD030000 		.section	.debug_str,"MS",%progbits,1
 3907      02000102 
 3907      00000201 
 3907      FB0E0D00 
 3907      01010101 
 3908              	.LASF52:
 3909 0000 72656164 		.ascii	"ready_list_t\000"
 3909      795F6C69 
 3909      73745F74 
 3909      00
 3910              	.LASF90:
 3911 000d 77747472 		.ascii	"wttrp\000"
 3911      7000
 3912              	.LASF87:
 3913 0013 7264796D 		.ascii	"rdymsg\000"
ARM GAS  /tmp/cc7MI5SV.s 			page 70


 3913      736700
 3914              	.LASF16:
 3915 001a 75696E74 		.ascii	"uint64_t\000"
 3915      36345F74 
 3915      00
 3916              	.LASF5:
 3917 0023 5F5F7569 		.ascii	"__uint8_t\000"
 3917      6E74385F 
 3917      7400
 3918              	.LASF84:
 3919 002d 706F7274 		.ascii	"port_intctx\000"
 3919      5F696E74 
 3919      63747800 
 3920              	.LASF71:
 3921 0039 73797374 		.ascii	"system_debug_t\000"
 3921      656D5F64 
 3921      65627567 
 3921      5F7400
 3922              	.LASF109:
 3923 0048 71756575 		.ascii	"queue_init\000"
 3923      655F696E 
 3923      697400
 3924              	.LASF106:
 3925 0053 706F7274 		.ascii	"port_lock\000"
 3925      5F6C6F63 
 3925      6B00
 3926              	.LASF123:
 3927 005d 6368436F 		.ascii	"chCondBroadcastI\000"
 3927      6E644272 
 3927      6F616463 
 3927      61737449 
 3927      00
 3928              	.LASF12:
 3929 006e 6C6F6E67 		.ascii	"long long unsigned int\000"
 3929      206C6F6E 
 3929      6720756E 
 3929      7369676E 
 3929      65642069 
 3930              	.LASF88:
 3931 0085 65786974 		.ascii	"exitcode\000"
 3931      636F6465 
 3931      00
 3932              	.LASF78:
 3933 008e 6D61696E 		.ascii	"mainthread\000"
 3933      74687265 
 3933      616400
 3934              	.LASF68:
 3935 0099 76697274 		.ascii	"virtual_timers_list_t\000"
 3935      75616C5F 
 3935      74696D65 
 3935      72735F6C 
 3935      6973745F 
 3936              	.LASF130:
 3937 00af 49544D5F 		.ascii	"ITM_RxBuffer\000"
 3937      52784275 
 3937      66666572 
 3937      00
ARM GAS  /tmp/cc7MI5SV.s 			page 71


 3938              	.LASF51:
 3939 00bc 63685F74 		.ascii	"ch_threads_queue\000"
 3939      68726561 
 3939      64735F71 
 3939      75657565 
 3939      00
 3940              	.LASF30:
 3941 00cd 705F7072 		.ascii	"p_prio\000"
 3941      696F00
 3942              	.LASF10:
 3943 00d4 6C6F6E67 		.ascii	"long long int\000"
 3943      206C6F6E 
 3943      6720696E 
 3943      7400
 3944              	.LASF1:
 3945 00e2 7369676E 		.ascii	"signed char\000"
 3945      65642063 
 3945      68617200 
 3946              	.LASF105:
 3947 00ee 636F6E64 		.ascii	"condition_variable_t\000"
 3947      6974696F 
 3947      6E5F7661 
 3947      72696162 
 3947      6C655F74 
 3948              	.LASF45:
 3949 0103 705F6D70 		.ascii	"p_mpool\000"
 3949      6F6F6C00 
 3950              	.LASF98:
 3951 010b 6D5F7175 		.ascii	"m_queue\000"
 3951      65756500 
 3952              	.LASF77:
 3953 0113 76746C69 		.ascii	"vtlist\000"
 3953      737400
 3954              	.LASF107:
 3955 011a 706F7274 		.ascii	"port_unlock\000"
 3955      5F756E6C 
 3955      6F636B00 
 3956              	.LASF21:
 3957 0126 74736C69 		.ascii	"tslices_t\000"
 3957      6365735F 
 3957      7400
 3958              	.LASF75:
 3959 0130 63685F73 		.ascii	"ch_system\000"
 3959      79737465 
 3959      6D00
 3960              	.LASF7:
 3961 013a 6C6F6E67 		.ascii	"long int\000"
 3961      20696E74 
 3961      00
 3962              	.LASF19:
 3963 0143 74737461 		.ascii	"tstate_t\000"
 3963      74655F74 
 3963      00
 3964              	.LASF113:
 3965 014c 71756575 		.ascii	"queue_notempty\000"
 3965      655F6E6F 
 3965      74656D70 
ARM GAS  /tmp/cc7MI5SV.s 			page 72


 3965      747900
 3966              	.LASF134:
 3967 015b 63684D74 		.ascii	"chMtxLockS\000"
 3967      784C6F63 
 3967      6B5300
 3968              	.LASF32:
 3969 0166 705F6E65 		.ascii	"p_newer\000"
 3969      77657200 
 3970              	.LASF95:
 3971 016e 735F7175 		.ascii	"s_queue\000"
 3971      65756500 
 3972              	.LASF139:
 3973 0176 63685363 		.ascii	"chSchRescheduleS\000"
 3973      68526573 
 3973      63686564 
 3973      756C6553 
 3973      00
 3974              	.LASF57:
 3975 0187 725F6E65 		.ascii	"r_newer\000"
 3975      77657200 
 3976              	.LASF81:
 3977 018f 72656761 		.ascii	"regarm_t\000"
 3977      726D5F74 
 3977      00
 3978              	.LASF64:
 3979 0198 76745F70 		.ascii	"vt_prev\000"
 3979      72657600 
 3980              	.LASF72:
 3981 01a0 63685F73 		.ascii	"ch_system_debug\000"
 3981      79737465 
 3981      6D5F6465 
 3981      62756700 
 3982              	.LASF102:
 3983 01b0 6D757465 		.ascii	"mutex_t\000"
 3983      785F7400 
 3984              	.LASF110:
 3985 01b8 76616C75 		.ascii	"value\000"
 3985      6500
 3986              	.LASF121:
 3987 01be 6368436F 		.ascii	"chCondSignal\000"
 3987      6E645369 
 3987      676E616C 
 3987      00
 3988              	.LASF79:
 3989 01cb 69646C65 		.ascii	"idle_thread_wa\000"
 3989      5F746872 
 3989      6561645F 
 3989      776100
 3990              	.LASF25:
 3991 01da 636E745F 		.ascii	"cnt_t\000"
 3991      7400
 3992              	.LASF132:
 3993 01e0 63684D74 		.ascii	"chMtxUnlockS\000"
 3993      78556E6C 
 3993      6F636B53 
 3993      00
 3994              	.LASF0:
ARM GAS  /tmp/cc7MI5SV.s 			page 73


 3995 01ed 756E7369 		.ascii	"unsigned int\000"
 3995      676E6564 
 3995      20696E74 
 3995      00
 3996              	.LASF63:
 3997 01fa 76745F6E 		.ascii	"vt_next\000"
 3997      65787400 
 3998              	.LASF91:
 3999 0202 77747365 		.ascii	"wtsemp\000"
 3999      6D7000
 4000              	.LASF65:
 4001 0209 76745F64 		.ascii	"vt_delta\000"
 4001      656C7461 
 4001      00
 4002              	.LASF40:
 4003 0212 705F6D73 		.ascii	"p_msgqueue\000"
 4003      67717565 
 4003      756500
 4004              	.LASF96:
 4005 021d 735F636E 		.ascii	"s_cnt\000"
 4005      7400
 4006              	.LASF4:
 4007 0223 73686F72 		.ascii	"short unsigned int\000"
 4007      7420756E 
 4007      7369676E 
 4007      65642069 
 4007      6E7400
 4008              	.LASF48:
 4009 0236 63685F74 		.ascii	"ch_thread\000"
 4009      68726561 
 4009      6400
 4010              	.LASF131:
 4011 0240 63685363 		.ascii	"chSchWakeupS\000"
 4011      6857616B 
 4011      65757053 
 4011      00
 4012              	.LASF23:
 4013 024d 6D73675F 		.ascii	"msg_t\000"
 4013      7400
 4014              	.LASF74:
 4015 0253 63685F73 		.ascii	"ch_system_t\000"
 4015      79737465 
 4015      6D5F7400 
 4016              	.LASF18:
 4017 025f 746D6F64 		.ascii	"tmode_t\000"
 4017      655F7400 
 4018              	.LASF53:
 4019 0267 63685F72 		.ascii	"ch_ready_list\000"
 4019      65616479 
 4019      5F6C6973 
 4019      7400
 4020              	.LASF24:
 4021 0275 6576656E 		.ascii	"eventmask_t\000"
 4021      746D6173 
 4021      6B5F7400 
 4022              	.LASF6:
 4023 0281 5F5F696E 		.ascii	"__int32_t\000"
ARM GAS  /tmp/cc7MI5SV.s 			page 74


 4023      7433325F 
 4023      7400
 4024              	.LASF82:
 4025 028b 73746B61 		.ascii	"stkalign_t\000"
 4025      6C69676E 
 4025      5F7400
 4026              	.LASF47:
 4027 0296 74687265 		.ascii	"threads_list_t\000"
 4027      6164735F 
 4027      6C697374 
 4027      5F7400
 4028              	.LASF39:
 4029 02a5 705F7761 		.ascii	"p_waiting\000"
 4029      6974696E 
 4029      6700
 4030              	.LASF80:
 4031 02af 73697A65 		.ascii	"sizetype\000"
 4031      74797065 
 4031      00
 4032              	.LASF46:
 4033 02b8 74687265 		.ascii	"thread_reference_t\000"
 4033      61645F72 
 4033      65666572 
 4033      656E6365 
 4033      5F7400
 4034              	.LASF69:
 4035 02cb 63685F76 		.ascii	"ch_virtual_timers_list\000"
 4035      69727475 
 4035      616C5F74 
 4035      696D6572 
 4035      735F6C69 
 4036              	.LASF103:
 4037 02e2 636F6E64 		.ascii	"condition_variable\000"
 4037      6974696F 
 4037      6E5F7661 
 4037      72696162 
 4037      6C6500
 4038              	.LASF127:
 4039 02f5 6368436F 		.ascii	"chCondWaitTimeoutS\000"
 4039      6E645761 
 4039      69745469 
 4039      6D656F75 
 4039      745300
 4040              	.LASF33:
 4041 0308 705F6F6C 		.ascii	"p_older\000"
 4041      64657200 
 4042              	.LASF56:
 4043 0310 725F6374 		.ascii	"r_ctx\000"
 4043      7800
 4044              	.LASF86:
 4045 0316 746D5F63 		.ascii	"tm_calibration_t\000"
 4045      616C6962 
 4045      72617469 
 4045      6F6E5F74 
 4045      00
 4046              	.LASF100:
 4047 0327 6D5F6E65 		.ascii	"m_next\000"
ARM GAS  /tmp/cc7MI5SV.s 			page 75


 4047      787400
 4048              	.LASF128:
 4049 032e 74696D65 		.ascii	"time\000"
 4049      00
 4050              	.LASF59:
 4051 0333 725F6375 		.ascii	"r_current\000"
 4051      7272656E 
 4051      7400
 4052              	.LASF58:
 4053 033d 725F6F6C 		.ascii	"r_older\000"
 4053      64657200 
 4054              	.LASF124:
 4055 0345 6368436F 		.ascii	"chCondBroadcast\000"
 4055      6E644272 
 4055      6F616463 
 4055      61737400 
 4056              	.LASF11:
 4057 0355 5F5F7569 		.ascii	"__uint64_t\000"
 4057      6E743634 
 4057      5F7400
 4058              	.LASF20:
 4059 0360 74726566 		.ascii	"trefs_t\000"
 4059      735F7400 
 4060              	.LASF61:
 4061 0368 76697274 		.ascii	"virtual_timer_t\000"
 4061      75616C5F 
 4061      74696D65 
 4061      725F7400 
 4062              	.LASF29:
 4063 0378 705F7072 		.ascii	"p_prev\000"
 4063      657600
 4064              	.LASF22:
 4065 037f 74707269 		.ascii	"tprio_t\000"
 4065      6F5F7400 
 4066              	.LASF122:
 4067 0387 6368436F 		.ascii	"chCondSignalI\000"
 4067      6E645369 
 4067      676E616C 
 4067      4900
 4068              	.LASF112:
 4069 0395 5F426F6F 		.ascii	"_Bool\000"
 4069      6C00
 4070              	.LASF14:
 4071 039b 696E7433 		.ascii	"int32_t\000"
 4071      325F7400 
 4072              	.LASF2:
 4073 03a3 756E7369 		.ascii	"unsigned char\000"
 4073      676E6564 
 4073      20636861 
 4073      7200
 4074              	.LASF43:
 4075 03b1 705F6D74 		.ascii	"p_mtxlist\000"
 4075      786C6973 
 4075      7400
 4076              	.LASF3:
 4077 03bb 73686F72 		.ascii	"short int\000"
 4077      7420696E 
ARM GAS  /tmp/cc7MI5SV.s 			page 76


 4077      7400
 4078              	.LASF35:
 4079 03c5 705F7374 		.ascii	"p_state\000"
 4079      61746500 
 4080              	.LASF38:
 4081 03cd 705F7072 		.ascii	"p_preempt\000"
 4081      65656D70 
 4081      7400
 4082              	.LASF137:
 4083 03d7 2F686F6D 		.ascii	"/home/peter/ChibiOS_16.1.4/os/rt/src/chcond.c\000"
 4083      652F7065 
 4083      7465722F 
 4083      43686962 
 4083      694F535F 
 4084              	.LASF55:
 4085 0405 725F7072 		.ascii	"r_prio\000"
 4085      696F00
 4086              	.LASF93:
 4087 040c 65776D61 		.ascii	"ewmask\000"
 4087      736B00
 4088              	.LASF28:
 4089 0413 705F6E65 		.ascii	"p_next\000"
 4089      787400
 4090              	.LASF36:
 4091 041a 705F666C 		.ascii	"p_flags\000"
 4091      61677300 
 4092              	.LASF116:
 4093 0422 5F5F6675 		.ascii	"__func__\000"
 4093      6E635F5F 
 4093      00
 4094              	.LASF111:
 4095 042b 63685379 		.ascii	"chSysLock\000"
 4095      734C6F63 
 4095      6B00
 4096              	.LASF62:
 4097 0435 63685F76 		.ascii	"ch_virtual_timer\000"
 4097      69727475 
 4097      616C5F74 
 4097      696D6572 
 4097      00
 4098              	.LASF104:
 4099 0446 635F7175 		.ascii	"c_queue\000"
 4099      65756500 
 4100              	.LASF94:
 4101 044e 63685F73 		.ascii	"ch_semaphore\000"
 4101      656D6170 
 4101      686F7265 
 4101      00
 4102              	.LASF133:
 4103 045b 63685363 		.ascii	"chSchGoSleepS\000"
 4103      68476F53 
 4103      6C656570 
 4103      5300
 4104              	.LASF42:
 4105 0469 705F6570 		.ascii	"p_epending\000"
 4105      656E6469 
 4105      6E6700
ARM GAS  /tmp/cc7MI5SV.s 			page 77


 4106              	.LASF118:
 4107 0474 63684D74 		.ascii	"chMtxGetNextMutexS\000"
 4107      78476574 
 4107      4E657874 
 4107      4D757465 
 4107      785300
 4108              	.LASF15:
 4109 0487 75696E74 		.ascii	"uint32_t\000"
 4109      33325F74 
 4109      00
 4110              	.LASF92:
 4111 0490 77746D74 		.ascii	"wtmtxp\000"
 4111      787000
 4112              	.LASF54:
 4113 0497 725F7175 		.ascii	"r_queue\000"
 4113      65756500 
 4114              	.LASF138:
 4115 049f 63685363 		.ascii	"chSchReadyI\000"
 4115      68526561 
 4115      64794900 
 4116              	.LASF49:
 4117 04ab 63685F74 		.ascii	"ch_threads_list\000"
 4117      68726561 
 4117      64735F6C 
 4117      69737400 
 4118              	.LASF9:
 4119 04bb 6C6F6E67 		.ascii	"long unsigned int\000"
 4119      20756E73 
 4119      69676E65 
 4119      6420696E 
 4119      7400
 4120              	.LASF136:
 4121 04cd 474E5520 		.ascii	"GNU C 4.9.3 20150529 (prerelease) -mcpu=cortex-m3 -"
 4121      4320342E 
 4121      392E3320 
 4121      32303135 
 4121      30353239 
 4122 0500 6D6E6F2D 		.ascii	"mno-thumb-interwork -mthumb -ggdb -O2 -std=c99 -fom"
 4122      7468756D 
 4122      622D696E 
 4122      74657277 
 4122      6F726B20 
 4123 0533 69742D66 		.ascii	"it-frame-pointer -falign-functions=16 -ffunction-se"
 4123      72616D65 
 4123      2D706F69 
 4123      6E746572 
 4123      202D6661 
 4124 0566 6374696F 		.ascii	"ctions -fdata-sections -fno-common\000"
 4124      6E73202D 
 4124      66646174 
 4124      612D7365 
 4124      6374696F 
 4125              	.LASF101:
 4126 0589 63686172 		.ascii	"char\000"
 4126      00
 4127              	.LASF125:
 4128 058e 6368436F 		.ascii	"chCondWaitS\000"
ARM GAS  /tmp/cc7MI5SV.s 			page 78


 4128      6E645761 
 4128      69745300 
 4129              	.LASF120:
 4130 059a 6368436F 		.ascii	"chCondObjectInit\000"
 4130      6E644F62 
 4130      6A656374 
 4130      496E6974 
 4130      00
 4131              	.LASF114:
 4132 05ab 71756575 		.ascii	"queue_fifo_remove\000"
 4132      655F6669 
 4132      666F5F72 
 4132      656D6F76 
 4132      6500
 4133              	.LASF26:
 4134 05bd 73797374 		.ascii	"systime_t\000"
 4134      696D655F 
 4134      7400
 4135              	.LASF44:
 4136 05c7 705F7265 		.ascii	"p_realprio\000"
 4136      616C7072 
 4136      696F00
 4137              	.LASF60:
 4138 05d2 76746675 		.ascii	"vtfunc_t\000"
 4138      6E635F74 
 4138      00
 4139              	.LASF8:
 4140 05db 5F5F7569 		.ascii	"__uint32_t\000"
 4140      6E743332 
 4140      5F7400
 4141              	.LASF108:
 4142 05e6 5F5F7365 		.ascii	"__set_BASEPRI\000"
 4142      745F4241 
 4142      53455052 
 4142      4900
 4143              	.LASF73:
 4144 05f4 70616E69 		.ascii	"panic_msg\000"
 4144      635F6D73 
 4144      6700
 4145              	.LASF85:
 4146 05fe 6F666673 		.ascii	"offset\000"
 4146      657400
 4147              	.LASF83:
 4148 0605 636F6E74 		.ascii	"context\000"
 4148      65787400 
 4149              	.LASF17:
 4150 060d 7274636E 		.ascii	"rtcnt_t\000"
 4150      745F7400 
 4151              	.LASF126:
 4152 0615 6368436F 		.ascii	"chCondWait\000"
 4152      6E645761 
 4152      697400
 4153              	.LASF67:
 4154 0620 76745F70 		.ascii	"vt_par\000"
 4154      617200
 4155              	.LASF50:
 4156 0627 74687265 		.ascii	"threads_queue_t\000"
ARM GAS  /tmp/cc7MI5SV.s 			page 79


 4156      6164735F 
 4156      71756575 
 4156      655F7400 
 4157              	.LASF97:
 4158 0637 63685F6D 		.ascii	"ch_mutex\000"
 4158      75746578 
 4158      00
 4159              	.LASF37:
 4160 0640 705F7265 		.ascii	"p_refs\000"
 4160      667300
 4161              	.LASF27:
 4162 0647 74687265 		.ascii	"thread_t\000"
 4162      61645F74 
 4162      00
 4163              	.LASF76:
 4164 0650 726C6973 		.ascii	"rlist\000"
 4164      7400
 4165              	.LASF117:
 4166 0656 63685468 		.ascii	"chThdGetSelfX\000"
 4166      64476574 
 4166      53656C66 
 4166      5800
 4167              	.LASF13:
 4168 0664 75696E74 		.ascii	"uint8_t\000"
 4168      385F7400 
 4169              	.LASF89:
 4170 066c 77746F62 		.ascii	"wtobjp\000"
 4170      6A7000
 4171              	.LASF34:
 4172 0673 705F6E61 		.ascii	"p_name\000"
 4172      6D6500
 4173              	.LASF129:
 4174 067a 6368436F 		.ascii	"chCondWaitTimeout\000"
 4174      6E645761 
 4174      69745469 
 4174      6D656F75 
 4174      7400
 4175              	.LASF70:
 4176 068c 76745F73 		.ascii	"vt_systime\000"
 4176      79737469 
 4176      6D6500
 4177              	.LASF135:
 4178 0697 63685363 		.ascii	"chSchGoSleepTimeoutS\000"
 4178      68476F53 
 4178      6C656570 
 4178      54696D65 
 4178      6F757453 
 4179              	.LASF115:
 4180 06ac 63685379 		.ascii	"chSysUnlock\000"
 4180      73556E6C 
 4180      6F636B00 
 4181              	.LASF41:
 4182 06b8 705F6D73 		.ascii	"p_msg\000"
 4182      6700
 4183              	.LASF119:
 4184 06be 71756575 		.ascii	"queue_prio_insert\000"
 4184      655F7072 
ARM GAS  /tmp/cc7MI5SV.s 			page 80


 4184      696F5F69 
 4184      6E736572 
 4184      7400
 4185              	.LASF99:
 4186 06d0 6D5F6F77 		.ascii	"m_owner\000"
 4186      6E657200 
 4187              	.LASF31:
 4188 06d8 705F6374 		.ascii	"p_ctx\000"
 4188      7800
 4189              	.LASF66:
 4190 06de 76745F66 		.ascii	"vt_func\000"
 4190      756E6300 
 4191              		.ident	"GCC: (15:4.9.3+svn227297-1) 4.9.3 20150529 (prerelease)"
ARM GAS  /tmp/cc7MI5SV.s 			page 81


DEFINED SYMBOLS
                            *ABS*:00000000 chcond.c
     /tmp/cc7MI5SV.s:19     .text.chCondObjectInit:00000000 $t
     /tmp/cc7MI5SV.s:25     .text.chCondObjectInit:00000000 chCondObjectInit
     /tmp/cc7MI5SV.s:48     .text.chCondSignal:00000000 $t
     /tmp/cc7MI5SV.s:54     .text.chCondSignal:00000000 chCondSignal
     /tmp/cc7MI5SV.s:151    .text.chCondSignalI:00000000 $t
     /tmp/cc7MI5SV.s:157    .text.chCondSignalI:00000000 chCondSignalI
     /tmp/cc7MI5SV.s:222    .text.chCondBroadcastI:00000000 $t
     /tmp/cc7MI5SV.s:228    .text.chCondBroadcastI:00000000 chCondBroadcastI
     /tmp/cc7MI5SV.s:287    .text.chCondBroadcast:00000000 $t
     /tmp/cc7MI5SV.s:293    .text.chCondBroadcast:00000000 chCondBroadcast
     /tmp/cc7MI5SV.s:345    .text.chCondWaitS:00000000 $t
     /tmp/cc7MI5SV.s:351    .text.chCondWaitS:00000000 chCondWaitS
     /tmp/cc7MI5SV.s:444    .text.chCondWaitS:00000040 $d
     /tmp/cc7MI5SV.s:449    .text.chCondWait:00000000 $t
     /tmp/cc7MI5SV.s:455    .text.chCondWait:00000000 chCondWait
     /tmp/cc7MI5SV.s:505    .text.chCondWaitTimeoutS:00000000 $t
     /tmp/cc7MI5SV.s:511    .text.chCondWaitTimeoutS:00000000 chCondWaitTimeoutS
     /tmp/cc7MI5SV.s:629    .text.chCondWaitTimeoutS:0000004c $d
     /tmp/cc7MI5SV.s:634    .text.chCondWaitTimeout:00000000 $t
     /tmp/cc7MI5SV.s:640    .text.chCondWaitTimeout:00000000 chCondWaitTimeout
                     .debug_frame:00000010 $d
     /tmp/cc7MI5SV.s:448    .text.chCondWaitS:00000044 $t

UNDEFINED SYMBOLS
chSchWakeupS
chSchReadyI
chSchRescheduleS
chMtxUnlockS
chSchGoSleepS
chMtxLockS
ch
chSchGoSleepTimeoutS
