ARM GAS  /tmp/ccvSLAul.s 			page 1


   1              		.syntax unified
   2              		.cpu cortex-m3
   3              		.fpu softvfp
   4              		.eabi_attribute 20, 1
   5              		.eabi_attribute 21, 1
   6              		.eabi_attribute 23, 3
   7              		.eabi_attribute 24, 1
   8              		.eabi_attribute 25, 1
   9              		.eabi_attribute 26, 1
  10              		.eabi_attribute 30, 2
  11              		.eabi_attribute 34, 1
  12              		.eabi_attribute 18, 4
  13              		.thumb
  14              		.file	"chdynamic.c"
  15              		.text
  16              	.Ltext0:
  17              		.cfi_sections	.debug_frame
  18              		.section	.text.chThdAddRef,"ax",%progbits
  19              		.align	2
  20              		.p2align 4,,15
  21              		.global	chThdAddRef
  22              		.thumb
  23              		.thumb_func
  24              		.type	chThdAddRef, %function
  25              	chThdAddRef:
  26              	.LFB170:
  27              		.file 1 "/home/peter/ChibiOS_16.1.4/os/rt/src/chdynamic.c"
  28              		.loc 1 68 0
  29              		.cfi_startproc
  30              		@ args = 0, pretend = 0, frame = 0
  31              		@ frame_needed = 0, uses_anonymous_args = 0
  32              		@ link register save eliminated.
  33              	.LVL0:
  34              	.LBB64:
  35              	.LBB65:
  36              	.LBB66:
  37              	.LBB67:
  38              		.file 2 "/home/peter/ChibiOS_16.1.4/os/ext/CMSIS/include/core_cmFunc.h"
  39              		.loc 2 548 0
  40 0000 2023     		movs	r3, #32
  41              	@ 548 "/home/peter/ChibiOS_16.1.4/os/ext/CMSIS/include/core_cmFunc.h" 1
  42 0002 83F31188 		MSR basepri, r3
  43              	@ 0 "" 2
  44              		.thumb
  45              	.LBE67:
  46              	.LBE66:
  47              	.LBE65:
  48              	.LBE64:
  49              		.loc 1 72 0
  50 0006 837F     		ldrb	r3, [r0, #30]	@ zero_extendqisi2
  51              	.LBB68:
  52              	.LBB69:
  53              	.LBB70:
  54              	.LBB71:
  55              	.LBB72:
  56              		.loc 2 548 0
  57 0008 0021     		movs	r1, #0
ARM GAS  /tmp/ccvSLAul.s 			page 2


  58              	.LBE72:
  59              	.LBE71:
  60              	.LBE70:
  61              	.LBE69:
  62              	.LBE68:
  63              		.loc 1 72 0
  64 000a 0133     		adds	r3, r3, #1
  65 000c 8377     		strb	r3, [r0, #30]
  66              	.LVL1:
  67              	.LBB77:
  68              	.LBB76:
  69              	.LBB75:
  70              	.LBB74:
  71              	.LBB73:
  72              		.loc 2 548 0
  73              	@ 548 "/home/peter/ChibiOS_16.1.4/os/ext/CMSIS/include/core_cmFunc.h" 1
  74 000e 81F31188 		MSR basepri, r1
  75              	@ 0 "" 2
  76              		.thumb
  77              	.LBE73:
  78              	.LBE74:
  79              	.LBE75:
  80              	.LBE76:
  81              	.LBE77:
  82              		.loc 1 76 0
  83 0012 7047     		bx	lr
  84              		.cfi_endproc
  85              	.LFE170:
  86              		.size	chThdAddRef, .-chThdAddRef
  87 0014 AFF30080 		.section	.text.chThdRelease,"ax",%progbits
  87      AFF30080 
  87      AFF30080 
  88              		.align	2
  89              		.p2align 4,,15
  90              		.global	chThdRelease
  91              		.thumb
  92              		.thumb_func
  93              		.type	chThdRelease, %function
  94              	chThdRelease:
  95              	.LFB171:
  96              		.loc 1 91 0
  97              		.cfi_startproc
  98              		@ args = 0, pretend = 0, frame = 0
  99              		@ frame_needed = 0, uses_anonymous_args = 0
 100              		@ link register save eliminated.
 101              	.LVL2:
 102 0000 0146     		mov	r1, r0
 103              	.LBB78:
 104              	.LBB79:
 105              	.LBB80:
 106              	.LBB81:
 107              		.loc 2 548 0
 108 0002 2023     		movs	r3, #32
 109              	@ 548 "/home/peter/ChibiOS_16.1.4/os/ext/CMSIS/include/core_cmFunc.h" 1
 110 0004 83F31188 		MSR basepri, r3
 111              	@ 0 "" 2
 112              		.thumb
ARM GAS  /tmp/ccvSLAul.s 			page 3


 113              	.LBE81:
 114              	.LBE80:
 115              	.LBE79:
 116              	.LBE78:
 117              		.loc 1 96 0
 118 0008 837F     		ldrb	r3, [r0, #30]	@ zero_extendqisi2
 119 000a 013B     		subs	r3, r3, #1
 120 000c DBB2     		uxtb	r3, r3
 121 000e 8377     		strb	r3, [r0, #30]
 122              	.LVL3:
 123              		.loc 1 102 0
 124 0010 13B9     		cbnz	r3, .L3
 125              		.loc 1 102 0 is_stmt 0 discriminator 1
 126 0012 027F     		ldrb	r2, [r0, #28]	@ zero_extendqisi2
 127 0014 0F2A     		cmp	r2, #15
 128 0016 03D0     		beq	.L8
 129              	.L3:
 130              	.LVL4:
 131              	.LBB82:
 132              	.LBB83:
 133              	.LBB84:
 134              	.LBB85:
 135              	.LBB86:
 136              		.loc 2 548 0 is_stmt 1
 137 0018 0023     		movs	r3, #0
 138              	.LVL5:
 139              	@ 548 "/home/peter/ChibiOS_16.1.4/os/ext/CMSIS/include/core_cmFunc.h" 1
 140 001a 83F31188 		MSR basepri, r3
 141              	@ 0 "" 2
 142              		.thumb
 143 001e 7047     		bx	lr
 144              	.LVL6:
 145              	.L8:
 146              	.LBE86:
 147              	.LBE85:
 148              	.LBE84:
 149              	.LBE83:
 150              	.LBE82:
 151              		.loc 1 103 0
 152 0020 427F     		ldrb	r2, [r0, #29]	@ zero_extendqisi2
 153 0022 02F00302 		and	r2, r2, #3
 154 0026 012A     		cmp	r2, #1
 155 0028 0BD0     		beq	.L4
 156 002a 022A     		cmp	r2, #2
 157 002c F4D1     		bne	.L3
 158              		.loc 1 116 0
 159 002e 4269     		ldr	r2, [r0, #20]
 160 0030 0069     		ldr	r0, [r0, #16]
 161              	.LVL7:
 162 0032 1061     		str	r0, [r2, #16]
 163 0034 0869     		ldr	r0, [r1, #16]
 164 0036 4261     		str	r2, [r0, #20]
 165              	.LVL8:
 166              	.LBB87:
 167              	.LBB88:
 168              	.LBB89:
 169              	.LBB90:
ARM GAS  /tmp/ccvSLAul.s 			page 4


 170              	.LBB91:
 171              		.loc 2 548 0
 172              	@ 548 "/home/peter/ChibiOS_16.1.4/os/ext/CMSIS/include/core_cmFunc.h" 1
 173 0038 83F31188 		MSR basepri, r3
 174              	@ 0 "" 2
 175              		.thumb
 176              	.LBE91:
 177              	.LBE90:
 178              	.LBE89:
 179              	.LBE88:
 180              	.LBE87:
 181              		.loc 1 119 0
 182 003c 086C     		ldr	r0, [r1, #64]
 183 003e FFF7FEBF 		b	chPoolFree
 184              	.LVL9:
 185              	.L4:
 186              		.loc 1 91 0
 187 0042 10B4     		push	{r4}
 188              		.cfi_def_cfa_offset 4
 189              		.cfi_offset 4, -4
 190              		.loc 1 107 0
 191 0044 4269     		ldr	r2, [r0, #20]
 192 0046 0469     		ldr	r4, [r0, #16]
 193 0048 1461     		str	r4, [r2, #16]
 194 004a 0169     		ldr	r1, [r0, #16]
 195 004c 4A61     		str	r2, [r1, #20]
 196              	.LVL10:
 197              	.LBB92:
 198              	.LBB93:
 199              	.LBB94:
 200              	.LBB95:
 201              	.LBB96:
 202              		.loc 2 548 0
 203              	@ 548 "/home/peter/ChibiOS_16.1.4/os/ext/CMSIS/include/core_cmFunc.h" 1
 204 004e 83F31188 		MSR basepri, r3
 205              	@ 0 "" 2
 206              		.thumb
 207              	.LBE96:
 208              	.LBE95:
 209              	.LBE94:
 210              	.LBE93:
 211              	.LBE92:
 212              		.loc 1 129 0
 213 0052 5DF8044B 		ldr	r4, [sp], #4
 214              		.cfi_restore 4
 215              		.cfi_def_cfa_offset 0
 216              		.loc 1 110 0
 217 0056 FFF7FEBF 		b	chHeapFree
 218              	.LVL11:
 219              		.cfi_endproc
 220              	.LFE171:
 221              		.size	chThdRelease, .-chThdRelease
 222 005a 00BFAFF3 		.section	.text.chThdCreateFromHeap,"ax",%progbits
 222      0080
 223              		.align	2
 224              		.p2align 4,,15
 225              		.global	chThdCreateFromHeap
ARM GAS  /tmp/ccvSLAul.s 			page 5


 226              		.thumb
 227              		.thumb_func
 228              		.type	chThdCreateFromHeap, %function
 229              	chThdCreateFromHeap:
 230              	.LFB172:
 231              		.loc 1 155 0
 232              		.cfi_startproc
 233              		@ args = 4, pretend = 0, frame = 0
 234              		@ frame_needed = 0, uses_anonymous_args = 0
 235              	.LVL12:
 236 0000 F0B5     		push	{r4, r5, r6, r7, lr}
 237              		.cfi_def_cfa_offset 20
 238              		.cfi_offset 4, -20
 239              		.cfi_offset 5, -16
 240              		.cfi_offset 6, -12
 241              		.cfi_offset 7, -8
 242              		.cfi_offset 14, -4
 243 0002 83B0     		sub	sp, sp, #12
 244              		.cfi_def_cfa_offset 32
 245              		.loc 1 155 0
 246 0004 1646     		mov	r6, r2
 247 0006 1D46     		mov	r5, r3
 248 0008 0F46     		mov	r7, r1
 249              		.loc 1 159 0
 250 000a FFF7FEFF 		bl	chHeapAlloc
 251              	.LVL13:
 252              		.loc 1 160 0
 253 000e 98B1     		cbz	r0, .L10
 254              	.LVL14:
 255              	.LBB97:
 256              	.LBB98:
 257              	.LBB99:
 258              	.LBB100:
 259              		.loc 2 548 0
 260 0010 2023     		movs	r3, #32
 261              	@ 548 "/home/peter/ChibiOS_16.1.4/os/ext/CMSIS/include/core_cmFunc.h" 1
 262 0012 83F31188 		MSR basepri, r3
 263              	@ 0 "" 2
 264              		.thumb
 265              	.LBE100:
 266              	.LBE99:
 267              	.LBE98:
 268              	.LBE97:
 269              		.loc 1 174 0
 270 0016 089B     		ldr	r3, [sp, #32]
 271 0018 3946     		mov	r1, r7
 272 001a 0093     		str	r3, [sp]
 273 001c 3246     		mov	r2, r6
 274 001e 2B46     		mov	r3, r5
 275 0020 FFF7FEFF 		bl	chThdCreateI
 276              	.LVL15:
 277              		.loc 1 175 0
 278 0024 0123     		movs	r3, #1
 279 0026 4377     		strb	r3, [r0, #29]
 280              		.loc 1 176 0
 281 0028 0021     		movs	r1, #0
 282              		.loc 1 174 0
ARM GAS  /tmp/ccvSLAul.s 			page 6


 283 002a 0446     		mov	r4, r0
 284              	.LVL16:
 285              		.loc 1 176 0
 286 002c FFF7FEFF 		bl	chSchWakeupS
 287              	.LVL17:
 288              	.LBB101:
 289              	.LBB102:
 290              	.LBB103:
 291              	.LBB104:
 292              	.LBB105:
 293              		.loc 2 548 0
 294 0030 0023     		movs	r3, #0
 295              	@ 548 "/home/peter/ChibiOS_16.1.4/os/ext/CMSIS/include/core_cmFunc.h" 1
 296 0032 83F31188 		MSR basepri, r3
 297              	@ 0 "" 2
 298              		.thumb
 299              	.LBE105:
 300              	.LBE104:
 301              	.LBE103:
 302              	.LBE102:
 303              	.LBE101:
 304              		.loc 1 179 0
 305 0036 2046     		mov	r0, r4
 306              	.LVL18:
 307              	.L10:
 308              		.loc 1 180 0
 309 0038 03B0     		add	sp, sp, #12
 310              		.cfi_def_cfa_offset 20
 311              		@ sp needed
 312 003a F0BD     		pop	{r4, r5, r6, r7, pc}
 313              		.cfi_endproc
 314              	.LFE172:
 315              		.size	chThdCreateFromHeap, .-chThdCreateFromHeap
 316 003c AFF30080 		.section	.text.chThdCreateFromMemoryPool,"ax",%progbits
 317              		.align	2
 318              		.p2align 4,,15
 319              		.global	chThdCreateFromMemoryPool
 320              		.thumb
 321              		.thumb_func
 322              		.type	chThdCreateFromMemoryPool, %function
 323              	chThdCreateFromMemoryPool:
 324              	.LFB173:
 325              		.loc 1 207 0
 326              		.cfi_startproc
 327              		@ args = 0, pretend = 0, frame = 0
 328              		@ frame_needed = 0, uses_anonymous_args = 0
 329              	.LVL19:
 330 0000 2DE9F041 		push	{r4, r5, r6, r7, r8, lr}
 331              		.cfi_def_cfa_offset 24
 332              		.cfi_offset 4, -24
 333              		.cfi_offset 5, -20
 334              		.cfi_offset 6, -16
 335              		.cfi_offset 7, -12
 336              		.cfi_offset 8, -8
 337              		.cfi_offset 14, -4
 338 0004 82B0     		sub	sp, sp, #8
 339              		.cfi_def_cfa_offset 32
ARM GAS  /tmp/ccvSLAul.s 			page 7


 340              		.loc 1 207 0
 341 0006 0F46     		mov	r7, r1
 342 0008 1646     		mov	r6, r2
 343 000a 9846     		mov	r8, r3
 344 000c 0546     		mov	r5, r0
 345              		.loc 1 213 0
 346 000e FFF7FEFF 		bl	chPoolAlloc
 347              	.LVL20:
 348              		.loc 1 214 0
 349 0012 A0B1     		cbz	r0, .L14
 350              	.LVL21:
 351              	.LBB106:
 352              	.LBB107:
 353              	.LBB108:
 354              	.LBB109:
 355              		.loc 2 548 0
 356 0014 2023     		movs	r3, #32
 357              	@ 548 "/home/peter/ChibiOS_16.1.4/os/ext/CMSIS/include/core_cmFunc.h" 1
 358 0016 83F31188 		MSR basepri, r3
 359              	@ 0 "" 2
 360              		.thumb
 361              	.LBE109:
 362              	.LBE108:
 363              	.LBE107:
 364              	.LBE106:
 365              		.loc 1 228 0
 366 001a 6968     		ldr	r1, [r5, #4]
 367 001c 3A46     		mov	r2, r7
 368 001e 3346     		mov	r3, r6
 369 0020 CDF80080 		str	r8, [sp]
 370 0024 FFF7FEFF 		bl	chThdCreateI
 371              	.LVL22:
 372              		.loc 1 229 0
 373 0028 0223     		movs	r3, #2
 374 002a 4377     		strb	r3, [r0, #29]
 375              		.loc 1 230 0
 376 002c 0564     		str	r5, [r0, #64]
 377              		.loc 1 231 0
 378 002e 0021     		movs	r1, #0
 379              		.loc 1 228 0
 380 0030 0446     		mov	r4, r0
 381              	.LVL23:
 382              		.loc 1 231 0
 383 0032 FFF7FEFF 		bl	chSchWakeupS
 384              	.LVL24:
 385              	.LBB110:
 386              	.LBB111:
 387              	.LBB112:
 388              	.LBB113:
 389              	.LBB114:
 390              		.loc 2 548 0
 391 0036 0023     		movs	r3, #0
 392              	@ 548 "/home/peter/ChibiOS_16.1.4/os/ext/CMSIS/include/core_cmFunc.h" 1
 393 0038 83F31188 		MSR basepri, r3
 394              	@ 0 "" 2
 395              		.thumb
 396              	.LBE114:
ARM GAS  /tmp/ccvSLAul.s 			page 8


 397              	.LBE113:
 398              	.LBE112:
 399              	.LBE111:
 400              	.LBE110:
 401              		.loc 1 234 0
 402 003c 2046     		mov	r0, r4
 403              	.LVL25:
 404              	.L14:
 405              		.loc 1 235 0
 406 003e 02B0     		add	sp, sp, #8
 407              		.cfi_def_cfa_offset 24
 408              		@ sp needed
 409 0040 BDE8F081 		pop	{r4, r5, r6, r7, r8, pc}
 410              		.cfi_endproc
 411              	.LFE173:
 412              		.size	chThdCreateFromMemoryPool, .-chThdCreateFromMemoryPool
 413              		.text
 414              	.Letext0:
 415              		.file 3 "/usr/lib/gcc/arm-none-eabi/4.9.3/include/stddef.h"
 416              		.file 4 "/usr/include/newlib/machine/_default_types.h"
 417              		.file 5 "/usr/include/newlib/stdint.h"
 418              		.file 6 "/home/peter/ChibiOS_16.1.4/os/rt/ports/ARMCMx/compilers/GCC/chtypes.h"
 419              		.file 7 "/home/peter/ChibiOS_16.1.4/os/rt/include/chsystypes.h"
 420              		.file 8 "/home/peter/ChibiOS_16.1.4/os/rt/include/chschd.h"
 421              		.file 9 "/home/peter/ChibiOS_16.1.4/os/rt/ports/ARMCMx/chcore.h"
 422              		.file 10 "/home/peter/ChibiOS_16.1.4/os/rt/ports/ARMCMx/chcore_v7m.h"
 423              		.file 11 "/home/peter/ChibiOS_16.1.4/os/rt/include/chtm.h"
 424              		.file 12 "/home/peter/ChibiOS_16.1.4/os/rt/include/chsem.h"
 425              		.file 13 "/home/peter/ChibiOS_16.1.4/os/rt/include/chmtx.h"
 426              		.file 14 "/home/peter/ChibiOS_16.1.4/os/rt/include/chthreads.h"
 427              		.file 15 "/home/peter/ChibiOS_16.1.4/os/rt/include/chmemcore.h"
 428              		.file 16 "/home/peter/ChibiOS_16.1.4/os/rt/include/chheap.h"
 429              		.file 17 "/home/peter/ChibiOS_16.1.4/os/rt/include/chmempools.h"
 430              		.file 18 "/home/peter/ChibiOS_16.1.4/os/rt/include/chsys.h"
 431              		.file 19 "/home/peter/ChibiOS_16.1.4/os/ext/CMSIS/include/core_cm3.h"