ARM GAS  /tmp/cccCl0FV.s 			page 1


   1              		.syntax unified
   2              		.cpu cortex-m3
   3              		.fpu softvfp
   4              		.eabi_attribute 20, 1
   5              		.eabi_attribute 21, 1
   6              		.eabi_attribute 23, 3
   7              		.eabi_attribute 24, 1
   8              		.eabi_attribute 25, 1
   9              		.eabi_attribute 26, 1
  10              		.eabi_attribute 30, 2
  11              		.eabi_attribute 34, 1
  12              		.eabi_attribute 18, 4
  13              		.thumb
  14              		.file	"chevents.c"
  15              		.text
  16              	.Ltext0:
  17              		.cfi_sections	.debug_frame
  18              		.section	.text.chEvtRegisterMaskWithFlags,"ax",%progbits
  19              		.align	2
  20              		.p2align 4,,15
  21              		.global	chEvtRegisterMaskWithFlags
  22              		.thumb
  23              		.thumb_func
  24              		.type	chEvtRegisterMaskWithFlags, %function
  25              	chEvtRegisterMaskWithFlags:
  26              	.LFB170:
  27              		.file 1 "/home/peter/ChibiOS_16.1.4/os/rt/src/chevents.c"
  28              		.loc 1 106 0
  29              		.cfi_startproc
  30              		@ args = 0, pretend = 0, frame = 0
  31              		@ frame_needed = 0, uses_anonymous_args = 0
  32              		@ link register save eliminated.
  33              	.LVL0:
  34 0000 70B4     		push	{r4, r5, r6}
  35              		.cfi_def_cfa_offset 12
  36              		.cfi_offset 4, -12
  37              		.cfi_offset 5, -8
  38              		.cfi_offset 6, -4
  39              	.LBB174:
  40              	.LBB175:
  41              	.LBB176:
  42              	.LBB177:
  43              		.file 2 "/home/peter/ChibiOS_16.1.4/os/ext/CMSIS/include/core_cmFunc.h"
  44              		.loc 2 548 0
  45 0002 2024     		movs	r4, #32
  46              	@ 548 "/home/peter/ChibiOS_16.1.4/os/ext/CMSIS/include/core_cmFunc.h" 1
  47 0004 84F31188 		MSR basepri, r4
  48              	@ 0 "" 2
  49              		.thumb
  50              	.LBE177:
  51              	.LBE176:
  52              	.LBE175:
  53              	.LBE174:
  54              		.loc 1 113 0
  55 0008 064C     		ldr	r4, .L3
  56              		.loc 1 111 0
  57 000a 0668     		ldr	r6, [r0]
ARM GAS  /tmp/cccCl0FV.s 			page 2


  58              		.loc 1 113 0
  59 000c A569     		ldr	r5, [r4, #24]
  60              		.loc 1 115 0
  61 000e 0024     		movs	r4, #0
  62              		.loc 1 111 0
  63 0010 0E60     		str	r6, [r1]
  64              		.loc 1 112 0
  65 0012 0160     		str	r1, [r0]
  66              		.loc 1 113 0
  67 0014 4D60     		str	r5, [r1, #4]
  68              		.loc 1 114 0
  69 0016 8A60     		str	r2, [r1, #8]
  70              		.loc 1 116 0
  71 0018 0B61     		str	r3, [r1, #16]
  72              	.LVL1:
  73              		.loc 1 115 0
  74 001a CC60     		str	r4, [r1, #12]
  75              	.LBB178:
  76              	.LBB179:
  77              	.LBB180:
  78              	.LBB181:
  79              	.LBB182:
  80              		.loc 2 548 0
  81              	@ 548 "/home/peter/ChibiOS_16.1.4/os/ext/CMSIS/include/core_cmFunc.h" 1
  82 001c 84F31188 		MSR basepri, r4
  83              	@ 0 "" 2
  84              		.thumb
  85              	.LBE182:
  86              	.LBE181:
  87              	.LBE180:
  88              	.LBE179:
  89              	.LBE178:
  90              		.loc 1 118 0
  91 0020 70BC     		pop	{r4, r5, r6}
  92              		.cfi_restore 6
  93              		.cfi_restore 5
  94              		.cfi_restore 4
  95              		.cfi_def_cfa_offset 0
  96 0022 7047     		bx	lr
  97              	.L4:
  98              		.align	2
  99              	.L3:
 100 0024 00000000 		.word	ch
 101              		.cfi_endproc
 102              	.LFE170:
 103              		.size	chEvtRegisterMaskWithFlags, .-chEvtRegisterMaskWithFlags
 104 0028 AFF30080 		.section	.text.chEvtUnregister,"ax",%progbits
 104      AFF30080 
 105              		.align	2
 106              		.p2align 4,,15
 107              		.global	chEvtUnregister
 108              		.thumb
 109              		.thumb_func
 110              		.type	chEvtUnregister, %function
 111              	chEvtUnregister:
 112              	.LFB171:
 113              		.loc 1 133 0
ARM GAS  /tmp/cccCl0FV.s 			page 3


 114              		.cfi_startproc
 115              		@ args = 0, pretend = 0, frame = 0
 116              		@ frame_needed = 0, uses_anonymous_args = 0
 117              		@ link register save eliminated.
 118              	.LVL2:
 119              	.LBB183:
 120              	.LBB184:
 121              	.LBB185:
 122              	.LBB186:
 123              		.loc 2 548 0
 124 0000 2023     		movs	r3, #32
 125              	@ 548 "/home/peter/ChibiOS_16.1.4/os/ext/CMSIS/include/core_cmFunc.h" 1
 126 0002 83F31188 		MSR basepri, r3
 127              	@ 0 "" 2
 128              		.thumb
 129              	.LBE186:
 130              	.LBE185:
 131              	.LBE184:
 132              	.LBE183:
 133              		.loc 1 139 0
 134 0006 0246     		mov	r2, r0
 135 0008 02E0     		b	.L6
 136              	.LVL3:
 137              	.L8:
 138              		.loc 1 145 0
 139 000a 8B42     		cmp	r3, r1
 140 000c 07D0     		beq	.L11
 141 000e 1A46     		mov	r2, r3
 142              	.LVL4:
 143              	.L6:
 144              		.loc 1 143 0
 145 0010 1368     		ldr	r3, [r2]
 146 0012 8342     		cmp	r3, r0
 147 0014 F9D1     		bne	.L8
 148              	.LVL5:
 149              	.LBB187:
 150              	.LBB188:
 151              	.LBB189:
 152              	.LBB190:
 153              	.LBB191:
 154              		.loc 2 548 0
 155 0016 0023     		movs	r3, #0
 156              	@ 548 "/home/peter/ChibiOS_16.1.4/os/ext/CMSIS/include/core_cmFunc.h" 1
 157 0018 83F31188 		MSR basepri, r3
 158              	@ 0 "" 2
 159              		.thumb
 160 001c 7047     		bx	lr
 161              	.LVL6:
 162              	.L11:
 163              	.LBE191:
 164              	.LBE190:
 165              	.LBE189:
 166              	.LBE188:
 167              	.LBE187:
 168              		.loc 1 146 0
 169 001e 0B68     		ldr	r3, [r1]
 170 0020 1360     		str	r3, [r2]
ARM GAS  /tmp/cccCl0FV.s 			page 4


 171              	.LVL7:
 172              	.LBB196:
 173              	.LBB195:
 174              	.LBB194:
 175              	.LBB193:
 176              	.LBB192:
 177              		.loc 2 548 0
 178 0022 0023     		movs	r3, #0
 179              	@ 548 "/home/peter/ChibiOS_16.1.4/os/ext/CMSIS/include/core_cmFunc.h" 1
 180 0024 83F31188 		MSR basepri, r3
 181              	@ 0 "" 2
 182              		.thumb
 183 0028 7047     		bx	lr
 184              	.LBE192:
 185              	.LBE193:
 186              	.LBE194:
 187              	.LBE195:
 188              	.LBE196:
 189              		.cfi_endproc
 190              	.LFE171:
 191              		.size	chEvtUnregister, .-chEvtUnregister
 192 002a 00BFAFF3 		.section	.text.chEvtGetAndClearEvents,"ax",%progbits
 192      0080
 193              		.align	2
 194              		.p2align 4,,15
 195              		.global	chEvtGetAndClearEvents
 196              		.thumb
 197              		.thumb_func
 198              		.type	chEvtGetAndClearEvents, %function
 199              	chEvtGetAndClearEvents:
 200              	.LFB172:
 201              		.loc 1 162 0
 202              		.cfi_startproc
 203              		@ args = 0, pretend = 0, frame = 0
 204              		@ frame_needed = 0, uses_anonymous_args = 0
 205              		@ link register save eliminated.
 206              	.LVL8:
 207 0000 10B4     		push	{r4}
 208              		.cfi_def_cfa_offset 4
 209              		.cfi_offset 4, -4
 210              	.LBB197:
 211              	.LBB198:
 212              	.LBB199:
 213              	.LBB200:
 214              		.loc 2 548 0
 215 0002 2023     		movs	r3, #32
 216              	@ 548 "/home/peter/ChibiOS_16.1.4/os/ext/CMSIS/include/core_cmFunc.h" 1
 217 0004 83F31188 		MSR basepri, r3
 218              	@ 0 "" 2
 219              		.thumb
 220              	.LBE200:
 221              	.LBE199:
 222              	.LBE198:
 223              	.LBE197:
 224              		.loc 1 166 0
 225 0008 064B     		ldr	r3, .L14
 226              	.LBB201:
ARM GAS  /tmp/cccCl0FV.s 			page 5


 227              	.LBB202:
 228              	.LBB203:
 229              	.LBB204:
 230              	.LBB205:
 231              		.loc 2 548 0
 232 000a 0021     		movs	r1, #0
 233              	.LBE205:
 234              	.LBE204:
 235              	.LBE203:
 236              	.LBE202:
 237              	.LBE201:
 238              		.loc 1 166 0
 239 000c 9A69     		ldr	r2, [r3, #24]
 240 000e 536B     		ldr	r3, [r2, #52]
 241              	.LVL9:
 242              		.loc 1 167 0
 243 0010 23EA0004 		bic	r4, r3, r0
 244 0014 5463     		str	r4, [r2, #52]
 245              	.LVL10:
 246              	.LBB210:
 247              	.LBB209:
 248              	.LBB208:
 249              	.LBB207:
 250              	.LBB206:
 251              		.loc 2 548 0
 252              	@ 548 "/home/peter/ChibiOS_16.1.4/os/ext/CMSIS/include/core_cmFunc.h" 1
 253 0016 81F31188 		MSR basepri, r1
 254              	@ 0 "" 2
 255              		.thumb
 256              	.LBE206:
 257              	.LBE207:
 258              	.LBE208:
 259              	.LBE209:
 260              	.LBE210:
 261              		.loc 1 171 0
 262 001a 1840     		ands	r0, r0, r3
 263              	.LVL11:
 264 001c 5DF8044B 		ldr	r4, [sp], #4
 265              		.cfi_restore 4
 266              		.cfi_def_cfa_offset 0
 267 0020 7047     		bx	lr
 268              	.L15:
 269 0022 00BF     		.align	2
 270              	.L14:
 271 0024 00000000 		.word	ch
 272              		.cfi_endproc
 273              	.LFE172:
 274              		.size	chEvtGetAndClearEvents, .-chEvtGetAndClearEvents
 275 0028 AFF30080 		.section	.text.chEvtAddEvents,"ax",%progbits
 275      AFF30080 
 276              		.align	2
 277              		.p2align 4,,15
 278              		.global	chEvtAddEvents
 279              		.thumb
 280              		.thumb_func
 281              		.type	chEvtAddEvents, %function
 282              	chEvtAddEvents:
ARM GAS  /tmp/cccCl0FV.s 			page 6


 283              	.LFB173:
 284              		.loc 1 182 0
 285              		.cfi_startproc
 286              		@ args = 0, pretend = 0, frame = 0
 287              		@ frame_needed = 0, uses_anonymous_args = 0
 288              		@ link register save eliminated.
 289              	.LVL12:
 290              	.LBB211:
 291              	.LBB212:
 292              	.LBB213:
 293              	.LBB214:
 294              		.loc 2 548 0
 295 0000 2023     		movs	r3, #32
 296              	@ 548 "/home/peter/ChibiOS_16.1.4/os/ext/CMSIS/include/core_cmFunc.h" 1
 297 0002 83F31188 		MSR basepri, r3
 298              	@ 0 "" 2
 299              		.thumb
 300              	.LBE214:
 301              	.LBE213:
 302              	.LBE212:
 303              	.LBE211:
 304              		.loc 1 185 0
 305 0006 044B     		ldr	r3, .L17
 306              	.LBB215:
 307              	.LBB216:
 308              	.LBB217:
 309              	.LBB218:
 310              	.LBB219:
 311              		.loc 2 548 0
 312 0008 0021     		movs	r1, #0
 313              	.LBE219:
 314              	.LBE218:
 315              	.LBE217:
 316              	.LBE216:
 317              	.LBE215:
 318              		.loc 1 185 0
 319 000a 9A69     		ldr	r2, [r3, #24]
 320 000c 536B     		ldr	r3, [r2, #52]
 321 000e 1843     		orrs	r0, r0, r3
 322              	.LVL13:
 323 0010 5063     		str	r0, [r2, #52]
 324              	.LVL14:
 325              	.LBB224:
 326              	.LBB223:
 327              	.LBB222:
 328              	.LBB221:
 329              	.LBB220:
 330              		.loc 2 548 0
 331              	@ 548 "/home/peter/ChibiOS_16.1.4/os/ext/CMSIS/include/core_cmFunc.h" 1
 332 0012 81F31188 		MSR basepri, r1
 333              	@ 0 "" 2
 334              		.thumb
 335              	.LBE220:
 336              	.LBE221:
 337              	.LBE222:
 338              	.LBE223:
 339              	.LBE224:
ARM GAS  /tmp/cccCl0FV.s 			page 7


 340              		.loc 1 190 0
 341 0016 7047     		bx	lr
 342              	.L18:
 343              		.align	2
 344              	.L17:
 345 0018 00000000 		.word	ch
 346              		.cfi_endproc
 347              	.LFE173:
 348              		.size	chEvtAddEvents, .-chEvtAddEvents
 349 001c AFF30080 		.section	.text.chEvtGetAndClearFlags,"ax",%progbits
 350              		.align	2
 351              		.p2align 4,,15
 352              		.global	chEvtGetAndClearFlags
 353              		.thumb
 354              		.thumb_func
 355              		.type	chEvtGetAndClearFlags, %function
 356              	chEvtGetAndClearFlags:
 357              	.LFB175:
 358              		.loc 1 241 0
 359              		.cfi_startproc
 360              		@ args = 0, pretend = 0, frame = 0
 361              		@ frame_needed = 0, uses_anonymous_args = 0
 362              		@ link register save eliminated.
 363              	.LVL15:
 364              		.loc 1 241 0
 365 0000 0246     		mov	r2, r0
 366              	.LBB225:
 367              	.LBB226:
 368              	.LBB227:
 369              	.LBB228:
 370              		.loc 2 548 0
 371 0002 2023     		movs	r3, #32
 372              	@ 548 "/home/peter/ChibiOS_16.1.4/os/ext/CMSIS/include/core_cmFunc.h" 1
 373 0004 83F31188 		MSR basepri, r3
 374              	@ 0 "" 2
 375              		.thumb
 376              	.LBE228:
 377              	.LBE227:
 378              	.LBE226:
 379              	.LBE225:
 380              		.loc 1 246 0
 381 0008 0023     		movs	r3, #0
 382              		.loc 1 245 0
 383 000a C068     		ldr	r0, [r0, #12]
 384              	.LVL16:
 385              		.loc 1 246 0
 386 000c D360     		str	r3, [r2, #12]
 387              	.LVL17:
 388              	.LBB229:
 389              	.LBB230:
 390              	.LBB231:
 391              	.LBB232:
 392              	.LBB233:
 393              		.loc 2 548 0
 394              	@ 548 "/home/peter/ChibiOS_16.1.4/os/ext/CMSIS/include/core_cmFunc.h" 1
 395 000e 83F31188 		MSR basepri, r3
 396              	@ 0 "" 2
ARM GAS  /tmp/cccCl0FV.s 			page 8


 397              		.thumb
 398              	.LBE233:
 399              	.LBE232:
 400              	.LBE231:
 401              	.LBE230:
 402              	.LBE229:
 403              		.loc 1 250 0
 404 0012 7047     		bx	lr
 405              		.cfi_endproc
 406              	.LFE175:
 407              		.size	chEvtGetAndClearFlags, .-chEvtGetAndClearFlags
 408 0014 AFF30080 		.section	.text.chEvtSignalI,"ax",%progbits
 408      AFF30080 
 408      AFF30080 
 409              		.align	2
 410              		.p2align 4,,15
 411              		.global	chEvtSignalI
 412              		.thumb
 413              		.thumb_func
 414              		.type	chEvtSignalI, %function
 415              	chEvtSignalI:
 416              	.LFB177:
 417              		.loc 1 282 0
 418              		.cfi_startproc
 419              		@ args = 0, pretend = 0, frame = 0
 420              		@ frame_needed = 0, uses_anonymous_args = 0
 421              		@ link register save eliminated.
 422              	.LVL18:
 423              		.loc 1 287 0
 424 0000 436B     		ldr	r3, [r0, #52]
 425              		.loc 1 289 0
 426 0002 027F     		ldrb	r2, [r0, #28]	@ zero_extendqisi2
 427              		.loc 1 287 0
 428 0004 1943     		orrs	r1, r1, r3
 429              	.LVL19:
 430              		.loc 1 289 0
 431 0006 0A2A     		cmp	r2, #10
 432              		.loc 1 287 0
 433 0008 4163     		str	r1, [r0, #52]
 434              		.loc 1 289 0
 435 000a 0AD0     		beq	.L24
 436              		.loc 1 290 0
 437 000c 0B2A     		cmp	r2, #11
 438 000e 00D0     		beq	.L25
 439              	.L20:
 440 0010 7047     		bx	lr
 441              	.L25:
 442              		.loc 1 292 0
 443 0012 036A     		ldr	r3, [r0, #32]
 444 0014 1940     		ands	r1, r1, r3
 445              		.loc 1 291 0
 446 0016 8B42     		cmp	r3, r1
 447 0018 FAD1     		bne	.L20
 448              	.L22:
 449              		.loc 1 293 0
 450 001a 0023     		movs	r3, #0
 451 001c 0362     		str	r3, [r0, #32]
ARM GAS  /tmp/cccCl0FV.s 			page 9


 452              		.loc 1 294 0
 453 001e FFF7FEBF 		b	chSchReadyI
 454              	.LVL20:
 455              	.L24:
 456              		.loc 1 290 0 discriminator 1
 457 0022 036A     		ldr	r3, [r0, #32]
 458              		.loc 1 289 0 discriminator 1
 459 0024 1942     		tst	r1, r3
 460 0026 F8D1     		bne	.L22
 461 0028 7047     		bx	lr
 462              		.cfi_endproc
 463              	.LFE177:
 464              		.size	chEvtSignalI, .-chEvtSignalI
 465 002a 00BFAFF3 		.section	.text.chEvtBroadcastFlagsI,"ax",%progbits
 465      0080
 466              		.align	2
 467              		.p2align 4,,15
 468              		.global	chEvtBroadcastFlagsI
 469              		.thumb
 470              		.thumb_func
 471              		.type	chEvtBroadcastFlagsI, %function
 472              	chEvtBroadcastFlagsI:
 473              	.LFB174:
 474              		.loc 1 209 0
 475              		.cfi_startproc
 476              		@ args = 0, pretend = 0, frame = 0
 477              		@ frame_needed = 0, uses_anonymous_args = 0
 478              	.LVL21:
 479 0000 70B5     		push	{r4, r5, r6, lr}
 480              		.cfi_def_cfa_offset 16
 481              		.cfi_offset 4, -16
 482              		.cfi_offset 5, -12
 483              		.cfi_offset 6, -8
 484              		.cfi_offset 14, -4
 485              		.loc 1 215 0
 486 0002 0468     		ldr	r4, [r0]
 487              	.LVL22:
 488              		.loc 1 209 0
 489 0004 0646     		mov	r6, r0
 490              		.loc 1 217 0
 491 0006 A042     		cmp	r0, r4
 492              		.loc 1 209 0
 493 0008 0D46     		mov	r5, r1
 494              		.loc 1 217 0
 495 000a 0DD0     		beq	.L26
 496              	.LVL23:
 497              	.L30:
 498              		.loc 1 219 0
 499 000c E368     		ldr	r3, [r4, #12]
 500 000e 2B43     		orrs	r3, r3, r5
 501 0010 E360     		str	r3, [r4, #12]
 502              		.loc 1 222 0
 503 0012 15B1     		cbz	r5, .L28
 504              		.loc 1 223 0 discriminator 1
 505 0014 2269     		ldr	r2, [r4, #16]
 506              		.loc 1 222 0 discriminator 1
 507 0016 1342     		tst	r3, r2
ARM GAS  /tmp/cccCl0FV.s 			page 10


 508 0018 03D0     		beq	.L29
 509              	.L28:
 510              		.loc 1 224 0
 511 001a 6068     		ldr	r0, [r4, #4]
 512 001c A168     		ldr	r1, [r4, #8]
 513 001e FFF7FEFF 		bl	chEvtSignalI
 514              	.LVL24:
 515              	.L29:
 516              		.loc 1 226 0
 517 0022 2468     		ldr	r4, [r4]
 518              	.LVL25:
 519              		.loc 1 217 0
 520 0024 A642     		cmp	r6, r4
 521 0026 F1D1     		bne	.L30
 522              	.L26:
 523 0028 70BD     		pop	{r4, r5, r6, pc}
 524              		.cfi_endproc
 525              	.LFE174:
 526              		.size	chEvtBroadcastFlagsI, .-chEvtBroadcastFlagsI
 527 002a 00BFAFF3 		.section	.text.chEvtSignal,"ax",%progbits
 527      0080
 528              		.align	2
 529              		.p2align 4,,15
 530              		.global	chEvtSignal
 531              		.thumb
 532              		.thumb_func
 533              		.type	chEvtSignal, %function
 534              	chEvtSignal:
 535              	.LFB176:
 536              		.loc 1 260 0
 537              		.cfi_startproc
 538              		@ args = 0, pretend = 0, frame = 0
 539              		@ frame_needed = 0, uses_anonymous_args = 0
 540              	.LVL26:
 541 0000 08B5     		push	{r3, lr}
 542              		.cfi_def_cfa_offset 8
 543              		.cfi_offset 3, -8
 544              		.cfi_offset 14, -4
 545              	.LBB234:
 546              	.LBB235:
 547              	.LBB236:
 548              	.LBB237:
 549              		.loc 2 548 0
 550 0002 2023     		movs	r3, #32
 551              	@ 548 "/home/peter/ChibiOS_16.1.4/os/ext/CMSIS/include/core_cmFunc.h" 1
 552 0004 83F31188 		MSR basepri, r3
 553              	@ 0 "" 2
 554              		.thumb
 555              	.LBE237:
 556              	.LBE236:
 557              	.LBE235:
 558              	.LBE234:
 559              		.loc 1 265 0
 560 0008 FFF7FEFF 		bl	chEvtSignalI
 561              	.LVL27:
 562              		.loc 1 266 0
 563 000c FFF7FEFF 		bl	chSchRescheduleS
ARM GAS  /tmp/cccCl0FV.s 			page 11


 564              	.LVL28:
 565              	.LBB238:
 566              	.LBB239:
 567              	.LBB240:
 568              	.LBB241:
 569              	.LBB242:
 570              		.loc 2 548 0
 571 0010 0023     		movs	r3, #0
 572              	@ 548 "/home/peter/ChibiOS_16.1.4/os/ext/CMSIS/include/core_cmFunc.h" 1
 573 0012 83F31188 		MSR basepri, r3
 574              	@ 0 "" 2
 575              		.thumb
 576 0016 08BD     		pop	{r3, pc}
 577              	.LBE242:
 578              	.LBE241:
 579              	.LBE240:
 580              	.LBE239:
 581              	.LBE238:
 582              		.cfi_endproc
 583              	.LFE176:
 584              		.size	chEvtSignal, .-chEvtSignal
 585 0018 AFF30080 		.section	.text.chEvtBroadcastFlags,"ax",%progbits
 585      AFF30080 
 586              		.align	2
 587              		.p2align 4,,15
 588              		.global	chEvtBroadcastFlags
 589              		.thumb
 590              		.thumb_func
 591              		.type	chEvtBroadcastFlags, %function
 592              	chEvtBroadcastFlags:
 593              	.LFB178:
 594              		.loc 1 311 0
 595              		.cfi_startproc
 596              		@ args = 0, pretend = 0, frame = 0
 597              		@ frame_needed = 0, uses_anonymous_args = 0
 598              	.LVL29:
 599 0000 08B5     		push	{r3, lr}
 600              		.cfi_def_cfa_offset 8
 601              		.cfi_offset 3, -8
 602              		.cfi_offset 14, -4
 603              	.LBB243:
 604              	.LBB244:
 605              	.LBB245:
 606              	.LBB246:
 607              		.loc 2 548 0
 608 0002 2023     		movs	r3, #32
 609              	@ 548 "/home/peter/ChibiOS_16.1.4/os/ext/CMSIS/include/core_cmFunc.h" 1
 610 0004 83F31188 		MSR basepri, r3
 611              	@ 0 "" 2
 612              		.thumb
 613              	.LBE246:
 614              	.LBE245:
 615              	.LBE244:
 616              	.LBE243:
 617              		.loc 1 314 0
 618 0008 FFF7FEFF 		bl	chEvtBroadcastFlagsI
 619              	.LVL30:
ARM GAS  /tmp/cccCl0FV.s 			page 12


 620              		.loc 1 315 0
 621 000c FFF7FEFF 		bl	chSchRescheduleS
 622              	.LVL31:
 623              	.LBB247:
 624              	.LBB248:
 625              	.LBB249:
 626              	.LBB250:
 627              	.LBB251:
 628              		.loc 2 548 0
 629 0010 0023     		movs	r3, #0
 630              	@ 548 "/home/peter/ChibiOS_16.1.4/os/ext/CMSIS/include/core_cmFunc.h" 1
 631 0012 83F31188 		MSR basepri, r3
 632              	@ 0 "" 2
 633              		.thumb
 634 0016 08BD     		pop	{r3, pc}
 635              	.LBE251:
 636              	.LBE250:
 637              	.LBE249:
 638              	.LBE248:
 639              	.LBE247:
 640              		.cfi_endproc
 641              	.LFE178:
 642              		.size	chEvtBroadcastFlags, .-chEvtBroadcastFlags
 643 0018 AFF30080 		.section	.text.chEvtGetAndClearFlagsI,"ax",%progbits
 643      AFF30080 
 644              		.align	2
 645              		.p2align 4,,15
 646              		.global	chEvtGetAndClearFlagsI
 647              		.thumb
 648              		.thumb_func
 649              		.type	chEvtGetAndClearFlagsI, %function
 650              	chEvtGetAndClearFlagsI:
 651              	.LFB179:
 652              		.loc 1 330 0
 653              		.cfi_startproc
 654              		@ args = 0, pretend = 0, frame = 0
 655              		@ frame_needed = 0, uses_anonymous_args = 0
 656              		@ link register save eliminated.
 657              	.LVL32:
 658              		.loc 1 330 0
 659 0000 0346     		mov	r3, r0
 660              		.loc 1 334 0
 661 0002 0022     		movs	r2, #0
 662              		.loc 1 333 0
 663 0004 C068     		ldr	r0, [r0, #12]
 664              	.LVL33:
 665              		.loc 1 334 0
 666 0006 DA60     		str	r2, [r3, #12]
 667              		.loc 1 337 0
 668 0008 7047     		bx	lr
 669              		.cfi_endproc
 670              	.LFE179:
 671              		.size	chEvtGetAndClearFlagsI, .-chEvtGetAndClearFlagsI
 672 000a 00BFAFF3 		.section	.text.chEvtDispatch,"ax",%progbits
 672      0080
 673              		.align	2
 674              		.p2align 4,,15
ARM GAS  /tmp/cccCl0FV.s 			page 13


 675              		.global	chEvtDispatch
 676              		.thumb
 677              		.thumb_func
 678              		.type	chEvtDispatch, %function
 679              	chEvtDispatch:
 680              	.LFB180:
 681              		.loc 1 348 0
 682              		.cfi_startproc
 683              		@ args = 0, pretend = 0, frame = 0
 684              		@ frame_needed = 0, uses_anonymous_args = 0
 685              	.LVL34:
 686 0000 F8B5     		push	{r3, r4, r5, r6, r7, lr}
 687              		.cfi_def_cfa_offset 24
 688              		.cfi_offset 3, -24
 689              		.cfi_offset 4, -20
 690              		.cfi_offset 5, -16
 691              		.cfi_offset 6, -12
 692              		.cfi_offset 7, -8
 693              		.cfi_offset 14, -4
 694              		.loc 1 354 0
 695 0002 0D46     		mov	r5, r1
 696 0004 B9B1     		cbz	r1, .L45
 697 0006 0646     		mov	r6, r0
 698 0008 0024     		movs	r4, #0
 699              		.loc 1 357 0
 700 000a 0127     		movs	r7, #1
 701              	.LVL35:
 702              	.L47:
 703              		.loc 1 355 0
 704 000c 25FA04F3 		lsr	r3, r5, r4
 705 0010 DB07     		lsls	r3, r3, #31
 706 0012 04D4     		bmi	.L52
 707              	.L48:
 708              		.loc 1 360 0
 709 0014 0134     		adds	r4, r4, #1
 710              	.LVL36:
 711              		.loc 1 355 0
 712 0016 25FA04F3 		lsr	r3, r5, r4
 713 001a DB07     		lsls	r3, r3, #31
 714 001c FAD5     		bpl	.L48
 715              	.L52:
 716              		.loc 1 357 0
 717 001e 07FA04F3 		lsl	r3, r7, r4
 718              		.loc 1 358 0
 719 0022 2046     		mov	r0, r4
 720              		.loc 1 357 0
 721 0024 25EA0305 		bic	r5, r5, r3
 722              	.LVL37:
 723              		.loc 1 358 0
 724 0028 56F82430 		ldr	r3, [r6, r4, lsl #2]
 725 002c 9847     		blx	r3
 726              	.LVL38:
 727              		.loc 1 360 0
 728 002e 0134     		adds	r4, r4, #1
 729              	.LVL39:
 730              		.loc 1 354 0
 731 0030 002D     		cmp	r5, #0
ARM GAS  /tmp/cccCl0FV.s 			page 14


 732 0032 EBD1     		bne	.L47
 733 0034 F8BD     		pop	{r3, r4, r5, r6, r7, pc}
 734              	.LVL40:
 735              	.L45:
 736 0036 F8BD     		pop	{r3, r4, r5, r6, r7, pc}
 737              		.cfi_endproc
 738              	.LFE180:
 739              		.size	chEvtDispatch, .-chEvtDispatch
 740 0038 AFF30080 		.section	.text.chEvtWaitOne,"ax",%progbits
 740      AFF30080 
 741              		.align	2
 742              		.p2align 4,,15
 743              		.global	chEvtWaitOne
 744              		.thumb
 745              		.thumb_func
 746              		.type	chEvtWaitOne, %function
 747              	chEvtWaitOne:
 748              	.LFB181:
 749              		.loc 1 383 0
 750              		.cfi_startproc
 751              		@ args = 0, pretend = 0, frame = 0
 752              		@ frame_needed = 0, uses_anonymous_args = 0
 753              	.LVL41:
 754 0000 38B5     		push	{r3, r4, r5, lr}
 755              		.cfi_def_cfa_offset 16
 756              		.cfi_offset 3, -16
 757              		.cfi_offset 4, -12
 758              		.cfi_offset 5, -8
 759              		.cfi_offset 14, -4
 760              		.loc 1 384 0
 761 0002 0D4B     		ldr	r3, .L56
 762 0004 9D69     		ldr	r5, [r3, #24]
 763              	.LVL42:
 764              	.LBB252:
 765              	.LBB253:
 766              	.LBB254:
 767              	.LBB255:
 768              		.loc 2 548 0
 769 0006 2023     		movs	r3, #32
 770              	@ 548 "/home/peter/ChibiOS_16.1.4/os/ext/CMSIS/include/core_cmFunc.h" 1
 771 0008 83F31188 		MSR basepri, r3
 772              	@ 0 "" 2
 773              		.thumb
 774              	.LBE255:
 775              	.LBE254:
 776              	.LBE253:
 777              	.LBE252:
 778              		.loc 1 388 0
 779 000c 6B6B     		ldr	r3, [r5, #52]
 780              	.LVL43:
 781              		.loc 1 389 0
 782 000e 10EA0302 		ands	r2, r0, r3
 783              	.LVL44:
 784 0012 07D1     		bne	.L54
 785 0014 0446     		mov	r4, r0
 786              		.loc 1 390 0
 787 0016 2862     		str	r0, [r5, #32]
ARM GAS  /tmp/cccCl0FV.s 			page 15


 788              		.loc 1 391 0
 789 0018 0A20     		movs	r0, #10
 790              	.LVL45:
 791 001a FFF7FEFF 		bl	chSchGoSleepS
 792              	.LVL46:
 793              		.loc 1 392 0
 794 001e 6B6B     		ldr	r3, [r5, #52]
 795 0020 04EA0302 		and	r2, r4, r3
 796              	.LVL47:
 797              	.L54:
 798              		.loc 1 394 0
 799 0024 5042     		negs	r0, r2
 800 0026 1040     		ands	r0, r0, r2
 801              	.LVL48:
 802              		.loc 1 395 0
 803 0028 23EA0003 		bic	r3, r3, r0
 804 002c 6B63     		str	r3, [r5, #52]
 805              	.LVL49:
 806              	.LBB256:
 807              	.LBB257:
 808              	.LBB258:
 809              	.LBB259:
 810              	.LBB260:
 811              		.loc 2 548 0
 812 002e 0023     		movs	r3, #0
 813              	@ 548 "/home/peter/ChibiOS_16.1.4/os/ext/CMSIS/include/core_cmFunc.h" 1
 814 0030 83F31188 		MSR basepri, r3
 815              	@ 0 "" 2
 816              		.thumb
 817              	.LBE260:
 818              	.LBE259:
 819              	.LBE258:
 820              	.LBE257:
 821              	.LBE256:
 822              		.loc 1 399 0
 823 0034 38BD     		pop	{r3, r4, r5, pc}
 824              	.LVL50:
 825              	.L57:
 826 0036 00BF     		.align	2
 827              	.L56:
 828 0038 00000000 		.word	ch
 829              		.cfi_endproc
 830              	.LFE181:
 831              		.size	chEvtWaitOne, .-chEvtWaitOne
 832 003c AFF30080 		.section	.text.chEvtWaitAny,"ax",%progbits
 833              		.align	2
 834              		.p2align 4,,15
 835              		.global	chEvtWaitAny
 836              		.thumb
 837              		.thumb_func
 838              		.type	chEvtWaitAny, %function
 839              	chEvtWaitAny:
 840              	.LFB182:
 841              		.loc 1 413 0
 842              		.cfi_startproc
 843              		@ args = 0, pretend = 0, frame = 0
 844              		@ frame_needed = 0, uses_anonymous_args = 0
ARM GAS  /tmp/cccCl0FV.s 			page 16


 845              	.LVL51:
 846 0000 38B5     		push	{r3, r4, r5, lr}
 847              		.cfi_def_cfa_offset 16
 848              		.cfi_offset 3, -16
 849              		.cfi_offset 4, -12
 850              		.cfi_offset 5, -8
 851              		.cfi_offset 14, -4
 852              		.loc 1 414 0
 853 0002 0C4B     		ldr	r3, .L61
 854 0004 9D69     		ldr	r5, [r3, #24]
 855              	.LVL52:
 856              	.LBB261:
 857              	.LBB262:
 858              	.LBB263:
 859              	.LBB264:
 860              		.loc 2 548 0
 861 0006 2023     		movs	r3, #32
 862              	@ 548 "/home/peter/ChibiOS_16.1.4/os/ext/CMSIS/include/core_cmFunc.h" 1
 863 0008 83F31188 		MSR basepri, r3
 864              	@ 0 "" 2
 865              		.thumb
 866              	.LBE264:
 867              	.LBE263:
 868              	.LBE262:
 869              	.LBE261:
 870              		.loc 1 418 0
 871 000c 6B6B     		ldr	r3, [r5, #52]
 872              	.LVL53:
 873              		.loc 1 419 0
 874 000e 10EA0304 		ands	r4, r0, r3
 875              	.LVL54:
 876 0012 06D1     		bne	.L59
 877 0014 0446     		mov	r4, r0
 878              	.LVL55:
 879              		.loc 1 420 0
 880 0016 2862     		str	r0, [r5, #32]
 881              		.loc 1 421 0
 882 0018 0A20     		movs	r0, #10
 883              	.LVL56:
 884 001a FFF7FEFF 		bl	chSchGoSleepS
 885              	.LVL57:
 886              		.loc 1 422 0
 887 001e 6B6B     		ldr	r3, [r5, #52]
 888 0020 1C40     		ands	r4, r4, r3
 889              	.LVL58:
 890              	.L59:
 891              		.loc 1 424 0
 892 0022 23EA0403 		bic	r3, r3, r4
 893 0026 6B63     		str	r3, [r5, #52]
 894              	.LVL59:
 895              	.LBB265:
 896              	.LBB266:
 897              	.LBB267:
 898              	.LBB268:
 899              	.LBB269:
 900              		.loc 2 548 0
 901 0028 0023     		movs	r3, #0
ARM GAS  /tmp/cccCl0FV.s 			page 17


 902              	@ 548 "/home/peter/ChibiOS_16.1.4/os/ext/CMSIS/include/core_cmFunc.h" 1
 903 002a 83F31188 		MSR basepri, r3
 904              	@ 0 "" 2
 905              		.thumb
 906              	.LBE269:
 907              	.LBE268:
 908              	.LBE267:
 909              	.LBE266:
 910              	.LBE265:
 911              		.loc 1 428 0
 912 002e 2046     		mov	r0, r4
 913 0030 38BD     		pop	{r3, r4, r5, pc}
 914              	.LVL60:
 915              	.L62:
 916 0032 00BF     		.align	2
 917              	.L61:
 918 0034 00000000 		.word	ch
 919              		.cfi_endproc
 920              	.LFE182:
 921              		.size	chEvtWaitAny, .-chEvtWaitAny
 922 0038 AFF30080 		.section	.text.chEvtWaitAll,"ax",%progbits
 922      AFF30080 
 923              		.align	2
 924              		.p2align 4,,15
 925              		.global	chEvtWaitAll
 926              		.thumb
 927              		.thumb_func
 928              		.type	chEvtWaitAll, %function
 929              	chEvtWaitAll:
 930              	.LFB183:
 931              		.loc 1 441 0
 932              		.cfi_startproc
 933              		@ args = 0, pretend = 0, frame = 0
 934              		@ frame_needed = 0, uses_anonymous_args = 0
 935              	.LVL61:
 936 0000 38B5     		push	{r3, r4, r5, lr}
 937              		.cfi_def_cfa_offset 16
 938              		.cfi_offset 3, -16
 939              		.cfi_offset 4, -12
 940              		.cfi_offset 5, -8
 941              		.cfi_offset 14, -4
 942              		.loc 1 442 0
 943 0002 0C4B     		ldr	r3, .L66
 944              		.loc 1 441 0
 945 0004 0446     		mov	r4, r0
 946              		.loc 1 442 0
 947 0006 9D69     		ldr	r5, [r3, #24]
 948              	.LVL62:
 949              	.LBB270:
 950              	.LBB271:
 951              	.LBB272:
 952              	.LBB273:
 953              		.loc 2 548 0
 954 0008 2023     		movs	r3, #32
 955              	@ 548 "/home/peter/ChibiOS_16.1.4/os/ext/CMSIS/include/core_cmFunc.h" 1
 956 000a 83F31188 		MSR basepri, r3
 957              	@ 0 "" 2
ARM GAS  /tmp/cccCl0FV.s 			page 18


 958              		.thumb
 959              	.LBE273:
 960              	.LBE272:
 961              	.LBE271:
 962              	.LBE270:
 963              		.loc 1 445 0
 964 000e 6B6B     		ldr	r3, [r5, #52]
 965 0010 00EA0302 		and	r2, r0, r3
 966 0014 8242     		cmp	r2, r0
 967 0016 04D0     		beq	.L64
 968              		.loc 1 446 0
 969 0018 2862     		str	r0, [r5, #32]
 970              		.loc 1 447 0
 971 001a 0B20     		movs	r0, #11
 972              	.LVL63:
 973 001c FFF7FEFF 		bl	chSchGoSleepS
 974              	.LVL64:
 975 0020 6B6B     		ldr	r3, [r5, #52]
 976              	.L64:
 977              		.loc 1 449 0
 978 0022 23EA0403 		bic	r3, r3, r4
 979 0026 6B63     		str	r3, [r5, #52]
 980              	.LVL65:
 981              	.LBB274:
 982              	.LBB275:
 983              	.LBB276:
 984              	.LBB277:
 985              	.LBB278:
 986              		.loc 2 548 0
 987 0028 0023     		movs	r3, #0
 988              	@ 548 "/home/peter/ChibiOS_16.1.4/os/ext/CMSIS/include/core_cmFunc.h" 1
 989 002a 83F31188 		MSR basepri, r3
 990              	@ 0 "" 2
 991              		.thumb
 992              	.LBE278:
 993              	.LBE277:
 994              	.LBE276:
 995              	.LBE275:
 996              	.LBE274:
 997              		.loc 1 453 0
 998 002e 2046     		mov	r0, r4
 999 0030 38BD     		pop	{r3, r4, r5, pc}
 1000              	.LVL66:
 1001              	.L67:
 1002 0032 00BF     		.align	2
 1003              	.L66:
 1004 0034 00000000 		.word	ch
 1005              		.cfi_endproc
 1006              	.LFE183:
 1007              		.size	chEvtWaitAll, .-chEvtWaitAll
 1008 0038 AFF30080 		.section	.text.chEvtWaitOneTimeout,"ax",%progbits
 1008      AFF30080 
 1009              		.align	2
 1010              		.p2align 4,,15
 1011              		.global	chEvtWaitOneTimeout
 1012              		.thumb
 1013              		.thumb_func
ARM GAS  /tmp/cccCl0FV.s 			page 19


 1014              		.type	chEvtWaitOneTimeout, %function
 1015              	chEvtWaitOneTimeout:
 1016              	.LFB184:
 1017              		.loc 1 479 0
 1018              		.cfi_startproc
 1019              		@ args = 0, pretend = 0, frame = 0
 1020              		@ frame_needed = 0, uses_anonymous_args = 0
 1021              	.LVL67:
 1022              		.loc 1 480 0
 1023 0000 124B     		ldr	r3, .L75
 1024              		.loc 1 479 0
 1025 0002 70B5     		push	{r4, r5, r6, lr}
 1026              		.cfi_def_cfa_offset 16
 1027              		.cfi_offset 4, -16
 1028              		.cfi_offset 5, -12
 1029              		.cfi_offset 6, -8
 1030              		.cfi_offset 14, -4
 1031              	.LBB279:
 1032              	.LBB280:
 1033              	.LBB281:
 1034              	.LBB282:
 1035              		.loc 2 548 0
 1036 0004 2022     		movs	r2, #32
 1037              	.LBE282:
 1038              	.LBE281:
 1039              	.LBE280:
 1040              	.LBE279:
 1041              		.loc 1 480 0
 1042 0006 9D69     		ldr	r5, [r3, #24]
 1043              	.LVL68:
 1044              	.LBB286:
 1045              	.LBB285:
 1046              	.LBB284:
 1047              	.LBB283:
 1048              		.loc 2 548 0
 1049              	@ 548 "/home/peter/ChibiOS_16.1.4/os/ext/CMSIS/include/core_cmFunc.h" 1
 1050 0008 82F31188 		MSR basepri, r2
 1051              	@ 0 "" 2
 1052              		.thumb
 1053              	.LBE283:
 1054              	.LBE284:
 1055              	.LBE285:
 1056              	.LBE286:
 1057              		.loc 1 484 0
 1058 000c 6A6B     		ldr	r2, [r5, #52]
 1059              	.LVL69:
 1060              		.loc 1 485 0
 1061 000e 10EA0206 		ands	r6, r0, r2
 1062              	.LVL70:
 1063 0012 0ED1     		bne	.L69
 1064              		.loc 1 486 0
 1065 0014 19B9     		cbnz	r1, .L70
 1066              	.LVL71:
 1067              	.LBB287:
 1068              	.LBB288:
 1069              	.LBB289:
 1070              	.LBB290:
ARM GAS  /tmp/cccCl0FV.s 			page 20


 1071              	.LBB291:
 1072              		.loc 2 548 0
 1073              	@ 548 "/home/peter/ChibiOS_16.1.4/os/ext/CMSIS/include/core_cmFunc.h" 1
 1074 0016 81F31188 		MSR basepri, r1
 1075              	@ 0 "" 2
 1076              		.thumb
 1077              	.LBE291:
 1078              	.LBE290:
 1079              	.LBE289:
 1080              	.LBE288:
 1081              	.LBE287:
 1082              		.loc 1 488 0
 1083 001a 0846     		mov	r0, r1
 1084              	.LVL72:
 1085 001c 70BD     		pop	{r4, r5, r6, pc}
 1086              	.LVL73:
 1087              	.L70:
 1088              		.loc 1 490 0
 1089 001e 2862     		str	r0, [r5, #32]
 1090 0020 0446     		mov	r4, r0
 1091              		.loc 1 491 0
 1092 0022 0A20     		movs	r0, #10
 1093              	.LVL74:
 1094 0024 FFF7FEFF 		bl	chSchGoSleepTimeoutS
 1095              	.LVL75:
 1096 0028 0028     		cmp	r0, #0
 1097 002a 0BDB     		blt	.L74
 1098              		.loc 1 495 0
 1099 002c 6A6B     		ldr	r2, [r5, #52]
 1100 002e 04EA0206 		and	r6, r4, r2
 1101              	.LVL76:
 1102              	.L69:
 1103              		.loc 1 497 0
 1104 0032 7042     		negs	r0, r6
 1105 0034 3040     		ands	r0, r0, r6
 1106              	.LVL77:
 1107              		.loc 1 498 0
 1108 0036 22EA0002 		bic	r2, r2, r0
 1109 003a 6A63     		str	r2, [r5, #52]
 1110              	.LVL78:
 1111              	.LBB292:
 1112              	.LBB293:
 1113              	.LBB294:
 1114              	.LBB295:
 1115              	.LBB296:
 1116              		.loc 2 548 0
 1117 003c 0023     		movs	r3, #0
 1118              	@ 548 "/home/peter/ChibiOS_16.1.4/os/ext/CMSIS/include/core_cmFunc.h" 1
 1119 003e 83F31188 		MSR basepri, r3
 1120              	@ 0 "" 2
 1121              		.thumb
 1122              	.LBE296:
 1123              	.LBE295:
 1124              	.LBE294:
 1125              	.LBE293:
 1126              	.LBE292:
 1127              		.loc 1 502 0
ARM GAS  /tmp/cccCl0FV.s 			page 21


 1128 0042 70BD     		pop	{r4, r5, r6, pc}
 1129              	.LVL79:
 1130              	.L74:
 1131              	.LBB297:
 1132              	.LBB298:
 1133              	.LBB299:
 1134              	.LBB300:
 1135              	.LBB301:
 1136              		.loc 2 548 0
 1137              	@ 548 "/home/peter/ChibiOS_16.1.4/os/ext/CMSIS/include/core_cmFunc.h" 1
 1138 0044 86F31188 		MSR basepri, r6
 1139              	@ 0 "" 2
 1140              		.thumb
 1141              	.LBE301:
 1142              	.LBE300:
 1143              	.LBE299:
 1144              	.LBE298:
 1145              	.LBE297:
 1146              		.loc 1 493 0
 1147 0048 3046     		mov	r0, r6
 1148 004a 70BD     		pop	{r4, r5, r6, pc}
 1149              	.LVL80:
 1150              	.L76:
 1151              		.align	2
 1152              	.L75:
 1153 004c 00000000 		.word	ch
 1154              		.cfi_endproc
 1155              	.LFE184:
 1156              		.size	chEvtWaitOneTimeout, .-chEvtWaitOneTimeout
 1157              		.section	.text.chEvtWaitAnyTimeout,"ax",%progbits
 1158              		.align	2
 1159              		.p2align 4,,15
 1160              		.global	chEvtWaitAnyTimeout
 1161              		.thumb
 1162              		.thumb_func
 1163              		.type	chEvtWaitAnyTimeout, %function
 1164              	chEvtWaitAnyTimeout:
 1165              	.LFB185:
 1166              		.loc 1 522 0
 1167              		.cfi_startproc
 1168              		@ args = 0, pretend = 0, frame = 0
 1169              		@ frame_needed = 0, uses_anonymous_args = 0
 1170              	.LVL81:
 1171              		.loc 1 523 0
 1172 0000 124B     		ldr	r3, .L84
 1173              		.loc 1 522 0
 1174 0002 70B5     		push	{r4, r5, r6, lr}
 1175              		.cfi_def_cfa_offset 16
 1176              		.cfi_offset 4, -16
 1177              		.cfi_offset 5, -12
 1178              		.cfi_offset 6, -8
 1179              		.cfi_offset 14, -4
 1180              		.loc 1 523 0
 1181 0004 9E69     		ldr	r6, [r3, #24]
 1182              	.LVL82:
 1183              	.LBB302:
 1184              	.LBB303:
ARM GAS  /tmp/cccCl0FV.s 			page 22


 1185              	.LBB304:
 1186              	.LBB305:
 1187              		.loc 2 548 0
 1188 0006 2023     		movs	r3, #32
 1189              	@ 548 "/home/peter/ChibiOS_16.1.4/os/ext/CMSIS/include/core_cmFunc.h" 1
 1190 0008 83F31188 		MSR basepri, r3
 1191              	@ 0 "" 2
 1192              		.thumb
 1193              	.LBE305:
 1194              	.LBE304:
 1195              	.LBE303:
 1196              	.LBE302:
 1197              		.loc 1 527 0
 1198 000c 736B     		ldr	r3, [r6, #52]
 1199              	.LVL83:
 1200              		.loc 1 528 0
 1201 000e 10EA0304 		ands	r4, r0, r3
 1202              	.LVL84:
 1203 0012 0ED1     		bne	.L78
 1204              		.loc 1 529 0
 1205 0014 19B9     		cbnz	r1, .L79
 1206              	.LVL85:
 1207              	.LBB306:
 1208              	.LBB307:
 1209              	.LBB308:
 1210              	.LBB309:
 1211              	.LBB310:
 1212              		.loc 2 548 0
 1213              	@ 548 "/home/peter/ChibiOS_16.1.4/os/ext/CMSIS/include/core_cmFunc.h" 1
 1214 0016 81F31188 		MSR basepri, r1
 1215              	@ 0 "" 2
 1216              		.thumb
 1217              	.LBE310:
 1218              	.LBE309:
 1219              	.LBE308:
 1220              	.LBE307:
 1221              	.LBE306:
 1222              		.loc 1 531 0
 1223 001a 0846     		mov	r0, r1
 1224              	.LVL86:
 1225 001c 70BD     		pop	{r4, r5, r6, pc}
 1226              	.LVL87:
 1227              	.L79:
 1228              		.loc 1 533 0
 1229 001e 3062     		str	r0, [r6, #32]
 1230 0020 0546     		mov	r5, r0
 1231              		.loc 1 534 0
 1232 0022 0A20     		movs	r0, #10
 1233              	.LVL88:
 1234 0024 FFF7FEFF 		bl	chSchGoSleepTimeoutS
 1235              	.LVL89:
 1236 0028 0028     		cmp	r0, #0
 1237 002a 0ADB     		blt	.L83
 1238              		.loc 1 538 0
 1239 002c 736B     		ldr	r3, [r6, #52]
 1240 002e 05EA0304 		and	r4, r5, r3
 1241              	.LVL90:
ARM GAS  /tmp/cccCl0FV.s 			page 23


 1242              	.L78:
 1243              		.loc 1 540 0
 1244 0032 23EA0403 		bic	r3, r3, r4
 1245 0036 7363     		str	r3, [r6, #52]
 1246              	.LVL91:
 1247              	.LBB311:
 1248              	.LBB312:
 1249              	.LBB313:
 1250              	.LBB314:
 1251              	.LBB315:
 1252              		.loc 2 548 0
 1253 0038 0023     		movs	r3, #0
 1254              	@ 548 "/home/peter/ChibiOS_16.1.4/os/ext/CMSIS/include/core_cmFunc.h" 1
 1255 003a 83F31188 		MSR basepri, r3
 1256              	@ 0 "" 2
 1257              		.thumb
 1258              	.LBE315:
 1259              	.LBE314:
 1260              	.LBE313:
 1261              	.LBE312:
 1262              	.LBE311:
 1263              		.loc 1 543 0
 1264 003e 2046     		mov	r0, r4
 1265              		.loc 1 544 0
 1266 0040 70BD     		pop	{r4, r5, r6, pc}
 1267              	.LVL92:
 1268              	.L83:
 1269              	.LBB316:
 1270              	.LBB317:
 1271              	.LBB318:
 1272              	.LBB319:
 1273              	.LBB320:
 1274              		.loc 2 548 0
 1275              	@ 548 "/home/peter/ChibiOS_16.1.4/os/ext/CMSIS/include/core_cmFunc.h" 1
 1276 0042 84F31188 		MSR basepri, r4
 1277              	@ 0 "" 2
 1278              		.thumb
 1279              	.LBE320:
 1280              	.LBE319:
 1281              	.LBE318:
 1282              	.LBE317:
 1283              	.LBE316:
 1284              		.loc 1 536 0
 1285 0046 2046     		mov	r0, r4
 1286 0048 70BD     		pop	{r4, r5, r6, pc}
 1287              	.LVL93:
 1288              	.L85:
 1289 004a 00BF     		.align	2
 1290              	.L84:
 1291 004c 00000000 		.word	ch
 1292              		.cfi_endproc
 1293              	.LFE185:
 1294              		.size	chEvtWaitAnyTimeout, .-chEvtWaitAnyTimeout
 1295              		.section	.text.chEvtWaitAllTimeout,"ax",%progbits
 1296              		.align	2
 1297              		.p2align 4,,15
 1298              		.global	chEvtWaitAllTimeout
ARM GAS  /tmp/cccCl0FV.s 			page 24


 1299              		.thumb
 1300              		.thumb_func
 1301              		.type	chEvtWaitAllTimeout, %function
 1302              	chEvtWaitAllTimeout:
 1303              	.LFB186:
 1304              		.loc 1 563 0
 1305              		.cfi_startproc
 1306              		@ args = 0, pretend = 0, frame = 0
 1307              		@ frame_needed = 0, uses_anonymous_args = 0
 1308              	.LVL94:
 1309 0000 38B5     		push	{r3, r4, r5, lr}
 1310              		.cfi_def_cfa_offset 16
 1311              		.cfi_offset 3, -16
 1312              		.cfi_offset 4, -12
 1313              		.cfi_offset 5, -8
 1314              		.cfi_offset 14, -4
 1315              		.loc 1 564 0
 1316 0002 104B     		ldr	r3, .L94
 1317              		.loc 1 563 0
 1318 0004 0446     		mov	r4, r0
 1319              		.loc 1 564 0
 1320 0006 9D69     		ldr	r5, [r3, #24]
 1321              	.LVL95:
 1322              	.LBB321:
 1323              	.LBB322:
 1324              	.LBB323:
 1325              	.LBB324:
 1326              		.loc 2 548 0
 1327 0008 2023     		movs	r3, #32
 1328              	@ 548 "/home/peter/ChibiOS_16.1.4/os/ext/CMSIS/include/core_cmFunc.h" 1
 1329 000a 83F31188 		MSR basepri, r3
 1330              	@ 0 "" 2
 1331              		.thumb
 1332              	.LBE324:
 1333              	.LBE323:
 1334              	.LBE322:
 1335              	.LBE321:
 1336              		.loc 1 567 0
 1337 000e 6B6B     		ldr	r3, [r5, #52]
 1338 0010 00EA0302 		and	r2, r0, r3
 1339 0014 8242     		cmp	r2, r0
 1340 0016 0BD0     		beq	.L87
 1341 0018 0846     		mov	r0, r1
 1342              	.LVL96:
 1343              		.loc 1 568 0
 1344 001a 11B9     		cbnz	r1, .L93
 1345              	.LVL97:
 1346              	.L92:
 1347              	.LBB325:
 1348              	.LBB326:
 1349              	.LBB327:
 1350              	.LBB328:
 1351              	.LBB329:
 1352              		.loc 2 548 0
 1353              	@ 548 "/home/peter/ChibiOS_16.1.4/os/ext/CMSIS/include/core_cmFunc.h" 1
 1354 001c 80F31188 		MSR basepri, r0
 1355              	@ 0 "" 2
ARM GAS  /tmp/cccCl0FV.s 			page 25


 1356              		.thumb
 1357              	.LBE329:
 1358              	.LBE328:
 1359              	.LBE327:
 1360              	.LBE326:
 1361              	.LBE325:
 1362              		.loc 1 575 0
 1363 0020 38BD     		pop	{r3, r4, r5, pc}
 1364              	.LVL98:
 1365              	.L93:
 1366              		.loc 1 572 0
 1367 0022 2C62     		str	r4, [r5, #32]
 1368              		.loc 1 573 0
 1369 0024 0B20     		movs	r0, #11
 1370              	.LVL99:
 1371 0026 FFF7FEFF 		bl	chSchGoSleepTimeoutS
 1372              	.LVL100:
 1373 002a 0028     		cmp	r0, #0
 1374 002c 08DB     		blt	.L90
 1375 002e 6B6B     		ldr	r3, [r5, #52]
 1376              	.L87:
 1377              		.loc 1 578 0
 1378 0030 23EA0403 		bic	r3, r3, r4
 1379 0034 6B63     		str	r3, [r5, #52]
 1380              	.LVL101:
 1381              	.LBB334:
 1382              	.LBB335:
 1383              	.LBB336:
 1384              	.LBB337:
 1385              	.LBB338:
 1386              		.loc 2 548 0
 1387 0036 0023     		movs	r3, #0
 1388              	@ 548 "/home/peter/ChibiOS_16.1.4/os/ext/CMSIS/include/core_cmFunc.h" 1
 1389 0038 83F31188 		MSR basepri, r3
 1390              	@ 0 "" 2
 1391              		.thumb
 1392              	.LBE338:
 1393              	.LBE337:
 1394              	.LBE336:
 1395              	.LBE335:
 1396              	.LBE334:
 1397              		.loc 1 581 0
 1398 003c 2046     		mov	r0, r4
 1399              		.loc 1 582 0
 1400 003e 38BD     		pop	{r3, r4, r5, pc}
 1401              	.LVL102:
 1402              	.L90:
 1403              	.LBB339:
 1404              	.LBB333:
 1405              	.LBB332:
 1406              	.LBB331:
 1407              	.LBB330:
 1408              		.loc 2 548 0
 1409 0040 0020     		movs	r0, #0
 1410 0042 EBE7     		b	.L92
 1411              	.L95:
 1412              		.align	2
ARM GAS  /tmp/cccCl0FV.s 			page 26


 1413              	.L94:
 1414 0044 00000000 		.word	ch
 1415              	.LBE330:
 1416              	.LBE331:
 1417              	.LBE332:
 1418              	.LBE333:
 1419              	.LBE339:
 1420              		.cfi_endproc
 1421              	.LFE186:
 1422              		.size	chEvtWaitAllTimeout, .-chEvtWaitAllTimeout
 1423 0048 AFF30080 		.text
 1423      AFF30080 
 1424              	.Letext0:
 1425              		.file 3 "/usr/include/newlib/machine/_default_types.h"
 1426              		.file 4 "/usr/include/newlib/stdint.h"
 1427              		.file 5 "/home/peter/ChibiOS_16.1.4/os/rt/ports/ARMCMx/compilers/GCC/chtypes.h"
 1428              		.file 6 "/home/peter/ChibiOS_16.1.4/os/rt/include/chsystypes.h"
 1429              		.file 7 "/home/peter/ChibiOS_16.1.4/os/rt/include/chschd.h"
 1430              		.file 8 "/home/peter/ChibiOS_16.1.4/os/rt/ports/ARMCMx/chcore.h"
 1431              		.file 9 "/home/peter/ChibiOS_16.1.4/os/rt/ports/ARMCMx/chcore_v7m.h"
 1432              		.file 10 "/home/peter/ChibiOS_16.1.4/os/rt/include/chtm.h"
 1433              		.file 11 "/home/peter/ChibiOS_16.1.4/os/rt/include/chsem.h"
 1434              		.file 12 "/home/peter/ChibiOS_16.1.4/os/rt/include/chmtx.h"
 1435              		.file 13 "/home/peter/ChibiOS_16.1.4/os/rt/include/chevents.h"
 1436              		.file 14 "/home/peter/ChibiOS_16.1.4/os/rt/include/chsys.h"
 1437              		.file 15 "/home/peter/ChibiOS_16.1.4/os/ext/CMSIS/include/core_cm3.h"