ARM GAS  /tmp/ccw8nbVQ.s 			page 1


   1              		.syntax unified
   2              		.cpu cortex-m3
   3              		.fpu softvfp
   4              		.eabi_attribute 20, 1
   5              		.eabi_attribute 21, 1
   6              		.eabi_attribute 23, 3
   7              		.eabi_attribute 24, 1
   8              		.eabi_attribute 25, 1
   9              		.eabi_attribute 26, 1
  10              		.eabi_attribute 30, 2
  11              		.eabi_attribute 34, 1
  12              		.eabi_attribute 18, 4
  13              		.thumb
  14              		.file	"chmempools.c"
  15              		.text
  16              	.Ltext0:
  17              		.cfi_sections	.debug_frame
  18              		.section	.text.chPoolObjectInit,"ax",%progbits
  19              		.align	2
  20              		.p2align 4,,15
  21              		.global	chPoolObjectInit
  22              		.thumb
  23              		.thumb_func
  24              		.type	chPoolObjectInit, %function
  25              	chPoolObjectInit:
  26              	.LFB170:
  27              		.file 1 "/home/peter/ChibiOS_16.1.4/os/rt/src/chmempools.c"
  28              		.loc 1 75 0
  29              		.cfi_startproc
  30              		@ args = 0, pretend = 0, frame = 0
  31              		@ frame_needed = 0, uses_anonymous_args = 0
  32              		@ link register save eliminated.
  33              	.LVL0:
  34              		.loc 1 79 0
  35 0000 0023     		movs	r3, #0
  36              		.loc 1 80 0
  37 0002 4160     		str	r1, [r0, #4]
  38              		.loc 1 81 0
  39 0004 8260     		str	r2, [r0, #8]
  40              		.loc 1 79 0
  41 0006 0360     		str	r3, [r0]
  42 0008 7047     		bx	lr
  43              		.cfi_endproc
  44              	.LFE170:
  45              		.size	chPoolObjectInit, .-chPoolObjectInit
  46 000a 00BFAFF3 		.section	.text.chPoolLoadArray,"ax",%progbits
  46      0080
  47              		.align	2
  48              		.p2align 4,,15
  49              		.global	chPoolLoadArray
  50              		.thumb
  51              		.thumb_func
  52              		.type	chPoolLoadArray, %function
  53              	chPoolLoadArray:
  54              	.LFB171:
  55              		.loc 1 97 0
  56              		.cfi_startproc
ARM GAS  /tmp/ccw8nbVQ.s 			page 2


  57              		@ args = 0, pretend = 0, frame = 0
  58              		@ frame_needed = 0, uses_anonymous_args = 0
  59              		@ link register save eliminated.
  60              	.LVL1:
  61              		.loc 1 101 0
  62 0000 72B1     		cbz	r2, .L9
  63              		.loc 1 97 0
  64 0002 30B4     		push	{r4, r5}
  65              		.cfi_def_cfa_offset 8
  66              		.cfi_offset 4, -8
  67              		.cfi_offset 5, -4
  68              	.LBB77:
  69              	.LBB78:
  70              	.LBB79:
  71              	.LBB80:
  72              	.LBB81:
  73              	.LBB82:
  74              		.file 2 "/home/peter/ChibiOS_16.1.4/os/ext/CMSIS/include/core_cmFunc.h"
  75              		.loc 2 548 0
  76 0004 2025     		movs	r5, #32
  77              	.LBE82:
  78              	.LBE81:
  79              	.LBE80:
  80              	.LBE79:
  81              	.LBB86:
  82              	.LBB87:
  83              	.LBB88:
  84              	.LBB89:
  85              	.LBB90:
  86 0006 0024     		movs	r4, #0
  87              	.LVL2:
  88              	.L4:
  89              	.LBE90:
  90              	.LBE89:
  91              	.LBE88:
  92              	.LBE87:
  93              	.LBE86:
  94              	.LBB95:
  95              	.LBB85:
  96              	.LBB84:
  97              	.LBB83:
  98              	@ 548 "/home/peter/ChibiOS_16.1.4/os/ext/CMSIS/include/core_cmFunc.h" 1
  99 0008 85F31188 		MSR basepri, r5
 100              	@ 0 "" 2
 101              	.LVL3:
 102              		.thumb
 103              	.LBE83:
 104              	.LBE84:
 105              	.LBE85:
 106              	.LBE95:
 107              	.LBB96:
 108              	.LBB97:
 109              		.loc 1 177 0
 110 000c 0368     		ldr	r3, [r0]
 111 000e 0B60     		str	r3, [r1]
 112              		.loc 1 178 0
 113 0010 0160     		str	r1, [r0]
ARM GAS  /tmp/ccw8nbVQ.s 			page 3


 114              	.LVL4:
 115              	.LBE97:
 116              	.LBE96:
 117              	.LBB98:
 118              	.LBB94:
 119              	.LBB93:
 120              	.LBB92:
 121              	.LBB91:
 122              		.loc 2 548 0
 123              	@ 548 "/home/peter/ChibiOS_16.1.4/os/ext/CMSIS/include/core_cmFunc.h" 1
 124 0012 84F31188 		MSR basepri, r4
 125              	@ 0 "" 2
 126              		.thumb
 127              	.LBE91:
 128              	.LBE92:
 129              	.LBE93:
 130              	.LBE94:
 131              	.LBE98:
 132              	.LBE78:
 133              	.LBE77:
 134              		.loc 1 104 0
 135 0016 4368     		ldr	r3, [r0, #4]
 136              		.loc 1 101 0
 137 0018 013A     		subs	r2, r2, #1
 138              	.LVL5:
 139              		.loc 1 104 0
 140 001a 1944     		add	r1, r1, r3
 141              	.LVL6:
 142              		.loc 1 101 0
 143 001c F4D1     		bne	.L4
 144              		.loc 1 108 0
 145 001e 30BC     		pop	{r4, r5}
 146              		.cfi_restore 5
 147              		.cfi_restore 4
 148              		.cfi_def_cfa_offset 0
 149              	.LVL7:
 150              	.L9:
 151 0020 7047     		bx	lr
 152              		.cfi_endproc
 153              	.LFE171:
 154              		.size	chPoolLoadArray, .-chPoolLoadArray
 155 0022 00BFAFF3 		.section	.text.chPoolAllocI,"ax",%progbits
 155      0080AFF3 
 155      0080AFF3 
 155      0080
 156              		.align	2
 157              		.p2align 4,,15
 158              		.global	chPoolAllocI
 159              		.thumb
 160              		.thumb_func
 161              		.type	chPoolAllocI, %function
 162              	chPoolAllocI:
 163              	.LFB172:
 164              		.loc 1 120 0
 165              		.cfi_startproc
 166              		@ args = 0, pretend = 0, frame = 0
 167              		@ frame_needed = 0, uses_anonymous_args = 0
ARM GAS  /tmp/ccw8nbVQ.s 			page 4


 168              		@ link register save eliminated.
 169              	.LVL8:
 170              		.loc 1 126 0
 171 0000 0368     		ldr	r3, [r0]
 172              	.LVL9:
 173              		.loc 1 128 0
 174 0002 1BB1     		cbz	r3, .L12
 175              		.loc 1 129 0
 176 0004 1A68     		ldr	r2, [r3]
 177 0006 0260     		str	r2, [r0]
 178              	.L13:
 179              		.loc 1 137 0
 180 0008 1846     		mov	r0, r3
 181              	.LVL10:
 182 000a 7047     		bx	lr
 183              	.LVL11:
 184              	.L12:
 185              		.loc 1 131 0
 186 000c 8268     		ldr	r2, [r0, #8]
 187 000e 002A     		cmp	r2, #0
 188 0010 FAD0     		beq	.L13
 189              		.loc 1 132 0
 190 0012 4068     		ldr	r0, [r0, #4]
 191              	.LVL12:
 192 0014 1047     		bx	r2
 193              	.LVL13:
 194              		.cfi_endproc
 195              	.LFE172:
 196              		.size	chPoolAllocI, .-chPoolAllocI
 197 0016 00BFAFF3 		.section	.text.chPoolAlloc,"ax",%progbits
 197      0080AFF3 
 197      0080
 198              		.align	2
 199              		.p2align 4,,15
 200              		.global	chPoolAlloc
 201              		.thumb
 202              		.thumb_func
 203              		.type	chPoolAlloc, %function
 204              	chPoolAlloc:
 205              	.LFB173:
 206              		.loc 1 149 0
 207              		.cfi_startproc
 208              		@ args = 0, pretend = 0, frame = 0
 209              		@ frame_needed = 0, uses_anonymous_args = 0
 210              	.LVL14:
 211 0000 08B5     		push	{r3, lr}
 212              		.cfi_def_cfa_offset 8
 213              		.cfi_offset 3, -8
 214              		.cfi_offset 14, -4
 215              	.LBB99:
 216              	.LBB100:
 217              	.LBB101:
 218              	.LBB102:
 219              		.loc 2 548 0
 220 0002 2022     		movs	r2, #32
 221              	.LBE102:
 222              	.LBE101:
ARM GAS  /tmp/ccw8nbVQ.s 			page 5


 223              	.LBE100:
 224              	.LBE99:
 225              		.loc 1 149 0
 226 0004 0346     		mov	r3, r0
 227              	.LBB106:
 228              	.LBB105:
 229              	.LBB104:
 230              	.LBB103:
 231              		.loc 2 548 0
 232              	@ 548 "/home/peter/ChibiOS_16.1.4/os/ext/CMSIS/include/core_cmFunc.h" 1
 233 0006 82F31188 		MSR basepri, r2
 234              	@ 0 "" 2
 235              	.LVL15:
 236              		.thumb
 237              	.LBE103:
 238              	.LBE104:
 239              	.LBE105:
 240              	.LBE106:
 241              	.LBB107:
 242              	.LBB108:
 243              		.loc 1 126 0
 244 000a 0068     		ldr	r0, [r0]
 245              	.LVL16:
 246              		.loc 1 128 0
 247 000c 28B1     		cbz	r0, .L18
 248              		.loc 1 129 0
 249 000e 0268     		ldr	r2, [r0]
 250 0010 1A60     		str	r2, [r3]
 251              	.L19:
 252              	.LVL17:
 253              	.LBE108:
 254              	.LBE107:
 255              	.LBB110:
 256              	.LBB111:
 257              	.LBB112:
 258              	.LBB113:
 259              	.LBB114:
 260              		.loc 2 548 0
 261 0012 0023     		movs	r3, #0
 262              	.LVL18:
 263              	@ 548 "/home/peter/ChibiOS_16.1.4/os/ext/CMSIS/include/core_cmFunc.h" 1
 264 0014 83F31188 		MSR basepri, r3
 265              	@ 0 "" 2
 266              		.thumb
 267              	.LBE114:
 268              	.LBE113:
 269              	.LBE112:
 270              	.LBE111:
 271              	.LBE110:
 272              		.loc 1 157 0
 273 0018 08BD     		pop	{r3, pc}
 274              	.LVL19:
 275              	.L18:
 276              	.LBB119:
 277              	.LBB109:
 278              		.loc 1 131 0
 279 001a 9A68     		ldr	r2, [r3, #8]
ARM GAS  /tmp/ccw8nbVQ.s 			page 6


 280 001c 002A     		cmp	r2, #0
 281 001e F8D0     		beq	.L19
 282              		.loc 1 132 0
 283 0020 5868     		ldr	r0, [r3, #4]
 284              	.LVL20:
 285 0022 9047     		blx	r2
 286              	.LVL21:
 287              	.LBE109:
 288              	.LBE119:
 289              	.LBB120:
 290              	.LBB118:
 291              	.LBB117:
 292              	.LBB116:
 293              	.LBB115:
 294              		.loc 2 548 0
 295 0024 0023     		movs	r3, #0
 296              	@ 548 "/home/peter/ChibiOS_16.1.4/os/ext/CMSIS/include/core_cmFunc.h" 1
 297 0026 83F31188 		MSR basepri, r3
 298              	@ 0 "" 2
 299              		.thumb
 300              	.LBE115:
 301              	.LBE116:
 302              	.LBE117:
 303              	.LBE118:
 304              	.LBE120:
 305              		.loc 1 157 0
 306 002a 08BD     		pop	{r3, pc}
 307              		.cfi_endproc
 308              	.LFE173:
 309              		.size	chPoolAlloc, .-chPoolAlloc
 310 002c AFF30080 		.section	.text.chPoolFreeI,"ax",%progbits
 311              		.align	2
 312              		.p2align 4,,15
 313              		.global	chPoolFreeI
 314              		.thumb
 315              		.thumb_func
 316              		.type	chPoolFreeI, %function
 317              	chPoolFreeI:
 318              	.LFB174:
 319              		.loc 1 171 0
 320              		.cfi_startproc
 321              		@ args = 0, pretend = 0, frame = 0
 322              		@ frame_needed = 0, uses_anonymous_args = 0
 323              		@ link register save eliminated.
 324              	.LVL22:
 325              		.loc 1 177 0
 326 0000 0368     		ldr	r3, [r0]
 327 0002 0B60     		str	r3, [r1]
 328              		.loc 1 178 0
 329 0004 0160     		str	r1, [r0]
 330 0006 7047     		bx	lr
 331              		.cfi_endproc
 332              	.LFE174:
 333              		.size	chPoolFreeI, .-chPoolFreeI
 334 0008 AFF30080 		.section	.text.chPoolFree,"ax",%progbits
 334      AFF30080 
 335              		.align	2
ARM GAS  /tmp/ccw8nbVQ.s 			page 7


 336              		.p2align 4,,15
 337              		.global	chPoolFree
 338              		.thumb
 339              		.thumb_func
 340              		.type	chPoolFree, %function
 341              	chPoolFree:
 342              	.LFB175:
 343              		.loc 1 193 0
 344              		.cfi_startproc
 345              		@ args = 0, pretend = 0, frame = 0
 346              		@ frame_needed = 0, uses_anonymous_args = 0
 347              		@ link register save eliminated.
 348              	.LVL23:
 349              	.LBB121:
 350              	.LBB122:
 351              	.LBB123:
 352              	.LBB124:
 353              		.loc 2 548 0
 354 0000 2023     		movs	r3, #32
 355              	@ 548 "/home/peter/ChibiOS_16.1.4/os/ext/CMSIS/include/core_cmFunc.h" 1
 356 0002 83F31188 		MSR basepri, r3
 357              	@ 0 "" 2
 358              	.LVL24:
 359              		.thumb
 360              	.LBE124:
 361              	.LBE123:
 362              	.LBE122:
 363              	.LBE121:
 364              	.LBB125:
 365              	.LBB126:
 366              		.loc 1 177 0
 367 0006 0268     		ldr	r2, [r0]
 368              	.LBE126:
 369              	.LBE125:
 370              	.LBB128:
 371              	.LBB129:
 372              	.LBB130:
 373              	.LBB131:
 374              	.LBB132:
 375              		.loc 2 548 0
 376 0008 0023     		movs	r3, #0
 377              	.LBE132:
 378              	.LBE131:
 379              	.LBE130:
 380              	.LBE129:
 381              	.LBE128:
 382              	.LBB137:
 383              	.LBB127:
 384              		.loc 1 177 0
 385 000a 0A60     		str	r2, [r1]
 386              		.loc 1 178 0
 387 000c 0160     		str	r1, [r0]
 388              	.LVL25:
 389              	.LBE127:
 390              	.LBE137:
 391              	.LBB138:
 392              	.LBB136:
ARM GAS  /tmp/ccw8nbVQ.s 			page 8


 393              	.LBB135:
 394              	.LBB134:
 395              	.LBB133:
 396              		.loc 2 548 0
 397              	@ 548 "/home/peter/ChibiOS_16.1.4/os/ext/CMSIS/include/core_cmFunc.h" 1
 398 000e 83F31188 		MSR basepri, r3
 399              	@ 0 "" 2
 400              		.thumb
 401 0012 7047     		bx	lr
 402              	.LBE133:
 403              	.LBE134:
 404              	.LBE135:
 405              	.LBE136:
 406              	.LBE138:
 407              		.cfi_endproc
 408              	.LFE175:
 409              		.size	chPoolFree, .-chPoolFree
 410 0014 AFF30080 		.text
 410      AFF30080 
 410      AFF30080 
 411              	.Letext0:
 412              		.file 3 "/usr/lib/gcc/arm-none-eabi/4.9.3/include/stddef.h"
 413              		.file 4 "/usr/include/newlib/machine/_default_types.h"
 414              		.file 5 "/usr/include/newlib/stdint.h"
 415              		.file 6 "/home/peter/ChibiOS_16.1.4/os/rt/ports/ARMCMx/compilers/GCC/chtypes.h"
 416              		.file 7 "/home/peter/ChibiOS_16.1.4/os/rt/include/chsystypes.h"
 417              		.file 8 "/home/peter/ChibiOS_16.1.4/os/rt/include/chschd.h"
 418              		.file 9 "/home/peter/ChibiOS_16.1.4/os/rt/ports/ARMCMx/chcore.h"
 419              		.file 10 "/home/peter/ChibiOS_16.1.4/os/rt/ports/ARMCMx/chcore_v7m.h"
 420              		.file 11 "/home/peter/ChibiOS_16.1.4/os/rt/include/chtm.h"
 421              		.file 12 "/home/peter/ChibiOS_16.1.4/os/rt/include/chsem.h"
 422              		.file 13 "/home/peter/ChibiOS_16.1.4/os/rt/include/chmtx.h"
 423              		.file 14 "/home/peter/ChibiOS_16.1.4/os/rt/include/chmemcore.h"
 424              		.file 15 "/home/peter/ChibiOS_16.1.4/os/rt/include/chmempools.h"
 425              		.file 16 "/home/peter/ChibiOS_16.1.4/os/rt/include/chsys.h"
 426              		.file 17 "/home/peter/ChibiOS_16.1.4/os/ext/CMSIS/include/core_cm3.h"
 427              		.section	.debug_info,"",%progbits
 428              	.Ldebug_info0:
 429 0000 D00B0000 		.4byte	0xbd0
 430 0004 0400     		.2byte	0x4
 431 0006 00000000 		.4byte	.Ldebug_abbrev0
 432 000a 04       		.byte	0x4
 433 000b 01       		.uleb128 0x1
 434 000c 4A040000 		.4byte	.LASF128
 435 0010 01       		.byte	0x1
 436 0011 63020000 		.4byte	.LASF129
 437 0015 A8000000 		.4byte	.Ldebug_ranges0+0xa8
 438 0019 00000000 		.4byte	0
 439 001d 00000000 		.4byte	.Ldebug_line0
 440 0021 02       		.uleb128 0x2
 441 0022 04       		.byte	0x4
 442 0023 05       		.byte	0x5
 443 0024 696E7400 		.ascii	"int\000"
 444 0028 03       		.uleb128 0x3
 445 0029 1C000000 		.4byte	.LASF2
 446 002d 03       		.byte	0x3
 447 002e D4       		.byte	0xd4
ARM GAS  /tmp/ccw8nbVQ.s 			page 9


 448 002f 33000000 		.4byte	0x33
 449 0033 04       		.uleb128 0x4
 450 0034 04       		.byte	0x4
 451 0035 07       		.byte	0x7
 452 0036 A7010000 		.4byte	.LASF0
 453 003a 04       		.uleb128 0x4
 454 003b 01       		.byte	0x1
 455 003c 06       		.byte	0x6
 456 003d EC000000 		.4byte	.LASF1
 457 0041 03       		.uleb128 0x3
 458 0042 33000000 		.4byte	.LASF3
 459 0046 04       		.byte	0x4
 460 0047 1D       		.byte	0x1d
 461 0048 4C000000 		.4byte	0x4c
 462 004c 04       		.uleb128 0x4
 463 004d 01       		.byte	0x1
 464 004e 08       		.byte	0x8
 465 004f 7D030000 		.4byte	.LASF4
 466 0053 04       		.uleb128 0x4
 467 0054 02       		.byte	0x2
 468 0055 05       		.byte	0x5
 469 0056 95030000 		.4byte	.LASF5
 470 005a 04       		.uleb128 0x4
 471 005b 02       		.byte	0x2
 472 005c 07       		.byte	0x7
 473 005d E2010000 		.4byte	.LASF6
 474 0061 03       		.uleb128 0x3
 475 0062 4E020000 		.4byte	.LASF7
 476 0066 04       		.byte	0x4
 477 0067 3F       		.byte	0x3f
 478 0068 6C000000 		.4byte	0x6c
 479 006c 04       		.uleb128 0x4
 480 006d 04       		.byte	0x4
 481 006e 05       		.byte	0x5
 482 006f 35010000 		.4byte	.LASF8
 483 0073 03       		.uleb128 0x3
 484 0074 39050000 		.4byte	.LASF9
 485 0078 04       		.byte	0x4
 486 0079 41       		.byte	0x41
 487 007a 7E000000 		.4byte	0x7e
 488 007e 04       		.uleb128 0x4
 489 007f 04       		.byte	0x4
 490 0080 07       		.byte	0x7
 491 0081 38040000 		.4byte	.LASF10
 492 0085 04       		.uleb128 0x4
 493 0086 08       		.byte	0x8
 494 0087 05       		.byte	0x5
 495 0088 DE000000 		.4byte	.LASF11
 496 008c 03       		.uleb128 0x3
 497 008d 2B030000 		.4byte	.LASF12
 498 0091 04       		.byte	0x4
 499 0092 5B       		.byte	0x5b
 500 0093 97000000 		.4byte	0x97
 501 0097 04       		.uleb128 0x4
 502 0098 08       		.byte	0x8
 503 0099 07       		.byte	0x7
 504 009a 78000000 		.4byte	.LASF13
ARM GAS  /tmp/ccw8nbVQ.s 			page 10


 505 009e 03       		.uleb128 0x3
 506 009f B2050000 		.4byte	.LASF14
 507 00a3 05       		.byte	0x5
 508 00a4 15       		.byte	0x15
 509 00a5 41000000 		.4byte	0x41
 510 00a9 03       		.uleb128 0x3
 511 00aa 75030000 		.4byte	.LASF15
 512 00ae 05       		.byte	0x5
 513 00af 2C       		.byte	0x2c
 514 00b0 61000000 		.4byte	0x61
 515 00b4 03       		.uleb128 0x3
 516 00b5 07040000 		.4byte	.LASF16
 517 00b9 05       		.byte	0x5
 518 00ba 2D       		.byte	0x2d
 519 00bb 73000000 		.4byte	0x73
 520 00bf 03       		.uleb128 0x3
 521 00c0 2A000000 		.4byte	.LASF17
 522 00c4 05       		.byte	0x5
 523 00c5 39       		.byte	0x39
 524 00c6 8C000000 		.4byte	0x8c
 525 00ca 03       		.uleb128 0x3
 526 00cb 7A050000 		.4byte	.LASF18
 527 00cf 06       		.byte	0x6
 528 00d0 39       		.byte	0x39
 529 00d1 B4000000 		.4byte	0xb4
 530 00d5 03       		.uleb128 0x3
 531 00d6 1B020000 		.4byte	.LASF19
 532 00da 06       		.byte	0x6
 533 00db 3C       		.byte	0x3c
 534 00dc 9E000000 		.4byte	0x9e
 535 00e0 03       		.uleb128 0x3
 536 00e1 3E010000 		.4byte	.LASF20
 537 00e5 06       		.byte	0x6
 538 00e6 3D       		.byte	0x3d
 539 00e7 9E000000 		.4byte	0x9e
 540 00eb 03       		.uleb128 0x3
 541 00ec 3E030000 		.4byte	.LASF21
 542 00f0 06       		.byte	0x6
 543 00f1 3E       		.byte	0x3e
 544 00f2 9E000000 		.4byte	0x9e
 545 00f6 03       		.uleb128 0x3
 546 00f7 1B010000 		.4byte	.LASF22
 547 00fb 06       		.byte	0x6
 548 00fc 3F       		.byte	0x3f
 549 00fd 9E000000 		.4byte	0x9e
 550 0101 03       		.uleb128 0x3
 551 0102 5D030000 		.4byte	.LASF23
 552 0106 06       		.byte	0x6
 553 0107 40       		.byte	0x40
 554 0108 B4000000 		.4byte	0xb4
 555 010c 03       		.uleb128 0x3
 556 010d FF010000 		.4byte	.LASF24
 557 0111 06       		.byte	0x6
 558 0112 41       		.byte	0x41
 559 0113 A9000000 		.4byte	0xa9
 560 0117 03       		.uleb128 0x3
 561 0118 42020000 		.4byte	.LASF25
ARM GAS  /tmp/ccw8nbVQ.s 			page 11


 562 011c 06       		.byte	0x6
 563 011d 43       		.byte	0x43
 564 011e B4000000 		.4byte	0xb4
 565 0122 03       		.uleb128 0x3
 566 0123 A1010000 		.4byte	.LASF26
 567 0127 06       		.byte	0x6
 568 0128 45       		.byte	0x45
 569 0129 A9000000 		.4byte	0xa9
 570 012d 03       		.uleb128 0x3
 571 012e 1B050000 		.4byte	.LASF27
 572 0132 07       		.byte	0x7
 573 0133 33       		.byte	0x33
 574 0134 B4000000 		.4byte	0xb4
 575 0138 03       		.uleb128 0x3
 576 0139 0B050000 		.4byte	.LASF28
 577 013d 07       		.byte	0x7
 578 013e 3F       		.byte	0x3f
 579 013f 43010000 		.4byte	0x143
 580 0143 05       		.uleb128 0x5
 581 0144 F5010000 		.4byte	.LASF49
 582 0148 44       		.byte	0x44
 583 0149 08       		.byte	0x8
 584 014a C2       		.byte	0xc2
 585 014b 3C020000 		.4byte	0x23c
 586 014f 06       		.uleb128 0x6
 587 0150 BF030000 		.4byte	.LASF29
 588 0154 08       		.byte	0x8
 589 0155 C3       		.byte	0xc3
 590 0156 47020000 		.4byte	0x247
 591 015a 00       		.byte	0
 592 015b 06       		.uleb128 0x6
 593 015c 56030000 		.4byte	.LASF30
 594 0160 08       		.byte	0x8
 595 0161 C5       		.byte	0xc5
 596 0162 47020000 		.4byte	0x247
 597 0166 04       		.byte	0x4
 598 0167 06       		.uleb128 0x6
 599 0168 D7000000 		.4byte	.LASF31
 600 016c 08       		.byte	0x8
 601 016d C7       		.byte	0xc7
 602 016e 01010000 		.4byte	0x101
 603 0172 08       		.byte	0x8
 604 0173 06       		.uleb128 0x6
 605 0174 1B060000 		.4byte	.LASF32
 606 0178 08       		.byte	0x8
 607 0179 C8       		.byte	0xc8
 608 017a 77040000 		.4byte	0x477
 609 017e 0C       		.byte	0xc
 610 017f 06       		.uleb128 0x6
 611 0180 4F010000 		.4byte	.LASF33
 612 0184 08       		.byte	0x8
 613 0185 CA       		.byte	0xca
 614 0186 47020000 		.4byte	0x247
 615 018a 10       		.byte	0x10
 616 018b 06       		.uleb128 0x6
 617 018c EB020000 		.4byte	.LASF34
 618 0190 08       		.byte	0x8
ARM GAS  /tmp/ccw8nbVQ.s 			page 12


 619 0191 CB       		.byte	0xcb
 620 0192 47020000 		.4byte	0x247
 621 0196 14       		.byte	0x14
 622 0197 06       		.uleb128 0x6
 623 0198 D8050000 		.4byte	.LASF35
 624 019c 08       		.byte	0x8
 625 019d D2       		.byte	0xd2
 626 019e F6050000 		.4byte	0x5f6
 627 01a2 18       		.byte	0x18
 628 01a3 06       		.uleb128 0x6
 629 01a4 9F030000 		.4byte	.LASF36
 630 01a8 08       		.byte	0x8
 631 01a9 DD       		.byte	0xdd
 632 01aa E0000000 		.4byte	0xe0
 633 01ae 1C       		.byte	0x1c
 634 01af 06       		.uleb128 0x6
 635 01b0 EF050000 		.4byte	.LASF37
 636 01b4 08       		.byte	0x8
 637 01b5 E1       		.byte	0xe1
 638 01b6 D5000000 		.4byte	0xd5
 639 01ba 1D       		.byte	0x1d
 640 01bb 06       		.uleb128 0x6
 641 01bc A5050000 		.4byte	.LASF38
 642 01c0 08       		.byte	0x8
 643 01c1 E6       		.byte	0xe6
 644 01c2 EB000000 		.4byte	0xeb
 645 01c6 1E       		.byte	0x1e
 646 01c7 06       		.uleb128 0x6
 647 01c8 A7030000 		.4byte	.LASF39
 648 01cc 08       		.byte	0x8
 649 01cd EC       		.byte	0xec
 650 01ce F6000000 		.4byte	0xf6
 651 01d2 1F       		.byte	0x1f
 652 01d3 07       		.uleb128 0x7
 653 01d4 705F7500 		.ascii	"p_u\000"
 654 01d8 08       		.byte	0x8
 655 01d9 3101     		.2byte	0x131
 656 01db 31050000 		.4byte	0x531
 657 01df 20       		.byte	0x20
 658 01e0 08       		.uleb128 0x8
 659 01e1 95020000 		.4byte	.LASF40
 660 01e5 08       		.byte	0x8
 661 01e6 3601     		.2byte	0x136
 662 01e8 4D020000 		.4byte	0x24d
 663 01ec 24       		.byte	0x24
 664 01ed 08       		.uleb128 0x8
 665 01ee C3010000 		.4byte	.LASF41
 666 01f2 08       		.byte	0x8
 667 01f3 3C01     		.2byte	0x13c
 668 01f5 71020000 		.4byte	0x271
 669 01f9 28       		.byte	0x28
 670 01fa 08       		.uleb128 0x8
 671 01fb 74050000 		.4byte	.LASF42
 672 01ff 08       		.byte	0x8
 673 0200 4001     		.2byte	0x140
 674 0202 0C010000 		.4byte	0x10c
 675 0206 30       		.byte	0x30
ARM GAS  /tmp/ccw8nbVQ.s 			page 13


 676 0207 08       		.uleb128 0x8
 677 0208 FC030000 		.4byte	.LASF43
 678 020c 08       		.byte	0x8
 679 020d 4601     		.2byte	0x146
 680 020f 17010000 		.4byte	0x117
 681 0213 34       		.byte	0x34
 682 0214 08       		.uleb128 0x8
 683 0215 8B030000 		.4byte	.LASF44
 684 0219 08       		.byte	0x8
 685 021a 4D01     		.2byte	0x14d
 686 021c F0050000 		.4byte	0x5f0
 687 0220 38       		.byte	0x38
 688 0221 08       		.uleb128 0x8
 689 0222 25050000 		.4byte	.LASF45
 690 0226 08       		.byte	0x8
 691 0227 5101     		.2byte	0x151
 692 0229 01010000 		.4byte	0x101
 693 022d 3C       		.byte	0x3c
 694 022e 08       		.uleb128 0x8
 695 022f F8000000 		.4byte	.LASF46
 696 0233 08       		.byte	0x8
 697 0234 5801     		.2byte	0x158
 698 0236 24030000 		.4byte	0x324
 699 023a 40       		.byte	0x40
 700 023b 00       		.byte	0
 701 023c 03       		.uleb128 0x3
 702 023d A8020000 		.4byte	.LASF47
 703 0241 07       		.byte	0x7
 704 0242 44       		.byte	0x44
 705 0243 47020000 		.4byte	0x247
 706 0247 09       		.uleb128 0x9
 707 0248 04       		.byte	0x4
 708 0249 38010000 		.4byte	0x138
 709 024d 03       		.uleb128 0x3
 710 024e 00000000 		.4byte	.LASF48
 711 0252 07       		.byte	0x7
 712 0253 49       		.byte	0x49
 713 0254 58020000 		.4byte	0x258
 714 0258 05       		.uleb128 0x5
 715 0259 28040000 		.4byte	.LASF50
 716 025d 04       		.byte	0x4
 717 025e 08       		.byte	0x8
 718 025f B0       		.byte	0xb0
 719 0260 71020000 		.4byte	0x271
 720 0264 06       		.uleb128 0x6
 721 0265 BF030000 		.4byte	.LASF29
 722 0269 08       		.byte	0x8
 723 026a B1       		.byte	0xb1
 724 026b 47020000 		.4byte	0x247
 725 026f 00       		.byte	0
 726 0270 00       		.byte	0
 727 0271 03       		.uleb128 0x3
 728 0272 89050000 		.4byte	.LASF51
 729 0276 07       		.byte	0x7
 730 0277 50       		.byte	0x50
 731 0278 7C020000 		.4byte	0x27c
 732 027c 05       		.uleb128 0x5
ARM GAS  /tmp/ccw8nbVQ.s 			page 14


 733 027d C6000000 		.4byte	.LASF52
 734 0281 08       		.byte	0x8
 735 0282 08       		.byte	0x8
 736 0283 B7       		.byte	0xb7
 737 0284 A1020000 		.4byte	0x2a1
 738 0288 06       		.uleb128 0x6
 739 0289 BF030000 		.4byte	.LASF29
 740 028d 08       		.byte	0x8
 741 028e B8       		.byte	0xb8
 742 028f 47020000 		.4byte	0x247
 743 0293 00       		.byte	0
 744 0294 06       		.uleb128 0x6
 745 0295 56030000 		.4byte	.LASF30
 746 0299 08       		.byte	0x8
 747 029a B9       		.byte	0xb9
 748 029b 47020000 		.4byte	0x247
 749 029f 04       		.byte	0x4
 750 02a0 00       		.byte	0
 751 02a1 03       		.uleb128 0x3
 752 02a2 0F000000 		.4byte	.LASF53
 753 02a6 07       		.byte	0x7
 754 02a7 57       		.byte	0x57
 755 02a8 AC020000 		.4byte	0x2ac
 756 02ac 0A       		.uleb128 0xa
 757 02ad 34020000 		.4byte	.LASF54
 758 02b1 1C       		.byte	0x1c
 759 02b2 08       		.byte	0x8
 760 02b3 9001     		.2byte	0x190
 761 02b5 08030000 		.4byte	0x308
 762 02b9 08       		.uleb128 0x8
 763 02ba 17040000 		.4byte	.LASF55
 764 02be 08       		.byte	0x8
 765 02bf 9101     		.2byte	0x191
 766 02c1 71020000 		.4byte	0x271
 767 02c5 00       		.byte	0
 768 02c6 08       		.uleb128 0x8
 769 02c7 B1030000 		.4byte	.LASF56
 770 02cb 08       		.byte	0x8
 771 02cc 9201     		.2byte	0x192
 772 02ce 01010000 		.4byte	0x101
 773 02d2 08       		.byte	0x8
 774 02d3 08       		.uleb128 0x8
 775 02d4 F3020000 		.4byte	.LASF57
 776 02d8 08       		.byte	0x8
 777 02d9 9401     		.2byte	0x194
 778 02db 77040000 		.4byte	0x477
 779 02df 0C       		.byte	0xc
 780 02e0 08       		.uleb128 0x8
 781 02e1 5F010000 		.4byte	.LASF58
 782 02e5 08       		.byte	0x8
 783 02e6 9701     		.2byte	0x197
 784 02e8 47020000 		.4byte	0x247
 785 02ec 10       		.byte	0x10
 786 02ed 08       		.uleb128 0x8
 787 02ee 23030000 		.4byte	.LASF59
 788 02f2 08       		.byte	0x8
 789 02f3 9801     		.2byte	0x198
ARM GAS  /tmp/ccw8nbVQ.s 			page 15


 790 02f5 47020000 		.4byte	0x247
 791 02f9 14       		.byte	0x14
 792 02fa 08       		.uleb128 0x8
 793 02fb 19030000 		.4byte	.LASF60
 794 02ff 08       		.byte	0x8
 795 0300 9B01     		.2byte	0x19b
 796 0302 47020000 		.4byte	0x247
 797 0306 18       		.byte	0x18
 798 0307 00       		.byte	0
 799 0308 03       		.uleb128 0x3
 800 0309 30050000 		.4byte	.LASF61
 801 030d 07       		.byte	0x7
 802 030e 5C       		.byte	0x5c
 803 030f 13030000 		.4byte	0x313
 804 0313 09       		.uleb128 0x9
 805 0314 04       		.byte	0x4
 806 0315 19030000 		.4byte	0x319
 807 0319 0B       		.uleb128 0xb
 808 031a 24030000 		.4byte	0x324
 809 031e 0C       		.uleb128 0xc
 810 031f 24030000 		.4byte	0x324
 811 0323 00       		.byte	0
 812 0324 0D       		.uleb128 0xd
 813 0325 04       		.byte	0x4
 814 0326 03       		.uleb128 0x3
 815 0327 46030000 		.4byte	.LASF62
 816 032b 07       		.byte	0x7
 817 032c 61       		.byte	0x61
 818 032d 31030000 		.4byte	0x331
 819 0331 0A       		.uleb128 0xa
 820 0332 DE030000 		.4byte	.LASF63
 821 0336 14       		.byte	0x14
 822 0337 08       		.byte	0x8
 823 0338 6B01     		.2byte	0x16b
 824 033a 80030000 		.4byte	0x380
 825 033e 08       		.uleb128 0x8
 826 033f B4010000 		.4byte	.LASF64
 827 0343 08       		.byte	0x8
 828 0344 6C01     		.2byte	0x16c
 829 0346 08060000 		.4byte	0x608
 830 034a 00       		.byte	0
 831 034b 08       		.uleb128 0x8
 832 034c 7C010000 		.4byte	.LASF65
 833 0350 08       		.byte	0x8
 834 0351 6D01     		.2byte	0x16d
 835 0353 08060000 		.4byte	0x608
 836 0357 04       		.byte	0x4
 837 0358 08       		.uleb128 0x8
 838 0359 1F040000 		.4byte	.LASF66
 839 035d 08       		.byte	0x8
 840 035e 6E01     		.2byte	0x16e
 841 0360 2D010000 		.4byte	0x12d
 842 0364 08       		.byte	0x8
 843 0365 08       		.uleb128 0x8
 844 0366 21060000 		.4byte	.LASF67
 845 036a 08       		.byte	0x8
 846 036b 6F01     		.2byte	0x16f
ARM GAS  /tmp/ccw8nbVQ.s 			page 16


 847 036d 08030000 		.4byte	0x308
 848 0371 0C       		.byte	0xc
 849 0372 08       		.uleb128 0x8
 850 0373 82050000 		.4byte	.LASF68
 851 0377 08       		.byte	0x8
 852 0378 7101     		.2byte	0x171
 853 037a 24030000 		.4byte	0x324
 854 037e 10       		.byte	0x10
 855 037f 00       		.byte	0
 856 0380 03       		.uleb128 0x3
 857 0381 A3000000 		.4byte	.LASF69
 858 0385 07       		.byte	0x7
 859 0386 66       		.byte	0x66
 860 0387 8B030000 		.4byte	0x38b
 861 038b 0A       		.uleb128 0xa
 862 038c BB020000 		.4byte	.LASF70
 863 0390 10       		.byte	0x10
 864 0391 08       		.byte	0x8
 865 0392 7B01     		.2byte	0x17b
 866 0394 CD030000 		.4byte	0x3cd
 867 0398 08       		.uleb128 0x8
 868 0399 B4010000 		.4byte	.LASF64
 869 039d 08       		.byte	0x8
 870 039e 7C01     		.2byte	0x17c
 871 03a0 08060000 		.4byte	0x608
 872 03a4 00       		.byte	0
 873 03a5 08       		.uleb128 0x8
 874 03a6 7C010000 		.4byte	.LASF65
 875 03aa 08       		.byte	0x8
 876 03ab 7E01     		.2byte	0x17e
 877 03ad 08060000 		.4byte	0x608
 878 03b1 04       		.byte	0x4
 879 03b2 08       		.uleb128 0x8
 880 03b3 1F040000 		.4byte	.LASF66
 881 03b7 08       		.byte	0x8
 882 03b8 8001     		.2byte	0x180
 883 03ba 2D010000 		.4byte	0x12d
 884 03be 08       		.byte	0x8
 885 03bf 08       		.uleb128 0x8
 886 03c0 E4050000 		.4byte	.LASF71
 887 03c4 08       		.byte	0x8
 888 03c5 8201     		.2byte	0x182
 889 03c7 0E060000 		.4byte	0x60e
 890 03cb 0C       		.byte	0xc
 891 03cc 00       		.byte	0
 892 03cd 03       		.uleb128 0x3
 893 03ce 49000000 		.4byte	.LASF72
 894 03d2 07       		.byte	0x7
 895 03d3 6B       		.byte	0x6b
 896 03d4 D8030000 		.4byte	0x3d8
 897 03d8 0A       		.uleb128 0xa
 898 03d9 65030000 		.4byte	.LASF73
 899 03dd 04       		.byte	0x4
 900 03de 08       		.byte	0x8
 901 03df A201     		.2byte	0x1a2
 902 03e1 F3030000 		.4byte	0x3f3
 903 03e5 08       		.uleb128 0x8
ARM GAS  /tmp/ccw8nbVQ.s 			page 17


 904 03e6 52050000 		.4byte	.LASF74
 905 03ea 08       		.byte	0x8
 906 03eb AA01     		.2byte	0x1aa
 907 03ed 13060000 		.4byte	0x613
 908 03f1 00       		.byte	0
 909 03f2 00       		.byte	0
 910 03f3 03       		.uleb128 0x3
 911 03f4 05020000 		.4byte	.LASF75
 912 03f8 07       		.byte	0x7
 913 03f9 70       		.byte	0x70
 914 03fa FE030000 		.4byte	0x3fe
 915 03fe 0E       		.uleb128 0xe
 916 03ff 2B010000 		.4byte	.LASF76
 917 0403 5001     		.2byte	0x150
 918 0405 08       		.byte	0x8
 919 0406 C201     		.2byte	0x1c2
 920 0408 5A040000 		.4byte	0x45a
 921 040c 08       		.uleb128 0x8
 922 040d AC050000 		.4byte	.LASF77
 923 0411 08       		.byte	0x8
 924 0412 C601     		.2byte	0x1c6
 925 0414 A1020000 		.4byte	0x2a1
 926 0418 00       		.byte	0
 927 0419 08       		.uleb128 0x8
 928 041a 08010000 		.4byte	.LASF78
 929 041e 08       		.byte	0x8
 930 041f CA01     		.2byte	0x1ca
 931 0421 80030000 		.4byte	0x380
 932 0425 1C       		.byte	0x1c
 933 0426 07       		.uleb128 0x7
 934 0427 64626700 		.ascii	"dbg\000"
 935 042b 08       		.byte	0x8
 936 042c CE01     		.2byte	0x1ce
 937 042e CD030000 		.4byte	0x3cd
 938 0432 2C       		.byte	0x2c
 939 0433 08       		.uleb128 0x8
 940 0434 98000000 		.4byte	.LASF79
 941 0438 08       		.byte	0x8
 942 0439 D201     		.2byte	0x1d2
 943 043b 38010000 		.4byte	0x138
 944 043f 30       		.byte	0x30
 945 0440 07       		.uleb128 0x7
 946 0441 746D00   		.ascii	"tm\000"
 947 0444 08       		.byte	0x8
 948 0445 D701     		.2byte	0x1d7
 949 0447 26050000 		.4byte	0x526
 950 044b 74       		.byte	0x74
 951 044c 08       		.uleb128 0x8
 952 044d 92010000 		.4byte	.LASF80
 953 0451 08       		.byte	0x8
 954 0452 E301     		.2byte	0x1e3
 955 0454 18060000 		.4byte	0x618
 956 0458 78       		.byte	0x78
 957 0459 00       		.byte	0
 958 045a 04       		.uleb128 0x4
 959 045b 04       		.byte	0x4
 960 045c 07       		.byte	0x7
ARM GAS  /tmp/ccw8nbVQ.s 			page 18


 961 045d 9F020000 		.4byte	.LASF81
 962 0461 03       		.uleb128 0x3
 963 0462 73010000 		.4byte	.LASF82
 964 0466 09       		.byte	0x9
 965 0467 65       		.byte	0x65
 966 0468 24030000 		.4byte	0x324
 967 046c 03       		.uleb128 0x3
 968 046d 58020000 		.4byte	.LASF83
 969 0471 09       		.byte	0x9
 970 0472 6D       		.byte	0x6d
 971 0473 BF000000 		.4byte	0xbf
 972 0477 05       		.uleb128 0x5
 973 0478 6C050000 		.4byte	.LASF84
 974 047c 04       		.byte	0x4
 975 047d 09       		.byte	0x9
 976 047e 89       		.byte	0x89
 977 047f 90040000 		.4byte	0x490
 978 0483 0F       		.uleb128 0xf
 979 0484 72313300 		.ascii	"r13\000"
 980 0488 09       		.byte	0x9
 981 0489 8A       		.byte	0x8a
 982 048a 0B050000 		.4byte	0x50b
 983 048e 00       		.byte	0
 984 048f 00       		.byte	0
 985 0490 05       		.uleb128 0x5
 986 0491 3D000000 		.4byte	.LASF85
 987 0495 24       		.byte	0x24
 988 0496 0A       		.byte	0xa
 989 0497 FD       		.byte	0xfd
 990 0498 0B050000 		.4byte	0x50b
 991 049c 07       		.uleb128 0x7
 992 049d 723400   		.ascii	"r4\000"
 993 04a0 0A       		.byte	0xa
 994 04a1 1001     		.2byte	0x110
 995 04a3 61040000 		.4byte	0x461
 996 04a7 00       		.byte	0
 997 04a8 07       		.uleb128 0x7
 998 04a9 723500   		.ascii	"r5\000"
 999 04ac 0A       		.byte	0xa
 1000 04ad 1101     		.2byte	0x111
 1001 04af 61040000 		.4byte	0x461
 1002 04b3 04       		.byte	0x4
 1003 04b4 07       		.uleb128 0x7
 1004 04b5 723600   		.ascii	"r6\000"
 1005 04b8 0A       		.byte	0xa
 1006 04b9 1201     		.2byte	0x112
 1007 04bb 61040000 		.4byte	0x461
 1008 04bf 08       		.byte	0x8
 1009 04c0 07       		.uleb128 0x7
 1010 04c1 723700   		.ascii	"r7\000"
 1011 04c4 0A       		.byte	0xa
 1012 04c5 1301     		.2byte	0x113
 1013 04c7 61040000 		.4byte	0x461
 1014 04cb 0C       		.byte	0xc
 1015 04cc 07       		.uleb128 0x7
 1016 04cd 723800   		.ascii	"r8\000"
 1017 04d0 0A       		.byte	0xa
ARM GAS  /tmp/ccw8nbVQ.s 			page 19


 1018 04d1 1401     		.2byte	0x114
 1019 04d3 61040000 		.4byte	0x461
 1020 04d7 10       		.byte	0x10
 1021 04d8 07       		.uleb128 0x7
 1022 04d9 723900   		.ascii	"r9\000"
 1023 04dc 0A       		.byte	0xa
 1024 04dd 1501     		.2byte	0x115
 1025 04df 61040000 		.4byte	0x461
 1026 04e3 14       		.byte	0x14
 1027 04e4 07       		.uleb128 0x7
 1028 04e5 72313000 		.ascii	"r10\000"
 1029 04e9 0A       		.byte	0xa
 1030 04ea 1601     		.2byte	0x116
 1031 04ec 61040000 		.4byte	0x461
 1032 04f0 18       		.byte	0x18
 1033 04f1 07       		.uleb128 0x7
 1034 04f2 72313100 		.ascii	"r11\000"
 1035 04f6 0A       		.byte	0xa
 1036 04f7 1701     		.2byte	0x117
 1037 04f9 61040000 		.4byte	0x461
 1038 04fd 1C       		.byte	0x1c
 1039 04fe 07       		.uleb128 0x7
 1040 04ff 6C7200   		.ascii	"lr\000"
 1041 0502 0A       		.byte	0xa
 1042 0503 1801     		.2byte	0x118
 1043 0505 61040000 		.4byte	0x461
 1044 0509 20       		.byte	0x20
 1045 050a 00       		.byte	0
 1046 050b 09       		.uleb128 0x9
 1047 050c 04       		.byte	0x4
 1048 050d 90040000 		.4byte	0x490
 1049 0511 10       		.uleb128 0x10
 1050 0512 04       		.byte	0x4
 1051 0513 0B       		.byte	0xb
 1052 0514 38       		.byte	0x38
 1053 0515 26050000 		.4byte	0x526
 1054 0519 06       		.uleb128 0x6
 1055 051a 5C050000 		.4byte	.LASF86
 1056 051e 0B       		.byte	0xb
 1057 051f 3C       		.byte	0x3c
 1058 0520 CA000000 		.4byte	0xca
 1059 0524 00       		.byte	0
 1060 0525 00       		.byte	0
 1061 0526 03       		.uleb128 0x3
 1062 0527 08030000 		.4byte	.LASF87
 1063 052b 0B       		.byte	0xb
 1064 052c 3D       		.byte	0x3d
 1065 052d 11050000 		.4byte	0x511
 1066 0531 11       		.uleb128 0x11
 1067 0532 04       		.byte	0x4
 1068 0533 08       		.byte	0x8
 1069 0534 FA       		.byte	0xfa
 1070 0535 8E050000 		.4byte	0x58e
 1071 0539 12       		.uleb128 0x12
 1072 053a 23000000 		.4byte	.LASF88
 1073 053e 08       		.byte	0x8
 1074 053f 0101     		.2byte	0x101
ARM GAS  /tmp/ccw8nbVQ.s 			page 20


 1075 0541 0C010000 		.4byte	0x10c
 1076 0545 12       		.uleb128 0x12
 1077 0546 8F000000 		.4byte	.LASF89
 1078 054a 08       		.byte	0x8
 1079 054b 0801     		.2byte	0x108
 1080 054d 0C010000 		.4byte	0x10c
 1081 0551 12       		.uleb128 0x12
 1082 0552 D1050000 		.4byte	.LASF90
 1083 0556 08       		.byte	0x8
 1084 0557 0F01     		.2byte	0x10f
 1085 0559 24030000 		.4byte	0x324
 1086 055d 12       		.uleb128 0x12
 1087 055e 25010000 		.4byte	.LASF91
 1088 0562 08       		.byte	0x8
 1089 0563 1601     		.2byte	0x116
 1090 0565 8E050000 		.4byte	0x58e
 1091 0569 12       		.uleb128 0x12
 1092 056a BC010000 		.4byte	.LASF92
 1093 056e 08       		.byte	0x8
 1094 056f 1E01     		.2byte	0x11e
 1095 0571 B9050000 		.4byte	0x5b9
 1096 0575 12       		.uleb128 0x12
 1097 0576 10040000 		.4byte	.LASF93
 1098 057a 08       		.byte	0x8
 1099 057b 2701     		.2byte	0x127
 1100 057d F0050000 		.4byte	0x5f0
 1101 0581 12       		.uleb128 0x12
 1102 0582 B8030000 		.4byte	.LASF94
 1103 0586 08       		.byte	0x8
 1104 0587 2F01     		.2byte	0x12f
 1105 0589 17010000 		.4byte	0x117
 1106 058d 00       		.byte	0
 1107 058e 09       		.uleb128 0x9
 1108 058f 04       		.byte	0x4
 1109 0590 3C020000 		.4byte	0x23c
 1110 0594 05       		.uleb128 0x5
 1111 0595 EF030000 		.4byte	.LASF95
 1112 0599 0C       		.byte	0xc
 1113 059a 0C       		.byte	0xc
 1114 059b 34       		.byte	0x34
 1115 059c B9050000 		.4byte	0x5b9
 1116 05a0 06       		.uleb128 0x6
 1117 05a1 57010000 		.4byte	.LASF96
 1118 05a5 0C       		.byte	0xc
 1119 05a6 35       		.byte	0x35
 1120 05a7 71020000 		.4byte	0x271
 1121 05ab 00       		.byte	0
 1122 05ac 06       		.uleb128 0x6
 1123 05ad DC010000 		.4byte	.LASF97
 1124 05b1 0C       		.byte	0xc
 1125 05b2 37       		.byte	0x37
 1126 05b3 22010000 		.4byte	0x122
 1127 05b7 08       		.byte	0x8
 1128 05b8 00       		.byte	0
 1129 05b9 09       		.uleb128 0x9
 1130 05ba 04       		.byte	0x4
 1131 05bb 94050000 		.4byte	0x594
ARM GAS  /tmp/ccw8nbVQ.s 			page 21


 1132 05bf 05       		.uleb128 0x5
 1133 05c0 63050000 		.4byte	.LASF98
 1134 05c4 10       		.byte	0x10
 1135 05c5 0D       		.byte	0xd
 1136 05c6 39       		.byte	0x39
 1137 05c7 F0050000 		.4byte	0x5f0
 1138 05cb 06       		.uleb128 0x6
 1139 05cc 00010000 		.4byte	.LASF99
 1140 05d0 0D       		.byte	0xd
 1141 05d1 3A       		.byte	0x3a
 1142 05d2 71020000 		.4byte	0x271
 1143 05d6 00       		.byte	0
 1144 05d7 06       		.uleb128 0x6
 1145 05d8 13060000 		.4byte	.LASF100
 1146 05dc 0D       		.byte	0xd
 1147 05dd 3C       		.byte	0x3c
 1148 05de 47020000 		.4byte	0x247
 1149 05e2 08       		.byte	0x8
 1150 05e3 06       		.uleb128 0x6
 1151 05e4 14050000 		.4byte	.LASF101
 1152 05e8 0D       		.byte	0xd
 1153 05e9 3E       		.byte	0x3e
 1154 05ea 33060000 		.4byte	0x633
 1155 05ee 0C       		.byte	0xc
 1156 05ef 00       		.byte	0
 1157 05f0 09       		.uleb128 0x9
 1158 05f1 04       		.byte	0x4
 1159 05f2 BF050000 		.4byte	0x5bf
 1160 05f6 09       		.uleb128 0x9
 1161 05f7 04       		.byte	0x4
 1162 05f8 FC050000 		.4byte	0x5fc
 1163 05fc 13       		.uleb128 0x13
 1164 05fd 01060000 		.4byte	0x601
 1165 0601 04       		.uleb128 0x4
 1166 0602 01       		.byte	0x1
 1167 0603 08       		.byte	0x8
 1168 0604 06050000 		.4byte	.LASF102
 1169 0608 09       		.uleb128 0x9
 1170 0609 04       		.byte	0x4
 1171 060a 26030000 		.4byte	0x326
 1172 060e 14       		.uleb128 0x14
 1173 060f 2D010000 		.4byte	0x12d
 1174 0613 14       		.uleb128 0x14
 1175 0614 F6050000 		.4byte	0x5f6
 1176 0618 15       		.uleb128 0x15
 1177 0619 6C040000 		.4byte	0x46c
 1178 061d 28060000 		.4byte	0x628
 1179 0621 16       		.uleb128 0x16
 1180 0622 5A040000 		.4byte	0x45a
 1181 0626 1A       		.byte	0x1a
 1182 0627 00       		.byte	0
 1183 0628 03       		.uleb128 0x3
 1184 0629 84010000 		.4byte	.LASF103
 1185 062d 0D       		.byte	0xd
 1186 062e 34       		.byte	0x34
 1187 062f BF050000 		.4byte	0x5bf
 1188 0633 09       		.uleb128 0x9
ARM GAS  /tmp/ccw8nbVQ.s 			page 22


 1189 0634 04       		.byte	0x4
 1190 0635 28060000 		.4byte	0x628
 1191 0639 03       		.uleb128 0x3
 1192 063a 6B000000 		.4byte	.LASF104
 1193 063e 0E       		.byte	0xe
 1194 063f 34       		.byte	0x34
 1195 0640 44060000 		.4byte	0x644
 1196 0644 09       		.uleb128 0x9
 1197 0645 04       		.byte	0x4
 1198 0646 4A060000 		.4byte	0x64a
 1199 064a 17       		.uleb128 0x17
 1200 064b 24030000 		.4byte	0x324
 1201 064f 59060000 		.4byte	0x659
 1202 0653 0C       		.uleb128 0xc
 1203 0654 28000000 		.4byte	0x28
 1204 0658 00       		.byte	0
 1205 0659 05       		.uleb128 0x5
 1206 065a 99050000 		.4byte	.LASF105
 1207 065e 04       		.byte	0x4
 1208 065f 0F       		.byte	0xf
 1209 0660 38       		.byte	0x38
 1210 0661 72060000 		.4byte	0x672
 1211 0665 06       		.uleb128 0x6
 1212 0666 36030000 		.4byte	.LASF106
 1213 066a 0F       		.byte	0xf
 1214 066b 39       		.byte	0x39
 1215 066c 72060000 		.4byte	0x672
 1216 0670 00       		.byte	0
 1217 0671 00       		.byte	0
 1218 0672 09       		.uleb128 0x9
 1219 0673 04       		.byte	0x4
 1220 0674 59060000 		.4byte	0x659
 1221 0678 10       		.uleb128 0x10
 1222 0679 0C       		.byte	0xc
 1223 067a 0F       		.byte	0xf
 1224 067b 40       		.byte	0x40
 1225 067c A5060000 		.4byte	0x6a5
 1226 0680 06       		.uleb128 0x6
 1227 0681 47010000 		.4byte	.LASF107
 1228 0685 0F       		.byte	0xf
 1229 0686 41       		.byte	0x41
 1230 0687 72060000 		.4byte	0x672
 1231 068b 00       		.byte	0
 1232 068c 06       		.uleb128 0x6
 1233 068d F9020000 		.4byte	.LASF108
 1234 0691 0F       		.byte	0xf
 1235 0692 42       		.byte	0x42
 1236 0693 28000000 		.4byte	0x28
 1237 0697 04       		.byte	0x4
 1238 0698 06       		.uleb128 0x6
 1239 0699 67010000 		.4byte	.LASF109
 1240 069d 0F       		.byte	0xf
 1241 069e 44       		.byte	0x44
 1242 069f 39060000 		.4byte	0x639
 1243 06a3 08       		.byte	0x8
 1244 06a4 00       		.byte	0
 1245 06a5 03       		.uleb128 0x3
ARM GAS  /tmp/ccw8nbVQ.s 			page 23


 1246 06a6 CE010000 		.4byte	.LASF110
 1247 06aa 0F       		.byte	0xf
 1248 06ab 46       		.byte	0x46
 1249 06ac 78060000 		.4byte	0x678
 1250 06b0 18       		.uleb128 0x18
 1251 06b1 44050000 		.4byte	.LASF117
 1252 06b5 02       		.byte	0x2
 1253 06b6 2202     		.2byte	0x222
 1254 06b8 03       		.byte	0x3
 1255 06b9 CA060000 		.4byte	0x6ca
 1256 06bd 19       		.uleb128 0x19
 1257 06be 8C010000 		.4byte	.LASF114
 1258 06c2 02       		.byte	0x2
 1259 06c3 2202     		.2byte	0x222
 1260 06c5 B4000000 		.4byte	0xb4
 1261 06c9 00       		.byte	0
 1262 06ca 1A       		.uleb128 0x1a
 1263 06cb 61000000 		.4byte	.LASF111
 1264 06cf 0A       		.byte	0xa
 1265 06d0 C801     		.2byte	0x1c8
 1266 06d2 03       		.byte	0x3
 1267 06d3 1A       		.uleb128 0x1a
 1268 06d4 0F010000 		.4byte	.LASF112
 1269 06d8 0A       		.byte	0xa
 1270 06d9 E001     		.2byte	0x1e0
 1271 06db 03       		.byte	0x3
 1272 06dc 1A       		.uleb128 0x1a
 1273 06dd CF030000 		.4byte	.LASF113
 1274 06e1 10       		.byte	0x10
 1275 06e2 5A01     		.2byte	0x15a
 1276 06e4 03       		.byte	0x3
 1277 06e5 1B       		.uleb128 0x1b
 1278 06e6 D2020000 		.4byte	.LASF119
 1279 06ea 01       		.byte	0x1
 1280 06eb 78       		.byte	0x78
 1281 06ec 24030000 		.4byte	0x324
 1282 06f0 01       		.byte	0x1
 1283 06f1 18070000 		.4byte	0x718
 1284 06f5 1C       		.uleb128 0x1c
 1285 06f6 6D7000   		.ascii	"mp\000"
 1286 06f9 01       		.byte	0x1
 1287 06fa 78       		.byte	0x78
 1288 06fb 18070000 		.4byte	0x718
 1289 06ff 1D       		.uleb128 0x1d
 1290 0700 D9030000 		.4byte	.LASF115
 1291 0704 01       		.byte	0x1
 1292 0705 79       		.byte	0x79
 1293 0706 24030000 		.4byte	0x324
 1294 070a 1E       		.uleb128 0x1e
 1295 070b C6030000 		.4byte	.LASF116
 1296 070f 2E070000 		.4byte	0x72e
 1297 0713 D2020000 		.4byte	.LASF119
 1298 0717 00       		.byte	0
 1299 0718 09       		.uleb128 0x9
 1300 0719 04       		.byte	0x4
 1301 071a A5060000 		.4byte	0x6a5
 1302 071e 15       		.uleb128 0x15
ARM GAS  /tmp/ccw8nbVQ.s 			page 24


 1303 071f 01060000 		.4byte	0x601
 1304 0723 2E070000 		.4byte	0x72e
 1305 0727 16       		.uleb128 0x16
 1306 0728 5A040000 		.4byte	0x45a
 1307 072c 0C       		.byte	0xc
 1308 072d 00       		.byte	0
 1309 072e 13       		.uleb128 0x13
 1310 072f 1E070000 		.4byte	0x71e
 1311 0733 18       		.uleb128 0x18
 1312 0734 F7050000 		.4byte	.LASF118
 1313 0738 10       		.byte	0x10
 1314 0739 6601     		.2byte	0x166
 1315 073b 03       		.byte	0x3
 1316 073c 4E070000 		.4byte	0x74e
 1317 0740 1E       		.uleb128 0x1e
 1318 0741 C6030000 		.4byte	.LASF116
 1319 0745 5E070000 		.4byte	0x75e
 1320 0749 F7050000 		.4byte	.LASF118
 1321 074d 00       		.byte	0
 1322 074e 15       		.uleb128 0x15
 1323 074f 01060000 		.4byte	0x601
 1324 0753 5E070000 		.4byte	0x75e
 1325 0757 16       		.uleb128 0x16
 1326 0758 5A040000 		.4byte	0x45a
 1327 075c 0B       		.byte	0xb
 1328 075d 00       		.byte	0
 1329 075e 13       		.uleb128 0x13
 1330 075f 4E070000 		.4byte	0x74e
 1331 0763 1F       		.uleb128 0x1f
 1332 0764 DF020000 		.4byte	.LASF120
 1333 0768 01       		.byte	0x1
 1334 0769 AB       		.byte	0xab
 1335 076a 01       		.byte	0x1
 1336 076b 9D070000 		.4byte	0x79d
 1337 076f 1C       		.uleb128 0x1c
 1338 0770 6D7000   		.ascii	"mp\000"
 1339 0773 01       		.byte	0x1
 1340 0774 AB       		.byte	0xab
 1341 0775 18070000 		.4byte	0x718
 1342 0779 20       		.uleb128 0x20
 1343 077a D9030000 		.4byte	.LASF115
 1344 077e 01       		.byte	0x1
 1345 077f AB       		.byte	0xab
 1346 0780 24030000 		.4byte	0x324
 1347 0784 21       		.uleb128 0x21
 1348 0785 70687000 		.ascii	"php\000"
 1349 0789 01       		.byte	0x1
 1350 078a AC       		.byte	0xac
 1351 078b 72060000 		.4byte	0x672
 1352 078f 1E       		.uleb128 0x1e
 1353 0790 C6030000 		.4byte	.LASF116
 1354 0794 9D070000 		.4byte	0x79d
 1355 0798 DF020000 		.4byte	.LASF120
 1356 079c 00       		.byte	0
 1357 079d 13       		.uleb128 0x13
 1358 079e 4E070000 		.4byte	0x74e
 1359 07a2 1F       		.uleb128 0x1f
ARM GAS  /tmp/ccw8nbVQ.s 			page 25


 1360 07a3 C6050000 		.4byte	.LASF121
 1361 07a7 01       		.byte	0x1
 1362 07a8 C1       		.byte	0xc1
 1363 07a9 01       		.byte	0x1
 1364 07aa C4070000 		.4byte	0x7c4
 1365 07ae 1C       		.uleb128 0x1c
 1366 07af 6D7000   		.ascii	"mp\000"
 1367 07b2 01       		.byte	0x1
 1368 07b3 C1       		.byte	0xc1
 1369 07b4 18070000 		.4byte	0x718
 1370 07b8 20       		.uleb128 0x20
 1371 07b9 D9030000 		.4byte	.LASF115
 1372 07bd 01       		.byte	0x1
 1373 07be C1       		.byte	0xc1
 1374 07bf 24030000 		.4byte	0x324
 1375 07c3 00       		.byte	0
 1376 07c4 22       		.uleb128 0x22
 1377 07c5 11020000 		.4byte	.LASF122
 1378 07c9 0F       		.byte	0xf
 1379 07ca 89       		.byte	0x89
 1380 07cb 03       		.byte	0x3
 1381 07cc E6070000 		.4byte	0x7e6
 1382 07d0 1C       		.uleb128 0x1c
 1383 07d1 6D7000   		.ascii	"mp\000"
 1384 07d4 0F       		.byte	0xf
 1385 07d5 89       		.byte	0x89
 1386 07d6 18070000 		.4byte	0x718
 1387 07da 20       		.uleb128 0x20
 1388 07db D9030000 		.4byte	.LASF115
 1389 07df 0F       		.byte	0xf
 1390 07e0 89       		.byte	0x89
 1391 07e1 24030000 		.4byte	0x324
 1392 07e5 00       		.byte	0
 1393 07e6 23       		.uleb128 0x23
 1394 07e7 23020000 		.4byte	.LASF125
 1395 07eb 01       		.byte	0x1
 1396 07ec 4B       		.byte	0x4b
 1397 07ed 00000000 		.4byte	.LFB170
 1398 07f1 0A000000 		.4byte	.LFE170-.LFB170
 1399 07f5 01       		.uleb128 0x1
 1400 07f6 9C       		.byte	0x9c
 1401 07f7 2B080000 		.4byte	0x82b
 1402 07fb 24       		.uleb128 0x24
 1403 07fc 6D7000   		.ascii	"mp\000"
 1404 07ff 01       		.byte	0x1
 1405 0800 4B       		.byte	0x4b
 1406 0801 18070000 		.4byte	0x718
 1407 0805 01       		.uleb128 0x1
 1408 0806 50       		.byte	0x50
 1409 0807 25       		.uleb128 0x25
 1410 0808 DF050000 		.4byte	.LASF123
 1411 080c 01       		.byte	0x1
 1412 080d 4B       		.byte	0x4b
 1413 080e 28000000 		.4byte	0x28
 1414 0812 01       		.uleb128 0x1
 1415 0813 51       		.byte	0x51
 1416 0814 25       		.uleb128 0x25
ARM GAS  /tmp/ccw8nbVQ.s 			page 26


 1417 0815 58000000 		.4byte	.LASF124
 1418 0819 01       		.byte	0x1
 1419 081a 4B       		.byte	0x4b
 1420 081b 39060000 		.4byte	0x639
 1421 081f 01       		.uleb128 0x1
 1422 0820 52       		.byte	0x52
 1423 0821 26       		.uleb128 0x26
 1424 0822 C6030000 		.4byte	.LASF116
 1425 0826 3B080000 		.4byte	0x83b
 1426 082a 00       		.byte	0
 1427 082b 15       		.uleb128 0x15
 1428 082c 01060000 		.4byte	0x601
 1429 0830 3B080000 		.4byte	0x83b
 1430 0834 16       		.uleb128 0x16
 1431 0835 5A040000 		.4byte	0x45a
 1432 0839 10       		.byte	0x10
 1433 083a 00       		.byte	0
 1434 083b 13       		.uleb128 0x13
 1435 083c 2B080000 		.4byte	0x82b
 1436 0840 23       		.uleb128 0x23
 1437 0841 03060000 		.4byte	.LASF126
 1438 0845 01       		.byte	0x1
 1439 0846 61       		.byte	0x61
 1440 0847 00000000 		.4byte	.LFB171
 1441 084b 22000000 		.4byte	.LFE171-.LFB171
 1442 084f 01       		.uleb128 0x1
 1443 0850 9C       		.byte	0x9c
 1444 0851 8C090000 		.4byte	0x98c
 1445 0855 24       		.uleb128 0x24
 1446 0856 6D7000   		.ascii	"mp\000"
 1447 0859 01       		.byte	0x1
 1448 085a 61       		.byte	0x61
 1449 085b 18070000 		.4byte	0x718
 1450 085f 01       		.uleb128 0x1
 1451 0860 50       		.byte	0x50
 1452 0861 27       		.uleb128 0x27
 1453 0862 7000     		.ascii	"p\000"
 1454 0864 01       		.byte	0x1
 1455 0865 61       		.byte	0x61
 1456 0866 24030000 		.4byte	0x324
 1457 086a 00000000 		.4byte	.LLST0
 1458 086e 27       		.uleb128 0x27
 1459 086f 6E00     		.ascii	"n\000"
 1460 0871 01       		.byte	0x1
 1461 0872 61       		.byte	0x61
 1462 0873 28000000 		.4byte	0x28
 1463 0877 1E000000 		.4byte	.LLST1
 1464 087b 26       		.uleb128 0x26
 1465 087c C6030000 		.4byte	.LASF116
 1466 0880 9C090000 		.4byte	0x99c
 1467 0884 28       		.uleb128 0x28
 1468 0885 C4070000 		.4byte	0x7c4
 1469 0889 04000000 		.4byte	.LBB77
 1470 088d 12000000 		.4byte	.LBE77-.LBB77
 1471 0891 01       		.byte	0x1
 1472 0892 66       		.byte	0x66
 1473 0893 29       		.uleb128 0x29
ARM GAS  /tmp/ccw8nbVQ.s 			page 27


 1474 0894 D0070000 		.4byte	0x7d0
 1475 0898 49000000 		.4byte	.LLST2
 1476 089c 29       		.uleb128 0x29
 1477 089d DA070000 		.4byte	0x7da
 1478 08a1 5C000000 		.4byte	.LLST3
 1479 08a5 28       		.uleb128 0x28
 1480 08a6 A2070000 		.4byte	0x7a2
 1481 08aa 04000000 		.4byte	.LBB78
 1482 08ae 12000000 		.4byte	.LBE78-.LBB78
 1483 08b2 0F       		.byte	0xf
 1484 08b3 8B       		.byte	0x8b
 1485 08b4 29       		.uleb128 0x29
 1486 08b5 B8070000 		.4byte	0x7b8
 1487 08b9 5C000000 		.4byte	.LLST3
 1488 08bd 29       		.uleb128 0x29
 1489 08be AE070000 		.4byte	0x7ae
 1490 08c2 49000000 		.4byte	.LLST2
 1491 08c6 2A       		.uleb128 0x2a
 1492 08c7 DC060000 		.4byte	0x6dc
 1493 08cb 04000000 		.4byte	.LBB79
 1494 08cf 00000000 		.4byte	.Ldebug_ranges0+0
 1495 08d3 01       		.byte	0x1
 1496 08d4 C3       		.byte	0xc3
 1497 08d5 05090000 		.4byte	0x905
 1498 08d9 2B       		.uleb128 0x2b
 1499 08da CA060000 		.4byte	0x6ca
 1500 08de 04000000 		.4byte	.LBB80
 1501 08e2 00000000 		.4byte	.Ldebug_ranges0+0
 1502 08e6 10       		.byte	0x10
 1503 08e7 5C01     		.2byte	0x15c
 1504 08e9 2B       		.uleb128 0x2b
 1505 08ea B0060000 		.4byte	0x6b0
 1506 08ee 04000000 		.4byte	.LBB81
 1507 08f2 00000000 		.4byte	.Ldebug_ranges0+0
 1508 08f6 0A       		.byte	0xa
 1509 08f7 D001     		.2byte	0x1d0
 1510 08f9 29       		.uleb128 0x29
 1511 08fa BD060000 		.4byte	0x6bd
 1512 08fe 7B000000 		.4byte	.LLST6
 1513 0902 00       		.byte	0
 1514 0903 00       		.byte	0
 1515 0904 00       		.byte	0
 1516 0905 2A       		.uleb128 0x2a
 1517 0906 33070000 		.4byte	0x733
 1518 090a 06000000 		.4byte	.LBB86
 1519 090e 18000000 		.4byte	.Ldebug_ranges0+0x18
 1520 0912 01       		.byte	0x1
 1521 0913 C5       		.byte	0xc5
 1522 0914 4F090000 		.4byte	0x94f
 1523 0918 2C       		.uleb128 0x2c
 1524 0919 18000000 		.4byte	.Ldebug_ranges0+0x18
 1525 091d 2D       		.uleb128 0x2d
 1526 091e 40070000 		.4byte	0x740
 1527 0922 2B       		.uleb128 0x2b
 1528 0923 D3060000 		.4byte	0x6d3
 1529 0927 06000000 		.4byte	.LBB88
 1530 092b 18000000 		.4byte	.Ldebug_ranges0+0x18
ARM GAS  /tmp/ccw8nbVQ.s 			page 28


 1531 092f 10       		.byte	0x10
 1532 0930 7301     		.2byte	0x173
 1533 0932 2B       		.uleb128 0x2b
 1534 0933 B0060000 		.4byte	0x6b0
 1535 0937 06000000 		.4byte	.LBB89
 1536 093b 18000000 		.4byte	.Ldebug_ranges0+0x18
 1537 093f 0A       		.byte	0xa
 1538 0940 E301     		.2byte	0x1e3
 1539 0942 29       		.uleb128 0x29
 1540 0943 BD060000 		.4byte	0x6bd
 1541 0947 90000000 		.4byte	.LLST7
 1542 094b 00       		.byte	0
 1543 094c 00       		.byte	0
 1544 094d 00       		.byte	0
 1545 094e 00       		.byte	0
 1546 094f 28       		.uleb128 0x28
 1547 0950 63070000 		.4byte	0x763
 1548 0954 0C000000 		.4byte	.LBB96
 1549 0958 06000000 		.4byte	.LBE96-.LBB96
 1550 095c 01       		.byte	0x1
 1551 095d C4       		.byte	0xc4
 1552 095e 29       		.uleb128 0x29
 1553 095f 79070000 		.4byte	0x779
 1554 0963 A4000000 		.4byte	.LLST8
 1555 0967 29       		.uleb128 0x29
 1556 0968 6F070000 		.4byte	0x76f
 1557 096c C3000000 		.4byte	.LLST9
 1558 0970 2E       		.uleb128 0x2e
 1559 0971 0C000000 		.4byte	.LBB97
 1560 0975 06000000 		.4byte	.LBE97-.LBB97
 1561 0979 2F       		.uleb128 0x2f
 1562 097a 84070000 		.4byte	0x784
 1563 097e A4000000 		.4byte	.LLST8
 1564 0982 2D       		.uleb128 0x2d
 1565 0983 8F070000 		.4byte	0x78f
 1566 0987 00       		.byte	0
 1567 0988 00       		.byte	0
 1568 0989 00       		.byte	0
 1569 098a 00       		.byte	0
 1570 098b 00       		.byte	0
 1571 098c 15       		.uleb128 0x15
 1572 098d 01060000 		.4byte	0x601
 1573 0991 9C090000 		.4byte	0x99c
 1574 0995 16       		.uleb128 0x16
 1575 0996 5A040000 		.4byte	0x45a
 1576 099a 0F       		.byte	0xf
 1577 099b 00       		.byte	0
 1578 099c 13       		.uleb128 0x13
 1579 099d 8C090000 		.4byte	0x98c
 1580 09a1 30       		.uleb128 0x30
 1581 09a2 E5060000 		.4byte	0x6e5
 1582 09a6 00000000 		.4byte	.LFB172
 1583 09aa 16000000 		.4byte	.LFE172-.LFB172
 1584 09ae 01       		.uleb128 0x1
 1585 09af 9C       		.byte	0x9c
 1586 09b0 CC090000 		.4byte	0x9cc
 1587 09b4 29       		.uleb128 0x29
ARM GAS  /tmp/ccw8nbVQ.s 			page 29


 1588 09b5 F5060000 		.4byte	0x6f5
 1589 09b9 D6000000 		.4byte	.LLST11
 1590 09bd 2F       		.uleb128 0x2f
 1591 09be FF060000 		.4byte	0x6ff
 1592 09c2 10010000 		.4byte	.LLST12
 1593 09c6 2D       		.uleb128 0x2d
 1594 09c7 0A070000 		.4byte	0x70a
 1595 09cb 00       		.byte	0
 1596 09cc 31       		.uleb128 0x31
 1597 09cd BA050000 		.4byte	.LASF130
 1598 09d1 01       		.byte	0x1
 1599 09d2 95       		.byte	0x95
 1600 09d3 24030000 		.4byte	0x324
 1601 09d7 00000000 		.4byte	.LFB173
 1602 09db 2C000000 		.4byte	.LFE173-.LFB173
 1603 09df 01       		.uleb128 0x1
 1604 09e0 9C       		.byte	0x9c
 1605 09e1 B40A0000 		.4byte	0xab4
 1606 09e5 27       		.uleb128 0x27
 1607 09e6 6D7000   		.ascii	"mp\000"
 1608 09e9 01       		.byte	0x1
 1609 09ea 95       		.byte	0x95
 1610 09eb 18070000 		.4byte	0x718
 1611 09ef 23010000 		.4byte	.LLST13
 1612 09f3 32       		.uleb128 0x32
 1613 09f4 D9030000 		.4byte	.LASF115
 1614 09f8 01       		.byte	0x1
 1615 09f9 96       		.byte	0x96
 1616 09fa 24030000 		.4byte	0x324
 1617 09fe 01       		.uleb128 0x1
 1618 09ff 50       		.byte	0x50
 1619 0a00 2A       		.uleb128 0x2a
 1620 0a01 DC060000 		.4byte	0x6dc
 1621 0a05 02000000 		.4byte	.LBB99
 1622 0a09 30000000 		.4byte	.Ldebug_ranges0+0x30
 1623 0a0d 01       		.byte	0x1
 1624 0a0e 98       		.byte	0x98
 1625 0a0f 3C0A0000 		.4byte	0xa3c
 1626 0a13 2B       		.uleb128 0x2b
 1627 0a14 CA060000 		.4byte	0x6ca
 1628 0a18 02000000 		.4byte	.LBB100
 1629 0a1c 30000000 		.4byte	.Ldebug_ranges0+0x30
 1630 0a20 10       		.byte	0x10
 1631 0a21 5C01     		.2byte	0x15c
 1632 0a23 2B       		.uleb128 0x2b
 1633 0a24 B0060000 		.4byte	0x6b0
 1634 0a28 02000000 		.4byte	.LBB101
 1635 0a2c 30000000 		.4byte	.Ldebug_ranges0+0x30
 1636 0a30 0A       		.byte	0xa
 1637 0a31 D001     		.2byte	0x1d0
 1638 0a33 33       		.uleb128 0x33
 1639 0a34 BD060000 		.4byte	0x6bd
 1640 0a38 20       		.byte	0x20
 1641 0a39 00       		.byte	0
 1642 0a3a 00       		.byte	0
 1643 0a3b 00       		.byte	0
 1644 0a3c 2A       		.uleb128 0x2a
ARM GAS  /tmp/ccw8nbVQ.s 			page 30


 1645 0a3d E5060000 		.4byte	0x6e5
 1646 0a41 0A000000 		.4byte	.LBB107
 1647 0a45 48000000 		.4byte	.Ldebug_ranges0+0x48
 1648 0a49 01       		.byte	0x1
 1649 0a4a 99       		.byte	0x99
 1650 0a4b 6D0A0000 		.4byte	0xa6d
 1651 0a4f 29       		.uleb128 0x29
 1652 0a50 F5060000 		.4byte	0x6f5
 1653 0a54 68010000 		.4byte	.LLST14
 1654 0a58 2C       		.uleb128 0x2c
 1655 0a59 48000000 		.4byte	.Ldebug_ranges0+0x48
 1656 0a5d 2F       		.uleb128 0x2f
 1657 0a5e FF060000 		.4byte	0x6ff
 1658 0a62 AD010000 		.4byte	.LLST15
 1659 0a66 2D       		.uleb128 0x2d
 1660 0a67 0A070000 		.4byte	0x70a
 1661 0a6b 00       		.byte	0
 1662 0a6c 00       		.byte	0
 1663 0a6d 34       		.uleb128 0x34
 1664 0a6e 33070000 		.4byte	0x733
 1665 0a72 12000000 		.4byte	.LBB110
 1666 0a76 60000000 		.4byte	.Ldebug_ranges0+0x60
 1667 0a7a 01       		.byte	0x1
 1668 0a7b 9A       		.byte	0x9a
 1669 0a7c 2C       		.uleb128 0x2c
 1670 0a7d 60000000 		.4byte	.Ldebug_ranges0+0x60
 1671 0a81 2D       		.uleb128 0x2d
 1672 0a82 40070000 		.4byte	0x740
 1673 0a86 2B       		.uleb128 0x2b
 1674 0a87 D3060000 		.4byte	0x6d3
 1675 0a8b 12000000 		.4byte	.LBB112
 1676 0a8f 60000000 		.4byte	.Ldebug_ranges0+0x60
 1677 0a93 10       		.byte	0x10
 1678 0a94 7301     		.2byte	0x173
 1679 0a96 2B       		.uleb128 0x2b
 1680 0a97 B0060000 		.4byte	0x6b0
 1681 0a9b 12000000 		.4byte	.LBB113
 1682 0a9f 60000000 		.4byte	.Ldebug_ranges0+0x60
 1683 0aa3 0A       		.byte	0xa
 1684 0aa4 E301     		.2byte	0x1e3
 1685 0aa6 29       		.uleb128 0x29
 1686 0aa7 BD060000 		.4byte	0x6bd
 1687 0aab D7010000 		.4byte	.LLST16
 1688 0aaf 00       		.byte	0
 1689 0ab0 00       		.byte	0
 1690 0ab1 00       		.byte	0
 1691 0ab2 00       		.byte	0
 1692 0ab3 00       		.byte	0
 1693 0ab4 35       		.uleb128 0x35
 1694 0ab5 63070000 		.4byte	0x763
 1695 0ab9 00000000 		.4byte	.LFB174
 1696 0abd 08000000 		.4byte	.LFE174-.LFB174
 1697 0ac1 01       		.uleb128 0x1
 1698 0ac2 9C       		.byte	0x9c
 1699 0ac3 E20A0000 		.4byte	0xae2
 1700 0ac7 36       		.uleb128 0x36
 1701 0ac8 6F070000 		.4byte	0x76f
ARM GAS  /tmp/ccw8nbVQ.s 			page 31


 1702 0acc 01       		.uleb128 0x1
 1703 0acd 50       		.byte	0x50
 1704 0ace 36       		.uleb128 0x36
 1705 0acf 79070000 		.4byte	0x779
 1706 0ad3 01       		.uleb128 0x1
 1707 0ad4 51       		.byte	0x51
 1708 0ad5 37       		.uleb128 0x37
 1709 0ad6 84070000 		.4byte	0x784
 1710 0ada 01       		.uleb128 0x1
 1711 0adb 51       		.byte	0x51
 1712 0adc 2D       		.uleb128 0x2d
 1713 0add 8F070000 		.4byte	0x78f
 1714 0ae1 00       		.byte	0
 1715 0ae2 35       		.uleb128 0x35
 1716 0ae3 A2070000 		.4byte	0x7a2
 1717 0ae7 00000000 		.4byte	.LFB175
 1718 0aeb 14000000 		.4byte	.LFE175-.LFB175
 1719 0aef 01       		.uleb128 0x1
 1720 0af0 9C       		.byte	0x9c
 1721 0af1 B70B0000 		.4byte	0xbb7
 1722 0af5 36       		.uleb128 0x36
 1723 0af6 AE070000 		.4byte	0x7ae
 1724 0afa 01       		.uleb128 0x1
 1725 0afb 50       		.byte	0x50
 1726 0afc 36       		.uleb128 0x36
 1727 0afd B8070000 		.4byte	0x7b8
 1728 0b01 01       		.uleb128 0x1
 1729 0b02 51       		.byte	0x51
 1730 0b03 38       		.uleb128 0x38
 1731 0b04 DC060000 		.4byte	0x6dc
 1732 0b08 00000000 		.4byte	.LBB121
 1733 0b0c 06000000 		.4byte	.LBE121-.LBB121
 1734 0b10 01       		.byte	0x1
 1735 0b11 C3       		.byte	0xc3
 1736 0b12 3F0B0000 		.4byte	0xb3f
 1737 0b16 39       		.uleb128 0x39
 1738 0b17 CA060000 		.4byte	0x6ca
 1739 0b1b 00000000 		.4byte	.LBB122
 1740 0b1f 06000000 		.4byte	.LBE122-.LBB122
 1741 0b23 10       		.byte	0x10
 1742 0b24 5C01     		.2byte	0x15c
 1743 0b26 39       		.uleb128 0x39
 1744 0b27 B0060000 		.4byte	0x6b0
 1745 0b2b 00000000 		.4byte	.LBB123
 1746 0b2f 06000000 		.4byte	.LBE123-.LBB123
 1747 0b33 0A       		.byte	0xa
 1748 0b34 D001     		.2byte	0x1d0
 1749 0b36 33       		.uleb128 0x33
 1750 0b37 BD060000 		.4byte	0x6bd
 1751 0b3b 20       		.byte	0x20
 1752 0b3c 00       		.byte	0
 1753 0b3d 00       		.byte	0
 1754 0b3e 00       		.byte	0
 1755 0b3f 2A       		.uleb128 0x2a
 1756 0b40 63070000 		.4byte	0x763
 1757 0b44 06000000 		.4byte	.LBB125
 1758 0b48 78000000 		.4byte	.Ldebug_ranges0+0x78
ARM GAS  /tmp/ccw8nbVQ.s 			page 32


 1759 0b4c 01       		.byte	0x1
 1760 0b4d C4       		.byte	0xc4
 1761 0b4e 730B0000 		.4byte	0xb73
 1762 0b52 36       		.uleb128 0x36
 1763 0b53 79070000 		.4byte	0x779
 1764 0b57 01       		.uleb128 0x1
 1765 0b58 51       		.byte	0x51
 1766 0b59 36       		.uleb128 0x36
 1767 0b5a 6F070000 		.4byte	0x76f
 1768 0b5e 01       		.uleb128 0x1
 1769 0b5f 50       		.byte	0x50
 1770 0b60 2C       		.uleb128 0x2c
 1771 0b61 78000000 		.4byte	.Ldebug_ranges0+0x78
 1772 0b65 37       		.uleb128 0x37
 1773 0b66 84070000 		.4byte	0x784
 1774 0b6a 01       		.uleb128 0x1
 1775 0b6b 51       		.byte	0x51
 1776 0b6c 2D       		.uleb128 0x2d
 1777 0b6d 8F070000 		.4byte	0x78f
 1778 0b71 00       		.byte	0
 1779 0b72 00       		.byte	0
 1780 0b73 34       		.uleb128 0x34
 1781 0b74 33070000 		.4byte	0x733
 1782 0b78 08000000 		.4byte	.LBB128
 1783 0b7c 90000000 		.4byte	.Ldebug_ranges0+0x90
 1784 0b80 01       		.byte	0x1
 1785 0b81 C5       		.byte	0xc5
 1786 0b82 2C       		.uleb128 0x2c
 1787 0b83 90000000 		.4byte	.Ldebug_ranges0+0x90
 1788 0b87 2D       		.uleb128 0x2d
 1789 0b88 40070000 		.4byte	0x740
 1790 0b8c 2B       		.uleb128 0x2b
 1791 0b8d D3060000 		.4byte	0x6d3
 1792 0b91 08000000 		.4byte	.LBB130
 1793 0b95 90000000 		.4byte	.Ldebug_ranges0+0x90
 1794 0b99 10       		.byte	0x10
 1795 0b9a 7301     		.2byte	0x173
 1796 0b9c 2B       		.uleb128 0x2b
 1797 0b9d B0060000 		.4byte	0x6b0
 1798 0ba1 08000000 		.4byte	.LBB131
 1799 0ba5 90000000 		.4byte	.Ldebug_ranges0+0x90
 1800 0ba9 0A       		.byte	0xa
 1801 0baa E301     		.2byte	0x1e3
 1802 0bac 33       		.uleb128 0x33
 1803 0bad BD060000 		.4byte	0x6bd
 1804 0bb1 00       		.byte	0
 1805 0bb2 00       		.byte	0
 1806 0bb3 00       		.byte	0
 1807 0bb4 00       		.byte	0
 1808 0bb5 00       		.byte	0
 1809 0bb6 00       		.byte	0
 1810 0bb7 3A       		.uleb128 0x3a
 1811 0bb8 B9000000 		.4byte	.LASF127
 1812 0bbc 11       		.byte	0x11
 1813 0bbd 5506     		.2byte	0x655
 1814 0bbf C30B0000 		.4byte	0xbc3
 1815 0bc3 14       		.uleb128 0x14
ARM GAS  /tmp/ccw8nbVQ.s 			page 33


 1816 0bc4 A9000000 		.4byte	0xa9
 1817 0bc8 3B       		.uleb128 0x3b
 1818 0bc9 636800   		.ascii	"ch\000"
 1819 0bcc 08       		.byte	0x8
 1820 0bcd 0902     		.2byte	0x209
 1821 0bcf F3030000 		.4byte	0x3f3
 1822 0bd3 00       		.byte	0
 1823              		.section	.debug_abbrev,"",%progbits
 1824              	.Ldebug_abbrev0:
 1825 0000 01       		.uleb128 0x1
 1826 0001 11       		.uleb128 0x11
 1827 0002 01       		.byte	0x1
 1828 0003 25       		.uleb128 0x25
 1829 0004 0E       		.uleb128 0xe
 1830 0005 13       		.uleb128 0x13
 1831 0006 0B       		.uleb128 0xb
 1832 0007 03       		.uleb128 0x3
 1833 0008 0E       		.uleb128 0xe
 1834 0009 55       		.uleb128 0x55
 1835 000a 17       		.uleb128 0x17
 1836 000b 11       		.uleb128 0x11
 1837 000c 01       		.uleb128 0x1
 1838 000d 10       		.uleb128 0x10
 1839 000e 17       		.uleb128 0x17
 1840 000f 00       		.byte	0
 1841 0010 00       		.byte	0
 1842 0011 02       		.uleb128 0x2
 1843 0012 24       		.uleb128 0x24
 1844 0013 00       		.byte	0
 1845 0014 0B       		.uleb128 0xb
 1846 0015 0B       		.uleb128 0xb
 1847 0016 3E       		.uleb128 0x3e
 1848 0017 0B       		.uleb128 0xb
 1849 0018 03       		.uleb128 0x3
 1850 0019 08       		.uleb128 0x8
 1851 001a 00       		.byte	0
 1852 001b 00       		.byte	0
 1853 001c 03       		.uleb128 0x3
 1854 001d 16       		.uleb128 0x16
 1855 001e 00       		.byte	0
 1856 001f 03       		.uleb128 0x3
 1857 0020 0E       		.uleb128 0xe
 1858 0021 3A       		.uleb128 0x3a
 1859 0022 0B       		.uleb128 0xb
 1860 0023 3B       		.uleb128 0x3b
 1861 0024 0B       		.uleb128 0xb
 1862 0025 49       		.uleb128 0x49
 1863 0026 13       		.uleb128 0x13
 1864 0027 00       		.byte	0
 1865 0028 00       		.byte	0
 1866 0029 04       		.uleb128 0x4
 1867 002a 24       		.uleb128 0x24
 1868 002b 00       		.byte	0
 1869 002c 0B       		.uleb128 0xb
 1870 002d 0B       		.uleb128 0xb
 1871 002e 3E       		.uleb128 0x3e
 1872 002f 0B       		.uleb128 0xb
ARM GAS  /tmp/ccw8nbVQ.s 			page 34


 1873 0030 03       		.uleb128 0x3
 1874 0031 0E       		.uleb128 0xe
 1875 0032 00       		.byte	0
 1876 0033 00       		.byte	0
 1877 0034 05       		.uleb128 0x5
 1878 0035 13       		.uleb128 0x13
 1879 0036 01       		.byte	0x1
 1880 0037 03       		.uleb128 0x3
 1881 0038 0E       		.uleb128 0xe
 1882 0039 0B       		.uleb128 0xb
 1883 003a 0B       		.uleb128 0xb
 1884 003b 3A       		.uleb128 0x3a
 1885 003c 0B       		.uleb128 0xb
 1886 003d 3B       		.uleb128 0x3b
 1887 003e 0B       		.uleb128 0xb
 1888 003f 01       		.uleb128 0x1
 1889 0040 13       		.uleb128 0x13
 1890 0041 00       		.byte	0
 1891 0042 00       		.byte	0
 1892 0043 06       		.uleb128 0x6
 1893 0044 0D       		.uleb128 0xd
 1894 0045 00       		.byte	0
 1895 0046 03       		.uleb128 0x3
 1896 0047 0E       		.uleb128 0xe
 1897 0048 3A       		.uleb128 0x3a
 1898 0049 0B       		.uleb128 0xb
 1899 004a 3B       		.uleb128 0x3b
 1900 004b 0B       		.uleb128 0xb
 1901 004c 49       		.uleb128 0x49
 1902 004d 13       		.uleb128 0x13
 1903 004e 38       		.uleb128 0x38
 1904 004f 0B       		.uleb128 0xb
 1905 0050 00       		.byte	0
 1906 0051 00       		.byte	0
 1907 0052 07       		.uleb128 0x7
 1908 0053 0D       		.uleb128 0xd
 1909 0054 00       		.byte	0
 1910 0055 03       		.uleb128 0x3
 1911 0056 08       		.uleb128 0x8
 1912 0057 3A       		.uleb128 0x3a
 1913 0058 0B       		.uleb128 0xb
 1914 0059 3B       		.uleb128 0x3b
 1915 005a 05       		.uleb128 0x5
 1916 005b 49       		.uleb128 0x49
 1917 005c 13       		.uleb128 0x13
 1918 005d 38       		.uleb128 0x38
 1919 005e 0B       		.uleb128 0xb
 1920 005f 00       		.byte	0
 1921 0060 00       		.byte	0
 1922 0061 08       		.uleb128 0x8
 1923 0062 0D       		.uleb128 0xd
 1924 0063 00       		.byte	0
 1925 0064 03       		.uleb128 0x3
 1926 0065 0E       		.uleb128 0xe
 1927 0066 3A       		.uleb128 0x3a
 1928 0067 0B       		.uleb128 0xb
 1929 0068 3B       		.uleb128 0x3b
ARM GAS  /tmp/ccw8nbVQ.s 			page 35


 1930 0069 05       		.uleb128 0x5
 1931 006a 49       		.uleb128 0x49
 1932 006b 13       		.uleb128 0x13
 1933 006c 38       		.uleb128 0x38
 1934 006d 0B       		.uleb128 0xb
 1935 006e 00       		.byte	0
 1936 006f 00       		.byte	0
 1937 0070 09       		.uleb128 0x9
 1938 0071 0F       		.uleb128 0xf
 1939 0072 00       		.byte	0
 1940 0073 0B       		.uleb128 0xb
 1941 0074 0B       		.uleb128 0xb
 1942 0075 49       		.uleb128 0x49
 1943 0076 13       		.uleb128 0x13
 1944 0077 00       		.byte	0
 1945 0078 00       		.byte	0
 1946 0079 0A       		.uleb128 0xa
 1947 007a 13       		.uleb128 0x13
 1948 007b 01       		.byte	0x1
 1949 007c 03       		.uleb128 0x3
 1950 007d 0E       		.uleb128 0xe
 1951 007e 0B       		.uleb128 0xb
 1952 007f 0B       		.uleb128 0xb
 1953 0080 3A       		.uleb128 0x3a
 1954 0081 0B       		.uleb128 0xb
 1955 0082 3B       		.uleb128 0x3b
 1956 0083 05       		.uleb128 0x5
 1957 0084 01       		.uleb128 0x1
 1958 0085 13       		.uleb128 0x13
 1959 0086 00       		.byte	0
 1960 0087 00       		.byte	0
 1961 0088 0B       		.uleb128 0xb
 1962 0089 15       		.uleb128 0x15
 1963 008a 01       		.byte	0x1
 1964 008b 27       		.uleb128 0x27
 1965 008c 19       		.uleb128 0x19
 1966 008d 01       		.uleb128 0x1
 1967 008e 13       		.uleb128 0x13
 1968 008f 00       		.byte	0
 1969 0090 00       		.byte	0
 1970 0091 0C       		.uleb128 0xc
 1971 0092 05       		.uleb128 0x5
 1972 0093 00       		.byte	0
 1973 0094 49       		.uleb128 0x49
 1974 0095 13       		.uleb128 0x13
 1975 0096 00       		.byte	0
 1976 0097 00       		.byte	0
 1977 0098 0D       		.uleb128 0xd
 1978 0099 0F       		.uleb128 0xf
 1979 009a 00       		.byte	0
 1980 009b 0B       		.uleb128 0xb
 1981 009c 0B       		.uleb128 0xb
 1982 009d 00       		.byte	0
 1983 009e 00       		.byte	0
 1984 009f 0E       		.uleb128 0xe
 1985 00a0 13       		.uleb128 0x13
 1986 00a1 01       		.byte	0x1
ARM GAS  /tmp/ccw8nbVQ.s 			page 36


 1987 00a2 03       		.uleb128 0x3
 1988 00a3 0E       		.uleb128 0xe
 1989 00a4 0B       		.uleb128 0xb
 1990 00a5 05       		.uleb128 0x5
 1991 00a6 3A       		.uleb128 0x3a
 1992 00a7 0B       		.uleb128 0xb
 1993 00a8 3B       		.uleb128 0x3b
 1994 00a9 05       		.uleb128 0x5
 1995 00aa 01       		.uleb128 0x1
 1996 00ab 13       		.uleb128 0x13
 1997 00ac 00       		.byte	0
 1998 00ad 00       		.byte	0
 1999 00ae 0F       		.uleb128 0xf
 2000 00af 0D       		.uleb128 0xd
 2001 00b0 00       		.byte	0
 2002 00b1 03       		.uleb128 0x3
 2003 00b2 08       		.uleb128 0x8
 2004 00b3 3A       		.uleb128 0x3a
 2005 00b4 0B       		.uleb128 0xb
 2006 00b5 3B       		.uleb128 0x3b
 2007 00b6 0B       		.uleb128 0xb
 2008 00b7 49       		.uleb128 0x49
 2009 00b8 13       		.uleb128 0x13
 2010 00b9 38       		.uleb128 0x38
 2011 00ba 0B       		.uleb128 0xb
 2012 00bb 00       		.byte	0
 2013 00bc 00       		.byte	0
 2014 00bd 10       		.uleb128 0x10
 2015 00be 13       		.uleb128 0x13
 2016 00bf 01       		.byte	0x1
 2017 00c0 0B       		.uleb128 0xb
 2018 00c1 0B       		.uleb128 0xb
 2019 00c2 3A       		.uleb128 0x3a
 2020 00c3 0B       		.uleb128 0xb
 2021 00c4 3B       		.uleb128 0x3b
 2022 00c5 0B       		.uleb128 0xb
 2023 00c6 01       		.uleb128 0x1
 2024 00c7 13       		.uleb128 0x13
 2025 00c8 00       		.byte	0
 2026 00c9 00       		.byte	0
 2027 00ca 11       		.uleb128 0x11
 2028 00cb 17       		.uleb128 0x17
 2029 00cc 01       		.byte	0x1
 2030 00cd 0B       		.uleb128 0xb
 2031 00ce 0B       		.uleb128 0xb
 2032 00cf 3A       		.uleb128 0x3a
 2033 00d0 0B       		.uleb128 0xb
 2034 00d1 3B       		.uleb128 0x3b
 2035 00d2 0B       		.uleb128 0xb
 2036 00d3 01       		.uleb128 0x1
 2037 00d4 13       		.uleb128 0x13
 2038 00d5 00       		.byte	0
 2039 00d6 00       		.byte	0
 2040 00d7 12       		.uleb128 0x12
 2041 00d8 0D       		.uleb128 0xd
 2042 00d9 00       		.byte	0
 2043 00da 03       		.uleb128 0x3
ARM GAS  /tmp/ccw8nbVQ.s 			page 37


 2044 00db 0E       		.uleb128 0xe
 2045 00dc 3A       		.uleb128 0x3a
 2046 00dd 0B       		.uleb128 0xb
 2047 00de 3B       		.uleb128 0x3b
 2048 00df 05       		.uleb128 0x5
 2049 00e0 49       		.uleb128 0x49
 2050 00e1 13       		.uleb128 0x13
 2051 00e2 00       		.byte	0
 2052 00e3 00       		.byte	0
 2053 00e4 13       		.uleb128 0x13
 2054 00e5 26       		.uleb128 0x26
 2055 00e6 00       		.byte	0
 2056 00e7 49       		.uleb128 0x49
 2057 00e8 13       		.uleb128 0x13
 2058 00e9 00       		.byte	0
 2059 00ea 00       		.byte	0
 2060 00eb 14       		.uleb128 0x14
 2061 00ec 35       		.uleb128 0x35
 2062 00ed 00       		.byte	0
 2063 00ee 49       		.uleb128 0x49
 2064 00ef 13       		.uleb128 0x13
 2065 00f0 00       		.byte	0
 2066 00f1 00       		.byte	0
 2067 00f2 15       		.uleb128 0x15
 2068 00f3 01       		.uleb128 0x1
 2069 00f4 01       		.byte	0x1
 2070 00f5 49       		.uleb128 0x49
 2071 00f6 13       		.uleb128 0x13
 2072 00f7 01       		.uleb128 0x1
 2073 00f8 13       		.uleb128 0x13
 2074 00f9 00       		.byte	0
 2075 00fa 00       		.byte	0
 2076 00fb 16       		.uleb128 0x16
 2077 00fc 21       		.uleb128 0x21
 2078 00fd 00       		.byte	0
 2079 00fe 49       		.uleb128 0x49
 2080 00ff 13       		.uleb128 0x13
 2081 0100 2F       		.uleb128 0x2f
 2082 0101 0B       		.uleb128 0xb
 2083 0102 00       		.byte	0
 2084 0103 00       		.byte	0
 2085 0104 17       		.uleb128 0x17
 2086 0105 15       		.uleb128 0x15
 2087 0106 01       		.byte	0x1
 2088 0107 27       		.uleb128 0x27
 2089 0108 19       		.uleb128 0x19
 2090 0109 49       		.uleb128 0x49
 2091 010a 13       		.uleb128 0x13
 2092 010b 01       		.uleb128 0x1
 2093 010c 13       		.uleb128 0x13
 2094 010d 00       		.byte	0
 2095 010e 00       		.byte	0
 2096 010f 18       		.uleb128 0x18
 2097 0110 2E       		.uleb128 0x2e
 2098 0111 01       		.byte	0x1
 2099 0112 03       		.uleb128 0x3
 2100 0113 0E       		.uleb128 0xe
ARM GAS  /tmp/ccw8nbVQ.s 			page 38


 2101 0114 3A       		.uleb128 0x3a
 2102 0115 0B       		.uleb128 0xb
 2103 0116 3B       		.uleb128 0x3b
 2104 0117 05       		.uleb128 0x5
 2105 0118 27       		.uleb128 0x27
 2106 0119 19       		.uleb128 0x19
 2107 011a 20       		.uleb128 0x20
 2108 011b 0B       		.uleb128 0xb
 2109 011c 01       		.uleb128 0x1
 2110 011d 13       		.uleb128 0x13
 2111 011e 00       		.byte	0
 2112 011f 00       		.byte	0
 2113 0120 19       		.uleb128 0x19
 2114 0121 05       		.uleb128 0x5
 2115 0122 00       		.byte	0
 2116 0123 03       		.uleb128 0x3
 2117 0124 0E       		.uleb128 0xe
 2118 0125 3A       		.uleb128 0x3a
 2119 0126 0B       		.uleb128 0xb
 2120 0127 3B       		.uleb128 0x3b
 2121 0128 05       		.uleb128 0x5
 2122 0129 49       		.uleb128 0x49
 2123 012a 13       		.uleb128 0x13
 2124 012b 00       		.byte	0
 2125 012c 00       		.byte	0
 2126 012d 1A       		.uleb128 0x1a
 2127 012e 2E       		.uleb128 0x2e
 2128 012f 00       		.byte	0
 2129 0130 03       		.uleb128 0x3
 2130 0131 0E       		.uleb128 0xe
 2131 0132 3A       		.uleb128 0x3a
 2132 0133 0B       		.uleb128 0xb
 2133 0134 3B       		.uleb128 0x3b
 2134 0135 05       		.uleb128 0x5
 2135 0136 27       		.uleb128 0x27
 2136 0137 19       		.uleb128 0x19
 2137 0138 20       		.uleb128 0x20
 2138 0139 0B       		.uleb128 0xb
 2139 013a 00       		.byte	0
 2140 013b 00       		.byte	0
 2141 013c 1B       		.uleb128 0x1b
 2142 013d 2E       		.uleb128 0x2e
 2143 013e 01       		.byte	0x1
 2144 013f 3F       		.uleb128 0x3f
 2145 0140 19       		.uleb128 0x19
 2146 0141 03       		.uleb128 0x3
 2147 0142 0E       		.uleb128 0xe
 2148 0143 3A       		.uleb128 0x3a
 2149 0144 0B       		.uleb128 0xb
 2150 0145 3B       		.uleb128 0x3b
 2151 0146 0B       		.uleb128 0xb
 2152 0147 27       		.uleb128 0x27
 2153 0148 19       		.uleb128 0x19
 2154 0149 49       		.uleb128 0x49
 2155 014a 13       		.uleb128 0x13
 2156 014b 20       		.uleb128 0x20
 2157 014c 0B       		.uleb128 0xb
ARM GAS  /tmp/ccw8nbVQ.s 			page 39


 2158 014d 01       		.uleb128 0x1
 2159 014e 13       		.uleb128 0x13
 2160 014f 00       		.byte	0
 2161 0150 00       		.byte	0
 2162 0151 1C       		.uleb128 0x1c
 2163 0152 05       		.uleb128 0x5
 2164 0153 00       		.byte	0
 2165 0154 03       		.uleb128 0x3
 2166 0155 08       		.uleb128 0x8
 2167 0156 3A       		.uleb128 0x3a
 2168 0157 0B       		.uleb128 0xb
 2169 0158 3B       		.uleb128 0x3b
 2170 0159 0B       		.uleb128 0xb
 2171 015a 49       		.uleb128 0x49
 2172 015b 13       		.uleb128 0x13
 2173 015c 00       		.byte	0
 2174 015d 00       		.byte	0
 2175 015e 1D       		.uleb128 0x1d
 2176 015f 34       		.uleb128 0x34
 2177 0160 00       		.byte	0
 2178 0161 03       		.uleb128 0x3
 2179 0162 0E       		.uleb128 0xe
 2180 0163 3A       		.uleb128 0x3a
 2181 0164 0B       		.uleb128 0xb
 2182 0165 3B       		.uleb128 0x3b
 2183 0166 0B       		.uleb128 0xb
 2184 0167 49       		.uleb128 0x49
 2185 0168 13       		.uleb128 0x13
 2186 0169 00       		.byte	0
 2187 016a 00       		.byte	0
 2188 016b 1E       		.uleb128 0x1e
 2189 016c 34       		.uleb128 0x34
 2190 016d 00       		.byte	0
 2191 016e 03       		.uleb128 0x3
 2192 016f 0E       		.uleb128 0xe
 2193 0170 49       		.uleb128 0x49
 2194 0171 13       		.uleb128 0x13
 2195 0172 34       		.uleb128 0x34
 2196 0173 19       		.uleb128 0x19
 2197 0174 1C       		.uleb128 0x1c
 2198 0175 0E       		.uleb128 0xe
 2199 0176 00       		.byte	0
 2200 0177 00       		.byte	0
 2201 0178 1F       		.uleb128 0x1f
 2202 0179 2E       		.uleb128 0x2e
 2203 017a 01       		.byte	0x1
 2204 017b 3F       		.uleb128 0x3f
 2205 017c 19       		.uleb128 0x19
 2206 017d 03       		.uleb128 0x3
 2207 017e 0E       		.uleb128 0xe
 2208 017f 3A       		.uleb128 0x3a
 2209 0180 0B       		.uleb128 0xb
 2210 0181 3B       		.uleb128 0x3b
 2211 0182 0B       		.uleb128 0xb
 2212 0183 27       		.uleb128 0x27
 2213 0184 19       		.uleb128 0x19
 2214 0185 20       		.uleb128 0x20
ARM GAS  /tmp/ccw8nbVQ.s 			page 40


 2215 0186 0B       		.uleb128 0xb
 2216 0187 01       		.uleb128 0x1
 2217 0188 13       		.uleb128 0x13
 2218 0189 00       		.byte	0
 2219 018a 00       		.byte	0
 2220 018b 20       		.uleb128 0x20
 2221 018c 05       		.uleb128 0x5
 2222 018d 00       		.byte	0
 2223 018e 03       		.uleb128 0x3
 2224 018f 0E       		.uleb128 0xe
 2225 0190 3A       		.uleb128 0x3a
 2226 0191 0B       		.uleb128 0xb
 2227 0192 3B       		.uleb128 0x3b
 2228 0193 0B       		.uleb128 0xb
 2229 0194 49       		.uleb128 0x49
 2230 0195 13       		.uleb128 0x13
 2231 0196 00       		.byte	0
 2232 0197 00       		.byte	0
 2233 0198 21       		.uleb128 0x21
 2234 0199 34       		.uleb128 0x34
 2235 019a 00       		.byte	0
 2236 019b 03       		.uleb128 0x3
 2237 019c 08       		.uleb128 0x8
 2238 019d 3A       		.uleb128 0x3a
 2239 019e 0B       		.uleb128 0xb
 2240 019f 3B       		.uleb128 0x3b
 2241 01a0 0B       		.uleb128 0xb
 2242 01a1 49       		.uleb128 0x49
 2243 01a2 13       		.uleb128 0x13
 2244 01a3 00       		.byte	0
 2245 01a4 00       		.byte	0
 2246 01a5 22       		.uleb128 0x22
 2247 01a6 2E       		.uleb128 0x2e
 2248 01a7 01       		.byte	0x1
 2249 01a8 03       		.uleb128 0x3
 2250 01a9 0E       		.uleb128 0xe
 2251 01aa 3A       		.uleb128 0x3a
 2252 01ab 0B       		.uleb128 0xb
 2253 01ac 3B       		.uleb128 0x3b
 2254 01ad 0B       		.uleb128 0xb
 2255 01ae 27       		.uleb128 0x27
 2256 01af 19       		.uleb128 0x19
 2257 01b0 20       		.uleb128 0x20
 2258 01b1 0B       		.uleb128 0xb
 2259 01b2 01       		.uleb128 0x1
 2260 01b3 13       		.uleb128 0x13
 2261 01b4 00       		.byte	0
 2262 01b5 00       		.byte	0
 2263 01b6 23       		.uleb128 0x23
 2264 01b7 2E       		.uleb128 0x2e
 2265 01b8 01       		.byte	0x1
 2266 01b9 3F       		.uleb128 0x3f
 2267 01ba 19       		.uleb128 0x19
 2268 01bb 03       		.uleb128 0x3
 2269 01bc 0E       		.uleb128 0xe
 2270 01bd 3A       		.uleb128 0x3a
 2271 01be 0B       		.uleb128 0xb
ARM GAS  /tmp/ccw8nbVQ.s 			page 41


 2272 01bf 3B       		.uleb128 0x3b
 2273 01c0 0B       		.uleb128 0xb
 2274 01c1 27       		.uleb128 0x27
 2275 01c2 19       		.uleb128 0x19
 2276 01c3 11       		.uleb128 0x11
 2277 01c4 01       		.uleb128 0x1
 2278 01c5 12       		.uleb128 0x12
 2279 01c6 06       		.uleb128 0x6
 2280 01c7 40       		.uleb128 0x40
 2281 01c8 18       		.uleb128 0x18
 2282 01c9 9742     		.uleb128 0x2117
 2283 01cb 19       		.uleb128 0x19
 2284 01cc 01       		.uleb128 0x1
 2285 01cd 13       		.uleb128 0x13
 2286 01ce 00       		.byte	0
 2287 01cf 00       		.byte	0
 2288 01d0 24       		.uleb128 0x24
 2289 01d1 05       		.uleb128 0x5
 2290 01d2 00       		.byte	0
 2291 01d3 03       		.uleb128 0x3
 2292 01d4 08       		.uleb128 0x8
 2293 01d5 3A       		.uleb128 0x3a
 2294 01d6 0B       		.uleb128 0xb
 2295 01d7 3B       		.uleb128 0x3b
 2296 01d8 0B       		.uleb128 0xb
 2297 01d9 49       		.uleb128 0x49
 2298 01da 13       		.uleb128 0x13
 2299 01db 02       		.uleb128 0x2
 2300 01dc 18       		.uleb128 0x18
 2301 01dd 00       		.byte	0
 2302 01de 00       		.byte	0
 2303 01df 25       		.uleb128 0x25
 2304 01e0 05       		.uleb128 0x5
 2305 01e1 00       		.byte	0
 2306 01e2 03       		.uleb128 0x3
 2307 01e3 0E       		.uleb128 0xe
 2308 01e4 3A       		.uleb128 0x3a
 2309 01e5 0B       		.uleb128 0xb
 2310 01e6 3B       		.uleb128 0x3b
 2311 01e7 0B       		.uleb128 0xb
 2312 01e8 49       		.uleb128 0x49
 2313 01e9 13       		.uleb128 0x13
 2314 01ea 02       		.uleb128 0x2
 2315 01eb 18       		.uleb128 0x18
 2316 01ec 00       		.byte	0
 2317 01ed 00       		.byte	0
 2318 01ee 26       		.uleb128 0x26
 2319 01ef 34       		.uleb128 0x34
 2320 01f0 00       		.byte	0
 2321 01f1 03       		.uleb128 0x3
 2322 01f2 0E       		.uleb128 0xe
 2323 01f3 49       		.uleb128 0x49
 2324 01f4 13       		.uleb128 0x13
 2325 01f5 34       		.uleb128 0x34
 2326 01f6 19       		.uleb128 0x19
 2327 01f7 00       		.byte	0
 2328 01f8 00       		.byte	0
ARM GAS  /tmp/ccw8nbVQ.s 			page 42


 2329 01f9 27       		.uleb128 0x27
 2330 01fa 05       		.uleb128 0x5
 2331 01fb 00       		.byte	0
 2332 01fc 03       		.uleb128 0x3
 2333 01fd 08       		.uleb128 0x8
 2334 01fe 3A       		.uleb128 0x3a
 2335 01ff 0B       		.uleb128 0xb
 2336 0200 3B       		.uleb128 0x3b
 2337 0201 0B       		.uleb128 0xb
 2338 0202 49       		.uleb128 0x49
 2339 0203 13       		.uleb128 0x13
 2340 0204 02       		.uleb128 0x2
 2341 0205 17       		.uleb128 0x17
 2342 0206 00       		.byte	0
 2343 0207 00       		.byte	0
 2344 0208 28       		.uleb128 0x28
 2345 0209 1D       		.uleb128 0x1d
 2346 020a 01       		.byte	0x1
 2347 020b 31       		.uleb128 0x31
 2348 020c 13       		.uleb128 0x13
 2349 020d 11       		.uleb128 0x11
 2350 020e 01       		.uleb128 0x1
 2351 020f 12       		.uleb128 0x12
 2352 0210 06       		.uleb128 0x6
 2353 0211 58       		.uleb128 0x58
 2354 0212 0B       		.uleb128 0xb
 2355 0213 59       		.uleb128 0x59
 2356 0214 0B       		.uleb128 0xb
 2357 0215 00       		.byte	0
 2358 0216 00       		.byte	0
 2359 0217 29       		.uleb128 0x29
 2360 0218 05       		.uleb128 0x5
 2361 0219 00       		.byte	0
 2362 021a 31       		.uleb128 0x31
 2363 021b 13       		.uleb128 0x13
 2364 021c 02       		.uleb128 0x2
 2365 021d 17       		.uleb128 0x17
 2366 021e 00       		.byte	0
 2367 021f 00       		.byte	0
 2368 0220 2A       		.uleb128 0x2a
 2369 0221 1D       		.uleb128 0x1d
 2370 0222 01       		.byte	0x1
 2371 0223 31       		.uleb128 0x31
 2372 0224 13       		.uleb128 0x13
 2373 0225 52       		.uleb128 0x52
 2374 0226 01       		.uleb128 0x1
 2375 0227 55       		.uleb128 0x55
 2376 0228 17       		.uleb128 0x17
 2377 0229 58       		.uleb128 0x58
 2378 022a 0B       		.uleb128 0xb
 2379 022b 59       		.uleb128 0x59
 2380 022c 0B       		.uleb128 0xb
 2381 022d 01       		.uleb128 0x1
 2382 022e 13       		.uleb128 0x13
 2383 022f 00       		.byte	0
 2384 0230 00       		.byte	0
 2385 0231 2B       		.uleb128 0x2b
ARM GAS  /tmp/ccw8nbVQ.s 			page 43


 2386 0232 1D       		.uleb128 0x1d
 2387 0233 01       		.byte	0x1
 2388 0234 31       		.uleb128 0x31
 2389 0235 13       		.uleb128 0x13
 2390 0236 52       		.uleb128 0x52
 2391 0237 01       		.uleb128 0x1
 2392 0238 55       		.uleb128 0x55
 2393 0239 17       		.uleb128 0x17
 2394 023a 58       		.uleb128 0x58
 2395 023b 0B       		.uleb128 0xb
 2396 023c 59       		.uleb128 0x59
 2397 023d 05       		.uleb128 0x5
 2398 023e 00       		.byte	0
 2399 023f 00       		.byte	0
 2400 0240 2C       		.uleb128 0x2c
 2401 0241 0B       		.uleb128 0xb
 2402 0242 01       		.byte	0x1
 2403 0243 55       		.uleb128 0x55
 2404 0244 17       		.uleb128 0x17
 2405 0245 00       		.byte	0
 2406 0246 00       		.byte	0
 2407 0247 2D       		.uleb128 0x2d
 2408 0248 34       		.uleb128 0x34
 2409 0249 00       		.byte	0
 2410 024a 31       		.uleb128 0x31
 2411 024b 13       		.uleb128 0x13
 2412 024c 00       		.byte	0
 2413 024d 00       		.byte	0
 2414 024e 2E       		.uleb128 0x2e
 2415 024f 0B       		.uleb128 0xb
 2416 0250 01       		.byte	0x1
 2417 0251 11       		.uleb128 0x11
 2418 0252 01       		.uleb128 0x1
 2419 0253 12       		.uleb128 0x12
 2420 0254 06       		.uleb128 0x6
 2421 0255 00       		.byte	0
 2422 0256 00       		.byte	0
 2423 0257 2F       		.uleb128 0x2f
 2424 0258 34       		.uleb128 0x34
 2425 0259 00       		.byte	0
 2426 025a 31       		.uleb128 0x31
 2427 025b 13       		.uleb128 0x13
 2428 025c 02       		.uleb128 0x2
 2429 025d 17       		.uleb128 0x17
 2430 025e 00       		.byte	0
 2431 025f 00       		.byte	0
 2432 0260 30       		.uleb128 0x30
 2433 0261 2E       		.uleb128 0x2e
 2434 0262 01       		.byte	0x1
 2435 0263 31       		.uleb128 0x31
 2436 0264 13       		.uleb128 0x13
 2437 0265 11       		.uleb128 0x11
 2438 0266 01       		.uleb128 0x1
 2439 0267 12       		.uleb128 0x12
 2440 0268 06       		.uleb128 0x6
 2441 0269 40       		.uleb128 0x40
 2442 026a 18       		.uleb128 0x18
ARM GAS  /tmp/ccw8nbVQ.s 			page 44


 2443 026b 01       		.uleb128 0x1
 2444 026c 13       		.uleb128 0x13
 2445 026d 00       		.byte	0
 2446 026e 00       		.byte	0
 2447 026f 31       		.uleb128 0x31
 2448 0270 2E       		.uleb128 0x2e
 2449 0271 01       		.byte	0x1
 2450 0272 3F       		.uleb128 0x3f
 2451 0273 19       		.uleb128 0x19
 2452 0274 03       		.uleb128 0x3
 2453 0275 0E       		.uleb128 0xe
 2454 0276 3A       		.uleb128 0x3a
 2455 0277 0B       		.uleb128 0xb
 2456 0278 3B       		.uleb128 0x3b
 2457 0279 0B       		.uleb128 0xb
 2458 027a 27       		.uleb128 0x27
 2459 027b 19       		.uleb128 0x19
 2460 027c 49       		.uleb128 0x49
 2461 027d 13       		.uleb128 0x13
 2462 027e 11       		.uleb128 0x11
 2463 027f 01       		.uleb128 0x1
 2464 0280 12       		.uleb128 0x12
 2465 0281 06       		.uleb128 0x6
 2466 0282 40       		.uleb128 0x40
 2467 0283 18       		.uleb128 0x18
 2468 0284 9642     		.uleb128 0x2116
 2469 0286 19       		.uleb128 0x19
 2470 0287 01       		.uleb128 0x1
 2471 0288 13       		.uleb128 0x13
 2472 0289 00       		.byte	0
 2473 028a 00       		.byte	0
 2474 028b 32       		.uleb128 0x32
 2475 028c 34       		.uleb128 0x34
 2476 028d 00       		.byte	0
 2477 028e 03       		.uleb128 0x3
 2478 028f 0E       		.uleb128 0xe
 2479 0290 3A       		.uleb128 0x3a
 2480 0291 0B       		.uleb128 0xb
 2481 0292 3B       		.uleb128 0x3b
 2482 0293 0B       		.uleb128 0xb
 2483 0294 49       		.uleb128 0x49
 2484 0295 13       		.uleb128 0x13
 2485 0296 02       		.uleb128 0x2
 2486 0297 18       		.uleb128 0x18
 2487 0298 00       		.byte	0
 2488 0299 00       		.byte	0
 2489 029a 33       		.uleb128 0x33
 2490 029b 05       		.uleb128 0x5
 2491 029c 00       		.byte	0
 2492 029d 31       		.uleb128 0x31
 2493 029e 13       		.uleb128 0x13
 2494 029f 1C       		.uleb128 0x1c
 2495 02a0 0B       		.uleb128 0xb
 2496 02a1 00       		.byte	0
 2497 02a2 00       		.byte	0
 2498 02a3 34       		.uleb128 0x34
 2499 02a4 1D       		.uleb128 0x1d
ARM GAS  /tmp/ccw8nbVQ.s 			page 45


 2500 02a5 01       		.byte	0x1
 2501 02a6 31       		.uleb128 0x31
 2502 02a7 13       		.uleb128 0x13
 2503 02a8 52       		.uleb128 0x52
 2504 02a9 01       		.uleb128 0x1
 2505 02aa 55       		.uleb128 0x55
 2506 02ab 17       		.uleb128 0x17
 2507 02ac 58       		.uleb128 0x58
 2508 02ad 0B       		.uleb128 0xb
 2509 02ae 59       		.uleb128 0x59
 2510 02af 0B       		.uleb128 0xb
 2511 02b0 00       		.byte	0
 2512 02b1 00       		.byte	0
 2513 02b2 35       		.uleb128 0x35
 2514 02b3 2E       		.uleb128 0x2e
 2515 02b4 01       		.byte	0x1
 2516 02b5 31       		.uleb128 0x31
 2517 02b6 13       		.uleb128 0x13
 2518 02b7 11       		.uleb128 0x11
 2519 02b8 01       		.uleb128 0x1
 2520 02b9 12       		.uleb128 0x12
 2521 02ba 06       		.uleb128 0x6
 2522 02bb 40       		.uleb128 0x40
 2523 02bc 18       		.uleb128 0x18
 2524 02bd 9742     		.uleb128 0x2117
 2525 02bf 19       		.uleb128 0x19
 2526 02c0 01       		.uleb128 0x1
 2527 02c1 13       		.uleb128 0x13
 2528 02c2 00       		.byte	0
 2529 02c3 00       		.byte	0
 2530 02c4 36       		.uleb128 0x36
 2531 02c5 05       		.uleb128 0x5
 2532 02c6 00       		.byte	0
 2533 02c7 31       		.uleb128 0x31
 2534 02c8 13       		.uleb128 0x13
 2535 02c9 02       		.uleb128 0x2
 2536 02ca 18       		.uleb128 0x18
 2537 02cb 00       		.byte	0
 2538 02cc 00       		.byte	0
 2539 02cd 37       		.uleb128 0x37
 2540 02ce 34       		.uleb128 0x34
 2541 02cf 00       		.byte	0
 2542 02d0 31       		.uleb128 0x31
 2543 02d1 13       		.uleb128 0x13
 2544 02d2 02       		.uleb128 0x2
 2545 02d3 18       		.uleb128 0x18
 2546 02d4 00       		.byte	0
 2547 02d5 00       		.byte	0
 2548 02d6 38       		.uleb128 0x38
 2549 02d7 1D       		.uleb128 0x1d
 2550 02d8 01       		.byte	0x1
 2551 02d9 31       		.uleb128 0x31
 2552 02da 13       		.uleb128 0x13
 2553 02db 11       		.uleb128 0x11
 2554 02dc 01       		.uleb128 0x1
 2555 02dd 12       		.uleb128 0x12
 2556 02de 06       		.uleb128 0x6
ARM GAS  /tmp/ccw8nbVQ.s 			page 46


 2557 02df 58       		.uleb128 0x58
 2558 02e0 0B       		.uleb128 0xb
 2559 02e1 59       		.uleb128 0x59
 2560 02e2 0B       		.uleb128 0xb
 2561 02e3 01       		.uleb128 0x1
 2562 02e4 13       		.uleb128 0x13
 2563 02e5 00       		.byte	0
 2564 02e6 00       		.byte	0
 2565 02e7 39       		.uleb128 0x39
 2566 02e8 1D       		.uleb128 0x1d
 2567 02e9 01       		.byte	0x1
 2568 02ea 31       		.uleb128 0x31
 2569 02eb 13       		.uleb128 0x13
 2570 02ec 11       		.uleb128 0x11
 2571 02ed 01       		.uleb128 0x1
 2572 02ee 12       		.uleb128 0x12
 2573 02ef 06       		.uleb128 0x6
 2574 02f0 58       		.uleb128 0x58
 2575 02f1 0B       		.uleb128 0xb
 2576 02f2 59       		.uleb128 0x59
 2577 02f3 05       		.uleb128 0x5
 2578 02f4 00       		.byte	0
 2579 02f5 00       		.byte	0
 2580 02f6 3A       		.uleb128 0x3a
 2581 02f7 34       		.uleb128 0x34
 2582 02f8 00       		.byte	0
 2583 02f9 03       		.uleb128 0x3
 2584 02fa 0E       		.uleb128 0xe
 2585 02fb 3A       		.uleb128 0x3a
 2586 02fc 0B       		.uleb128 0xb
 2587 02fd 3B       		.uleb128 0x3b
 2588 02fe 05       		.uleb128 0x5
 2589 02ff 49       		.uleb128 0x49
 2590 0300 13       		.uleb128 0x13
 2591 0301 3F       		.uleb128 0x3f
 2592 0302 19       		.uleb128 0x19
 2593 0303 3C       		.uleb128 0x3c
 2594 0304 19       		.uleb128 0x19
 2595 0305 00       		.byte	0
 2596 0306 00       		.byte	0
 2597 0307 3B       		.uleb128 0x3b
 2598 0308 34       		.uleb128 0x34
 2599 0309 00       		.byte	0
 2600 030a 03       		.uleb128 0x3
 2601 030b 08       		.uleb128 0x8
 2602 030c 3A       		.uleb128 0x3a
 2603 030d 0B       		.uleb128 0xb
 2604 030e 3B       		.uleb128 0x3b
 2605 030f 05       		.uleb128 0x5
 2606 0310 49       		.uleb128 0x49
 2607 0311 13       		.uleb128 0x13
 2608 0312 3F       		.uleb128 0x3f
 2609 0313 19       		.uleb128 0x19
 2610 0314 3C       		.uleb128 0x3c
 2611 0315 19       		.uleb128 0x19
 2612 0316 00       		.byte	0
 2613 0317 00       		.byte	0
ARM GAS  /tmp/ccw8nbVQ.s 			page 47


 2614 0318 00       		.byte	0
 2615              		.section	.debug_loc,"",%progbits
 2616              	.Ldebug_loc0:
 2617              	.LLST0:
 2618 0000 00000000 		.4byte	.LVL1
 2619 0004 1C000000 		.4byte	.LVL6
 2620 0008 0100     		.2byte	0x1
 2621 000a 51       		.byte	0x51
 2622 000b 1C000000 		.4byte	.LVL6
 2623 000f 22000000 		.4byte	.LFE171
 2624 0013 0100     		.2byte	0x1
 2625 0015 51       		.byte	0x51
 2626 0016 00000000 		.4byte	0
 2627 001a 00000000 		.4byte	0
 2628              	.LLST1:
 2629 001e 00000000 		.4byte	.LVL1
 2630 0022 08000000 		.4byte	.LVL2
 2631 0026 0100     		.2byte	0x1
 2632 0028 52       		.byte	0x52
 2633 0029 08000000 		.4byte	.LVL2
 2634 002d 1A000000 		.4byte	.LVL5
 2635 0031 0100     		.2byte	0x1
 2636 0033 52       		.byte	0x52
 2637 0034 1A000000 		.4byte	.LVL5
 2638 0038 1C000000 		.4byte	.LVL6
 2639 003c 0300     		.2byte	0x3
 2640 003e 72       		.byte	0x72
 2641 003f 01       		.sleb128 1
 2642 0040 9F       		.byte	0x9f
 2643 0041 00000000 		.4byte	0
 2644 0045 00000000 		.4byte	0
 2645              	.LLST2:
 2646 0049 08000000 		.4byte	.LVL2
 2647 004d 20000000 		.4byte	.LVL7
 2648 0051 0100     		.2byte	0x1
 2649 0053 50       		.byte	0x50
 2650 0054 00000000 		.4byte	0
 2651 0058 00000000 		.4byte	0
 2652              	.LLST3:
 2653 005c 08000000 		.4byte	.LVL2
 2654 0060 1C000000 		.4byte	.LVL6
 2655 0064 0100     		.2byte	0x1
 2656 0066 51       		.byte	0x51
 2657 0067 1C000000 		.4byte	.LVL6
 2658 006b 20000000 		.4byte	.LVL7
 2659 006f 0200     		.2byte	0x2
 2660 0071 70       		.byte	0x70
 2661 0072 00       		.sleb128 0
 2662 0073 00000000 		.4byte	0
 2663 0077 00000000 		.4byte	0
 2664              	.LLST6:
 2665 007b 08000000 		.4byte	.LVL2
 2666 007f 20000000 		.4byte	.LVL7
 2667 0083 0300     		.2byte	0x3
 2668 0085 08       		.byte	0x8
 2669 0086 20       		.byte	0x20
 2670 0087 9F       		.byte	0x9f
ARM GAS  /tmp/ccw8nbVQ.s 			page 48


 2671 0088 00000000 		.4byte	0
 2672 008c 00000000 		.4byte	0
 2673              	.LLST7:
 2674 0090 12000000 		.4byte	.LVL4
 2675 0094 20000000 		.4byte	.LVL7
 2676 0098 0200     		.2byte	0x2
 2677 009a 30       		.byte	0x30
 2678 009b 9F       		.byte	0x9f
 2679 009c 00000000 		.4byte	0
 2680 00a0 00000000 		.4byte	0
 2681              	.LLST8:
 2682 00a4 0C000000 		.4byte	.LVL3
 2683 00a8 1C000000 		.4byte	.LVL6
 2684 00ac 0100     		.2byte	0x1
 2685 00ae 51       		.byte	0x51
 2686 00af 1C000000 		.4byte	.LVL6
 2687 00b3 20000000 		.4byte	.LVL7
 2688 00b7 0200     		.2byte	0x2
 2689 00b9 70       		.byte	0x70
 2690 00ba 00       		.sleb128 0
 2691 00bb 00000000 		.4byte	0
 2692 00bf 00000000 		.4byte	0
 2693              	.LLST9:
 2694 00c3 0C000000 		.4byte	.LVL3
 2695 00c7 20000000 		.4byte	.LVL7
 2696 00cb 0100     		.2byte	0x1
 2697 00cd 50       		.byte	0x50
 2698 00ce 00000000 		.4byte	0
 2699 00d2 00000000 		.4byte	0
 2700              	.LLST11:
 2701 00d6 00000000 		.4byte	.LVL8
 2702 00da 0A000000 		.4byte	.LVL10
 2703 00de 0100     		.2byte	0x1
 2704 00e0 50       		.byte	0x50
 2705 00e1 0A000000 		.4byte	.LVL10
 2706 00e5 0C000000 		.4byte	.LVL11
 2707 00e9 0400     		.2byte	0x4
 2708 00eb F3       		.byte	0xf3
 2709 00ec 01       		.uleb128 0x1
 2710 00ed 50       		.byte	0x50
 2711 00ee 9F       		.byte	0x9f
 2712 00ef 0C000000 		.4byte	.LVL11
 2713 00f3 14000000 		.4byte	.LVL12
 2714 00f7 0100     		.2byte	0x1
 2715 00f9 50       		.byte	0x50
 2716 00fa 14000000 		.4byte	.LVL12
 2717 00fe 16000000 		.4byte	.LFE172
 2718 0102 0400     		.2byte	0x4
 2719 0104 F3       		.byte	0xf3
 2720 0105 01       		.uleb128 0x1
 2721 0106 50       		.byte	0x50
 2722 0107 9F       		.byte	0x9f
 2723 0108 00000000 		.4byte	0
 2724 010c 00000000 		.4byte	0
 2725              	.LLST12:
 2726 0110 02000000 		.4byte	.LVL9
 2727 0114 15000000 		.4byte	.LVL13-1
ARM GAS  /tmp/ccw8nbVQ.s 			page 49


 2728 0118 0100     		.2byte	0x1
 2729 011a 53       		.byte	0x53
 2730 011b 00000000 		.4byte	0
 2731 011f 00000000 		.4byte	0
 2732              	.LLST13:
 2733 0123 00000000 		.4byte	.LVL14
 2734 0127 0C000000 		.4byte	.LVL16
 2735 012b 0100     		.2byte	0x1
 2736 012d 50       		.byte	0x50
 2737 012e 0C000000 		.4byte	.LVL16
 2738 0132 14000000 		.4byte	.LVL18
 2739 0136 0100     		.2byte	0x1
 2740 0138 53       		.byte	0x53
 2741 0139 14000000 		.4byte	.LVL18
 2742 013d 1A000000 		.4byte	.LVL19
 2743 0141 0400     		.2byte	0x4
 2744 0143 F3       		.byte	0xf3
 2745 0144 01       		.uleb128 0x1
 2746 0145 50       		.byte	0x50
 2747 0146 9F       		.byte	0x9f
 2748 0147 1A000000 		.4byte	.LVL19
 2749 014b 23000000 		.4byte	.LVL21-1
 2750 014f 0100     		.2byte	0x1
 2751 0151 53       		.byte	0x53
 2752 0152 23000000 		.4byte	.LVL21-1
 2753 0156 2C000000 		.4byte	.LFE173
 2754 015a 0400     		.2byte	0x4
 2755 015c F3       		.byte	0xf3
 2756 015d 01       		.uleb128 0x1
 2757 015e 50       		.byte	0x50
 2758 015f 9F       		.byte	0x9f
 2759 0160 00000000 		.4byte	0
 2760 0164 00000000 		.4byte	0
 2761              	.LLST14:
 2762 0168 0A000000 		.4byte	.LVL15
 2763 016c 0C000000 		.4byte	.LVL16
 2764 0170 0100     		.2byte	0x1
 2765 0172 50       		.byte	0x50
 2766 0173 0C000000 		.4byte	.LVL16
 2767 0177 14000000 		.4byte	.LVL18
 2768 017b 0100     		.2byte	0x1
 2769 017d 53       		.byte	0x53
 2770 017e 14000000 		.4byte	.LVL18
 2771 0182 1A000000 		.4byte	.LVL19
 2772 0186 0400     		.2byte	0x4
 2773 0188 F3       		.byte	0xf3
 2774 0189 01       		.uleb128 0x1
 2775 018a 50       		.byte	0x50
 2776 018b 9F       		.byte	0x9f
 2777 018c 1A000000 		.4byte	.LVL19
 2778 0190 23000000 		.4byte	.LVL21-1
 2779 0194 0100     		.2byte	0x1
 2780 0196 53       		.byte	0x53
 2781 0197 23000000 		.4byte	.LVL21-1
 2782 019b 2C000000 		.4byte	.LFE173
 2783 019f 0400     		.2byte	0x4
 2784 01a1 F3       		.byte	0xf3
ARM GAS  /tmp/ccw8nbVQ.s 			page 50


 2785 01a2 01       		.uleb128 0x1
 2786 01a3 50       		.byte	0x50
 2787 01a4 9F       		.byte	0x9f
 2788 01a5 00000000 		.4byte	0
 2789 01a9 00000000 		.4byte	0
 2790              	.LLST15:
 2791 01ad 0C000000 		.4byte	.LVL16
 2792 01b1 22000000 		.4byte	.LVL20
 2793 01b5 0100     		.2byte	0x1
 2794 01b7 50       		.byte	0x50
 2795 01b8 22000000 		.4byte	.LVL20
 2796 01bc 23000000 		.4byte	.LVL21-1
 2797 01c0 0200     		.2byte	0x2
 2798 01c2 73       		.byte	0x73
 2799 01c3 00       		.sleb128 0
 2800 01c4 24000000 		.4byte	.LVL21
 2801 01c8 2C000000 		.4byte	.LFE173
 2802 01cc 0100     		.2byte	0x1
 2803 01ce 50       		.byte	0x50
 2804 01cf 00000000 		.4byte	0
 2805 01d3 00000000 		.4byte	0
 2806              	.LLST16:
 2807 01d7 12000000 		.4byte	.LVL17
 2808 01db 1A000000 		.4byte	.LVL19
 2809 01df 0200     		.2byte	0x2
 2810 01e1 30       		.byte	0x30
 2811 01e2 9F       		.byte	0x9f
 2812 01e3 24000000 		.4byte	.LVL21
 2813 01e7 2C000000 		.4byte	.LFE173
 2814 01eb 0200     		.2byte	0x2
 2815 01ed 30       		.byte	0x30
 2816 01ee 9F       		.byte	0x9f
 2817 01ef 00000000 		.4byte	0
 2818 01f3 00000000 		.4byte	0
 2819              		.section	.debug_aranges,"",%progbits
 2820 0000 44000000 		.4byte	0x44
 2821 0004 0200     		.2byte	0x2
 2822 0006 00000000 		.4byte	.Ldebug_info0
 2823 000a 04       		.byte	0x4
 2824 000b 00       		.byte	0
 2825 000c 0000     		.2byte	0
 2826 000e 0000     		.2byte	0
 2827 0010 00000000 		.4byte	.LFB170
 2828 0014 0A000000 		.4byte	.LFE170-.LFB170
 2829 0018 00000000 		.4byte	.LFB171
 2830 001c 22000000 		.4byte	.LFE171-.LFB171
 2831 0020 00000000 		.4byte	.LFB172
 2832 0024 16000000 		.4byte	.LFE172-.LFB172
 2833 0028 00000000 		.4byte	.LFB173
 2834 002c 2C000000 		.4byte	.LFE173-.LFB173
 2835 0030 00000000 		.4byte	.LFB174
 2836 0034 08000000 		.4byte	.LFE174-.LFB174
 2837 0038 00000000 		.4byte	.LFB175
 2838 003c 14000000 		.4byte	.LFE175-.LFB175
 2839 0040 00000000 		.4byte	0
 2840 0044 00000000 		.4byte	0
 2841              		.section	.debug_ranges,"",%progbits
ARM GAS  /tmp/ccw8nbVQ.s 			page 51


 2842              	.Ldebug_ranges0:
 2843 0000 04000000 		.4byte	.LBB79
 2844 0004 06000000 		.4byte	.LBE79
 2845 0008 08000000 		.4byte	.LBB95
 2846 000c 0C000000 		.4byte	.LBE95
 2847 0010 00000000 		.4byte	0
 2848 0014 00000000 		.4byte	0
 2849 0018 06000000 		.4byte	.LBB86
 2850 001c 08000000 		.4byte	.LBE86
 2851 0020 12000000 		.4byte	.LBB98
 2852 0024 16000000 		.4byte	.LBE98
 2853 0028 00000000 		.4byte	0
 2854 002c 00000000 		.4byte	0
 2855 0030 02000000 		.4byte	.LBB99
 2856 0034 04000000 		.4byte	.LBE99
 2857 0038 06000000 		.4byte	.LBB106
 2858 003c 0A000000 		.4byte	.LBE106
 2859 0040 00000000 		.4byte	0
 2860 0044 00000000 		.4byte	0
 2861 0048 0A000000 		.4byte	.LBB107
 2862 004c 12000000 		.4byte	.LBE107
 2863 0050 1A000000 		.4byte	.LBB119
 2864 0054 24000000 		.4byte	.LBE119
 2865 0058 00000000 		.4byte	0
 2866 005c 00000000 		.4byte	0
 2867 0060 12000000 		.4byte	.LBB110
 2868 0064 18000000 		.4byte	.LBE110
 2869 0068 24000000 		.4byte	.LBB120
 2870 006c 2A000000 		.4byte	.LBE120
 2871 0070 00000000 		.4byte	0
 2872 0074 00000000 		.4byte	0
 2873 0078 06000000 		.4byte	.LBB125
 2874 007c 08000000 		.4byte	.LBE125
 2875 0080 0A000000 		.4byte	.LBB137
 2876 0084 0E000000 		.4byte	.LBE137
 2877 0088 00000000 		.4byte	0
 2878 008c 00000000 		.4byte	0
 2879 0090 08000000 		.4byte	.LBB128
 2880 0094 0A000000 		.4byte	.LBE128
 2881 0098 0E000000 		.4byte	.LBB138
 2882 009c 14000000 		.4byte	.LBE138
 2883 00a0 00000000 		.4byte	0
 2884 00a4 00000000 		.4byte	0
 2885 00a8 00000000 		.4byte	.LFB170
 2886 00ac 0A000000 		.4byte	.LFE170
 2887 00b0 00000000 		.4byte	.LFB171
 2888 00b4 22000000 		.4byte	.LFE171
 2889 00b8 00000000 		.4byte	.LFB172
 2890 00bc 16000000 		.4byte	.LFE172
 2891 00c0 00000000 		.4byte	.LFB173
 2892 00c4 2C000000 		.4byte	.LFE173
 2893 00c8 00000000 		.4byte	.LFB174
 2894 00cc 08000000 		.4byte	.LFE174
 2895 00d0 00000000 		.4byte	.LFB175
 2896 00d4 14000000 		.4byte	.LFE175
 2897 00d8 00000000 		.4byte	0
 2898 00dc 00000000 		.4byte	0
ARM GAS  /tmp/ccw8nbVQ.s 			page 52


 2899              		.section	.debug_line,"",%progbits
 2900              	.Ldebug_line0:
 2901 0000 26030000 		.section	.debug_str,"MS",%progbits,1
 2901      02003E02 
 2901      00000201 
 2901      FB0E0D00 
 2901      01010101 
 2902              	.LASF48:
 2903 0000 74687265 		.ascii	"threads_list_t\000"
 2903      6164735F 
 2903      6C697374 
 2903      5F7400
 2904              	.LASF53:
 2905 000f 72656164 		.ascii	"ready_list_t\000"
 2905      795F6C69 
 2905      73745F74 
 2905      00
 2906              	.LASF2:
 2907 001c 73697A65 		.ascii	"size_t\000"
 2907      5F7400
 2908              	.LASF88:
 2909 0023 7264796D 		.ascii	"rdymsg\000"
 2909      736700
 2910              	.LASF17:
 2911 002a 75696E74 		.ascii	"uint64_t\000"
 2911      36345F74 
 2911      00
 2912              	.LASF3:
 2913 0033 5F5F7569 		.ascii	"__uint8_t\000"
 2913      6E74385F 
 2913      7400
 2914              	.LASF85:
 2915 003d 706F7274 		.ascii	"port_intctx\000"
 2915      5F696E74 
 2915      63747800 
 2916              	.LASF72:
 2917 0049 73797374 		.ascii	"system_debug_t\000"
 2917      656D5F64 
 2917      65627567 
 2917      5F7400
 2918              	.LASF124:
 2919 0058 70726F76 		.ascii	"provider\000"
 2919      69646572 
 2919      00
 2920              	.LASF111:
 2921 0061 706F7274 		.ascii	"port_lock\000"
 2921      5F6C6F63 
 2921      6B00
 2922              	.LASF104:
 2923 006b 6D656D67 		.ascii	"memgetfunc_t\000"
 2923      65746675 
 2923      6E635F74 
 2923      00
 2924              	.LASF13:
 2925 0078 6C6F6E67 		.ascii	"long long unsigned int\000"
 2925      206C6F6E 
 2925      6720756E 
ARM GAS  /tmp/ccw8nbVQ.s 			page 53


 2925      7369676E 
 2925      65642069 
 2926              	.LASF89:
 2927 008f 65786974 		.ascii	"exitcode\000"
 2927      636F6465 
 2927      00
 2928              	.LASF79:
 2929 0098 6D61696E 		.ascii	"mainthread\000"
 2929      74687265 
 2929      616400
 2930              	.LASF69:
 2931 00a3 76697274 		.ascii	"virtual_timers_list_t\000"
 2931      75616C5F 
 2931      74696D65 
 2931      72735F6C 
 2931      6973745F 
 2932              	.LASF127:
 2933 00b9 49544D5F 		.ascii	"ITM_RxBuffer\000"
 2933      52784275 
 2933      66666572 
 2933      00
 2934              	.LASF52:
 2935 00c6 63685F74 		.ascii	"ch_threads_queue\000"
 2935      68726561 
 2935      64735F71 
 2935      75657565 
 2935      00
 2936              	.LASF31:
 2937 00d7 705F7072 		.ascii	"p_prio\000"
 2937      696F00
 2938              	.LASF11:
 2939 00de 6C6F6E67 		.ascii	"long long int\000"
 2939      206C6F6E 
 2939      6720696E 
 2939      7400
 2940              	.LASF1:
 2941 00ec 7369676E 		.ascii	"signed char\000"
 2941      65642063 
 2941      68617200 
 2942              	.LASF46:
 2943 00f8 705F6D70 		.ascii	"p_mpool\000"
 2943      6F6F6C00 
 2944              	.LASF99:
 2945 0100 6D5F7175 		.ascii	"m_queue\000"
 2945      65756500 
 2946              	.LASF78:
 2947 0108 76746C69 		.ascii	"vtlist\000"
 2947      737400
 2948              	.LASF112:
 2949 010f 706F7274 		.ascii	"port_unlock\000"
 2949      5F756E6C 
 2949      6F636B00 
 2950              	.LASF22:
 2951 011b 74736C69 		.ascii	"tslices_t\000"
 2951      6365735F 
 2951      7400
 2952              	.LASF91:
ARM GAS  /tmp/ccw8nbVQ.s 			page 54


 2953 0125 77747472 		.ascii	"wttrp\000"
 2953      7000
 2954              	.LASF76:
 2955 012b 63685F73 		.ascii	"ch_system\000"
 2955      79737465 
 2955      6D00
 2956              	.LASF8:
 2957 0135 6C6F6E67 		.ascii	"long int\000"
 2957      20696E74 
 2957      00
 2958              	.LASF20:
 2959 013e 74737461 		.ascii	"tstate_t\000"
 2959      74655F74 
 2959      00
 2960              	.LASF107:
 2961 0147 6D705F6E 		.ascii	"mp_next\000"
 2961      65787400 
 2962              	.LASF33:
 2963 014f 705F6E65 		.ascii	"p_newer\000"
 2963      77657200 
 2964              	.LASF96:
 2965 0157 735F7175 		.ascii	"s_queue\000"
 2965      65756500 
 2966              	.LASF58:
 2967 015f 725F6E65 		.ascii	"r_newer\000"
 2967      77657200 
 2968              	.LASF109:
 2969 0167 6D705F70 		.ascii	"mp_provider\000"
 2969      726F7669 
 2969      64657200 
 2970              	.LASF82:
 2971 0173 72656761 		.ascii	"regarm_t\000"
 2971      726D5F74 
 2971      00
 2972              	.LASF65:
 2973 017c 76745F70 		.ascii	"vt_prev\000"
 2973      72657600 
 2974              	.LASF103:
 2975 0184 6D757465 		.ascii	"mutex_t\000"
 2975      785F7400 
 2976              	.LASF114:
 2977 018c 76616C75 		.ascii	"value\000"
 2977      6500
 2978              	.LASF80:
 2979 0192 69646C65 		.ascii	"idle_thread_wa\000"
 2979      5F746872 
 2979      6561645F 
 2979      776100
 2980              	.LASF26:
 2981 01a1 636E745F 		.ascii	"cnt_t\000"
 2981      7400
 2982              	.LASF0:
 2983 01a7 756E7369 		.ascii	"unsigned int\000"
 2983      676E6564 
 2983      20696E74 
 2983      00
 2984              	.LASF64:
ARM GAS  /tmp/ccw8nbVQ.s 			page 55


 2985 01b4 76745F6E 		.ascii	"vt_next\000"
 2985      65787400 
 2986              	.LASF92:
 2987 01bc 77747365 		.ascii	"wtsemp\000"
 2987      6D7000
 2988              	.LASF41:
 2989 01c3 705F6D73 		.ascii	"p_msgqueue\000"
 2989      67717565 
 2989      756500
 2990              	.LASF110:
 2991 01ce 6D656D6F 		.ascii	"memory_pool_t\000"
 2991      72795F70 
 2991      6F6F6C5F 
 2991      7400
 2992              	.LASF97:
 2993 01dc 735F636E 		.ascii	"s_cnt\000"
 2993      7400
 2994              	.LASF6:
 2995 01e2 73686F72 		.ascii	"short unsigned int\000"
 2995      7420756E 
 2995      7369676E 
 2995      65642069 
 2995      6E7400
 2996              	.LASF49:
 2997 01f5 63685F74 		.ascii	"ch_thread\000"
 2997      68726561 
 2997      6400
 2998              	.LASF24:
 2999 01ff 6D73675F 		.ascii	"msg_t\000"
 2999      7400
 3000              	.LASF75:
 3001 0205 63685F73 		.ascii	"ch_system_t\000"
 3001      79737465 
 3001      6D5F7400 
 3002              	.LASF122:
 3003 0211 6368506F 		.ascii	"chPoolAdd\000"
 3003      6F6C4164 
 3003      6400
 3004              	.LASF19:
 3005 021b 746D6F64 		.ascii	"tmode_t\000"
 3005      655F7400 
 3006              	.LASF125:
 3007 0223 6368506F 		.ascii	"chPoolObjectInit\000"
 3007      6F6C4F62 
 3007      6A656374 
 3007      496E6974 
 3007      00
 3008              	.LASF54:
 3009 0234 63685F72 		.ascii	"ch_ready_list\000"
 3009      65616479 
 3009      5F6C6973 
 3009      7400
 3010              	.LASF25:
 3011 0242 6576656E 		.ascii	"eventmask_t\000"
 3011      746D6173 
 3011      6B5F7400 
 3012              	.LASF7:
ARM GAS  /tmp/ccw8nbVQ.s 			page 56


 3013 024e 5F5F696E 		.ascii	"__int32_t\000"
 3013      7433325F 
 3013      7400
 3014              	.LASF83:
 3015 0258 73746B61 		.ascii	"stkalign_t\000"
 3015      6C69676E 
 3015      5F7400
 3016              	.LASF129:
 3017 0263 2F686F6D 		.ascii	"/home/peter/ChibiOS_16.1.4/os/rt/src/chmempools.c\000"
 3017      652F7065 
 3017      7465722F 
 3017      43686962 
 3017      694F535F 
 3018              	.LASF40:
 3019 0295 705F7761 		.ascii	"p_waiting\000"
 3019      6974696E 
 3019      6700
 3020              	.LASF81:
 3021 029f 73697A65 		.ascii	"sizetype\000"
 3021      74797065 
 3021      00
 3022              	.LASF47:
 3023 02a8 74687265 		.ascii	"thread_reference_t\000"
 3023      61645F72 
 3023      65666572 
 3023      656E6365 
 3023      5F7400
 3024              	.LASF70:
 3025 02bb 63685F76 		.ascii	"ch_virtual_timers_list\000"
 3025      69727475 
 3025      616C5F74 
 3025      696D6572 
 3025      735F6C69 
 3026              	.LASF119:
 3027 02d2 6368506F 		.ascii	"chPoolAllocI\000"
 3027      6F6C416C 
 3027      6C6F6349 
 3027      00
 3028              	.LASF120:
 3029 02df 6368506F 		.ascii	"chPoolFreeI\000"
 3029      6F6C4672 
 3029      65654900 
 3030              	.LASF34:
 3031 02eb 705F6F6C 		.ascii	"p_older\000"
 3031      64657200 
 3032              	.LASF57:
 3033 02f3 725F6374 		.ascii	"r_ctx\000"
 3033      7800
 3034              	.LASF108:
 3035 02f9 6D705F6F 		.ascii	"mp_object_size\000"
 3035      626A6563 
 3035      745F7369 
 3035      7A6500
 3036              	.LASF87:
 3037 0308 746D5F63 		.ascii	"tm_calibration_t\000"
 3037      616C6962 
 3037      72617469 
ARM GAS  /tmp/ccw8nbVQ.s 			page 57


 3037      6F6E5F74 
 3037      00
 3038              	.LASF60:
 3039 0319 725F6375 		.ascii	"r_current\000"
 3039      7272656E 
 3039      7400
 3040              	.LASF59:
 3041 0323 725F6F6C 		.ascii	"r_older\000"
 3041      64657200 
 3042              	.LASF12:
 3043 032b 5F5F7569 		.ascii	"__uint64_t\000"
 3043      6E743634 
 3043      5F7400
 3044              	.LASF106:
 3045 0336 70685F6E 		.ascii	"ph_next\000"
 3045      65787400 
 3046              	.LASF21:
 3047 033e 74726566 		.ascii	"trefs_t\000"
 3047      735F7400 
 3048              	.LASF62:
 3049 0346 76697274 		.ascii	"virtual_timer_t\000"
 3049      75616C5F 
 3049      74696D65 
 3049      725F7400 
 3050              	.LASF30:
 3051 0356 705F7072 		.ascii	"p_prev\000"
 3051      657600
 3052              	.LASF23:
 3053 035d 74707269 		.ascii	"tprio_t\000"
 3053      6F5F7400 
 3054              	.LASF73:
 3055 0365 63685F73 		.ascii	"ch_system_debug\000"
 3055      79737465 
 3055      6D5F6465 
 3055      62756700 
 3056              	.LASF15:
 3057 0375 696E7433 		.ascii	"int32_t\000"
 3057      325F7400 
 3058              	.LASF4:
 3059 037d 756E7369 		.ascii	"unsigned char\000"
 3059      676E6564 
 3059      20636861 
 3059      7200
 3060              	.LASF44:
 3061 038b 705F6D74 		.ascii	"p_mtxlist\000"
 3061      786C6973 
 3061      7400
 3062              	.LASF5:
 3063 0395 73686F72 		.ascii	"short int\000"
 3063      7420696E 
 3063      7400
 3064              	.LASF36:
 3065 039f 705F7374 		.ascii	"p_state\000"
 3065      61746500 
 3066              	.LASF39:
 3067 03a7 705F7072 		.ascii	"p_preempt\000"
 3067      65656D70 
ARM GAS  /tmp/ccw8nbVQ.s 			page 58


 3067      7400
 3068              	.LASF56:
 3069 03b1 725F7072 		.ascii	"r_prio\000"
 3069      696F00
 3070              	.LASF94:
 3071 03b8 65776D61 		.ascii	"ewmask\000"
 3071      736B00
 3072              	.LASF29:
 3073 03bf 705F6E65 		.ascii	"p_next\000"
 3073      787400
 3074              	.LASF116:
 3075 03c6 5F5F6675 		.ascii	"__func__\000"
 3075      6E635F5F 
 3075      00
 3076              	.LASF113:
 3077 03cf 63685379 		.ascii	"chSysLock\000"
 3077      734C6F63 
 3077      6B00
 3078              	.LASF115:
 3079 03d9 6F626A70 		.ascii	"objp\000"
 3079      00
 3080              	.LASF63:
 3081 03de 63685F76 		.ascii	"ch_virtual_timer\000"
 3081      69727475 
 3081      616C5F74 
 3081      696D6572 
 3081      00
 3082              	.LASF95:
 3083 03ef 63685F73 		.ascii	"ch_semaphore\000"
 3083      656D6170 
 3083      686F7265 
 3083      00
 3084              	.LASF43:
 3085 03fc 705F6570 		.ascii	"p_epending\000"
 3085      656E6469 
 3085      6E6700
 3086              	.LASF16:
 3087 0407 75696E74 		.ascii	"uint32_t\000"
 3087      33325F74 
 3087      00
 3088              	.LASF93:
 3089 0410 77746D74 		.ascii	"wtmtxp\000"
 3089      787000
 3090              	.LASF55:
 3091 0417 725F7175 		.ascii	"r_queue\000"
 3091      65756500 
 3092              	.LASF66:
 3093 041f 76745F64 		.ascii	"vt_delta\000"
 3093      656C7461 
 3093      00
 3094              	.LASF50:
 3095 0428 63685F74 		.ascii	"ch_threads_list\000"
 3095      68726561 
 3095      64735F6C 
 3095      69737400 
 3096              	.LASF10:
 3097 0438 6C6F6E67 		.ascii	"long unsigned int\000"
ARM GAS  /tmp/ccw8nbVQ.s 			page 59


 3097      20756E73 
 3097      69676E65 
 3097      6420696E 
 3097      7400
 3098              	.LASF128:
 3099 044a 474E5520 		.ascii	"GNU C 4.9.3 20150529 (prerelease) -mcpu=cortex-m3 -"
 3099      4320342E 
 3099      392E3320 
 3099      32303135 
 3099      30353239 
 3100 047d 6D6E6F2D 		.ascii	"mno-thumb-interwork -mthumb -ggdb -O2 -std=c99 -fom"
 3100      7468756D 
 3100      622D696E 
 3100      74657277 
 3100      6F726B20 
 3101 04b0 69742D66 		.ascii	"it-frame-pointer -falign-functions=16 -ffunction-se"
 3101      72616D65 
 3101      2D706F69 
 3101      6E746572 
 3101      202D6661 
 3102 04e3 6374696F 		.ascii	"ctions -fdata-sections -fno-common\000"
 3102      6E73202D 
 3102      66646174 
 3102      612D7365 
 3102      6374696F 
 3103              	.LASF102:
 3104 0506 63686172 		.ascii	"char\000"
 3104      00
 3105              	.LASF28:
 3106 050b 74687265 		.ascii	"thread_t\000"
 3106      61645F74 
 3106      00
 3107              	.LASF101:
 3108 0514 6D5F6E65 		.ascii	"m_next\000"
 3108      787400
 3109              	.LASF27:
 3110 051b 73797374 		.ascii	"systime_t\000"
 3110      696D655F 
 3110      7400
 3111              	.LASF45:
 3112 0525 705F7265 		.ascii	"p_realprio\000"
 3112      616C7072 
 3112      696F00
 3113              	.LASF61:
 3114 0530 76746675 		.ascii	"vtfunc_t\000"
 3114      6E635F74 
 3114      00
 3115              	.LASF9:
 3116 0539 5F5F7569 		.ascii	"__uint32_t\000"
 3116      6E743332 
 3116      5F7400
 3117              	.LASF117:
 3118 0544 5F5F7365 		.ascii	"__set_BASEPRI\000"
 3118      745F4241 
 3118      53455052 
 3118      4900
 3119              	.LASF74:
ARM GAS  /tmp/ccw8nbVQ.s 			page 60


 3120 0552 70616E69 		.ascii	"panic_msg\000"
 3120      635F6D73 
 3120      6700
 3121              	.LASF86:
 3122 055c 6F666673 		.ascii	"offset\000"
 3122      657400
 3123              	.LASF98:
 3124 0563 63685F6D 		.ascii	"ch_mutex\000"
 3124      75746578 
 3124      00
 3125              	.LASF84:
 3126 056c 636F6E74 		.ascii	"context\000"
 3126      65787400 
 3127              	.LASF42:
 3128 0574 705F6D73 		.ascii	"p_msg\000"
 3128      6700
 3129              	.LASF18:
 3130 057a 7274636E 		.ascii	"rtcnt_t\000"
 3130      745F7400 
 3131              	.LASF68:
 3132 0582 76745F70 		.ascii	"vt_par\000"
 3132      617200
 3133              	.LASF51:
 3134 0589 74687265 		.ascii	"threads_queue_t\000"
 3134      6164735F 
 3134      71756575 
 3134      655F7400 
 3135              	.LASF105:
 3136 0599 706F6F6C 		.ascii	"pool_header\000"
 3136      5F686561 
 3136      64657200 
 3137              	.LASF38:
 3138 05a5 705F7265 		.ascii	"p_refs\000"
 3138      667300
 3139              	.LASF77:
 3140 05ac 726C6973 		.ascii	"rlist\000"
 3140      7400
 3141              	.LASF14:
 3142 05b2 75696E74 		.ascii	"uint8_t\000"
 3142      385F7400 
 3143              	.LASF130:
 3144 05ba 6368506F 		.ascii	"chPoolAlloc\000"
 3144      6F6C416C 
 3144      6C6F6300 
 3145              	.LASF121:
 3146 05c6 6368506F 		.ascii	"chPoolFree\000"
 3146      6F6C4672 
 3146      656500
 3147              	.LASF90:
 3148 05d1 77746F62 		.ascii	"wtobjp\000"
 3148      6A7000
 3149              	.LASF35:
 3150 05d8 705F6E61 		.ascii	"p_name\000"
 3150      6D6500
 3151              	.LASF123:
 3152 05df 73697A65 		.ascii	"size\000"
 3152      00
ARM GAS  /tmp/ccw8nbVQ.s 			page 61


 3153              	.LASF71:
 3154 05e4 76745F73 		.ascii	"vt_systime\000"
 3154      79737469 
 3154      6D6500
 3155              	.LASF37:
 3156 05ef 705F666C 		.ascii	"p_flags\000"
 3156      61677300 
 3157              	.LASF118:
 3158 05f7 63685379 		.ascii	"chSysUnlock\000"
 3158      73556E6C 
 3158      6F636B00 
 3159              	.LASF126:
 3160 0603 6368506F 		.ascii	"chPoolLoadArray\000"
 3160      6F6C4C6F 
 3160      61644172 
 3160      72617900 
 3161              	.LASF100:
 3162 0613 6D5F6F77 		.ascii	"m_owner\000"
 3162      6E657200 
 3163              	.LASF32:
 3164 061b 705F6374 		.ascii	"p_ctx\000"
 3164      7800
 3165              	.LASF67:
 3166 0621 76745F66 		.ascii	"vt_func\000"
 3166      756E6300 
 3167              		.ident	"GCC: (15:4.9.3+svn227297-1) 4.9.3 20150529 (prerelease)"
ARM GAS  /tmp/ccw8nbVQ.s 			page 62


DEFINED SYMBOLS
                            *ABS*:00000000 chmempools.c
     /tmp/ccw8nbVQ.s:19     .text.chPoolObjectInit:00000000 $t
     /tmp/ccw8nbVQ.s:25     .text.chPoolObjectInit:00000000 chPoolObjectInit
     /tmp/ccw8nbVQ.s:47     .text.chPoolLoadArray:00000000 $t
     /tmp/ccw8nbVQ.s:53     .text.chPoolLoadArray:00000000 chPoolLoadArray
     /tmp/ccw8nbVQ.s:156    .text.chPoolAllocI:00000000 $t
     /tmp/ccw8nbVQ.s:162    .text.chPoolAllocI:00000000 chPoolAllocI
     /tmp/ccw8nbVQ.s:198    .text.chPoolAlloc:00000000 $t
     /tmp/ccw8nbVQ.s:204    .text.chPoolAlloc:00000000 chPoolAlloc
     /tmp/ccw8nbVQ.s:311    .text.chPoolFreeI:00000000 $t
     /tmp/ccw8nbVQ.s:317    .text.chPoolFreeI:00000000 chPoolFreeI
     /tmp/ccw8nbVQ.s:335    .text.chPoolFree:00000000 $t
     /tmp/ccw8nbVQ.s:341    .text.chPoolFree:00000000 chPoolFree
                     .debug_frame:00000010 $d

NO UNDEFINED SYMBOLS
