ARM GAS  /tmp/cc2HdcQ5.s 			page 1


   1              		.syntax unified
   2              		.cpu cortex-m3
   3              		.fpu softvfp
   4              		.eabi_attribute 20, 1
   5              		.eabi_attribute 21, 1
   6              		.eabi_attribute 23, 3
   7              		.eabi_attribute 24, 1
   8              		.eabi_attribute 25, 1
   9              		.eabi_attribute 26, 1
  10              		.eabi_attribute 30, 2
  11              		.eabi_attribute 34, 1
  12              		.eabi_attribute 18, 4
  13              		.thumb
  14              		.file	"chmsg.c"
  15              		.text
  16              	.Ltext0:
  17              		.cfi_sections	.debug_frame
  18              		.section	.text.chMsgSend,"ax",%progbits
  19              		.align	2
  20              		.p2align 4,,15
  21              		.global	chMsgSend
  22              		.thumb
  23              		.thumb_func
  24              		.type	chMsgSend, %function
  25              	chMsgSend:
  26              	.LFB170:
  27              		.file 1 "/home/peter/ChibiOS_16.1.4/os/rt/src/chmsg.c"
  28              		.loc 1 87 0
  29              		.cfi_startproc
  30              		@ args = 0, pretend = 0, frame = 0
  31              		@ frame_needed = 0, uses_anonymous_args = 0
  32              	.LVL0:
  33              		.loc 1 88 0
  34 0000 0E4B     		ldr	r3, .L6
  35              		.loc 1 87 0
  36 0002 70B5     		push	{r4, r5, r6, lr}
  37              		.cfi_def_cfa_offset 16
  38              		.cfi_offset 4, -16
  39              		.cfi_offset 5, -12
  40              		.cfi_offset 6, -8
  41              		.cfi_offset 14, -4
  42              	.LBB52:
  43              	.LBB53:
  44              	.LBB54:
  45              	.LBB55:
  46              		.file 2 "/home/peter/ChibiOS_16.1.4/os/ext/CMSIS/include/core_cmFunc.h"
  47              		.loc 2 548 0
  48 0004 2022     		movs	r2, #32
  49              	.LBE55:
  50              	.LBE54:
  51              	.LBE53:
  52              	.LBE52:
  53              		.loc 1 88 0
  54 0006 9C69     		ldr	r4, [r3, #24]
  55              	.LVL1:
  56              	.LBB59:
  57              	.LBB58:
ARM GAS  /tmp/cc2HdcQ5.s 			page 2


  58              	.LBB57:
  59              	.LBB56:
  60              		.loc 2 548 0
  61              	@ 548 "/home/peter/ChibiOS_16.1.4/os/ext/CMSIS/include/core_cmFunc.h" 1
  62 0008 82F31188 		MSR basepri, r2
  63              	@ 0 "" 2
  64              		.thumb
  65              	.LBE56:
  66              	.LBE57:
  67              	.LBE58:
  68              	.LBE59:
  69              		.loc 1 94 0
  70 000c 00F12805 		add	r5, r0, #40
  71              		.loc 1 96 0
  72 0010 067F     		ldrb	r6, [r0, #28]	@ zero_extendqisi2
  73              		.loc 1 94 0
  74 0012 2562     		str	r5, [r4, #32]
  75              	.LVL2:
  76              	.LBB60:
  77              	.LBB61:
  78              		.file 3 "/home/peter/ChibiOS_16.1.4/os/rt/include/chschd.h"
  79              		.loc 3 666 0
  80 0014 C26A     		ldr	r2, [r0, #44]
  81              	.LBE61:
  82              	.LBE60:
  83              		.loc 1 96 0
  84 0016 0E2E     		cmp	r6, #14
  85              		.loc 1 93 0
  86 0018 2163     		str	r1, [r4, #48]
  87              	.LBB63:
  88              	.LBB62:
  89              		.loc 3 665 0
  90 001a 2560     		str	r5, [r4]
  91              		.loc 3 666 0
  92 001c 6260     		str	r2, [r4, #4]
  93              		.loc 3 667 0
  94 001e 1460     		str	r4, [r2]
  95              		.loc 3 668 0
  96 0020 C462     		str	r4, [r0, #44]
  97              	.LBE62:
  98              	.LBE63:
  99              		.loc 1 96 0
 100 0022 07D0     		beq	.L5
 101              	.LVL3:
 102              	.L2:
 103              		.loc 1 99 0
 104 0024 0C20     		movs	r0, #12
 105 0026 FFF7FEFF 		bl	chSchGoSleepS
 106              	.LVL4:
 107              		.loc 1 100 0
 108 002a 206A     		ldr	r0, [r4, #32]
 109              	.LVL5:
 110              	.LBB64:
 111              	.LBB65:
 112              	.LBB66:
 113              	.LBB67:
 114              	.LBB68:
ARM GAS  /tmp/cc2HdcQ5.s 			page 3


 115              		.loc 2 548 0
 116 002c 0023     		movs	r3, #0
 117              	@ 548 "/home/peter/ChibiOS_16.1.4/os/ext/CMSIS/include/core_cmFunc.h" 1
 118 002e 83F31188 		MSR basepri, r3
 119              	@ 0 "" 2
 120              		.thumb
 121              	.LBE68:
 122              	.LBE67:
 123              	.LBE66:
 124              	.LBE65:
 125              	.LBE64:
 126              		.loc 1 104 0
 127 0032 70BD     		pop	{r4, r5, r6, pc}
 128              	.LVL6:
 129              	.L5:
 130              		.loc 1 97 0
 131 0034 FFF7FEFF 		bl	chSchReadyI
 132              	.LVL7:
 133 0038 F4E7     		b	.L2
 134              	.L7:
 135 003a 00BF     		.align	2
 136              	.L6:
 137 003c 00000000 		.word	ch
 138              		.cfi_endproc
 139              	.LFE170:
 140              		.size	chMsgSend, .-chMsgSend
 141              		.section	.text.chMsgWait,"ax",%progbits
 142              		.align	2
 143              		.p2align 4,,15
 144              		.global	chMsgWait
 145              		.thumb
 146              		.thumb_func
 147              		.type	chMsgWait, %function
 148              	chMsgWait:
 149              	.LFB171:
 150              		.loc 1 120 0
 151              		.cfi_startproc
 152              		@ args = 0, pretend = 0, frame = 0
 153              		@ frame_needed = 0, uses_anonymous_args = 0
 154              	.LVL8:
 155 0000 10B5     		push	{r4, lr}
 156              		.cfi_def_cfa_offset 8
 157              		.cfi_offset 4, -8
 158              		.cfi_offset 14, -4
 159              	.LBB69:
 160              	.LBB70:
 161              	.LBB71:
 162              	.LBB72:
 163              		.loc 2 548 0
 164 0002 2023     		movs	r3, #32
 165              	@ 548 "/home/peter/ChibiOS_16.1.4/os/ext/CMSIS/include/core_cmFunc.h" 1
 166 0004 83F31188 		MSR basepri, r3
 167              	@ 0 "" 2
 168              		.thumb
 169              	.LBE72:
 170              	.LBE71:
 171              	.LBE70:
ARM GAS  /tmp/cc2HdcQ5.s 			page 4


 172              	.LBE69:
 173              		.loc 1 124 0
 174 0008 0B4C     		ldr	r4, .L12
 175 000a A269     		ldr	r2, [r4, #24]
 176              	.LVL9:
 177              	.LBB73:
 178              	.LBB74:
 179              		.file 4 "/home/peter/ChibiOS_16.1.4/os/rt/include/chmsg.h"
 180              		.loc 4 83 0
 181 000c 1346     		mov	r3, r2
 182 000e 53F8280F 		ldr	r0, [r3, #40]!
 183              	.LBE74:
 184              	.LBE73:
 185              		.loc 1 124 0
 186 0012 9842     		cmp	r0, r3
 187 0014 08D0     		beq	.L11
 188              	.LVL10:
 189              	.L9:
 190              	.LBB75:
 191              	.LBB76:
 192              		.loc 3 674 0
 193 0016 0168     		ldr	r1, [r0]
 194              	.LBE76:
 195              	.LBE75:
 196              		.loc 1 128 0
 197 0018 0D24     		movs	r4, #13
 198              	.LBB78:
 199              	.LBB77:
 200              		.loc 3 674 0
 201 001a 9162     		str	r1, [r2, #40]
 202              		.loc 3 675 0
 203 001c 4B60     		str	r3, [r1, #4]
 204              	.LBE77:
 205              	.LBE78:
 206              	.LBB79:
 207              	.LBB80:
 208              	.LBB81:
 209              	.LBB82:
 210              	.LBB83:
 211              		.loc 2 548 0
 212 001e 0022     		movs	r2, #0
 213              	.LBE83:
 214              	.LBE82:
 215              	.LBE81:
 216              	.LBE80:
 217              	.LBE79:
 218              		.loc 1 128 0
 219 0020 0477     		strb	r4, [r0, #28]
 220              	.LVL11:
 221              	.LBB88:
 222              	.LBB87:
 223              	.LBB86:
 224              	.LBB85:
 225              	.LBB84:
 226              		.loc 2 548 0
 227              	@ 548 "/home/peter/ChibiOS_16.1.4/os/ext/CMSIS/include/core_cmFunc.h" 1
 228 0022 82F31188 		MSR basepri, r2
ARM GAS  /tmp/cc2HdcQ5.s 			page 5


 229              	@ 0 "" 2
 230              		.thumb
 231              	.LBE84:
 232              	.LBE85:
 233              	.LBE86:
 234              	.LBE87:
 235              	.LBE88:
 236              		.loc 1 132 0
 237 0026 10BD     		pop	{r4, pc}
 238              	.LVL12:
 239              	.L11:
 240              		.loc 1 125 0
 241 0028 0E20     		movs	r0, #14
 242 002a FFF7FEFF 		bl	chSchGoSleepS
 243              	.LVL13:
 244 002e A269     		ldr	r2, [r4, #24]
 245 0030 906A     		ldr	r0, [r2, #40]
 246 0032 02F12803 		add	r3, r2, #40
 247 0036 EEE7     		b	.L9
 248              	.L13:
 249              		.align	2
 250              	.L12:
 251 0038 00000000 		.word	ch
 252              		.cfi_endproc
 253              	.LFE171:
 254              		.size	chMsgWait, .-chMsgWait
 255 003c AFF30080 		.section	.text.chMsgRelease,"ax",%progbits
 256              		.align	2
 257              		.p2align 4,,15
 258              		.global	chMsgRelease
 259              		.thumb
 260              		.thumb_func
 261              		.type	chMsgRelease, %function
 262              	chMsgRelease:
 263              	.LFB172:
 264              		.loc 1 144 0
 265              		.cfi_startproc
 266              		@ args = 0, pretend = 0, frame = 0
 267              		@ frame_needed = 0, uses_anonymous_args = 0
 268              	.LVL14:
 269 0000 08B5     		push	{r3, lr}
 270              		.cfi_def_cfa_offset 8
 271              		.cfi_offset 3, -8
 272              		.cfi_offset 14, -4
 273              	.LBB89:
 274              	.LBB90:
 275              	.LBB91:
 276              	.LBB92:
 277              		.loc 2 548 0
 278 0002 2023     		movs	r3, #32
 279              	@ 548 "/home/peter/ChibiOS_16.1.4/os/ext/CMSIS/include/core_cmFunc.h" 1
 280 0004 83F31188 		MSR basepri, r3
 281              	@ 0 "" 2
 282              	.LVL15:
 283              		.thumb
 284              	.LBE92:
 285              	.LBE91:
ARM GAS  /tmp/cc2HdcQ5.s 			page 6


 286              	.LBE90:
 287              	.LBE89:
 288              	.LBB93:
 289              	.LBB94:
 290              		.loc 4 115 0
 291 0008 FFF7FEFF 		bl	chSchWakeupS
 292              	.LVL16:
 293              	.LBE94:
 294              	.LBE93:
 295              	.LBB95:
 296              	.LBB96:
 297              	.LBB97:
 298              	.LBB98:
 299              	.LBB99:
 300              		.loc 2 548 0
 301 000c 0023     		movs	r3, #0
 302              	@ 548 "/home/peter/ChibiOS_16.1.4/os/ext/CMSIS/include/core_cmFunc.h" 1
 303 000e 83F31188 		MSR basepri, r3
 304              	@ 0 "" 2
 305              		.thumb
 306 0012 08BD     		pop	{r3, pc}
 307              	.LBE99:
 308              	.LBE98:
 309              	.LBE97:
 310              	.LBE96:
 311              	.LBE95:
 312              		.cfi_endproc
 313              	.LFE172:
 314              		.size	chMsgRelease, .-chMsgRelease
 315 0014 AFF30080 		.text
 315      AFF30080 
 315      AFF30080 
 316              	.Letext0:
 317              		.file 5 "/usr/include/newlib/machine/_default_types.h"
 318              		.file 6 "/usr/include/newlib/stdint.h"
 319              		.file 7 "/home/peter/ChibiOS_16.1.4/os/rt/ports/ARMCMx/compilers/GCC/chtypes.h"
 320              		.file 8 "/home/peter/ChibiOS_16.1.4/os/rt/include/chsystypes.h"
 321              		.file 9 "/home/peter/ChibiOS_16.1.4/os/rt/ports/ARMCMx/chcore.h"
 322              		.file 10 "/home/peter/ChibiOS_16.1.4/os/rt/ports/ARMCMx/chcore_v7m.h"
 323              		.file 11 "/home/peter/ChibiOS_16.1.4/os/rt/include/chtm.h"
 324              		.file 12 "/home/peter/ChibiOS_16.1.4/os/rt/include/chsem.h"
 325              		.file 13 "/home/peter/ChibiOS_16.1.4/os/rt/include/chmtx.h"
 326              		.file 14 "/home/peter/ChibiOS_16.1.4/os/rt/include/chsys.h"
 327              		.file 15 "/home/peter/ChibiOS_16.1.4/os/ext/CMSIS/include/core_cm3.h"
 328              		.section	.debug_info,"",%progbits
 329              	.Ldebug_info0:
 330 0000 BD0A0000 		.4byte	0xabd
 331 0004 0400     		.2byte	0x4
 332 0006 00000000 		.4byte	.Ldebug_abbrev0
 333 000a 04       		.byte	0x4
 334 000b 01       		.uleb128 0x1
 335 000c F9030000 		.4byte	.LASF118
 336 0010 01       		.byte	0x1
 337 0011 25050000 		.4byte	.LASF119
 338 0015 60000000 		.4byte	.Ldebug_ranges0+0x60
 339 0019 00000000 		.4byte	0
 340 001d 00000000 		.4byte	.Ldebug_line0
ARM GAS  /tmp/cc2HdcQ5.s 			page 7


 341 0021 02       		.uleb128 0x2
 342 0022 04       		.byte	0x4
 343 0023 05       		.byte	0x5
 344 0024 696E7400 		.ascii	"int\000"
 345 0028 03       		.uleb128 0x3
 346 0029 04       		.byte	0x4
 347 002a 07       		.byte	0x7
 348 002b 8E010000 		.4byte	.LASF0
 349 002f 03       		.uleb128 0x3
 350 0030 01       		.byte	0x1
 351 0031 06       		.byte	0x6
 352 0032 D3000000 		.4byte	.LASF1
 353 0036 04       		.uleb128 0x4
 354 0037 30000000 		.4byte	.LASF5
 355 003b 05       		.byte	0x5
 356 003c 1D       		.byte	0x1d
 357 003d 41000000 		.4byte	0x41
 358 0041 03       		.uleb128 0x3
 359 0042 01       		.byte	0x1
 360 0043 08       		.byte	0x8
 361 0044 0B030000 		.4byte	.LASF2
 362 0048 03       		.uleb128 0x3
 363 0049 02       		.byte	0x2
 364 004a 05       		.byte	0x5
 365 004b 23030000 		.4byte	.LASF3
 366 004f 03       		.uleb128 0x3
 367 0050 02       		.byte	0x2
 368 0051 07       		.byte	0x7
 369 0052 C4010000 		.4byte	.LASF4
 370 0056 04       		.uleb128 0x4
 371 0057 22020000 		.4byte	.LASF6
 372 005b 05       		.byte	0x5
 373 005c 3F       		.byte	0x3f
 374 005d 61000000 		.4byte	0x61
 375 0061 03       		.uleb128 0x3
 376 0062 04       		.byte	0x4
 377 0063 05       		.byte	0x5
 378 0064 16010000 		.4byte	.LASF7
 379 0068 04       		.uleb128 0x4
 380 0069 F3040000 		.4byte	.LASF8
 381 006d 05       		.byte	0x5
 382 006e 41       		.byte	0x41
 383 006f 73000000 		.4byte	0x73
 384 0073 03       		.uleb128 0x3
 385 0074 04       		.byte	0x4
 386 0075 07       		.byte	0x7
 387 0076 E7030000 		.4byte	.LASF9
 388 007a 03       		.uleb128 0x3
 389 007b 08       		.byte	0x8
 390 007c 05       		.byte	0x5
 391 007d C5000000 		.4byte	.LASF10
 392 0081 04       		.uleb128 0x4
 393 0082 BB020000 		.4byte	.LASF11
 394 0086 05       		.byte	0x5
 395 0087 5B       		.byte	0x5b
 396 0088 8C000000 		.4byte	0x8c
 397 008c 03       		.uleb128 0x3
ARM GAS  /tmp/cc2HdcQ5.s 			page 8


 398 008d 08       		.byte	0x8
 399 008e 07       		.byte	0x7
 400 008f 5F000000 		.4byte	.LASF12
 401 0093 04       		.uleb128 0x4
 402 0094 91050000 		.4byte	.LASF13
 403 0098 06       		.byte	0x6
 404 0099 15       		.byte	0x15
 405 009a 36000000 		.4byte	0x36
 406 009e 04       		.uleb128 0x4
 407 009f 03030000 		.4byte	.LASF14
 408 00a3 06       		.byte	0x6
 409 00a4 2C       		.byte	0x2c
 410 00a5 56000000 		.4byte	0x56
 411 00a9 04       		.uleb128 0x4
 412 00aa B3030000 		.4byte	.LASF15
 413 00ae 06       		.byte	0x6
 414 00af 2D       		.byte	0x2d
 415 00b0 68000000 		.4byte	0x68
 416 00b4 04       		.uleb128 0x4
 417 00b5 27000000 		.4byte	.LASF16
 418 00b9 06       		.byte	0x6
 419 00ba 39       		.byte	0x39
 420 00bb 81000000 		.4byte	0x81
 421 00bf 04       		.uleb128 0x4
 422 00c0 52050000 		.4byte	.LASF17
 423 00c4 07       		.byte	0x7
 424 00c5 39       		.byte	0x39
 425 00c6 A9000000 		.4byte	0xa9
 426 00ca 04       		.uleb128 0x4
 427 00cb 00020000 		.4byte	.LASF18
 428 00cf 07       		.byte	0x7
 429 00d0 3C       		.byte	0x3c
 430 00d1 93000000 		.4byte	0x93
 431 00d5 04       		.uleb128 0x4
 432 00d6 29010000 		.4byte	.LASF19
 433 00da 07       		.byte	0x7
 434 00db 3D       		.byte	0x3d
 435 00dc 93000000 		.4byte	0x93
 436 00e0 04       		.uleb128 0x4
 437 00e1 C6020000 		.4byte	.LASF20
 438 00e5 07       		.byte	0x7
 439 00e6 3E       		.byte	0x3e
 440 00e7 93000000 		.4byte	0x93
 441 00eb 04       		.uleb128 0x4
 442 00ec 02010000 		.4byte	.LASF21
 443 00f0 07       		.byte	0x7
 444 00f1 3F       		.byte	0x3f
 445 00f2 93000000 		.4byte	0x93
 446 00f6 04       		.uleb128 0x4
 447 00f7 E5020000 		.4byte	.LASF22
 448 00fb 07       		.byte	0x7
 449 00fc 40       		.byte	0x40
 450 00fd A9000000 		.4byte	0xa9
 451 0101 04       		.uleb128 0x4
 452 0102 EE010000 		.4byte	.LASF23
 453 0106 07       		.byte	0x7
 454 0107 41       		.byte	0x41
ARM GAS  /tmp/cc2HdcQ5.s 			page 9


 455 0108 9E000000 		.4byte	0x9e
 456 010c 04       		.uleb128 0x4
 457 010d 16020000 		.4byte	.LASF24
 458 0111 07       		.byte	0x7
 459 0112 43       		.byte	0x43
 460 0113 A9000000 		.4byte	0xa9
 461 0117 04       		.uleb128 0x4
 462 0118 88010000 		.4byte	.LASF25
 463 011c 07       		.byte	0x7
 464 011d 45       		.byte	0x45
 465 011e 9E000000 		.4byte	0x9e
 466 0122 04       		.uleb128 0x4
 467 0123 D5040000 		.4byte	.LASF26
 468 0127 08       		.byte	0x8
 469 0128 33       		.byte	0x33
 470 0129 A9000000 		.4byte	0xa9
 471 012d 04       		.uleb128 0x4
 472 012e BA040000 		.4byte	.LASF27
 473 0132 08       		.byte	0x8
 474 0133 3F       		.byte	0x3f
 475 0134 38010000 		.4byte	0x138
 476 0138 05       		.uleb128 0x5
 477 0139 D7010000 		.4byte	.LASF48
 478 013d 44       		.byte	0x44
 479 013e 03       		.byte	0x3
 480 013f C2       		.byte	0xc2
 481 0140 31020000 		.4byte	0x231
 482 0144 06       		.uleb128 0x6
 483 0145 4D030000 		.4byte	.LASF28
 484 0149 03       		.byte	0x3
 485 014a C3       		.byte	0xc3
 486 014b 3C020000 		.4byte	0x23c
 487 014f 00       		.byte	0
 488 0150 06       		.uleb128 0x6
 489 0151 DE020000 		.4byte	.LASF29
 490 0155 03       		.byte	0x3
 491 0156 C5       		.byte	0xc5
 492 0157 3C020000 		.4byte	0x23c
 493 015b 04       		.byte	0x4
 494 015c 06       		.uleb128 0x6
 495 015d BE000000 		.4byte	.LASF30
 496 0161 03       		.byte	0x3
 497 0162 C7       		.byte	0xc7
 498 0163 F6000000 		.4byte	0xf6
 499 0167 08       		.byte	0x8
 500 0168 06       		.uleb128 0x6
 501 0169 DA050000 		.4byte	.LASF31
 502 016d 03       		.byte	0x3
 503 016e C8       		.byte	0xc8
 504 016f 6C040000 		.4byte	0x46c
 505 0173 0C       		.byte	0xc
 506 0174 06       		.uleb128 0x6
 507 0175 42010000 		.4byte	.LASF32
 508 0179 03       		.byte	0x3
 509 017a CA       		.byte	0xca
 510 017b 3C020000 		.4byte	0x23c
 511 017f 10       		.byte	0x10
ARM GAS  /tmp/cc2HdcQ5.s 			page 10


 512 0180 06       		.uleb128 0x6
 513 0181 83020000 		.4byte	.LASF33
 514 0185 03       		.byte	0x3
 515 0186 CB       		.byte	0xcb
 516 0187 3C020000 		.4byte	0x23c
 517 018b 14       		.byte	0x14
 518 018c 06       		.uleb128 0x6
 519 018d A0050000 		.4byte	.LASF34
 520 0191 03       		.byte	0x3
 521 0192 D2       		.byte	0xd2
 522 0193 EB050000 		.4byte	0x5eb
 523 0197 18       		.byte	0x18
 524 0198 06       		.uleb128 0x6
 525 0199 2D030000 		.4byte	.LASF35
 526 019d 03       		.byte	0x3
 527 019e DD       		.byte	0xdd
 528 019f D5000000 		.4byte	0xd5
 529 01a3 1C       		.byte	0x1c
 530 01a4 06       		.uleb128 0x6
 531 01a5 54030000 		.4byte	.LASF36
 532 01a9 03       		.byte	0x3
 533 01aa E1       		.byte	0xe1
 534 01ab CA000000 		.4byte	0xca
 535 01af 1D       		.byte	0x1d
 536 01b0 06       		.uleb128 0x6
 537 01b1 84050000 		.4byte	.LASF37
 538 01b5 03       		.byte	0x3
 539 01b6 E6       		.byte	0xe6
 540 01b7 E0000000 		.4byte	0xe0
 541 01bb 1E       		.byte	0x1e
 542 01bc 06       		.uleb128 0x6
 543 01bd 35030000 		.4byte	.LASF38
 544 01c1 03       		.byte	0x3
 545 01c2 EC       		.byte	0xec
 546 01c3 EB000000 		.4byte	0xeb
 547 01c7 1F       		.byte	0x1f
 548 01c8 07       		.uleb128 0x7
 549 01c9 705F7500 		.ascii	"p_u\000"
 550 01cd 03       		.byte	0x3
 551 01ce 3101     		.2byte	0x131
 552 01d0 26050000 		.4byte	0x526
 553 01d4 20       		.byte	0x20
 554 01d5 08       		.uleb128 0x8
 555 01d6 46020000 		.4byte	.LASF39
 556 01da 03       		.byte	0x3
 557 01db 3601     		.2byte	0x136
 558 01dd 42020000 		.4byte	0x242
 559 01e1 24       		.byte	0x24
 560 01e2 08       		.uleb128 0x8
 561 01e3 B3010000 		.4byte	.LASF40
 562 01e7 03       		.byte	0x3
 563 01e8 3C01     		.2byte	0x13c
 564 01ea 66020000 		.4byte	0x266
 565 01ee 28       		.byte	0x28
 566 01ef 08       		.uleb128 0x8
 567 01f0 BE050000 		.4byte	.LASF41
 568 01f4 03       		.byte	0x3
ARM GAS  /tmp/cc2HdcQ5.s 			page 11


 569 01f5 4001     		.2byte	0x140
 570 01f7 01010000 		.4byte	0x101
 571 01fb 30       		.byte	0x30
 572 01fc 08       		.uleb128 0x8
 573 01fd A8030000 		.4byte	.LASF42
 574 0201 03       		.byte	0x3
 575 0202 4601     		.2byte	0x146
 576 0204 0C010000 		.4byte	0x10c
 577 0208 34       		.byte	0x34
 578 0209 08       		.uleb128 0x8
 579 020a 19030000 		.4byte	.LASF43
 580 020e 03       		.byte	0x3
 581 020f 4D01     		.2byte	0x14d
 582 0211 E5050000 		.4byte	0x5e5
 583 0215 38       		.byte	0x38
 584 0216 08       		.uleb128 0x8
 585 0217 DF040000 		.4byte	.LASF44
 586 021b 03       		.byte	0x3
 587 021c 5101     		.2byte	0x151
 588 021e F6000000 		.4byte	0xf6
 589 0222 3C       		.byte	0x3c
 590 0223 08       		.uleb128 0x8
 591 0224 DF000000 		.4byte	.LASF45
 592 0228 03       		.byte	0x3
 593 0229 5801     		.2byte	0x158
 594 022b 19030000 		.4byte	0x319
 595 022f 40       		.byte	0x40
 596 0230 00       		.byte	0
 597 0231 04       		.uleb128 0x4
 598 0232 59020000 		.4byte	.LASF46
 599 0236 08       		.byte	0x8
 600 0237 44       		.byte	0x44
 601 0238 3C020000 		.4byte	0x23c
 602 023c 09       		.uleb128 0x9
 603 023d 04       		.byte	0x4
 604 023e 2D010000 		.4byte	0x12d
 605 0242 04       		.uleb128 0x4
 606 0243 37020000 		.4byte	.LASF47
 607 0247 08       		.byte	0x8
 608 0248 49       		.byte	0x49
 609 0249 4D020000 		.4byte	0x24d
 610 024d 05       		.uleb128 0x5
 611 024e D7030000 		.4byte	.LASF49
 612 0252 04       		.byte	0x4
 613 0253 03       		.byte	0x3
 614 0254 B0       		.byte	0xb0
 615 0255 66020000 		.4byte	0x266
 616 0259 06       		.uleb128 0x6
 617 025a 4D030000 		.4byte	.LASF28
 618 025e 03       		.byte	0x3
 619 025f B1       		.byte	0xb1
 620 0260 3C020000 		.4byte	0x23c
 621 0264 00       		.byte	0
 622 0265 00       		.byte	0
 623 0266 04       		.uleb128 0x4
 624 0267 6B050000 		.4byte	.LASF50
 625 026b 08       		.byte	0x8
ARM GAS  /tmp/cc2HdcQ5.s 			page 12


 626 026c 50       		.byte	0x50
 627 026d 71020000 		.4byte	0x271
 628 0271 05       		.uleb128 0x5
 629 0272 AD000000 		.4byte	.LASF51
 630 0276 08       		.byte	0x8
 631 0277 03       		.byte	0x3
 632 0278 B7       		.byte	0xb7
 633 0279 96020000 		.4byte	0x296
 634 027d 06       		.uleb128 0x6
 635 027e 4D030000 		.4byte	.LASF28
 636 0282 03       		.byte	0x3
 637 0283 B8       		.byte	0xb8
 638 0284 3C020000 		.4byte	0x23c
 639 0288 00       		.byte	0
 640 0289 06       		.uleb128 0x6
 641 028a DE020000 		.4byte	.LASF29
 642 028e 03       		.byte	0x3
 643 028f B9       		.byte	0xb9
 644 0290 3C020000 		.4byte	0x23c
 645 0294 04       		.byte	0x4
 646 0295 00       		.byte	0
 647 0296 04       		.uleb128 0x4
 648 0297 00000000 		.4byte	.LASF52
 649 029b 08       		.byte	0x8
 650 029c 57       		.byte	0x57
 651 029d A1020000 		.4byte	0x2a1
 652 02a1 0A       		.uleb128 0xa
 653 02a2 08020000 		.4byte	.LASF53
 654 02a6 1C       		.byte	0x1c
 655 02a7 03       		.byte	0x3
 656 02a8 9001     		.2byte	0x190
 657 02aa FD020000 		.4byte	0x2fd
 658 02ae 08       		.uleb128 0x8
 659 02af C3030000 		.4byte	.LASF54
 660 02b3 03       		.byte	0x3
 661 02b4 9101     		.2byte	0x191
 662 02b6 66020000 		.4byte	0x266
 663 02ba 00       		.byte	0
 664 02bb 08       		.uleb128 0x8
 665 02bc 3F030000 		.4byte	.LASF55
 666 02c0 03       		.byte	0x3
 667 02c1 9201     		.2byte	0x192
 668 02c3 F6000000 		.4byte	0xf6
 669 02c7 08       		.byte	0x8
 670 02c8 08       		.uleb128 0x8
 671 02c9 8B020000 		.4byte	.LASF56
 672 02cd 03       		.byte	0x3
 673 02ce 9401     		.2byte	0x194
 674 02d0 6C040000 		.4byte	0x46c
 675 02d4 0C       		.byte	0xc
 676 02d5 08       		.uleb128 0x8
 677 02d6 52010000 		.4byte	.LASF57
 678 02da 03       		.byte	0x3
 679 02db 9701     		.2byte	0x197
 680 02dd 3C020000 		.4byte	0x23c
 681 02e1 10       		.byte	0x10
 682 02e2 08       		.uleb128 0x8
ARM GAS  /tmp/cc2HdcQ5.s 			page 13


 683 02e3 B3020000 		.4byte	.LASF58
 684 02e7 03       		.byte	0x3
 685 02e8 9801     		.2byte	0x198
 686 02ea 3C020000 		.4byte	0x23c
 687 02ee 14       		.byte	0x14
 688 02ef 08       		.uleb128 0x8
 689 02f0 A9020000 		.4byte	.LASF59
 690 02f4 03       		.byte	0x3
 691 02f5 9B01     		.2byte	0x19b
 692 02f7 3C020000 		.4byte	0x23c
 693 02fb 18       		.byte	0x18
 694 02fc 00       		.byte	0
 695 02fd 04       		.uleb128 0x4
 696 02fe EA040000 		.4byte	.LASF60
 697 0302 08       		.byte	0x8
 698 0303 5C       		.byte	0x5c
 699 0304 08030000 		.4byte	0x308
 700 0308 09       		.uleb128 0x9
 701 0309 04       		.byte	0x4
 702 030a 0E030000 		.4byte	0x30e
 703 030e 0B       		.uleb128 0xb
 704 030f 19030000 		.4byte	0x319
 705 0313 0C       		.uleb128 0xc
 706 0314 19030000 		.4byte	0x319
 707 0318 00       		.byte	0
 708 0319 0D       		.uleb128 0xd
 709 031a 04       		.byte	0x4
 710 031b 04       		.uleb128 0x4
 711 031c CE020000 		.4byte	.LASF61
 712 0320 08       		.byte	0x8
 713 0321 61       		.byte	0x61
 714 0322 26030000 		.4byte	0x326
 715 0326 0A       		.uleb128 0xa
 716 0327 6F030000 		.4byte	.LASF62
 717 032b 14       		.byte	0x14
 718 032c 03       		.byte	0x3
 719 032d 6B01     		.2byte	0x16b
 720 032f 75030000 		.4byte	0x375
 721 0333 08       		.uleb128 0x8
 722 0334 9B010000 		.4byte	.LASF63
 723 0338 03       		.byte	0x3
 724 0339 6C01     		.2byte	0x16c
 725 033b FD050000 		.4byte	0x5fd
 726 033f 00       		.byte	0
 727 0340 08       		.uleb128 0x8
 728 0341 63010000 		.4byte	.LASF64
 729 0345 03       		.byte	0x3
 730 0346 6D01     		.2byte	0x16d
 731 0348 FD050000 		.4byte	0x5fd
 732 034c 04       		.byte	0x4
 733 034d 08       		.uleb128 0x8
 734 034e AA010000 		.4byte	.LASF65
 735 0352 03       		.byte	0x3
 736 0353 6E01     		.2byte	0x16e
 737 0355 22010000 		.4byte	0x122
 738 0359 08       		.byte	0x8
 739 035a 08       		.uleb128 0x8
ARM GAS  /tmp/cc2HdcQ5.s 			page 14


 740 035b E0050000 		.4byte	.LASF66
 741 035f 03       		.byte	0x3
 742 0360 6F01     		.2byte	0x16f
 743 0362 FD020000 		.4byte	0x2fd
 744 0366 0C       		.byte	0xc
 745 0367 08       		.uleb128 0x8
 746 0368 5A050000 		.4byte	.LASF67
 747 036c 03       		.byte	0x3
 748 036d 7101     		.2byte	0x171
 749 036f 19030000 		.4byte	0x319
 750 0373 10       		.byte	0x10
 751 0374 00       		.byte	0
 752 0375 04       		.uleb128 0x4
 753 0376 8A000000 		.4byte	.LASF68
 754 037a 08       		.byte	0x8
 755 037b 66       		.byte	0x66
 756 037c 80030000 		.4byte	0x380
 757 0380 0A       		.uleb128 0xa
 758 0381 6C020000 		.4byte	.LASF69
 759 0385 10       		.byte	0x10
 760 0386 03       		.byte	0x3
 761 0387 7B01     		.2byte	0x17b
 762 0389 C2030000 		.4byte	0x3c2
 763 038d 08       		.uleb128 0x8
 764 038e 9B010000 		.4byte	.LASF63
 765 0392 03       		.byte	0x3
 766 0393 7C01     		.2byte	0x17c
 767 0395 FD050000 		.4byte	0x5fd
 768 0399 00       		.byte	0
 769 039a 08       		.uleb128 0x8
 770 039b 63010000 		.4byte	.LASF64
 771 039f 03       		.byte	0x3
 772 03a0 7E01     		.2byte	0x17e
 773 03a2 FD050000 		.4byte	0x5fd
 774 03a6 04       		.byte	0x4
 775 03a7 08       		.uleb128 0x8
 776 03a8 AA010000 		.4byte	.LASF65
 777 03ac 03       		.byte	0x3
 778 03ad 8001     		.2byte	0x180
 779 03af 22010000 		.4byte	0x122
 780 03b3 08       		.byte	0x8
 781 03b4 08       		.uleb128 0x8
 782 03b5 A7050000 		.4byte	.LASF70
 783 03b9 03       		.byte	0x3
 784 03ba 8201     		.2byte	0x182
 785 03bc 03060000 		.4byte	0x603
 786 03c0 0C       		.byte	0xc
 787 03c1 00       		.byte	0
 788 03c2 04       		.uleb128 0x4
 789 03c3 46000000 		.4byte	.LASF71
 790 03c7 08       		.byte	0x8
 791 03c8 6B       		.byte	0x6b
 792 03c9 CD030000 		.4byte	0x3cd
 793 03cd 0A       		.uleb128 0xa
 794 03ce ED020000 		.4byte	.LASF72
 795 03d2 04       		.byte	0x4
 796 03d3 03       		.byte	0x3
ARM GAS  /tmp/cc2HdcQ5.s 			page 15


 797 03d4 A201     		.2byte	0x1a2
 798 03d6 E8030000 		.4byte	0x3e8
 799 03da 08       		.uleb128 0x8
 800 03db 0C050000 		.4byte	.LASF73
 801 03df 03       		.byte	0x3
 802 03e0 AA01     		.2byte	0x1aa
 803 03e2 08060000 		.4byte	0x608
 804 03e6 00       		.byte	0
 805 03e7 00       		.byte	0
 806 03e8 04       		.uleb128 0x4
 807 03e9 F4010000 		.4byte	.LASF74
 808 03ed 08       		.byte	0x8
 809 03ee 70       		.byte	0x70
 810 03ef F3030000 		.4byte	0x3f3
 811 03f3 0E       		.uleb128 0xe
 812 03f4 0C010000 		.4byte	.LASF75
 813 03f8 5001     		.2byte	0x150
 814 03fa 03       		.byte	0x3
 815 03fb C201     		.2byte	0x1c2
 816 03fd 4F040000 		.4byte	0x44f
 817 0401 08       		.uleb128 0x8
 818 0402 8B050000 		.4byte	.LASF76
 819 0406 03       		.byte	0x3
 820 0407 C601     		.2byte	0x1c6
 821 0409 96020000 		.4byte	0x296
 822 040d 00       		.byte	0
 823 040e 08       		.uleb128 0x8
 824 040f EF000000 		.4byte	.LASF77
 825 0413 03       		.byte	0x3
 826 0414 CA01     		.2byte	0x1ca
 827 0416 75030000 		.4byte	0x375
 828 041a 1C       		.byte	0x1c
 829 041b 07       		.uleb128 0x7
 830 041c 64626700 		.ascii	"dbg\000"
 831 0420 03       		.byte	0x3
 832 0421 CE01     		.2byte	0x1ce
 833 0423 C2030000 		.4byte	0x3c2
 834 0427 2C       		.byte	0x2c
 835 0428 08       		.uleb128 0x8
 836 0429 7F000000 		.4byte	.LASF78
 837 042d 03       		.byte	0x3
 838 042e D201     		.2byte	0x1d2
 839 0430 2D010000 		.4byte	0x12d
 840 0434 30       		.byte	0x30
 841 0435 07       		.uleb128 0x7
 842 0436 746D00   		.ascii	"tm\000"
 843 0439 03       		.byte	0x3
 844 043a D701     		.2byte	0x1d7
 845 043c 1B050000 		.4byte	0x51b
 846 0440 74       		.byte	0x74
 847 0441 08       		.uleb128 0x8
 848 0442 79010000 		.4byte	.LASF79
 849 0446 03       		.byte	0x3
 850 0447 E301     		.2byte	0x1e3
 851 0449 0D060000 		.4byte	0x60d
 852 044d 78       		.byte	0x78
 853 044e 00       		.byte	0
ARM GAS  /tmp/cc2HdcQ5.s 			page 16


 854 044f 03       		.uleb128 0x3
 855 0450 04       		.byte	0x4
 856 0451 07       		.byte	0x7
 857 0452 50020000 		.4byte	.LASF80
 858 0456 04       		.uleb128 0x4
 859 0457 5A010000 		.4byte	.LASF81
 860 045b 09       		.byte	0x9
 861 045c 65       		.byte	0x65
 862 045d 19030000 		.4byte	0x319
 863 0461 04       		.uleb128 0x4
 864 0462 2C020000 		.4byte	.LASF82
 865 0466 09       		.byte	0x9
 866 0467 6D       		.byte	0x6d
 867 0468 B4000000 		.4byte	0xb4
 868 046c 05       		.uleb128 0x5
 869 046d 1D050000 		.4byte	.LASF83
 870 0471 04       		.byte	0x4
 871 0472 09       		.byte	0x9
 872 0473 89       		.byte	0x89
 873 0474 85040000 		.4byte	0x485
 874 0478 0F       		.uleb128 0xf
 875 0479 72313300 		.ascii	"r13\000"
 876 047d 09       		.byte	0x9
 877 047e 8A       		.byte	0x8a
 878 047f 00050000 		.4byte	0x500
 879 0483 00       		.byte	0
 880 0484 00       		.byte	0
 881 0485 05       		.uleb128 0x5
 882 0486 3A000000 		.4byte	.LASF84
 883 048a 24       		.byte	0x24
 884 048b 0A       		.byte	0xa
 885 048c FD       		.byte	0xfd
 886 048d 00050000 		.4byte	0x500
 887 0491 07       		.uleb128 0x7
 888 0492 723400   		.ascii	"r4\000"
 889 0495 0A       		.byte	0xa
 890 0496 1001     		.2byte	0x110
 891 0498 56040000 		.4byte	0x456
 892 049c 00       		.byte	0
 893 049d 07       		.uleb128 0x7
 894 049e 723500   		.ascii	"r5\000"
 895 04a1 0A       		.byte	0xa
 896 04a2 1101     		.2byte	0x111
 897 04a4 56040000 		.4byte	0x456
 898 04a8 04       		.byte	0x4
 899 04a9 07       		.uleb128 0x7
 900 04aa 723600   		.ascii	"r6\000"
 901 04ad 0A       		.byte	0xa
 902 04ae 1201     		.2byte	0x112
 903 04b0 56040000 		.4byte	0x456
 904 04b4 08       		.byte	0x8
 905 04b5 07       		.uleb128 0x7
 906 04b6 723700   		.ascii	"r7\000"
 907 04b9 0A       		.byte	0xa
 908 04ba 1301     		.2byte	0x113
 909 04bc 56040000 		.4byte	0x456
 910 04c0 0C       		.byte	0xc
ARM GAS  /tmp/cc2HdcQ5.s 			page 17


 911 04c1 07       		.uleb128 0x7
 912 04c2 723800   		.ascii	"r8\000"
 913 04c5 0A       		.byte	0xa
 914 04c6 1401     		.2byte	0x114
 915 04c8 56040000 		.4byte	0x456
 916 04cc 10       		.byte	0x10
 917 04cd 07       		.uleb128 0x7
 918 04ce 723900   		.ascii	"r9\000"
 919 04d1 0A       		.byte	0xa
 920 04d2 1501     		.2byte	0x115
 921 04d4 56040000 		.4byte	0x456
 922 04d8 14       		.byte	0x14
 923 04d9 07       		.uleb128 0x7
 924 04da 72313000 		.ascii	"r10\000"
 925 04de 0A       		.byte	0xa
 926 04df 1601     		.2byte	0x116
 927 04e1 56040000 		.4byte	0x456
 928 04e5 18       		.byte	0x18
 929 04e6 07       		.uleb128 0x7
 930 04e7 72313100 		.ascii	"r11\000"
 931 04eb 0A       		.byte	0xa
 932 04ec 1701     		.2byte	0x117
 933 04ee 56040000 		.4byte	0x456
 934 04f2 1C       		.byte	0x1c
 935 04f3 07       		.uleb128 0x7
 936 04f4 6C7200   		.ascii	"lr\000"
 937 04f7 0A       		.byte	0xa
 938 04f8 1801     		.2byte	0x118
 939 04fa 56040000 		.4byte	0x456
 940 04fe 20       		.byte	0x20
 941 04ff 00       		.byte	0
 942 0500 09       		.uleb128 0x9
 943 0501 04       		.byte	0x4
 944 0502 85040000 		.4byte	0x485
 945 0506 10       		.uleb128 0x10
 946 0507 04       		.byte	0x4
 947 0508 0B       		.byte	0xb
 948 0509 38       		.byte	0x38
 949 050a 1B050000 		.4byte	0x51b
 950 050e 06       		.uleb128 0x6
 951 050f 16050000 		.4byte	.LASF85
 952 0513 0B       		.byte	0xb
 953 0514 3C       		.byte	0x3c
 954 0515 BF000000 		.4byte	0xbf
 955 0519 00       		.byte	0
 956 051a 00       		.byte	0
 957 051b 04       		.uleb128 0x4
 958 051c 91020000 		.4byte	.LASF86
 959 0520 0B       		.byte	0xb
 960 0521 3D       		.byte	0x3d
 961 0522 06050000 		.4byte	0x506
 962 0526 11       		.uleb128 0x11
 963 0527 04       		.byte	0x4
 964 0528 03       		.byte	0x3
 965 0529 FA       		.byte	0xfa
 966 052a 83050000 		.4byte	0x583
 967 052e 12       		.uleb128 0x12
ARM GAS  /tmp/cc2HdcQ5.s 			page 18


 968 052f 20000000 		.4byte	.LASF87
 969 0533 03       		.byte	0x3
 970 0534 0101     		.2byte	0x101
 971 0536 01010000 		.4byte	0x101
 972 053a 12       		.uleb128 0x12
 973 053b 76000000 		.4byte	.LASF88
 974 053f 03       		.byte	0x3
 975 0540 0801     		.2byte	0x108
 976 0542 01010000 		.4byte	0x101
 977 0546 12       		.uleb128 0x12
 978 0547 99050000 		.4byte	.LASF89
 979 054b 03       		.byte	0x3
 980 054c 0F01     		.2byte	0x10f
 981 054e 19030000 		.4byte	0x319
 982 0552 12       		.uleb128 0x12
 983 0553 1A000000 		.4byte	.LASF90
 984 0557 03       		.byte	0x3
 985 0558 1601     		.2byte	0x116
 986 055a 83050000 		.4byte	0x583
 987 055e 12       		.uleb128 0x12
 988 055f A3010000 		.4byte	.LASF91
 989 0563 03       		.byte	0x3
 990 0564 1E01     		.2byte	0x11e
 991 0566 AE050000 		.4byte	0x5ae
 992 056a 12       		.uleb128 0x12
 993 056b BC030000 		.4byte	.LASF92
 994 056f 03       		.byte	0x3
 995 0570 2701     		.2byte	0x127
 996 0572 E5050000 		.4byte	0x5e5
 997 0576 12       		.uleb128 0x12
 998 0577 46030000 		.4byte	.LASF93
 999 057b 03       		.byte	0x3
 1000 057c 2F01     		.2byte	0x12f
 1001 057e 0C010000 		.4byte	0x10c
 1002 0582 00       		.byte	0
 1003 0583 09       		.uleb128 0x9
 1004 0584 04       		.byte	0x4
 1005 0585 31020000 		.4byte	0x231
 1006 0589 05       		.uleb128 0x5
 1007 058a 8D030000 		.4byte	.LASF94
 1008 058e 0C       		.byte	0xc
 1009 058f 0C       		.byte	0xc
 1010 0590 34       		.byte	0x34
 1011 0591 AE050000 		.4byte	0x5ae
 1012 0595 06       		.uleb128 0x6
 1013 0596 4A010000 		.4byte	.LASF95
 1014 059a 0C       		.byte	0xc
 1015 059b 35       		.byte	0x35
 1016 059c 66020000 		.4byte	0x266
 1017 05a0 00       		.byte	0
 1018 05a1 06       		.uleb128 0x6
 1019 05a2 BE010000 		.4byte	.LASF96
 1020 05a6 0C       		.byte	0xc
 1021 05a7 37       		.byte	0x37
 1022 05a8 17010000 		.4byte	0x117
 1023 05ac 08       		.byte	0x8
 1024 05ad 00       		.byte	0
ARM GAS  /tmp/cc2HdcQ5.s 			page 19


 1025 05ae 09       		.uleb128 0x9
 1026 05af 04       		.byte	0x4
 1027 05b0 89050000 		.4byte	0x589
 1028 05b4 05       		.uleb128 0x5
 1029 05b5 7B050000 		.4byte	.LASF97
 1030 05b9 10       		.byte	0x10
 1031 05ba 0D       		.byte	0xd
 1032 05bb 39       		.byte	0x39
 1033 05bc E5050000 		.4byte	0x5e5
 1034 05c0 06       		.uleb128 0x6
 1035 05c1 E7000000 		.4byte	.LASF98
 1036 05c5 0D       		.byte	0xd
 1037 05c6 3A       		.byte	0x3a
 1038 05c7 66020000 		.4byte	0x266
 1039 05cb 00       		.byte	0
 1040 05cc 06       		.uleb128 0x6
 1041 05cd D2050000 		.4byte	.LASF99
 1042 05d1 0D       		.byte	0xd
 1043 05d2 3C       		.byte	0x3c
 1044 05d3 3C020000 		.4byte	0x23c
 1045 05d7 08       		.byte	0x8
 1046 05d8 06       		.uleb128 0x6
 1047 05d9 A2020000 		.4byte	.LASF100
 1048 05dd 0D       		.byte	0xd
 1049 05de 3E       		.byte	0x3e
 1050 05df 28060000 		.4byte	0x628
 1051 05e3 0C       		.byte	0xc
 1052 05e4 00       		.byte	0
 1053 05e5 09       		.uleb128 0x9
 1054 05e6 04       		.byte	0x4
 1055 05e7 B4050000 		.4byte	0x5b4
 1056 05eb 09       		.uleb128 0x9
 1057 05ec 04       		.byte	0x4
 1058 05ed F1050000 		.4byte	0x5f1
 1059 05f1 13       		.uleb128 0x13
 1060 05f2 F6050000 		.4byte	0x5f6
 1061 05f6 03       		.uleb128 0x3
 1062 05f7 01       		.byte	0x1
 1063 05f8 08       		.byte	0x8
 1064 05f9 B5040000 		.4byte	.LASF101
 1065 05fd 09       		.uleb128 0x9
 1066 05fe 04       		.byte	0x4
 1067 05ff 1B030000 		.4byte	0x31b
 1068 0603 14       		.uleb128 0x14
 1069 0604 22010000 		.4byte	0x122
 1070 0608 14       		.uleb128 0x14
 1071 0609 EB050000 		.4byte	0x5eb
 1072 060d 15       		.uleb128 0x15
 1073 060e 61040000 		.4byte	0x461
 1074 0612 1D060000 		.4byte	0x61d
 1075 0616 16       		.uleb128 0x16
 1076 0617 4F040000 		.4byte	0x44f
 1077 061b 1A       		.byte	0x1a
 1078 061c 00       		.byte	0
 1079 061d 04       		.uleb128 0x4
 1080 061e 6B010000 		.4byte	.LASF102
 1081 0622 0D       		.byte	0xd
ARM GAS  /tmp/cc2HdcQ5.s 			page 20


 1082 0623 34       		.byte	0x34
 1083 0624 B4050000 		.4byte	0x5b4
 1084 0628 09       		.uleb128 0x9
 1085 0629 04       		.byte	0x4
 1086 062a 1D060000 		.4byte	0x61d
 1087 062e 17       		.uleb128 0x17
 1088 062f FE040000 		.4byte	.LASF106
 1089 0633 02       		.byte	0x2
 1090 0634 2202     		.2byte	0x222
 1091 0636 03       		.byte	0x3
 1092 0637 48060000 		.4byte	0x648
 1093 063b 18       		.uleb128 0x18
 1094 063c 73010000 		.4byte	.LASF108
 1095 0640 02       		.byte	0x2
 1096 0641 2202     		.2byte	0x222
 1097 0643 A9000000 		.4byte	0xa9
 1098 0647 00       		.byte	0
 1099 0648 19       		.uleb128 0x19
 1100 0649 55000000 		.4byte	.LASF103
 1101 064d 0A       		.byte	0xa
 1102 064e C801     		.2byte	0x1c8
 1103 0650 03       		.byte	0x3
 1104 0651 19       		.uleb128 0x19
 1105 0652 F6000000 		.4byte	.LASF104
 1106 0656 0A       		.byte	0xa
 1107 0657 E001     		.2byte	0x1e0
 1108 0659 03       		.byte	0x3
 1109 065a 19       		.uleb128 0x19
 1110 065b 65030000 		.4byte	.LASF105
 1111 065f 0E       		.byte	0xe
 1112 0660 5A01     		.2byte	0x15a
 1113 0662 03       		.byte	0x3
 1114 0663 17       		.uleb128 0x17
 1115 0664 0D000000 		.4byte	.LASF107
 1116 0668 03       		.byte	0x3
 1117 0669 9702     		.2byte	0x297
 1118 066b 03       		.byte	0x3
 1119 066c 88060000 		.4byte	0x688
 1120 0670 1A       		.uleb128 0x1a
 1121 0671 747000   		.ascii	"tp\000"
 1122 0674 03       		.byte	0x3
 1123 0675 9702     		.2byte	0x297
 1124 0677 3C020000 		.4byte	0x23c
 1125 067b 1A       		.uleb128 0x1a
 1126 067c 74717000 		.ascii	"tqp\000"
 1127 0680 03       		.byte	0x3
 1128 0681 9702     		.2byte	0x297
 1129 0683 88060000 		.4byte	0x688
 1130 0687 00       		.byte	0
 1131 0688 09       		.uleb128 0x9
 1132 0689 04       		.byte	0x4
 1133 068a 66020000 		.4byte	0x266
 1134 068e 17       		.uleb128 0x17
 1135 068f B2050000 		.4byte	.LASF109
 1136 0693 0E       		.byte	0xe
 1137 0694 6601     		.2byte	0x166
 1138 0696 03       		.byte	0x3
ARM GAS  /tmp/cc2HdcQ5.s 			page 21


 1139 0697 A9060000 		.4byte	0x6a9
 1140 069b 1B       		.uleb128 0x1b
 1141 069c 5C030000 		.4byte	.LASF113
 1142 06a0 B9060000 		.4byte	0x6b9
 1143 06a4 B2050000 		.4byte	.LASF109
 1144 06a8 00       		.byte	0
 1145 06a9 15       		.uleb128 0x15
 1146 06aa F6050000 		.4byte	0x5f6
 1147 06ae B9060000 		.4byte	0x6b9
 1148 06b2 16       		.uleb128 0x16
 1149 06b3 4F040000 		.4byte	0x44f
 1150 06b7 0B       		.byte	0xb
 1151 06b8 00       		.byte	0
 1152 06b9 13       		.uleb128 0x13
 1153 06ba A9060000 		.4byte	0x6a9
 1154 06be 1C       		.uleb128 0x1c
 1155 06bf 32010000 		.4byte	.LASF111
 1156 06c3 04       		.byte	0x4
 1157 06c4 4F       		.byte	0x4f
 1158 06c5 D9060000 		.4byte	0x6d9
 1159 06c9 03       		.byte	0x3
 1160 06ca D9060000 		.4byte	0x6d9
 1161 06ce 1D       		.uleb128 0x1d
 1162 06cf 747000   		.ascii	"tp\000"
 1163 06d2 04       		.byte	0x4
 1164 06d3 4F       		.byte	0x4f
 1165 06d4 3C020000 		.4byte	0x23c
 1166 06d8 00       		.byte	0
 1167 06d9 03       		.uleb128 0x3
 1168 06da 01       		.byte	0x1
 1169 06db 02       		.byte	0x2
 1170 06dc FD020000 		.4byte	.LASF110
 1171 06e0 1E       		.uleb128 0x1e
 1172 06e1 C3040000 		.4byte	.LASF112
 1173 06e5 03       		.byte	0x3
 1174 06e6 9F02     		.2byte	0x29f
 1175 06e8 3C020000 		.4byte	0x23c
 1176 06ec 03       		.byte	0x3
 1177 06ed 09070000 		.4byte	0x709
 1178 06f1 1A       		.uleb128 0x1a
 1179 06f2 74717000 		.ascii	"tqp\000"
 1180 06f6 03       		.byte	0x3
 1181 06f7 9F02     		.2byte	0x29f
 1182 06f9 88060000 		.4byte	0x688
 1183 06fd 1F       		.uleb128 0x1f
 1184 06fe 747000   		.ascii	"tp\000"
 1185 0701 03       		.byte	0x3
 1186 0702 A002     		.2byte	0x2a0
 1187 0704 3C020000 		.4byte	0x23c
 1188 0708 00       		.byte	0
 1189 0709 20       		.uleb128 0x20
 1190 070a C4050000 		.4byte	.LASF114
 1191 070e 04       		.byte	0x4
 1192 070f 6F       		.byte	0x6f
 1193 0710 03       		.byte	0x3
 1194 0711 2B070000 		.4byte	0x72b
 1195 0715 1D       		.uleb128 0x1d
ARM GAS  /tmp/cc2HdcQ5.s 			page 22


 1196 0716 747000   		.ascii	"tp\000"
 1197 0719 04       		.byte	0x4
 1198 071a 6F       		.byte	0x6f
 1199 071b 3C020000 		.4byte	0x23c
 1200 071f 1D       		.uleb128 0x1d
 1201 0720 6D736700 		.ascii	"msg\000"
 1202 0724 04       		.byte	0x4
 1203 0725 6F       		.byte	0x6f
 1204 0726 01010000 		.4byte	0x101
 1205 072a 00       		.byte	0
 1206 072b 21       		.uleb128 0x21
 1207 072c 1F010000 		.4byte	.LASF115
 1208 0730 01       		.byte	0x1
 1209 0731 57       		.byte	0x57
 1210 0732 01010000 		.4byte	0x101
 1211 0736 00000000 		.4byte	.LFB170
 1212 073a 40000000 		.4byte	.LFE170-.LFB170
 1213 073e 01       		.uleb128 0x1
 1214 073f 9C       		.byte	0x9c
 1215 0740 40080000 		.4byte	0x840
 1216 0744 22       		.uleb128 0x22
 1217 0745 747000   		.ascii	"tp\000"
 1218 0748 01       		.byte	0x1
 1219 0749 57       		.byte	0x57
 1220 074a 3C020000 		.4byte	0x23c
 1221 074e 00000000 		.4byte	.LLST0
 1222 0752 22       		.uleb128 0x22
 1223 0753 6D736700 		.ascii	"msg\000"
 1224 0757 01       		.byte	0x1
 1225 0758 57       		.byte	0x57
 1226 0759 01010000 		.4byte	0x101
 1227 075d 38000000 		.4byte	.LLST1
 1228 0761 23       		.uleb128 0x23
 1229 0762 63747000 		.ascii	"ctp\000"
 1230 0766 01       		.byte	0x1
 1231 0767 58       		.byte	0x58
 1232 0768 3C020000 		.4byte	0x23c
 1233 076c 01       		.uleb128 0x1
 1234 076d 54       		.byte	0x54
 1235 076e 24       		.uleb128 0x24
 1236 076f 5C030000 		.4byte	.LASF113
 1237 0773 50080000 		.4byte	0x850
 1238 0777 25       		.uleb128 0x25
 1239 0778 5A060000 		.4byte	0x65a
 1240 077c 04000000 		.4byte	.LBB52
 1241 0780 00000000 		.4byte	.Ldebug_ranges0+0
 1242 0784 01       		.byte	0x1
 1243 0785 5C       		.byte	0x5c
 1244 0786 B3070000 		.4byte	0x7b3
 1245 078a 26       		.uleb128 0x26
 1246 078b 48060000 		.4byte	0x648
 1247 078f 04000000 		.4byte	.LBB53
 1248 0793 00000000 		.4byte	.Ldebug_ranges0+0
 1249 0797 0E       		.byte	0xe
 1250 0798 5C01     		.2byte	0x15c
 1251 079a 26       		.uleb128 0x26
 1252 079b 2E060000 		.4byte	0x62e
ARM GAS  /tmp/cc2HdcQ5.s 			page 23


 1253 079f 04000000 		.4byte	.LBB54
 1254 07a3 00000000 		.4byte	.Ldebug_ranges0+0
 1255 07a7 0A       		.byte	0xa
 1256 07a8 D001     		.2byte	0x1d0
 1257 07aa 27       		.uleb128 0x27
 1258 07ab 3B060000 		.4byte	0x63b
 1259 07af 20       		.byte	0x20
 1260 07b0 00       		.byte	0
 1261 07b1 00       		.byte	0
 1262 07b2 00       		.byte	0
 1263 07b3 25       		.uleb128 0x25
 1264 07b4 63060000 		.4byte	0x663
 1265 07b8 14000000 		.4byte	.LBB60
 1266 07bc 18000000 		.4byte	.Ldebug_ranges0+0x18
 1267 07c0 01       		.byte	0x1
 1268 07c1 5F       		.byte	0x5f
 1269 07c2 D5070000 		.4byte	0x7d5
 1270 07c6 28       		.uleb128 0x28
 1271 07c7 7B060000 		.4byte	0x67b
 1272 07cb 01       		.uleb128 0x1
 1273 07cc 55       		.byte	0x55
 1274 07cd 28       		.uleb128 0x28
 1275 07ce 70060000 		.4byte	0x670
 1276 07d2 01       		.uleb128 0x1
 1277 07d3 54       		.byte	0x54
 1278 07d4 00       		.byte	0
 1279 07d5 29       		.uleb128 0x29
 1280 07d6 8E060000 		.4byte	0x68e
 1281 07da 2C000000 		.4byte	.LBB64
 1282 07de 06000000 		.4byte	.LBE64-.LBB64
 1283 07e2 01       		.byte	0x1
 1284 07e3 65       		.byte	0x65
 1285 07e4 23080000 		.4byte	0x823
 1286 07e8 2A       		.uleb128 0x2a
 1287 07e9 2C000000 		.4byte	.LBB65
 1288 07ed 06000000 		.4byte	.LBE65-.LBB65
 1289 07f1 2B       		.uleb128 0x2b
 1290 07f2 9B060000 		.4byte	0x69b
 1291 07f6 2C       		.uleb128 0x2c
 1292 07f7 51060000 		.4byte	0x651
 1293 07fb 2C000000 		.4byte	.LBB66
 1294 07ff 06000000 		.4byte	.LBE66-.LBB66
 1295 0803 0E       		.byte	0xe
 1296 0804 7301     		.2byte	0x173
 1297 0806 2C       		.uleb128 0x2c
 1298 0807 2E060000 		.4byte	0x62e
 1299 080b 2C000000 		.4byte	.LBB67
 1300 080f 06000000 		.4byte	.LBE67-.LBB67
 1301 0813 0A       		.byte	0xa
 1302 0814 E301     		.2byte	0x1e3
 1303 0816 2D       		.uleb128 0x2d
 1304 0817 3B060000 		.4byte	0x63b
 1305 081b 7D000000 		.4byte	.LLST2
 1306 081f 00       		.byte	0
 1307 0820 00       		.byte	0
 1308 0821 00       		.byte	0
 1309 0822 00       		.byte	0
ARM GAS  /tmp/cc2HdcQ5.s 			page 24


 1310 0823 2E       		.uleb128 0x2e
 1311 0824 2A000000 		.4byte	.LVL4
 1312 0828 850A0000 		.4byte	0xa85
 1313 082c 36080000 		.4byte	0x836
 1314 0830 2F       		.uleb128 0x2f
 1315 0831 01       		.uleb128 0x1
 1316 0832 50       		.byte	0x50
 1317 0833 01       		.uleb128 0x1
 1318 0834 3C       		.byte	0x3c
 1319 0835 00       		.byte	0
 1320 0836 30       		.uleb128 0x30
 1321 0837 38000000 		.4byte	.LVL7
 1322 083b 970A0000 		.4byte	0xa97
 1323 083f 00       		.byte	0
 1324 0840 15       		.uleb128 0x15
 1325 0841 F6050000 		.4byte	0x5f6
 1326 0845 50080000 		.4byte	0x850
 1327 0849 16       		.uleb128 0x16
 1328 084a 4F040000 		.4byte	0x44f
 1329 084e 09       		.byte	0x9
 1330 084f 00       		.byte	0
 1331 0850 13       		.uleb128 0x13
 1332 0851 40080000 		.4byte	0x840
 1333 0855 21       		.uleb128 0x21
 1334 0856 61050000 		.4byte	.LASF116
 1335 085a 01       		.byte	0x1
 1336 085b 78       		.byte	0x78
 1337 085c 3C020000 		.4byte	0x23c
 1338 0860 00000000 		.4byte	.LFB171
 1339 0864 3C000000 		.4byte	.LFE171-.LFB171
 1340 0868 01       		.uleb128 0x1
 1341 0869 9C       		.byte	0x9c
 1342 086a 57090000 		.4byte	0x957
 1343 086e 31       		.uleb128 0x31
 1344 086f 747000   		.ascii	"tp\000"
 1345 0872 01       		.byte	0x1
 1346 0873 79       		.byte	0x79
 1347 0874 3C020000 		.4byte	0x23c
 1348 0878 29       		.uleb128 0x29
 1349 0879 5A060000 		.4byte	0x65a
 1350 087d 02000000 		.4byte	.LBB69
 1351 0881 06000000 		.4byte	.LBE69-.LBB69
 1352 0885 01       		.byte	0x1
 1353 0886 7B       		.byte	0x7b
 1354 0887 B4080000 		.4byte	0x8b4
 1355 088b 2C       		.uleb128 0x2c
 1356 088c 48060000 		.4byte	0x648
 1357 0890 02000000 		.4byte	.LBB70
 1358 0894 06000000 		.4byte	.LBE70-.LBB70
 1359 0898 0E       		.byte	0xe
 1360 0899 5C01     		.2byte	0x15c
 1361 089b 2C       		.uleb128 0x2c
 1362 089c 2E060000 		.4byte	0x62e
 1363 08a0 02000000 		.4byte	.LBB71
 1364 08a4 06000000 		.4byte	.LBE71-.LBB71
 1365 08a8 0A       		.byte	0xa
 1366 08a9 D001     		.2byte	0x1d0
ARM GAS  /tmp/cc2HdcQ5.s 			page 25


 1367 08ab 27       		.uleb128 0x27
 1368 08ac 3B060000 		.4byte	0x63b
 1369 08b0 20       		.byte	0x20
 1370 08b1 00       		.byte	0
 1371 08b2 00       		.byte	0
 1372 08b3 00       		.byte	0
 1373 08b4 29       		.uleb128 0x29
 1374 08b5 BE060000 		.4byte	0x6be
 1375 08b9 0C000000 		.4byte	.LBB73
 1376 08bd 06000000 		.4byte	.LBE73-.LBB73
 1377 08c1 01       		.byte	0x1
 1378 08c2 7C       		.byte	0x7c
 1379 08c3 D1080000 		.4byte	0x8d1
 1380 08c7 2D       		.uleb128 0x2d
 1381 08c8 CE060000 		.4byte	0x6ce
 1382 08cc 91000000 		.4byte	.LLST3
 1383 08d0 00       		.byte	0
 1384 08d1 25       		.uleb128 0x25
 1385 08d2 E0060000 		.4byte	0x6e0
 1386 08d6 16000000 		.4byte	.LBB75
 1387 08da 30000000 		.4byte	.Ldebug_ranges0+0x30
 1388 08de 01       		.byte	0x1
 1389 08df 7F       		.byte	0x7f
 1390 08e0 FD080000 		.4byte	0x8fd
 1391 08e4 2D       		.uleb128 0x2d
 1392 08e5 F1060000 		.4byte	0x6f1
 1393 08e9 AF000000 		.4byte	.LLST4
 1394 08ed 32       		.uleb128 0x32
 1395 08ee 30000000 		.4byte	.Ldebug_ranges0+0x30
 1396 08f2 33       		.uleb128 0x33
 1397 08f3 FD060000 		.4byte	0x6fd
 1398 08f7 C2000000 		.4byte	.LLST5
 1399 08fb 00       		.byte	0
 1400 08fc 00       		.byte	0
 1401 08fd 25       		.uleb128 0x25
 1402 08fe 8E060000 		.4byte	0x68e
 1403 0902 1E000000 		.4byte	.LBB79
 1404 0906 48000000 		.4byte	.Ldebug_ranges0+0x48
 1405 090a 01       		.byte	0x1
 1406 090b 81       		.byte	0x81
 1407 090c 47090000 		.4byte	0x947
 1408 0910 32       		.uleb128 0x32
 1409 0911 48000000 		.4byte	.Ldebug_ranges0+0x48
 1410 0915 2B       		.uleb128 0x2b
 1411 0916 9B060000 		.4byte	0x69b
 1412 091a 26       		.uleb128 0x26
 1413 091b 51060000 		.4byte	0x651
 1414 091f 1E000000 		.4byte	.LBB81
 1415 0923 48000000 		.4byte	.Ldebug_ranges0+0x48
 1416 0927 0E       		.byte	0xe
 1417 0928 7301     		.2byte	0x173
 1418 092a 26       		.uleb128 0x26
 1419 092b 2E060000 		.4byte	0x62e
 1420 092f 1E000000 		.4byte	.LBB82
 1421 0933 48000000 		.4byte	.Ldebug_ranges0+0x48
 1422 0937 0A       		.byte	0xa
 1423 0938 E301     		.2byte	0x1e3
ARM GAS  /tmp/cc2HdcQ5.s 			page 26


 1424 093a 2D       		.uleb128 0x2d
 1425 093b 3B060000 		.4byte	0x63b
 1426 093f D5000000 		.4byte	.LLST6
 1427 0943 00       		.byte	0
 1428 0944 00       		.byte	0
 1429 0945 00       		.byte	0
 1430 0946 00       		.byte	0
 1431 0947 34       		.uleb128 0x34
 1432 0948 2E000000 		.4byte	.LVL13
 1433 094c 850A0000 		.4byte	0xa85
 1434 0950 2F       		.uleb128 0x2f
 1435 0951 01       		.uleb128 0x1
 1436 0952 50       		.byte	0x50
 1437 0953 01       		.uleb128 0x1
 1438 0954 3E       		.byte	0x3e
 1439 0955 00       		.byte	0
 1440 0956 00       		.byte	0
 1441 0957 35       		.uleb128 0x35
 1442 0958 80030000 		.4byte	.LASF120
 1443 095c 01       		.byte	0x1
 1444 095d 90       		.byte	0x90
 1445 095e 00000000 		.4byte	.LFB172
 1446 0962 14000000 		.4byte	.LFE172-.LFB172
 1447 0966 01       		.uleb128 0x1
 1448 0967 9C       		.byte	0x9c
 1449 0968 540A0000 		.4byte	0xa54
 1450 096c 22       		.uleb128 0x22
 1451 096d 747000   		.ascii	"tp\000"
 1452 0970 01       		.byte	0x1
 1453 0971 90       		.byte	0x90
 1454 0972 3C020000 		.4byte	0x23c
 1455 0976 E9000000 		.4byte	.LLST7
 1456 097a 22       		.uleb128 0x22
 1457 097b 6D736700 		.ascii	"msg\000"
 1458 097f 01       		.byte	0x1
 1459 0980 90       		.byte	0x90
 1460 0981 01010000 		.4byte	0x101
 1461 0985 0A010000 		.4byte	.LLST8
 1462 0989 24       		.uleb128 0x24
 1463 098a 5C030000 		.4byte	.LASF113
 1464 098e 640A0000 		.4byte	0xa64
 1465 0992 29       		.uleb128 0x29
 1466 0993 5A060000 		.4byte	0x65a
 1467 0997 02000000 		.4byte	.LBB89
 1468 099b 06000000 		.4byte	.LBE89-.LBB89
 1469 099f 01       		.byte	0x1
 1470 09a0 92       		.byte	0x92
 1471 09a1 CE090000 		.4byte	0x9ce
 1472 09a5 2C       		.uleb128 0x2c
 1473 09a6 48060000 		.4byte	0x648
 1474 09aa 02000000 		.4byte	.LBB90
 1475 09ae 06000000 		.4byte	.LBE90-.LBB90
 1476 09b2 0E       		.byte	0xe
 1477 09b3 5C01     		.2byte	0x15c
 1478 09b5 2C       		.uleb128 0x2c
 1479 09b6 2E060000 		.4byte	0x62e
 1480 09ba 02000000 		.4byte	.LBB91
ARM GAS  /tmp/cc2HdcQ5.s 			page 27


 1481 09be 06000000 		.4byte	.LBE91-.LBB91
 1482 09c2 0A       		.byte	0xa
 1483 09c3 D001     		.2byte	0x1d0
 1484 09c5 27       		.uleb128 0x27
 1485 09c6 3B060000 		.4byte	0x63b
 1486 09ca 20       		.byte	0x20
 1487 09cb 00       		.byte	0
 1488 09cc 00       		.byte	0
 1489 09cd 00       		.byte	0
 1490 09ce 29       		.uleb128 0x29
 1491 09cf 09070000 		.4byte	0x709
 1492 09d3 08000000 		.4byte	.LBB93
 1493 09d7 04000000 		.4byte	.LBE93-.LBB93
 1494 09db 01       		.byte	0x1
 1495 09dc 94       		.byte	0x94
 1496 09dd 0C0A0000 		.4byte	0xa0c
 1497 09e1 2D       		.uleb128 0x2d
 1498 09e2 1F070000 		.4byte	0x71f
 1499 09e6 2B010000 		.4byte	.LLST9
 1500 09ea 2D       		.uleb128 0x2d
 1501 09eb 15070000 		.4byte	0x715
 1502 09ef 4C010000 		.4byte	.LLST10
 1503 09f3 34       		.uleb128 0x34
 1504 09f4 0C000000 		.4byte	.LVL16
 1505 09f8 AD0A0000 		.4byte	0xaad
 1506 09fc 2F       		.uleb128 0x2f
 1507 09fd 01       		.uleb128 0x1
 1508 09fe 51       		.byte	0x51
 1509 09ff 03       		.uleb128 0x3
 1510 0a00 F3       		.byte	0xf3
 1511 0a01 01       		.uleb128 0x1
 1512 0a02 51       		.byte	0x51
 1513 0a03 2F       		.uleb128 0x2f
 1514 0a04 01       		.uleb128 0x1
 1515 0a05 50       		.byte	0x50
 1516 0a06 03       		.uleb128 0x3
 1517 0a07 F3       		.byte	0xf3
 1518 0a08 01       		.uleb128 0x1
 1519 0a09 50       		.byte	0x50
 1520 0a0a 00       		.byte	0
 1521 0a0b 00       		.byte	0
 1522 0a0c 36       		.uleb128 0x36
 1523 0a0d 8E060000 		.4byte	0x68e
 1524 0a11 0C000000 		.4byte	.LBB95
 1525 0a15 08000000 		.4byte	.LBE95-.LBB95
 1526 0a19 01       		.byte	0x1
 1527 0a1a 95       		.byte	0x95
 1528 0a1b 2A       		.uleb128 0x2a
 1529 0a1c 0C000000 		.4byte	.LBB96
 1530 0a20 08000000 		.4byte	.LBE96-.LBB96
 1531 0a24 2B       		.uleb128 0x2b
 1532 0a25 9B060000 		.4byte	0x69b
 1533 0a29 2C       		.uleb128 0x2c
 1534 0a2a 51060000 		.4byte	0x651
 1535 0a2e 0C000000 		.4byte	.LBB97
 1536 0a32 08000000 		.4byte	.LBE97-.LBB97
 1537 0a36 0E       		.byte	0xe
ARM GAS  /tmp/cc2HdcQ5.s 			page 28


 1538 0a37 7301     		.2byte	0x173
 1539 0a39 2C       		.uleb128 0x2c
 1540 0a3a 2E060000 		.4byte	0x62e
 1541 0a3e 0C000000 		.4byte	.LBB98
 1542 0a42 08000000 		.4byte	.LBE98-.LBB98
 1543 0a46 0A       		.byte	0xa
 1544 0a47 E301     		.2byte	0x1e3
 1545 0a49 27       		.uleb128 0x27
 1546 0a4a 3B060000 		.4byte	0x63b
 1547 0a4e 00       		.byte	0
 1548 0a4f 00       		.byte	0
 1549 0a50 00       		.byte	0
 1550 0a51 00       		.byte	0
 1551 0a52 00       		.byte	0
 1552 0a53 00       		.byte	0
 1553 0a54 15       		.uleb128 0x15
 1554 0a55 F6050000 		.4byte	0x5f6
 1555 0a59 640A0000 		.4byte	0xa64
 1556 0a5d 16       		.uleb128 0x16
 1557 0a5e 4F040000 		.4byte	0x44f
 1558 0a62 0C       		.byte	0xc
 1559 0a63 00       		.byte	0
 1560 0a64 13       		.uleb128 0x13
 1561 0a65 540A0000 		.4byte	0xa54
 1562 0a69 37       		.uleb128 0x37
 1563 0a6a A0000000 		.4byte	.LASF117
 1564 0a6e 0F       		.byte	0xf
 1565 0a6f 5506     		.2byte	0x655
 1566 0a71 750A0000 		.4byte	0xa75
 1567 0a75 14       		.uleb128 0x14
 1568 0a76 9E000000 		.4byte	0x9e
 1569 0a7a 38       		.uleb128 0x38
 1570 0a7b 636800   		.ascii	"ch\000"
 1571 0a7e 03       		.byte	0x3
 1572 0a7f 0902     		.2byte	0x209
 1573 0a81 E8030000 		.4byte	0x3e8
 1574 0a85 39       		.uleb128 0x39
 1575 0a86 9A030000 		.4byte	.LASF121
 1576 0a8a 03       		.byte	0x3
 1577 0a8b 1402     		.2byte	0x214
 1578 0a8d 970A0000 		.4byte	0xa97
 1579 0a91 0C       		.uleb128 0xc
 1580 0a92 D5000000 		.4byte	0xd5
 1581 0a96 00       		.byte	0
 1582 0a97 3A       		.uleb128 0x3a
 1583 0a98 CB030000 		.4byte	.LASF122
 1584 0a9c 03       		.byte	0x3
 1585 0a9d 1302     		.2byte	0x213
 1586 0a9f 3C020000 		.4byte	0x23c
 1587 0aa3 AD0A0000 		.4byte	0xaad
 1588 0aa7 0C       		.uleb128 0xc
 1589 0aa8 3C020000 		.4byte	0x23c
 1590 0aac 00       		.byte	0
 1591 0aad 3B       		.uleb128 0x3b
 1592 0aae E1010000 		.4byte	.LASF123
 1593 0ab2 03       		.byte	0x3
 1594 0ab3 1602     		.2byte	0x216
ARM GAS  /tmp/cc2HdcQ5.s 			page 29


 1595 0ab5 0C       		.uleb128 0xc
 1596 0ab6 3C020000 		.4byte	0x23c
 1597 0aba 0C       		.uleb128 0xc
 1598 0abb 01010000 		.4byte	0x101
 1599 0abf 00       		.byte	0
 1600 0ac0 00       		.byte	0
 1601              		.section	.debug_abbrev,"",%progbits
 1602              	.Ldebug_abbrev0:
 1603 0000 01       		.uleb128 0x1
 1604 0001 11       		.uleb128 0x11
 1605 0002 01       		.byte	0x1
 1606 0003 25       		.uleb128 0x25
 1607 0004 0E       		.uleb128 0xe
 1608 0005 13       		.uleb128 0x13
 1609 0006 0B       		.uleb128 0xb
 1610 0007 03       		.uleb128 0x3
 1611 0008 0E       		.uleb128 0xe
 1612 0009 55       		.uleb128 0x55
 1613 000a 17       		.uleb128 0x17
 1614 000b 11       		.uleb128 0x11
 1615 000c 01       		.uleb128 0x1
 1616 000d 10       		.uleb128 0x10
 1617 000e 17       		.uleb128 0x17
 1618 000f 00       		.byte	0
 1619 0010 00       		.byte	0
 1620 0011 02       		.uleb128 0x2
 1621 0012 24       		.uleb128 0x24
 1622 0013 00       		.byte	0
 1623 0014 0B       		.uleb128 0xb
 1624 0015 0B       		.uleb128 0xb
 1625 0016 3E       		.uleb128 0x3e
 1626 0017 0B       		.uleb128 0xb
 1627 0018 03       		.uleb128 0x3
 1628 0019 08       		.uleb128 0x8
 1629 001a 00       		.byte	0
 1630 001b 00       		.byte	0
 1631 001c 03       		.uleb128 0x3
 1632 001d 24       		.uleb128 0x24
 1633 001e 00       		.byte	0
 1634 001f 0B       		.uleb128 0xb
 1635 0020 0B       		.uleb128 0xb
 1636 0021 3E       		.uleb128 0x3e
 1637 0022 0B       		.uleb128 0xb
 1638 0023 03       		.uleb128 0x3
 1639 0024 0E       		.uleb128 0xe
 1640 0025 00       		.byte	0
 1641 0026 00       		.byte	0
 1642 0027 04       		.uleb128 0x4
 1643 0028 16       		.uleb128 0x16
 1644 0029 00       		.byte	0
 1645 002a 03       		.uleb128 0x3
 1646 002b 0E       		.uleb128 0xe
 1647 002c 3A       		.uleb128 0x3a
 1648 002d 0B       		.uleb128 0xb
 1649 002e 3B       		.uleb128 0x3b
 1650 002f 0B       		.uleb128 0xb
 1651 0030 49       		.uleb128 0x49
ARM GAS  /tmp/cc2HdcQ5.s 			page 30


 1652 0031 13       		.uleb128 0x13
 1653 0032 00       		.byte	0
 1654 0033 00       		.byte	0
 1655 0034 05       		.uleb128 0x5
 1656 0035 13       		.uleb128 0x13
 1657 0036 01       		.byte	0x1
 1658 0037 03       		.uleb128 0x3
 1659 0038 0E       		.uleb128 0xe
 1660 0039 0B       		.uleb128 0xb
 1661 003a 0B       		.uleb128 0xb
 1662 003b 3A       		.uleb128 0x3a
 1663 003c 0B       		.uleb128 0xb
 1664 003d 3B       		.uleb128 0x3b
 1665 003e 0B       		.uleb128 0xb
 1666 003f 01       		.uleb128 0x1
 1667 0040 13       		.uleb128 0x13
 1668 0041 00       		.byte	0
 1669 0042 00       		.byte	0
 1670 0043 06       		.uleb128 0x6
 1671 0044 0D       		.uleb128 0xd
 1672 0045 00       		.byte	0
 1673 0046 03       		.uleb128 0x3
 1674 0047 0E       		.uleb128 0xe
 1675 0048 3A       		.uleb128 0x3a
 1676 0049 0B       		.uleb128 0xb
 1677 004a 3B       		.uleb128 0x3b
 1678 004b 0B       		.uleb128 0xb
 1679 004c 49       		.uleb128 0x49
 1680 004d 13       		.uleb128 0x13
 1681 004e 38       		.uleb128 0x38
 1682 004f 0B       		.uleb128 0xb
 1683 0050 00       		.byte	0
 1684 0051 00       		.byte	0
 1685 0052 07       		.uleb128 0x7
 1686 0053 0D       		.uleb128 0xd
 1687 0054 00       		.byte	0
 1688 0055 03       		.uleb128 0x3
 1689 0056 08       		.uleb128 0x8
 1690 0057 3A       		.uleb128 0x3a
 1691 0058 0B       		.uleb128 0xb
 1692 0059 3B       		.uleb128 0x3b
 1693 005a 05       		.uleb128 0x5
 1694 005b 49       		.uleb128 0x49
 1695 005c 13       		.uleb128 0x13
 1696 005d 38       		.uleb128 0x38
 1697 005e 0B       		.uleb128 0xb
 1698 005f 00       		.byte	0
 1699 0060 00       		.byte	0
 1700 0061 08       		.uleb128 0x8
 1701 0062 0D       		.uleb128 0xd
 1702 0063 00       		.byte	0
 1703 0064 03       		.uleb128 0x3
 1704 0065 0E       		.uleb128 0xe
 1705 0066 3A       		.uleb128 0x3a
 1706 0067 0B       		.uleb128 0xb
 1707 0068 3B       		.uleb128 0x3b
 1708 0069 05       		.uleb128 0x5
ARM GAS  /tmp/cc2HdcQ5.s 			page 31


 1709 006a 49       		.uleb128 0x49
 1710 006b 13       		.uleb128 0x13
 1711 006c 38       		.uleb128 0x38
 1712 006d 0B       		.uleb128 0xb
 1713 006e 00       		.byte	0
 1714 006f 00       		.byte	0
 1715 0070 09       		.uleb128 0x9
 1716 0071 0F       		.uleb128 0xf
 1717 0072 00       		.byte	0
 1718 0073 0B       		.uleb128 0xb
 1719 0074 0B       		.uleb128 0xb
 1720 0075 49       		.uleb128 0x49
 1721 0076 13       		.uleb128 0x13
 1722 0077 00       		.byte	0
 1723 0078 00       		.byte	0
 1724 0079 0A       		.uleb128 0xa
 1725 007a 13       		.uleb128 0x13
 1726 007b 01       		.byte	0x1
 1727 007c 03       		.uleb128 0x3
 1728 007d 0E       		.uleb128 0xe
 1729 007e 0B       		.uleb128 0xb
 1730 007f 0B       		.uleb128 0xb
 1731 0080 3A       		.uleb128 0x3a
 1732 0081 0B       		.uleb128 0xb
 1733 0082 3B       		.uleb128 0x3b
 1734 0083 05       		.uleb128 0x5
 1735 0084 01       		.uleb128 0x1
 1736 0085 13       		.uleb128 0x13
 1737 0086 00       		.byte	0
 1738 0087 00       		.byte	0
 1739 0088 0B       		.uleb128 0xb
 1740 0089 15       		.uleb128 0x15
 1741 008a 01       		.byte	0x1
 1742 008b 27       		.uleb128 0x27
 1743 008c 19       		.uleb128 0x19
 1744 008d 01       		.uleb128 0x1
 1745 008e 13       		.uleb128 0x13
 1746 008f 00       		.byte	0
 1747 0090 00       		.byte	0
 1748 0091 0C       		.uleb128 0xc
 1749 0092 05       		.uleb128 0x5
 1750 0093 00       		.byte	0
 1751 0094 49       		.uleb128 0x49
 1752 0095 13       		.uleb128 0x13
 1753 0096 00       		.byte	0
 1754 0097 00       		.byte	0
 1755 0098 0D       		.uleb128 0xd
 1756 0099 0F       		.uleb128 0xf
 1757 009a 00       		.byte	0
 1758 009b 0B       		.uleb128 0xb
 1759 009c 0B       		.uleb128 0xb
 1760 009d 00       		.byte	0
 1761 009e 00       		.byte	0
 1762 009f 0E       		.uleb128 0xe
 1763 00a0 13       		.uleb128 0x13
 1764 00a1 01       		.byte	0x1
 1765 00a2 03       		.uleb128 0x3
ARM GAS  /tmp/cc2HdcQ5.s 			page 32


 1766 00a3 0E       		.uleb128 0xe
 1767 00a4 0B       		.uleb128 0xb
 1768 00a5 05       		.uleb128 0x5
 1769 00a6 3A       		.uleb128 0x3a
 1770 00a7 0B       		.uleb128 0xb
 1771 00a8 3B       		.uleb128 0x3b
 1772 00a9 05       		.uleb128 0x5
 1773 00aa 01       		.uleb128 0x1
 1774 00ab 13       		.uleb128 0x13
 1775 00ac 00       		.byte	0
 1776 00ad 00       		.byte	0
 1777 00ae 0F       		.uleb128 0xf
 1778 00af 0D       		.uleb128 0xd
 1779 00b0 00       		.byte	0
 1780 00b1 03       		.uleb128 0x3
 1781 00b2 08       		.uleb128 0x8
 1782 00b3 3A       		.uleb128 0x3a
 1783 00b4 0B       		.uleb128 0xb
 1784 00b5 3B       		.uleb128 0x3b
 1785 00b6 0B       		.uleb128 0xb
 1786 00b7 49       		.uleb128 0x49
 1787 00b8 13       		.uleb128 0x13
 1788 00b9 38       		.uleb128 0x38
 1789 00ba 0B       		.uleb128 0xb
 1790 00bb 00       		.byte	0
 1791 00bc 00       		.byte	0
 1792 00bd 10       		.uleb128 0x10
 1793 00be 13       		.uleb128 0x13
 1794 00bf 01       		.byte	0x1
 1795 00c0 0B       		.uleb128 0xb
 1796 00c1 0B       		.uleb128 0xb
 1797 00c2 3A       		.uleb128 0x3a
 1798 00c3 0B       		.uleb128 0xb
 1799 00c4 3B       		.uleb128 0x3b
 1800 00c5 0B       		.uleb128 0xb
 1801 00c6 01       		.uleb128 0x1
 1802 00c7 13       		.uleb128 0x13
 1803 00c8 00       		.byte	0
 1804 00c9 00       		.byte	0
 1805 00ca 11       		.uleb128 0x11
 1806 00cb 17       		.uleb128 0x17
 1807 00cc 01       		.byte	0x1
 1808 00cd 0B       		.uleb128 0xb
 1809 00ce 0B       		.uleb128 0xb
 1810 00cf 3A       		.uleb128 0x3a
 1811 00d0 0B       		.uleb128 0xb
 1812 00d1 3B       		.uleb128 0x3b
 1813 00d2 0B       		.uleb128 0xb
 1814 00d3 01       		.uleb128 0x1
 1815 00d4 13       		.uleb128 0x13
 1816 00d5 00       		.byte	0
 1817 00d6 00       		.byte	0
 1818 00d7 12       		.uleb128 0x12
 1819 00d8 0D       		.uleb128 0xd
 1820 00d9 00       		.byte	0
 1821 00da 03       		.uleb128 0x3
 1822 00db 0E       		.uleb128 0xe
ARM GAS  /tmp/cc2HdcQ5.s 			page 33


 1823 00dc 3A       		.uleb128 0x3a
 1824 00dd 0B       		.uleb128 0xb
 1825 00de 3B       		.uleb128 0x3b
 1826 00df 05       		.uleb128 0x5
 1827 00e0 49       		.uleb128 0x49
 1828 00e1 13       		.uleb128 0x13
 1829 00e2 00       		.byte	0
 1830 00e3 00       		.byte	0
 1831 00e4 13       		.uleb128 0x13
 1832 00e5 26       		.uleb128 0x26
 1833 00e6 00       		.byte	0
 1834 00e7 49       		.uleb128 0x49
 1835 00e8 13       		.uleb128 0x13
 1836 00e9 00       		.byte	0
 1837 00ea 00       		.byte	0
 1838 00eb 14       		.uleb128 0x14
 1839 00ec 35       		.uleb128 0x35
 1840 00ed 00       		.byte	0
 1841 00ee 49       		.uleb128 0x49
 1842 00ef 13       		.uleb128 0x13
 1843 00f0 00       		.byte	0
 1844 00f1 00       		.byte	0
 1845 00f2 15       		.uleb128 0x15
 1846 00f3 01       		.uleb128 0x1
 1847 00f4 01       		.byte	0x1
 1848 00f5 49       		.uleb128 0x49
 1849 00f6 13       		.uleb128 0x13
 1850 00f7 01       		.uleb128 0x1
 1851 00f8 13       		.uleb128 0x13
 1852 00f9 00       		.byte	0
 1853 00fa 00       		.byte	0
 1854 00fb 16       		.uleb128 0x16
 1855 00fc 21       		.uleb128 0x21
 1856 00fd 00       		.byte	0
 1857 00fe 49       		.uleb128 0x49
 1858 00ff 13       		.uleb128 0x13
 1859 0100 2F       		.uleb128 0x2f
 1860 0101 0B       		.uleb128 0xb
 1861 0102 00       		.byte	0
 1862 0103 00       		.byte	0
 1863 0104 17       		.uleb128 0x17
 1864 0105 2E       		.uleb128 0x2e
 1865 0106 01       		.byte	0x1
 1866 0107 03       		.uleb128 0x3
 1867 0108 0E       		.uleb128 0xe
 1868 0109 3A       		.uleb128 0x3a
 1869 010a 0B       		.uleb128 0xb
 1870 010b 3B       		.uleb128 0x3b
 1871 010c 05       		.uleb128 0x5
 1872 010d 27       		.uleb128 0x27
 1873 010e 19       		.uleb128 0x19
 1874 010f 20       		.uleb128 0x20
 1875 0110 0B       		.uleb128 0xb
 1876 0111 01       		.uleb128 0x1
 1877 0112 13       		.uleb128 0x13
 1878 0113 00       		.byte	0
 1879 0114 00       		.byte	0
ARM GAS  /tmp/cc2HdcQ5.s 			page 34


 1880 0115 18       		.uleb128 0x18
 1881 0116 05       		.uleb128 0x5
 1882 0117 00       		.byte	0
 1883 0118 03       		.uleb128 0x3
 1884 0119 0E       		.uleb128 0xe
 1885 011a 3A       		.uleb128 0x3a
 1886 011b 0B       		.uleb128 0xb
 1887 011c 3B       		.uleb128 0x3b
 1888 011d 05       		.uleb128 0x5
 1889 011e 49       		.uleb128 0x49
 1890 011f 13       		.uleb128 0x13
 1891 0120 00       		.byte	0
 1892 0121 00       		.byte	0
 1893 0122 19       		.uleb128 0x19
 1894 0123 2E       		.uleb128 0x2e
 1895 0124 00       		.byte	0
 1896 0125 03       		.uleb128 0x3
 1897 0126 0E       		.uleb128 0xe
 1898 0127 3A       		.uleb128 0x3a
 1899 0128 0B       		.uleb128 0xb
 1900 0129 3B       		.uleb128 0x3b
 1901 012a 05       		.uleb128 0x5
 1902 012b 27       		.uleb128 0x27
 1903 012c 19       		.uleb128 0x19
 1904 012d 20       		.uleb128 0x20
 1905 012e 0B       		.uleb128 0xb
 1906 012f 00       		.byte	0
 1907 0130 00       		.byte	0
 1908 0131 1A       		.uleb128 0x1a
 1909 0132 05       		.uleb128 0x5
 1910 0133 00       		.byte	0
 1911 0134 03       		.uleb128 0x3
 1912 0135 08       		.uleb128 0x8
 1913 0136 3A       		.uleb128 0x3a
 1914 0137 0B       		.uleb128 0xb
 1915 0138 3B       		.uleb128 0x3b
 1916 0139 05       		.uleb128 0x5
 1917 013a 49       		.uleb128 0x49
 1918 013b 13       		.uleb128 0x13
 1919 013c 00       		.byte	0
 1920 013d 00       		.byte	0
 1921 013e 1B       		.uleb128 0x1b
 1922 013f 34       		.uleb128 0x34
 1923 0140 00       		.byte	0
 1924 0141 03       		.uleb128 0x3
 1925 0142 0E       		.uleb128 0xe
 1926 0143 49       		.uleb128 0x49
 1927 0144 13       		.uleb128 0x13
 1928 0145 34       		.uleb128 0x34
 1929 0146 19       		.uleb128 0x19
 1930 0147 1C       		.uleb128 0x1c
 1931 0148 0E       		.uleb128 0xe
 1932 0149 00       		.byte	0
 1933 014a 00       		.byte	0
 1934 014b 1C       		.uleb128 0x1c
 1935 014c 2E       		.uleb128 0x2e
 1936 014d 01       		.byte	0x1
ARM GAS  /tmp/cc2HdcQ5.s 			page 35


 1937 014e 03       		.uleb128 0x3
 1938 014f 0E       		.uleb128 0xe
 1939 0150 3A       		.uleb128 0x3a
 1940 0151 0B       		.uleb128 0xb
 1941 0152 3B       		.uleb128 0x3b
 1942 0153 0B       		.uleb128 0xb
 1943 0154 27       		.uleb128 0x27
 1944 0155 19       		.uleb128 0x19
 1945 0156 49       		.uleb128 0x49
 1946 0157 13       		.uleb128 0x13
 1947 0158 20       		.uleb128 0x20
 1948 0159 0B       		.uleb128 0xb
 1949 015a 01       		.uleb128 0x1
 1950 015b 13       		.uleb128 0x13
 1951 015c 00       		.byte	0
 1952 015d 00       		.byte	0
 1953 015e 1D       		.uleb128 0x1d
 1954 015f 05       		.uleb128 0x5
 1955 0160 00       		.byte	0
 1956 0161 03       		.uleb128 0x3
 1957 0162 08       		.uleb128 0x8
 1958 0163 3A       		.uleb128 0x3a
 1959 0164 0B       		.uleb128 0xb
 1960 0165 3B       		.uleb128 0x3b
 1961 0166 0B       		.uleb128 0xb
 1962 0167 49       		.uleb128 0x49
 1963 0168 13       		.uleb128 0x13
 1964 0169 00       		.byte	0
 1965 016a 00       		.byte	0
 1966 016b 1E       		.uleb128 0x1e
 1967 016c 2E       		.uleb128 0x2e
 1968 016d 01       		.byte	0x1
 1969 016e 03       		.uleb128 0x3
 1970 016f 0E       		.uleb128 0xe
 1971 0170 3A       		.uleb128 0x3a
 1972 0171 0B       		.uleb128 0xb
 1973 0172 3B       		.uleb128 0x3b
 1974 0173 05       		.uleb128 0x5
 1975 0174 27       		.uleb128 0x27
 1976 0175 19       		.uleb128 0x19
 1977 0176 49       		.uleb128 0x49
 1978 0177 13       		.uleb128 0x13
 1979 0178 20       		.uleb128 0x20
 1980 0179 0B       		.uleb128 0xb
 1981 017a 01       		.uleb128 0x1
 1982 017b 13       		.uleb128 0x13
 1983 017c 00       		.byte	0
 1984 017d 00       		.byte	0
 1985 017e 1F       		.uleb128 0x1f
 1986 017f 34       		.uleb128 0x34
 1987 0180 00       		.byte	0
 1988 0181 03       		.uleb128 0x3
 1989 0182 08       		.uleb128 0x8
 1990 0183 3A       		.uleb128 0x3a
 1991 0184 0B       		.uleb128 0xb
 1992 0185 3B       		.uleb128 0x3b
 1993 0186 05       		.uleb128 0x5
ARM GAS  /tmp/cc2HdcQ5.s 			page 36


 1994 0187 49       		.uleb128 0x49
 1995 0188 13       		.uleb128 0x13
 1996 0189 00       		.byte	0
 1997 018a 00       		.byte	0
 1998 018b 20       		.uleb128 0x20
 1999 018c 2E       		.uleb128 0x2e
 2000 018d 01       		.byte	0x1
 2001 018e 03       		.uleb128 0x3
 2002 018f 0E       		.uleb128 0xe
 2003 0190 3A       		.uleb128 0x3a
 2004 0191 0B       		.uleb128 0xb
 2005 0192 3B       		.uleb128 0x3b
 2006 0193 0B       		.uleb128 0xb
 2007 0194 27       		.uleb128 0x27
 2008 0195 19       		.uleb128 0x19
 2009 0196 20       		.uleb128 0x20
 2010 0197 0B       		.uleb128 0xb
 2011 0198 01       		.uleb128 0x1
 2012 0199 13       		.uleb128 0x13
 2013 019a 00       		.byte	0
 2014 019b 00       		.byte	0
 2015 019c 21       		.uleb128 0x21
 2016 019d 2E       		.uleb128 0x2e
 2017 019e 01       		.byte	0x1
 2018 019f 3F       		.uleb128 0x3f
 2019 01a0 19       		.uleb128 0x19
 2020 01a1 03       		.uleb128 0x3
 2021 01a2 0E       		.uleb128 0xe
 2022 01a3 3A       		.uleb128 0x3a
 2023 01a4 0B       		.uleb128 0xb
 2024 01a5 3B       		.uleb128 0x3b
 2025 01a6 0B       		.uleb128 0xb
 2026 01a7 27       		.uleb128 0x27
 2027 01a8 19       		.uleb128 0x19
 2028 01a9 49       		.uleb128 0x49
 2029 01aa 13       		.uleb128 0x13
 2030 01ab 11       		.uleb128 0x11
 2031 01ac 01       		.uleb128 0x1
 2032 01ad 12       		.uleb128 0x12
 2033 01ae 06       		.uleb128 0x6
 2034 01af 40       		.uleb128 0x40
 2035 01b0 18       		.uleb128 0x18
 2036 01b1 9742     		.uleb128 0x2117
 2037 01b3 19       		.uleb128 0x19
 2038 01b4 01       		.uleb128 0x1
 2039 01b5 13       		.uleb128 0x13
 2040 01b6 00       		.byte	0
 2041 01b7 00       		.byte	0
 2042 01b8 22       		.uleb128 0x22
 2043 01b9 05       		.uleb128 0x5
 2044 01ba 00       		.byte	0
 2045 01bb 03       		.uleb128 0x3
 2046 01bc 08       		.uleb128 0x8
 2047 01bd 3A       		.uleb128 0x3a
 2048 01be 0B       		.uleb128 0xb
 2049 01bf 3B       		.uleb128 0x3b
 2050 01c0 0B       		.uleb128 0xb
ARM GAS  /tmp/cc2HdcQ5.s 			page 37


 2051 01c1 49       		.uleb128 0x49
 2052 01c2 13       		.uleb128 0x13
 2053 01c3 02       		.uleb128 0x2
 2054 01c4 17       		.uleb128 0x17
 2055 01c5 00       		.byte	0
 2056 01c6 00       		.byte	0
 2057 01c7 23       		.uleb128 0x23
 2058 01c8 34       		.uleb128 0x34
 2059 01c9 00       		.byte	0
 2060 01ca 03       		.uleb128 0x3
 2061 01cb 08       		.uleb128 0x8
 2062 01cc 3A       		.uleb128 0x3a
 2063 01cd 0B       		.uleb128 0xb
 2064 01ce 3B       		.uleb128 0x3b
 2065 01cf 0B       		.uleb128 0xb
 2066 01d0 49       		.uleb128 0x49
 2067 01d1 13       		.uleb128 0x13
 2068 01d2 02       		.uleb128 0x2
 2069 01d3 18       		.uleb128 0x18
 2070 01d4 00       		.byte	0
 2071 01d5 00       		.byte	0
 2072 01d6 24       		.uleb128 0x24
 2073 01d7 34       		.uleb128 0x34
 2074 01d8 00       		.byte	0
 2075 01d9 03       		.uleb128 0x3
 2076 01da 0E       		.uleb128 0xe
 2077 01db 49       		.uleb128 0x49
 2078 01dc 13       		.uleb128 0x13
 2079 01dd 34       		.uleb128 0x34
 2080 01de 19       		.uleb128 0x19
 2081 01df 00       		.byte	0
 2082 01e0 00       		.byte	0
 2083 01e1 25       		.uleb128 0x25
 2084 01e2 1D       		.uleb128 0x1d
 2085 01e3 01       		.byte	0x1
 2086 01e4 31       		.uleb128 0x31
 2087 01e5 13       		.uleb128 0x13
 2088 01e6 52       		.uleb128 0x52
 2089 01e7 01       		.uleb128 0x1
 2090 01e8 55       		.uleb128 0x55
 2091 01e9 17       		.uleb128 0x17
 2092 01ea 58       		.uleb128 0x58
 2093 01eb 0B       		.uleb128 0xb
 2094 01ec 59       		.uleb128 0x59
 2095 01ed 0B       		.uleb128 0xb
 2096 01ee 01       		.uleb128 0x1
 2097 01ef 13       		.uleb128 0x13
 2098 01f0 00       		.byte	0
 2099 01f1 00       		.byte	0
 2100 01f2 26       		.uleb128 0x26
 2101 01f3 1D       		.uleb128 0x1d
 2102 01f4 01       		.byte	0x1
 2103 01f5 31       		.uleb128 0x31
 2104 01f6 13       		.uleb128 0x13
 2105 01f7 52       		.uleb128 0x52
 2106 01f8 01       		.uleb128 0x1
 2107 01f9 55       		.uleb128 0x55
ARM GAS  /tmp/cc2HdcQ5.s 			page 38


 2108 01fa 17       		.uleb128 0x17
 2109 01fb 58       		.uleb128 0x58
 2110 01fc 0B       		.uleb128 0xb
 2111 01fd 59       		.uleb128 0x59
 2112 01fe 05       		.uleb128 0x5
 2113 01ff 00       		.byte	0
 2114 0200 00       		.byte	0
 2115 0201 27       		.uleb128 0x27
 2116 0202 05       		.uleb128 0x5
 2117 0203 00       		.byte	0
 2118 0204 31       		.uleb128 0x31
 2119 0205 13       		.uleb128 0x13
 2120 0206 1C       		.uleb128 0x1c
 2121 0207 0B       		.uleb128 0xb
 2122 0208 00       		.byte	0
 2123 0209 00       		.byte	0
 2124 020a 28       		.uleb128 0x28
 2125 020b 05       		.uleb128 0x5
 2126 020c 00       		.byte	0
 2127 020d 31       		.uleb128 0x31
 2128 020e 13       		.uleb128 0x13
 2129 020f 02       		.uleb128 0x2
 2130 0210 18       		.uleb128 0x18
 2131 0211 00       		.byte	0
 2132 0212 00       		.byte	0
 2133 0213 29       		.uleb128 0x29
 2134 0214 1D       		.uleb128 0x1d
 2135 0215 01       		.byte	0x1
 2136 0216 31       		.uleb128 0x31
 2137 0217 13       		.uleb128 0x13
 2138 0218 11       		.uleb128 0x11
 2139 0219 01       		.uleb128 0x1
 2140 021a 12       		.uleb128 0x12
 2141 021b 06       		.uleb128 0x6
 2142 021c 58       		.uleb128 0x58
 2143 021d 0B       		.uleb128 0xb
 2144 021e 59       		.uleb128 0x59
 2145 021f 0B       		.uleb128 0xb
 2146 0220 01       		.uleb128 0x1
 2147 0221 13       		.uleb128 0x13
 2148 0222 00       		.byte	0
 2149 0223 00       		.byte	0
 2150 0224 2A       		.uleb128 0x2a
 2151 0225 0B       		.uleb128 0xb
 2152 0226 01       		.byte	0x1
 2153 0227 11       		.uleb128 0x11
 2154 0228 01       		.uleb128 0x1
 2155 0229 12       		.uleb128 0x12
 2156 022a 06       		.uleb128 0x6
 2157 022b 00       		.byte	0
 2158 022c 00       		.byte	0
 2159 022d 2B       		.uleb128 0x2b
 2160 022e 34       		.uleb128 0x34
 2161 022f 00       		.byte	0
 2162 0230 31       		.uleb128 0x31
 2163 0231 13       		.uleb128 0x13
 2164 0232 00       		.byte	0
ARM GAS  /tmp/cc2HdcQ5.s 			page 39


 2165 0233 00       		.byte	0
 2166 0234 2C       		.uleb128 0x2c
 2167 0235 1D       		.uleb128 0x1d
 2168 0236 01       		.byte	0x1
 2169 0237 31       		.uleb128 0x31
 2170 0238 13       		.uleb128 0x13
 2171 0239 11       		.uleb128 0x11
 2172 023a 01       		.uleb128 0x1
 2173 023b 12       		.uleb128 0x12
 2174 023c 06       		.uleb128 0x6
 2175 023d 58       		.uleb128 0x58
 2176 023e 0B       		.uleb128 0xb
 2177 023f 59       		.uleb128 0x59
 2178 0240 05       		.uleb128 0x5
 2179 0241 00       		.byte	0
 2180 0242 00       		.byte	0
 2181 0243 2D       		.uleb128 0x2d
 2182 0244 05       		.uleb128 0x5
 2183 0245 00       		.byte	0
 2184 0246 31       		.uleb128 0x31
 2185 0247 13       		.uleb128 0x13
 2186 0248 02       		.uleb128 0x2
 2187 0249 17       		.uleb128 0x17
 2188 024a 00       		.byte	0
 2189 024b 00       		.byte	0
 2190 024c 2E       		.uleb128 0x2e
 2191 024d 898201   		.uleb128 0x4109
 2192 0250 01       		.byte	0x1
 2193 0251 11       		.uleb128 0x11
 2194 0252 01       		.uleb128 0x1
 2195 0253 31       		.uleb128 0x31
 2196 0254 13       		.uleb128 0x13
 2197 0255 01       		.uleb128 0x1
 2198 0256 13       		.uleb128 0x13
 2199 0257 00       		.byte	0
 2200 0258 00       		.byte	0
 2201 0259 2F       		.uleb128 0x2f
 2202 025a 8A8201   		.uleb128 0x410a
 2203 025d 00       		.byte	0
 2204 025e 02       		.uleb128 0x2
 2205 025f 18       		.uleb128 0x18
 2206 0260 9142     		.uleb128 0x2111
 2207 0262 18       		.uleb128 0x18
 2208 0263 00       		.byte	0
 2209 0264 00       		.byte	0
 2210 0265 30       		.uleb128 0x30
 2211 0266 898201   		.uleb128 0x4109
 2212 0269 00       		.byte	0
 2213 026a 11       		.uleb128 0x11
 2214 026b 01       		.uleb128 0x1
 2215 026c 31       		.uleb128 0x31
 2216 026d 13       		.uleb128 0x13
 2217 026e 00       		.byte	0
 2218 026f 00       		.byte	0
 2219 0270 31       		.uleb128 0x31
 2220 0271 34       		.uleb128 0x34
 2221 0272 00       		.byte	0
ARM GAS  /tmp/cc2HdcQ5.s 			page 40


 2222 0273 03       		.uleb128 0x3
 2223 0274 08       		.uleb128 0x8
 2224 0275 3A       		.uleb128 0x3a
 2225 0276 0B       		.uleb128 0xb
 2226 0277 3B       		.uleb128 0x3b
 2227 0278 0B       		.uleb128 0xb
 2228 0279 49       		.uleb128 0x49
 2229 027a 13       		.uleb128 0x13
 2230 027b 00       		.byte	0
 2231 027c 00       		.byte	0
 2232 027d 32       		.uleb128 0x32
 2233 027e 0B       		.uleb128 0xb
 2234 027f 01       		.byte	0x1
 2235 0280 55       		.uleb128 0x55
 2236 0281 17       		.uleb128 0x17
 2237 0282 00       		.byte	0
 2238 0283 00       		.byte	0
 2239 0284 33       		.uleb128 0x33
 2240 0285 34       		.uleb128 0x34
 2241 0286 00       		.byte	0
 2242 0287 31       		.uleb128 0x31
 2243 0288 13       		.uleb128 0x13
 2244 0289 02       		.uleb128 0x2
 2245 028a 17       		.uleb128 0x17
 2246 028b 00       		.byte	0
 2247 028c 00       		.byte	0
 2248 028d 34       		.uleb128 0x34
 2249 028e 898201   		.uleb128 0x4109
 2250 0291 01       		.byte	0x1
 2251 0292 11       		.uleb128 0x11
 2252 0293 01       		.uleb128 0x1
 2253 0294 31       		.uleb128 0x31
 2254 0295 13       		.uleb128 0x13
 2255 0296 00       		.byte	0
 2256 0297 00       		.byte	0
 2257 0298 35       		.uleb128 0x35
 2258 0299 2E       		.uleb128 0x2e
 2259 029a 01       		.byte	0x1
 2260 029b 3F       		.uleb128 0x3f
 2261 029c 19       		.uleb128 0x19
 2262 029d 03       		.uleb128 0x3
 2263 029e 0E       		.uleb128 0xe
 2264 029f 3A       		.uleb128 0x3a
 2265 02a0 0B       		.uleb128 0xb
 2266 02a1 3B       		.uleb128 0x3b
 2267 02a2 0B       		.uleb128 0xb
 2268 02a3 27       		.uleb128 0x27
 2269 02a4 19       		.uleb128 0x19
 2270 02a5 11       		.uleb128 0x11
 2271 02a6 01       		.uleb128 0x1
 2272 02a7 12       		.uleb128 0x12
 2273 02a8 06       		.uleb128 0x6
 2274 02a9 40       		.uleb128 0x40
 2275 02aa 18       		.uleb128 0x18
 2276 02ab 9742     		.uleb128 0x2117
 2277 02ad 19       		.uleb128 0x19
 2278 02ae 01       		.uleb128 0x1
ARM GAS  /tmp/cc2HdcQ5.s 			page 41


 2279 02af 13       		.uleb128 0x13
 2280 02b0 00       		.byte	0
 2281 02b1 00       		.byte	0
 2282 02b2 36       		.uleb128 0x36
 2283 02b3 1D       		.uleb128 0x1d
 2284 02b4 01       		.byte	0x1
 2285 02b5 31       		.uleb128 0x31
 2286 02b6 13       		.uleb128 0x13
 2287 02b7 11       		.uleb128 0x11
 2288 02b8 01       		.uleb128 0x1
 2289 02b9 12       		.uleb128 0x12
 2290 02ba 06       		.uleb128 0x6
 2291 02bb 58       		.uleb128 0x58
 2292 02bc 0B       		.uleb128 0xb
 2293 02bd 59       		.uleb128 0x59
 2294 02be 0B       		.uleb128 0xb
 2295 02bf 00       		.byte	0
 2296 02c0 00       		.byte	0
 2297 02c1 37       		.uleb128 0x37
 2298 02c2 34       		.uleb128 0x34
 2299 02c3 00       		.byte	0
 2300 02c4 03       		.uleb128 0x3
 2301 02c5 0E       		.uleb128 0xe
 2302 02c6 3A       		.uleb128 0x3a
 2303 02c7 0B       		.uleb128 0xb
 2304 02c8 3B       		.uleb128 0x3b
 2305 02c9 05       		.uleb128 0x5
 2306 02ca 49       		.uleb128 0x49
 2307 02cb 13       		.uleb128 0x13
 2308 02cc 3F       		.uleb128 0x3f
 2309 02cd 19       		.uleb128 0x19
 2310 02ce 3C       		.uleb128 0x3c
 2311 02cf 19       		.uleb128 0x19
 2312 02d0 00       		.byte	0
 2313 02d1 00       		.byte	0
 2314 02d2 38       		.uleb128 0x38
 2315 02d3 34       		.uleb128 0x34
 2316 02d4 00       		.byte	0
 2317 02d5 03       		.uleb128 0x3
 2318 02d6 08       		.uleb128 0x8
 2319 02d7 3A       		.uleb128 0x3a
 2320 02d8 0B       		.uleb128 0xb
 2321 02d9 3B       		.uleb128 0x3b
 2322 02da 05       		.uleb128 0x5
 2323 02db 49       		.uleb128 0x49
 2324 02dc 13       		.uleb128 0x13
 2325 02dd 3F       		.uleb128 0x3f
 2326 02de 19       		.uleb128 0x19
 2327 02df 3C       		.uleb128 0x3c
 2328 02e0 19       		.uleb128 0x19
 2329 02e1 00       		.byte	0
 2330 02e2 00       		.byte	0
 2331 02e3 39       		.uleb128 0x39
 2332 02e4 2E       		.uleb128 0x2e
 2333 02e5 01       		.byte	0x1
 2334 02e6 3F       		.uleb128 0x3f
 2335 02e7 19       		.uleb128 0x19
ARM GAS  /tmp/cc2HdcQ5.s 			page 42


 2336 02e8 03       		.uleb128 0x3
 2337 02e9 0E       		.uleb128 0xe
 2338 02ea 3A       		.uleb128 0x3a
 2339 02eb 0B       		.uleb128 0xb
 2340 02ec 3B       		.uleb128 0x3b
 2341 02ed 05       		.uleb128 0x5
 2342 02ee 27       		.uleb128 0x27
 2343 02ef 19       		.uleb128 0x19
 2344 02f0 3C       		.uleb128 0x3c
 2345 02f1 19       		.uleb128 0x19
 2346 02f2 01       		.uleb128 0x1
 2347 02f3 13       		.uleb128 0x13
 2348 02f4 00       		.byte	0
 2349 02f5 00       		.byte	0
 2350 02f6 3A       		.uleb128 0x3a
 2351 02f7 2E       		.uleb128 0x2e
 2352 02f8 01       		.byte	0x1
 2353 02f9 3F       		.uleb128 0x3f
 2354 02fa 19       		.uleb128 0x19
 2355 02fb 03       		.uleb128 0x3
 2356 02fc 0E       		.uleb128 0xe
 2357 02fd 3A       		.uleb128 0x3a
 2358 02fe 0B       		.uleb128 0xb
 2359 02ff 3B       		.uleb128 0x3b
 2360 0300 05       		.uleb128 0x5
 2361 0301 27       		.uleb128 0x27
 2362 0302 19       		.uleb128 0x19
 2363 0303 49       		.uleb128 0x49
 2364 0304 13       		.uleb128 0x13
 2365 0305 3C       		.uleb128 0x3c
 2366 0306 19       		.uleb128 0x19
 2367 0307 01       		.uleb128 0x1
 2368 0308 13       		.uleb128 0x13
 2369 0309 00       		.byte	0
 2370 030a 00       		.byte	0
 2371 030b 3B       		.uleb128 0x3b
 2372 030c 2E       		.uleb128 0x2e
 2373 030d 01       		.byte	0x1
 2374 030e 3F       		.uleb128 0x3f
 2375 030f 19       		.uleb128 0x19
 2376 0310 03       		.uleb128 0x3
 2377 0311 0E       		.uleb128 0xe
 2378 0312 3A       		.uleb128 0x3a
 2379 0313 0B       		.uleb128 0xb
 2380 0314 3B       		.uleb128 0x3b
 2381 0315 05       		.uleb128 0x5
 2382 0316 27       		.uleb128 0x27
 2383 0317 19       		.uleb128 0x19
 2384 0318 3C       		.uleb128 0x3c
 2385 0319 19       		.uleb128 0x19
 2386 031a 00       		.byte	0
 2387 031b 00       		.byte	0
 2388 031c 00       		.byte	0
 2389              		.section	.debug_loc,"",%progbits
 2390              	.Ldebug_loc0:
 2391              	.LLST0:
 2392 0000 00000000 		.4byte	.LVL0
ARM GAS  /tmp/cc2HdcQ5.s 			page 43


 2393 0004 24000000 		.4byte	.LVL3
 2394 0008 0100     		.2byte	0x1
 2395 000a 50       		.byte	0x50
 2396 000b 24000000 		.4byte	.LVL3
 2397 000f 34000000 		.4byte	.LVL6
 2398 0013 0300     		.2byte	0x3
 2399 0015 75       		.byte	0x75
 2400 0016 58       		.sleb128 -40
 2401 0017 9F       		.byte	0x9f
 2402 0018 34000000 		.4byte	.LVL6
 2403 001c 37000000 		.4byte	.LVL7-1
 2404 0020 0100     		.2byte	0x1
 2405 0022 50       		.byte	0x50
 2406 0023 37000000 		.4byte	.LVL7-1
 2407 0027 40000000 		.4byte	.LFE170
 2408 002b 0300     		.2byte	0x3
 2409 002d 75       		.byte	0x75
 2410 002e 58       		.sleb128 -40
 2411 002f 9F       		.byte	0x9f
 2412 0030 00000000 		.4byte	0
 2413 0034 00000000 		.4byte	0
 2414              	.LLST1:
 2415 0038 00000000 		.4byte	.LVL0
 2416 003c 24000000 		.4byte	.LVL3
 2417 0040 0100     		.2byte	0x1
 2418 0042 51       		.byte	0x51
 2419 0043 24000000 		.4byte	.LVL3
 2420 0047 2C000000 		.4byte	.LVL5
 2421 004b 0400     		.2byte	0x4
 2422 004d F3       		.byte	0xf3
 2423 004e 01       		.uleb128 0x1
 2424 004f 51       		.byte	0x51
 2425 0050 9F       		.byte	0x9f
 2426 0051 2C000000 		.4byte	.LVL5
 2427 0055 34000000 		.4byte	.LVL6
 2428 0059 0100     		.2byte	0x1
 2429 005b 50       		.byte	0x50
 2430 005c 34000000 		.4byte	.LVL6
 2431 0060 37000000 		.4byte	.LVL7-1
 2432 0064 0100     		.2byte	0x1
 2433 0066 51       		.byte	0x51
 2434 0067 37000000 		.4byte	.LVL7-1
 2435 006b 40000000 		.4byte	.LFE170
 2436 006f 0400     		.2byte	0x4
 2437 0071 F3       		.byte	0xf3
 2438 0072 01       		.uleb128 0x1
 2439 0073 51       		.byte	0x51
 2440 0074 9F       		.byte	0x9f
 2441 0075 00000000 		.4byte	0
 2442 0079 00000000 		.4byte	0
 2443              	.LLST2:
 2444 007d 2C000000 		.4byte	.LVL5
 2445 0081 34000000 		.4byte	.LVL6
 2446 0085 0200     		.2byte	0x2
 2447 0087 30       		.byte	0x30
 2448 0088 9F       		.byte	0x9f
 2449 0089 00000000 		.4byte	0
ARM GAS  /tmp/cc2HdcQ5.s 			page 44


 2450 008d 00000000 		.4byte	0
 2451              	.LLST3:
 2452 0091 0C000000 		.4byte	.LVL9
 2453 0095 16000000 		.4byte	.LVL10
 2454 0099 0100     		.2byte	0x1
 2455 009b 52       		.byte	0x52
 2456 009c 28000000 		.4byte	.LVL12
 2457 00a0 2D000000 		.4byte	.LVL13-1
 2458 00a4 0100     		.2byte	0x1
 2459 00a6 52       		.byte	0x52
 2460 00a7 00000000 		.4byte	0
 2461 00ab 00000000 		.4byte	0
 2462              	.LLST4:
 2463 00af 16000000 		.4byte	.LVL10
 2464 00b3 28000000 		.4byte	.LVL12
 2465 00b7 0100     		.2byte	0x1
 2466 00b9 53       		.byte	0x53
 2467 00ba 00000000 		.4byte	0
 2468 00be 00000000 		.4byte	0
 2469              	.LLST5:
 2470 00c2 16000000 		.4byte	.LVL10
 2471 00c6 28000000 		.4byte	.LVL12
 2472 00ca 0100     		.2byte	0x1
 2473 00cc 50       		.byte	0x50
 2474 00cd 00000000 		.4byte	0
 2475 00d1 00000000 		.4byte	0
 2476              	.LLST6:
 2477 00d5 22000000 		.4byte	.LVL11
 2478 00d9 28000000 		.4byte	.LVL12
 2479 00dd 0200     		.2byte	0x2
 2480 00df 30       		.byte	0x30
 2481 00e0 9F       		.byte	0x9f
 2482 00e1 00000000 		.4byte	0
 2483 00e5 00000000 		.4byte	0
 2484              	.LLST7:
 2485 00e9 00000000 		.4byte	.LVL14
 2486 00ed 0B000000 		.4byte	.LVL16-1
 2487 00f1 0100     		.2byte	0x1
 2488 00f3 50       		.byte	0x50
 2489 00f4 0B000000 		.4byte	.LVL16-1
 2490 00f8 14000000 		.4byte	.LFE172
 2491 00fc 0400     		.2byte	0x4
 2492 00fe F3       		.byte	0xf3
 2493 00ff 01       		.uleb128 0x1
 2494 0100 50       		.byte	0x50
 2495 0101 9F       		.byte	0x9f
 2496 0102 00000000 		.4byte	0
 2497 0106 00000000 		.4byte	0
 2498              	.LLST8:
 2499 010a 00000000 		.4byte	.LVL14
 2500 010e 0B000000 		.4byte	.LVL16-1
 2501 0112 0100     		.2byte	0x1
 2502 0114 51       		.byte	0x51
 2503 0115 0B000000 		.4byte	.LVL16-1
 2504 0119 14000000 		.4byte	.LFE172
 2505 011d 0400     		.2byte	0x4
 2506 011f F3       		.byte	0xf3
ARM GAS  /tmp/cc2HdcQ5.s 			page 45


 2507 0120 01       		.uleb128 0x1
 2508 0121 51       		.byte	0x51
 2509 0122 9F       		.byte	0x9f
 2510 0123 00000000 		.4byte	0
 2511 0127 00000000 		.4byte	0
 2512              	.LLST9:
 2513 012b 08000000 		.4byte	.LVL15
 2514 012f 0B000000 		.4byte	.LVL16-1
 2515 0133 0100     		.2byte	0x1
 2516 0135 51       		.byte	0x51
 2517 0136 0B000000 		.4byte	.LVL16-1
 2518 013a 14000000 		.4byte	.LFE172
 2519 013e 0400     		.2byte	0x4
 2520 0140 F3       		.byte	0xf3
 2521 0141 01       		.uleb128 0x1
 2522 0142 51       		.byte	0x51
 2523 0143 9F       		.byte	0x9f
 2524 0144 00000000 		.4byte	0
 2525 0148 00000000 		.4byte	0
 2526              	.LLST10:
 2527 014c 08000000 		.4byte	.LVL15
 2528 0150 0B000000 		.4byte	.LVL16-1
 2529 0154 0100     		.2byte	0x1
 2530 0156 50       		.byte	0x50
 2531 0157 0B000000 		.4byte	.LVL16-1
 2532 015b 14000000 		.4byte	.LFE172
 2533 015f 0400     		.2byte	0x4
 2534 0161 F3       		.byte	0xf3
 2535 0162 01       		.uleb128 0x1
 2536 0163 50       		.byte	0x50
 2537 0164 9F       		.byte	0x9f
 2538 0165 00000000 		.4byte	0
 2539 0169 00000000 		.4byte	0
 2540              		.section	.debug_aranges,"",%progbits
 2541 0000 2C000000 		.4byte	0x2c
 2542 0004 0200     		.2byte	0x2
 2543 0006 00000000 		.4byte	.Ldebug_info0
 2544 000a 04       		.byte	0x4
 2545 000b 00       		.byte	0
 2546 000c 0000     		.2byte	0
 2547 000e 0000     		.2byte	0
 2548 0010 00000000 		.4byte	.LFB170
 2549 0014 40000000 		.4byte	.LFE170-.LFB170
 2550 0018 00000000 		.4byte	.LFB171
 2551 001c 3C000000 		.4byte	.LFE171-.LFB171
 2552 0020 00000000 		.4byte	.LFB172
 2553 0024 14000000 		.4byte	.LFE172-.LFB172
 2554 0028 00000000 		.4byte	0
 2555 002c 00000000 		.4byte	0
 2556              		.section	.debug_ranges,"",%progbits
 2557              	.Ldebug_ranges0:
 2558 0000 04000000 		.4byte	.LBB52
 2559 0004 06000000 		.4byte	.LBE52
 2560 0008 08000000 		.4byte	.LBB59
 2561 000c 0C000000 		.4byte	.LBE59
 2562 0010 00000000 		.4byte	0
 2563 0014 00000000 		.4byte	0
ARM GAS  /tmp/cc2HdcQ5.s 			page 46


 2564 0018 14000000 		.4byte	.LBB60
 2565 001c 16000000 		.4byte	.LBE60
 2566 0020 1A000000 		.4byte	.LBB63
 2567 0024 22000000 		.4byte	.LBE63
 2568 0028 00000000 		.4byte	0
 2569 002c 00000000 		.4byte	0
 2570 0030 16000000 		.4byte	.LBB75
 2571 0034 18000000 		.4byte	.LBE75
 2572 0038 1A000000 		.4byte	.LBB78
 2573 003c 1E000000 		.4byte	.LBE78
 2574 0040 00000000 		.4byte	0
 2575 0044 00000000 		.4byte	0
 2576 0048 1E000000 		.4byte	.LBB79
 2577 004c 20000000 		.4byte	.LBE79
 2578 0050 22000000 		.4byte	.LBB88
 2579 0054 26000000 		.4byte	.LBE88
 2580 0058 00000000 		.4byte	0
 2581 005c 00000000 		.4byte	0
 2582 0060 00000000 		.4byte	.LFB170
 2583 0064 40000000 		.4byte	.LFE170
 2584 0068 00000000 		.4byte	.LFB171
 2585 006c 3C000000 		.4byte	.LFE171
 2586 0070 00000000 		.4byte	.LFB172
 2587 0074 14000000 		.4byte	.LFE172
 2588 0078 00000000 		.4byte	0
 2589 007c 00000000 		.4byte	0
 2590              		.section	.debug_line,"",%progbits
 2591              	.Ldebug_line0:
 2592 0000 C5020000 		.section	.debug_str,"MS",%progbits,1
 2592      0200F001 
 2592      00000201 
 2592      FB0E0D00 
 2592      01010101 
 2593              	.LASF52:
 2594 0000 72656164 		.ascii	"ready_list_t\000"
 2594      795F6C69 
 2594      73745F74 
 2594      00
 2595              	.LASF107:
 2596 000d 71756575 		.ascii	"queue_insert\000"
 2596      655F696E 
 2596      73657274 
 2596      00
 2597              	.LASF90:
 2598 001a 77747472 		.ascii	"wttrp\000"
 2598      7000
 2599              	.LASF87:
 2600 0020 7264796D 		.ascii	"rdymsg\000"
 2600      736700
 2601              	.LASF16:
 2602 0027 75696E74 		.ascii	"uint64_t\000"
 2602      36345F74 
 2602      00
 2603              	.LASF5:
 2604 0030 5F5F7569 		.ascii	"__uint8_t\000"
 2604      6E74385F 
 2604      7400
ARM GAS  /tmp/cc2HdcQ5.s 			page 47


 2605              	.LASF84:
 2606 003a 706F7274 		.ascii	"port_intctx\000"
 2606      5F696E74 
 2606      63747800 
 2607              	.LASF71:
 2608 0046 73797374 		.ascii	"system_debug_t\000"
 2608      656D5F64 
 2608      65627567 
 2608      5F7400
 2609              	.LASF103:
 2610 0055 706F7274 		.ascii	"port_lock\000"
 2610      5F6C6F63 
 2610      6B00
 2611              	.LASF12:
 2612 005f 6C6F6E67 		.ascii	"long long unsigned int\000"
 2612      206C6F6E 
 2612      6720756E 
 2612      7369676E 
 2612      65642069 
 2613              	.LASF88:
 2614 0076 65786974 		.ascii	"exitcode\000"
 2614      636F6465 
 2614      00
 2615              	.LASF78:
 2616 007f 6D61696E 		.ascii	"mainthread\000"
 2616      74687265 
 2616      616400
 2617              	.LASF68:
 2618 008a 76697274 		.ascii	"virtual_timers_list_t\000"
 2618      75616C5F 
 2618      74696D65 
 2618      72735F6C 
 2618      6973745F 
 2619              	.LASF117:
 2620 00a0 49544D5F 		.ascii	"ITM_RxBuffer\000"
 2620      52784275 
 2620      66666572 
 2620      00
 2621              	.LASF51:
 2622 00ad 63685F74 		.ascii	"ch_threads_queue\000"
 2622      68726561 
 2622      64735F71 
 2622      75657565 
 2622      00
 2623              	.LASF30:
 2624 00be 705F7072 		.ascii	"p_prio\000"
 2624      696F00
 2625              	.LASF10:
 2626 00c5 6C6F6E67 		.ascii	"long long int\000"
 2626      206C6F6E 
 2626      6720696E 
 2626      7400
 2627              	.LASF1:
 2628 00d3 7369676E 		.ascii	"signed char\000"
 2628      65642063 
 2628      68617200 
 2629              	.LASF45:
ARM GAS  /tmp/cc2HdcQ5.s 			page 48


 2630 00df 705F6D70 		.ascii	"p_mpool\000"
 2630      6F6F6C00 
 2631              	.LASF98:
 2632 00e7 6D5F7175 		.ascii	"m_queue\000"
 2632      65756500 
 2633              	.LASF77:
 2634 00ef 76746C69 		.ascii	"vtlist\000"
 2634      737400
 2635              	.LASF104:
 2636 00f6 706F7274 		.ascii	"port_unlock\000"
 2636      5F756E6C 
 2636      6F636B00 
 2637              	.LASF21:
 2638 0102 74736C69 		.ascii	"tslices_t\000"
 2638      6365735F 
 2638      7400
 2639              	.LASF75:
 2640 010c 63685F73 		.ascii	"ch_system\000"
 2640      79737465 
 2640      6D00
 2641              	.LASF7:
 2642 0116 6C6F6E67 		.ascii	"long int\000"
 2642      20696E74 
 2642      00
 2643              	.LASF115:
 2644 011f 63684D73 		.ascii	"chMsgSend\000"
 2644      6753656E 
 2644      6400
 2645              	.LASF19:
 2646 0129 74737461 		.ascii	"tstate_t\000"
 2646      74655F74 
 2646      00
 2647              	.LASF111:
 2648 0132 63684D73 		.ascii	"chMsgIsPendingI\000"
 2648      67497350 
 2648      656E6469 
 2648      6E674900 
 2649              	.LASF32:
 2650 0142 705F6E65 		.ascii	"p_newer\000"
 2650      77657200 
 2651              	.LASF95:
 2652 014a 735F7175 		.ascii	"s_queue\000"
 2652      65756500 
 2653              	.LASF57:
 2654 0152 725F6E65 		.ascii	"r_newer\000"
 2654      77657200 
 2655              	.LASF81:
 2656 015a 72656761 		.ascii	"regarm_t\000"
 2656      726D5F74 
 2656      00
 2657              	.LASF64:
 2658 0163 76745F70 		.ascii	"vt_prev\000"
 2658      72657600 
 2659              	.LASF102:
 2660 016b 6D757465 		.ascii	"mutex_t\000"
 2660      785F7400 
 2661              	.LASF108:
ARM GAS  /tmp/cc2HdcQ5.s 			page 49


 2662 0173 76616C75 		.ascii	"value\000"
 2662      6500
 2663              	.LASF79:
 2664 0179 69646C65 		.ascii	"idle_thread_wa\000"
 2664      5F746872 
 2664      6561645F 
 2664      776100
 2665              	.LASF25:
 2666 0188 636E745F 		.ascii	"cnt_t\000"
 2666      7400
 2667              	.LASF0:
 2668 018e 756E7369 		.ascii	"unsigned int\000"
 2668      676E6564 
 2668      20696E74 
 2668      00
 2669              	.LASF63:
 2670 019b 76745F6E 		.ascii	"vt_next\000"
 2670      65787400 
 2671              	.LASF91:
 2672 01a3 77747365 		.ascii	"wtsemp\000"
 2672      6D7000
 2673              	.LASF65:
 2674 01aa 76745F64 		.ascii	"vt_delta\000"
 2674      656C7461 
 2674      00
 2675              	.LASF40:
 2676 01b3 705F6D73 		.ascii	"p_msgqueue\000"
 2676      67717565 
 2676      756500
 2677              	.LASF96:
 2678 01be 735F636E 		.ascii	"s_cnt\000"
 2678      7400
 2679              	.LASF4:
 2680 01c4 73686F72 		.ascii	"short unsigned int\000"
 2680      7420756E 
 2680      7369676E 
 2680      65642069 
 2680      6E7400
 2681              	.LASF48:
 2682 01d7 63685F74 		.ascii	"ch_thread\000"
 2682      68726561 
 2682      6400
 2683              	.LASF123:
 2684 01e1 63685363 		.ascii	"chSchWakeupS\000"
 2684      6857616B 
 2684      65757053 
 2684      00
 2685              	.LASF23:
 2686 01ee 6D73675F 		.ascii	"msg_t\000"
 2686      7400
 2687              	.LASF74:
 2688 01f4 63685F73 		.ascii	"ch_system_t\000"
 2688      79737465 
 2688      6D5F7400 
 2689              	.LASF18:
 2690 0200 746D6F64 		.ascii	"tmode_t\000"
 2690      655F7400 
ARM GAS  /tmp/cc2HdcQ5.s 			page 50


 2691              	.LASF53:
 2692 0208 63685F72 		.ascii	"ch_ready_list\000"
 2692      65616479 
 2692      5F6C6973 
 2692      7400
 2693              	.LASF24:
 2694 0216 6576656E 		.ascii	"eventmask_t\000"
 2694      746D6173 
 2694      6B5F7400 
 2695              	.LASF6:
 2696 0222 5F5F696E 		.ascii	"__int32_t\000"
 2696      7433325F 
 2696      7400
 2697              	.LASF82:
 2698 022c 73746B61 		.ascii	"stkalign_t\000"
 2698      6C69676E 
 2698      5F7400
 2699              	.LASF47:
 2700 0237 74687265 		.ascii	"threads_list_t\000"
 2700      6164735F 
 2700      6C697374 
 2700      5F7400
 2701              	.LASF39:
 2702 0246 705F7761 		.ascii	"p_waiting\000"
 2702      6974696E 
 2702      6700
 2703              	.LASF80:
 2704 0250 73697A65 		.ascii	"sizetype\000"
 2704      74797065 
 2704      00
 2705              	.LASF46:
 2706 0259 74687265 		.ascii	"thread_reference_t\000"
 2706      61645F72 
 2706      65666572 
 2706      656E6365 
 2706      5F7400
 2707              	.LASF69:
 2708 026c 63685F76 		.ascii	"ch_virtual_timers_list\000"
 2708      69727475 
 2708      616C5F74 
 2708      696D6572 
 2708      735F6C69 
 2709              	.LASF33:
 2710 0283 705F6F6C 		.ascii	"p_older\000"
 2710      64657200 
 2711              	.LASF56:
 2712 028b 725F6374 		.ascii	"r_ctx\000"
 2712      7800
 2713              	.LASF86:
 2714 0291 746D5F63 		.ascii	"tm_calibration_t\000"
 2714      616C6962 
 2714      72617469 
 2714      6F6E5F74 
 2714      00
 2715              	.LASF100:
 2716 02a2 6D5F6E65 		.ascii	"m_next\000"
 2716      787400
ARM GAS  /tmp/cc2HdcQ5.s 			page 51


 2717              	.LASF59:
 2718 02a9 725F6375 		.ascii	"r_current\000"
 2718      7272656E 
 2718      7400
 2719              	.LASF58:
 2720 02b3 725F6F6C 		.ascii	"r_older\000"
 2720      64657200 
 2721              	.LASF11:
 2722 02bb 5F5F7569 		.ascii	"__uint64_t\000"
 2722      6E743634 
 2722      5F7400
 2723              	.LASF20:
 2724 02c6 74726566 		.ascii	"trefs_t\000"
 2724      735F7400 
 2725              	.LASF61:
 2726 02ce 76697274 		.ascii	"virtual_timer_t\000"
 2726      75616C5F 
 2726      74696D65 
 2726      725F7400 
 2727              	.LASF29:
 2728 02de 705F7072 		.ascii	"p_prev\000"
 2728      657600
 2729              	.LASF22:
 2730 02e5 74707269 		.ascii	"tprio_t\000"
 2730      6F5F7400 
 2731              	.LASF72:
 2732 02ed 63685F73 		.ascii	"ch_system_debug\000"
 2732      79737465 
 2732      6D5F6465 
 2732      62756700 
 2733              	.LASF110:
 2734 02fd 5F426F6F 		.ascii	"_Bool\000"
 2734      6C00
 2735              	.LASF14:
 2736 0303 696E7433 		.ascii	"int32_t\000"
 2736      325F7400 
 2737              	.LASF2:
 2738 030b 756E7369 		.ascii	"unsigned char\000"
 2738      676E6564 
 2738      20636861 
 2738      7200
 2739              	.LASF43:
 2740 0319 705F6D74 		.ascii	"p_mtxlist\000"
 2740      786C6973 
 2740      7400
 2741              	.LASF3:
 2742 0323 73686F72 		.ascii	"short int\000"
 2742      7420696E 
 2742      7400
 2743              	.LASF35:
 2744 032d 705F7374 		.ascii	"p_state\000"
 2744      61746500 
 2745              	.LASF38:
 2746 0335 705F7072 		.ascii	"p_preempt\000"
 2746      65656D70 
 2746      7400
 2747              	.LASF55:
ARM GAS  /tmp/cc2HdcQ5.s 			page 52


 2748 033f 725F7072 		.ascii	"r_prio\000"
 2748      696F00
 2749              	.LASF93:
 2750 0346 65776D61 		.ascii	"ewmask\000"
 2750      736B00
 2751              	.LASF28:
 2752 034d 705F6E65 		.ascii	"p_next\000"
 2752      787400
 2753              	.LASF36:
 2754 0354 705F666C 		.ascii	"p_flags\000"
 2754      61677300 
 2755              	.LASF113:
 2756 035c 5F5F6675 		.ascii	"__func__\000"
 2756      6E635F5F 
 2756      00
 2757              	.LASF105:
 2758 0365 63685379 		.ascii	"chSysLock\000"
 2758      734C6F63 
 2758      6B00
 2759              	.LASF62:
 2760 036f 63685F76 		.ascii	"ch_virtual_timer\000"
 2760      69727475 
 2760      616C5F74 
 2760      696D6572 
 2760      00
 2761              	.LASF120:
 2762 0380 63684D73 		.ascii	"chMsgRelease\000"
 2762      6752656C 
 2762      65617365 
 2762      00
 2763              	.LASF94:
 2764 038d 63685F73 		.ascii	"ch_semaphore\000"
 2764      656D6170 
 2764      686F7265 
 2764      00
 2765              	.LASF121:
 2766 039a 63685363 		.ascii	"chSchGoSleepS\000"
 2766      68476F53 
 2766      6C656570 
 2766      5300
 2767              	.LASF42:
 2768 03a8 705F6570 		.ascii	"p_epending\000"
 2768      656E6469 
 2768      6E6700
 2769              	.LASF15:
 2770 03b3 75696E74 		.ascii	"uint32_t\000"
 2770      33325F74 
 2770      00
 2771              	.LASF92:
 2772 03bc 77746D74 		.ascii	"wtmtxp\000"
 2772      787000
 2773              	.LASF54:
 2774 03c3 725F7175 		.ascii	"r_queue\000"
 2774      65756500 
 2775              	.LASF122:
 2776 03cb 63685363 		.ascii	"chSchReadyI\000"
 2776      68526561 
ARM GAS  /tmp/cc2HdcQ5.s 			page 53


 2776      64794900 
 2777              	.LASF49:
 2778 03d7 63685F74 		.ascii	"ch_threads_list\000"
 2778      68726561 
 2778      64735F6C 
 2778      69737400 
 2779              	.LASF9:
 2780 03e7 6C6F6E67 		.ascii	"long unsigned int\000"
 2780      20756E73 
 2780      69676E65 
 2780      6420696E 
 2780      7400
 2781              	.LASF118:
 2782 03f9 474E5520 		.ascii	"GNU C 4.9.3 20150529 (prerelease) -mcpu=cortex-m3 -"
 2782      4320342E 
 2782      392E3320 
 2782      32303135 
 2782      30353239 
 2783 042c 6D6E6F2D 		.ascii	"mno-thumb-interwork -mthumb -ggdb -O2 -std=c99 -fom"
 2783      7468756D 
 2783      622D696E 
 2783      74657277 
 2783      6F726B20 
 2784 045f 69742D66 		.ascii	"it-frame-pointer -falign-functions=16 -ffunction-se"
 2784      72616D65 
 2784      2D706F69 
 2784      6E746572 
 2784      202D6661 
 2785 0492 6374696F 		.ascii	"ctions -fdata-sections -fno-common\000"
 2785      6E73202D 
 2785      66646174 
 2785      612D7365 
 2785      6374696F 
 2786              	.LASF101:
 2787 04b5 63686172 		.ascii	"char\000"
 2787      00
 2788              	.LASF27:
 2789 04ba 74687265 		.ascii	"thread_t\000"
 2789      61645F74 
 2789      00
 2790              	.LASF112:
 2791 04c3 71756575 		.ascii	"queue_fifo_remove\000"
 2791      655F6669 
 2791      666F5F72 
 2791      656D6F76 
 2791      6500
 2792              	.LASF26:
 2793 04d5 73797374 		.ascii	"systime_t\000"
 2793      696D655F 
 2793      7400
 2794              	.LASF44:
 2795 04df 705F7265 		.ascii	"p_realprio\000"
 2795      616C7072 
 2795      696F00
 2796              	.LASF60:
 2797 04ea 76746675 		.ascii	"vtfunc_t\000"
 2797      6E635F74 
ARM GAS  /tmp/cc2HdcQ5.s 			page 54


 2797      00
 2798              	.LASF8:
 2799 04f3 5F5F7569 		.ascii	"__uint32_t\000"
 2799      6E743332 
 2799      5F7400
 2800              	.LASF106:
 2801 04fe 5F5F7365 		.ascii	"__set_BASEPRI\000"
 2801      745F4241 
 2801      53455052 
 2801      4900
 2802              	.LASF73:
 2803 050c 70616E69 		.ascii	"panic_msg\000"
 2803      635F6D73 
 2803      6700
 2804              	.LASF85:
 2805 0516 6F666673 		.ascii	"offset\000"
 2805      657400
 2806              	.LASF83:
 2807 051d 636F6E74 		.ascii	"context\000"
 2807      65787400 
 2808              	.LASF119:
 2809 0525 2F686F6D 		.ascii	"/home/peter/ChibiOS_16.1.4/os/rt/src/chmsg.c\000"
 2809      652F7065 
 2809      7465722F 
 2809      43686962 
 2809      694F535F 
 2810              	.LASF17:
 2811 0552 7274636E 		.ascii	"rtcnt_t\000"
 2811      745F7400 
 2812              	.LASF67:
 2813 055a 76745F70 		.ascii	"vt_par\000"
 2813      617200
 2814              	.LASF116:
 2815 0561 63684D73 		.ascii	"chMsgWait\000"
 2815      67576169 
 2815      7400
 2816              	.LASF50:
 2817 056b 74687265 		.ascii	"threads_queue_t\000"
 2817      6164735F 
 2817      71756575 
 2817      655F7400 
 2818              	.LASF97:
 2819 057b 63685F6D 		.ascii	"ch_mutex\000"
 2819      75746578 
 2819      00
 2820              	.LASF37:
 2821 0584 705F7265 		.ascii	"p_refs\000"
 2821      667300
 2822              	.LASF76:
 2823 058b 726C6973 		.ascii	"rlist\000"
 2823      7400
 2824              	.LASF13:
 2825 0591 75696E74 		.ascii	"uint8_t\000"
 2825      385F7400 
 2826              	.LASF89:
 2827 0599 77746F62 		.ascii	"wtobjp\000"
 2827      6A7000
ARM GAS  /tmp/cc2HdcQ5.s 			page 55


 2828              	.LASF34:
 2829 05a0 705F6E61 		.ascii	"p_name\000"
 2829      6D6500
 2830              	.LASF70:
 2831 05a7 76745F73 		.ascii	"vt_systime\000"
 2831      79737469 
 2831      6D6500
 2832              	.LASF109:
 2833 05b2 63685379 		.ascii	"chSysUnlock\000"
 2833      73556E6C 
 2833      6F636B00 
 2834              	.LASF41:
 2835 05be 705F6D73 		.ascii	"p_msg\000"
 2835      6700
 2836              	.LASF114:
 2837 05c4 63684D73 		.ascii	"chMsgReleaseS\000"
 2837      6752656C 
 2837      65617365 
 2837      5300
 2838              	.LASF99:
 2839 05d2 6D5F6F77 		.ascii	"m_owner\000"
 2839      6E657200 
 2840              	.LASF31:
 2841 05da 705F6374 		.ascii	"p_ctx\000"
 2841      7800
 2842              	.LASF66:
 2843 05e0 76745F66 		.ascii	"vt_func\000"
 2843      756E6300 
 2844              		.ident	"GCC: (15:4.9.3+svn227297-1) 4.9.3 20150529 (prerelease)"
ARM GAS  /tmp/cc2HdcQ5.s 			page 56


DEFINED SYMBOLS
                            *ABS*:00000000 chmsg.c
     /tmp/cc2HdcQ5.s:19     .text.chMsgSend:00000000 $t
     /tmp/cc2HdcQ5.s:25     .text.chMsgSend:00000000 chMsgSend
     /tmp/cc2HdcQ5.s:137    .text.chMsgSend:0000003c $d
     /tmp/cc2HdcQ5.s:142    .text.chMsgWait:00000000 $t
     /tmp/cc2HdcQ5.s:148    .text.chMsgWait:00000000 chMsgWait
     /tmp/cc2HdcQ5.s:251    .text.chMsgWait:00000038 $d
     /tmp/cc2HdcQ5.s:256    .text.chMsgRelease:00000000 $t
     /tmp/cc2HdcQ5.s:262    .text.chMsgRelease:00000000 chMsgRelease
                     .debug_frame:00000010 $d
     /tmp/cc2HdcQ5.s:255    .text.chMsgWait:0000003c $t

UNDEFINED SYMBOLS
chSchGoSleepS
chSchReadyI
ch
chSchWakeupS
