ARM GAS  /tmp/cc2HdcQ5.s 			page 1


   1              		.syntax unified
   2              		.cpu cortex-m3
   3              		.fpu softvfp
   4              		.eabi_attribute 20, 1
   5              		.eabi_attribute 21, 1
   6              		.eabi_attribute 23, 3
   7              		.eabi_attribute 24, 1
   8              		.eabi_attribute 25, 1
   9              		.eabi_attribute 26, 1
  10              		.eabi_attribute 30, 2
  11              		.eabi_attribute 34, 1
  12              		.eabi_attribute 18, 4
  13              		.thumb
  14              		.file	"chmsg.c"
  15              		.text
  16              	.Ltext0:
  17              		.cfi_sections	.debug_frame
  18              		.section	.text.chMsgSend,"ax",%progbits
  19              		.align	2
  20              		.p2align 4,,15
  21              		.global	chMsgSend
  22              		.thumb
  23              		.thumb_func
  24              		.type	chMsgSend, %function
  25              	chMsgSend:
  26              	.LFB170:
  27              		.file 1 "/home/peter/ChibiOS_16.1.4/os/rt/src/chmsg.c"
  28              		.loc 1 87 0
  29              		.cfi_startproc
  30              		@ args = 0, pretend = 0, frame = 0
  31              		@ frame_needed = 0, uses_anonymous_args = 0
  32              	.LVL0:
  33              		.loc 1 88 0
  34 0000 0E4B     		ldr	r3, .L6
  35              		.loc 1 87 0
  36 0002 70B5     		push	{r4, r5, r6, lr}
  37              		.cfi_def_cfa_offset 16
  38              		.cfi_offset 4, -16
  39              		.cfi_offset 5, -12
  40              		.cfi_offset 6, -8
  41              		.cfi_offset 14, -4
  42              	.LBB52:
  43              	.LBB53:
  44              	.LBB54:
  45              	.LBB55:
  46              		.file 2 "/home/peter/ChibiOS_16.1.4/os/ext/CMSIS/include/core_cmFunc.h"
  47              		.loc 2 548 0
  48 0004 2022     		movs	r2, #32
  49              	.LBE55:
  50              	.LBE54:
  51              	.LBE53:
  52              	.LBE52:
  53              		.loc 1 88 0
  54 0006 9C69     		ldr	r4, [r3, #24]
  55              	.LVL1:
  56              	.LBB59:
  57              	.LBB58:
ARM GAS  /tmp/cc2HdcQ5.s 			page 2


  58              	.LBB57:
  59              	.LBB56:
  60              		.loc 2 548 0
  61              	@ 548 "/home/peter/ChibiOS_16.1.4/os/ext/CMSIS/include/core_cmFunc.h" 1
  62 0008 82F31188 		MSR basepri, r2
  63              	@ 0 "" 2
  64              		.thumb
  65              	.LBE56:
  66              	.LBE57:
  67              	.LBE58:
  68              	.LBE59:
  69              		.loc 1 94 0
  70 000c 00F12805 		add	r5, r0, #40
  71              		.loc 1 96 0
  72 0010 067F     		ldrb	r6, [r0, #28]	@ zero_extendqisi2
  73              		.loc 1 94 0
  74 0012 2562     		str	r5, [r4, #32]
  75              	.LVL2:
  76              	.LBB60:
  77              	.LBB61:
  78              		.file 3 "/home/peter/ChibiOS_16.1.4/os/rt/include/chschd.h"
  79              		.loc 3 666 0
  80 0014 C26A     		ldr	r2, [r0, #44]
  81              	.LBE61:
  82              	.LBE60:
  83              		.loc 1 96 0
  84 0016 0E2E     		cmp	r6, #14
  85              		.loc 1 93 0
  86 0018 2163     		str	r1, [r4, #48]
  87              	.LBB63:
  88              	.LBB62:
  89              		.loc 3 665 0
  90 001a 2560     		str	r5, [r4]
  91              		.loc 3 666 0
  92 001c 6260     		str	r2, [r4, #4]
  93              		.loc 3 667 0
  94 001e 1460     		str	r4, [r2]
  95              		.loc 3 668 0
  96 0020 C462     		str	r4, [r0, #44]
  97              	.LBE62:
  98              	.LBE63:
  99              		.loc 1 96 0
 100 0022 07D0     		beq	.L5
 101              	.LVL3:
 102              	.L2:
 103              		.loc 1 99 0
 104 0024 0C20     		movs	r0, #12
 105 0026 FFF7FEFF 		bl	chSchGoSleepS
 106              	.LVL4:
 107              		.loc 1 100 0
 108 002a 206A     		ldr	r0, [r4, #32]
 109              	.LVL5:
 110              	.LBB64:
 111              	.LBB65:
 112              	.LBB66:
 113              	.LBB67:
 114              	.LBB68:
ARM GAS  /tmp/cc2HdcQ5.s 			page 3


 115              		.loc 2 548 0
 116 002c 0023     		movs	r3, #0
 117              	@ 548 "/home/peter/ChibiOS_16.1.4/os/ext/CMSIS/include/core_cmFunc.h" 1
 118 002e 83F31188 		MSR basepri, r3
 119              	@ 0 "" 2
 120              		.thumb
 121              	.LBE68:
 122              	.LBE67:
 123              	.LBE66:
 124              	.LBE65:
 125              	.LBE64:
 126              		.loc 1 104 0
 127 0032 70BD     		pop	{r4, r5, r6, pc}
 128              	.LVL6:
 129              	.L5:
 130              		.loc 1 97 0
 131 0034 FFF7FEFF 		bl	chSchReadyI
 132              	.LVL7:
 133 0038 F4E7     		b	.L2
 134              	.L7:
 135 003a 00BF     		.align	2
 136              	.L6:
 137 003c 00000000 		.word	ch
 138              		.cfi_endproc
 139              	.LFE170:
 140              		.size	chMsgSend, .-chMsgSend
 141              		.section	.text.chMsgWait,"ax",%progbits
 142              		.align	2
 143              		.p2align 4,,15
 144              		.global	chMsgWait
 145              		.thumb
 146              		.thumb_func
 147              		.type	chMsgWait, %function
 148              	chMsgWait:
 149              	.LFB171:
 150              		.loc 1 120 0
 151              		.cfi_startproc
 152              		@ args = 0, pretend = 0, frame = 0
 153              		@ frame_needed = 0, uses_anonymous_args = 0
 154              	.LVL8:
 155 0000 10B5     		push	{r4, lr}
 156              		.cfi_def_cfa_offset 8
 157              		.cfi_offset 4, -8
 158              		.cfi_offset 14, -4
 159              	.LBB69:
 160              	.LBB70:
 161              	.LBB71:
 162              	.LBB72:
 163              		.loc 2 548 0
 164 0002 2023     		movs	r3, #32
 165              	@ 548 "/home/peter/ChibiOS_16.1.4/os/ext/CMSIS/include/core_cmFunc.h" 1
 166 0004 83F31188 		MSR basepri, r3
 167              	@ 0 "" 2
 168              		.thumb
 169              	.LBE72:
 170              	.LBE71:
 171              	.LBE70:
ARM GAS  /tmp/cc2HdcQ5.s 			page 4


 172              	.LBE69:
 173              		.loc 1 124 0
 174 0008 0B4C     		ldr	r4, .L12
 175 000a A269     		ldr	r2, [r4, #24]
 176              	.LVL9:
 177              	.LBB73:
 178              	.LBB74:
 179              		.file 4 "/home/peter/ChibiOS_16.1.4/os/rt/include/chmsg.h"
 180              		.loc 4 83 0
 181 000c 1346     		mov	r3, r2
 182 000e 53F8280F 		ldr	r0, [r3, #40]!
 183              	.LBE74:
 184              	.LBE73:
 185              		.loc 1 124 0
 186 0012 9842     		cmp	r0, r3
 187 0014 08D0     		beq	.L11
 188              	.LVL10:
 189              	.L9:
 190              	.LBB75:
 191              	.LBB76:
 192              		.loc 3 674 0
 193 0016 0168     		ldr	r1, [r0]
 194              	.LBE76:
 195              	.LBE75:
 196              		.loc 1 128 0
 197 0018 0D24     		movs	r4, #13
 198              	.LBB78:
 199              	.LBB77:
 200              		.loc 3 674 0
 201 001a 9162     		str	r1, [r2, #40]
 202              		.loc 3 675 0
 203 001c 4B60     		str	r3, [r1, #4]
 204              	.LBE77:
 205              	.LBE78:
 206              	.LBB79:
 207              	.LBB80:
 208              	.LBB81:
 209              	.LBB82:
 210              	.LBB83:
 211              		.loc 2 548 0
 212 001e 0022     		movs	r2, #0
 213              	.LBE83:
 214              	.LBE82:
 215              	.LBE81:
 216              	.LBE80:
 217              	.LBE79:
 218              		.loc 1 128 0
 219 0020 0477     		strb	r4, [r0, #28]
 220              	.LVL11:
 221              	.LBB88:
 222              	.LBB87:
 223              	.LBB86:
 224              	.LBB85:
 225              	.LBB84:
 226              		.loc 2 548 0
 227              	@ 548 "/home/peter/ChibiOS_16.1.4/os/ext/CMSIS/include/core_cmFunc.h" 1
 228 0022 82F31188 		MSR basepri, r2
ARM GAS  /tmp/cc2HdcQ5.s 			page 5


 229              	@ 0 "" 2
 230              		.thumb
 231              	.LBE84:
 232              	.LBE85:
 233              	.LBE86:
 234              	.LBE87:
 235              	.LBE88:
 236              		.loc 1 132 0
 237 0026 10BD     		pop	{r4, pc}
 238              	.LVL12:
 239              	.L11:
 240              		.loc 1 125 0
 241 0028 0E20     		movs	r0, #14
 242 002a FFF7FEFF 		bl	chSchGoSleepS
 243              	.LVL13:
 244 002e A269     		ldr	r2, [r4, #24]
 245 0030 906A     		ldr	r0, [r2, #40]
 246 0032 02F12803 		add	r3, r2, #40
 247 0036 EEE7     		b	.L9
 248              	.L13:
 249              		.align	2
 250              	.L12:
 251 0038 00000000 		.word	ch
 252              		.cfi_endproc
 253              	.LFE171:
 254              		.size	chMsgWait, .-chMsgWait
 255 003c AFF30080 		.section	.text.chMsgRelease,"ax",%progbits
 256              		.align	2
 257              		.p2align 4,,15
 258              		.global	chMsgRelease
 259              		.thumb
 260              		.thumb_func
 261              		.type	chMsgRelease, %function
 262              	chMsgRelease:
 263              	.LFB172:
 264              		.loc 1 144 0
 265              		.cfi_startproc
 266              		@ args = 0, pretend = 0, frame = 0
 267              		@ frame_needed = 0, uses_anonymous_args = 0
 268              	.LVL14:
 269 0000 08B5     		push	{r3, lr}
 270              		.cfi_def_cfa_offset 8
 271              		.cfi_offset 3, -8
 272              		.cfi_offset 14, -4
 273              	.LBB89:
 274              	.LBB90:
 275              	.LBB91:
 276              	.LBB92:
 277              		.loc 2 548 0
 278 0002 2023     		movs	r3, #32
 279              	@ 548 "/home/peter/ChibiOS_16.1.4/os/ext/CMSIS/include/core_cmFunc.h" 1
 280 0004 83F31188 		MSR basepri, r3
 281              	@ 0 "" 2
 282              	.LVL15:
 283              		.thumb
 284              	.LBE92:
 285              	.LBE91:
ARM GAS  /tmp/cc2HdcQ5.s 			page 6


 286              	.LBE90:
 287              	.LBE89:
 288              	.LBB93:
 289              	.LBB94:
 290              		.loc 4 115 0
 291 0008 FFF7FEFF 		bl	chSchWakeupS
 292              	.LVL16:
 293              	.LBE94:
 294              	.LBE93:
 295              	.LBB95:
 296              	.LBB96:
 297              	.LBB97:
 298              	.LBB98:
 299              	.LBB99:
 300              		.loc 2 548 0
 301 000c 0023     		movs	r3, #0
 302              	@ 548 "/home/peter/ChibiOS_16.1.4/os/ext/CMSIS/include/core_cmFunc.h" 1
 303 000e 83F31188 		MSR basepri, r3
 304              	@ 0 "" 2
 305              		.thumb
 306 0012 08BD     		pop	{r3, pc}
 307              	.LBE99:
 308              	.LBE98:
 309              	.LBE97:
 310              	.LBE96:
 311              	.LBE95:
 312              		.cfi_endproc
 313              	.LFE172:
 314              		.size	chMsgRelease, .-chMsgRelease
 315 0014 AFF30080 		.text
 315      AFF30080 
 315      AFF30080 
 316              	.Letext0:
 317              		.file 5 "/usr/include/newlib/machine/_default_types.h"
 318              		.file 6 "/usr/include/newlib/stdint.h"
 319              		.file 7 "/home/peter/ChibiOS_16.1.4/os/rt/ports/ARMCMx/compilers/GCC/chtypes.h"
 320              		.file 8 "/home/peter/ChibiOS_16.1.4/os/rt/include/chsystypes.h"
 321              		.file 9 "/home/peter/ChibiOS_16.1.4/os/rt/ports/ARMCMx/chcore.h"
 322              		.file 10 "/home/peter/ChibiOS_16.1.4/os/rt/ports/ARMCMx/chcore_v7m.h"
 323              		.file 11 "/home/peter/ChibiOS_16.1.4/os/rt/include/chtm.h"
 324              		.file 12 "/home/peter/ChibiOS_16.1.4/os/rt/include/chsem.h"
 325              		.file 13 "/home/peter/ChibiOS_16.1.4/os/rt/include/chmtx.h"
 326              		.file 14 "/home/peter/ChibiOS_16.1.4/os/rt/include/chsys.h"
 327              		.file 15 "/home/peter/ChibiOS_16.1.4/os/ext/CMSIS/include/core_cm3.h"