ARM GAS  /tmp/ccodQwgR.s 			page 1


   1              		.syntax unified
   2              		.cpu cortex-m3
   3              		.fpu softvfp
   4              		.eabi_attribute 20, 1
   5              		.eabi_attribute 21, 1
   6              		.eabi_attribute 23, 3
   7              		.eabi_attribute 24, 1
   8              		.eabi_attribute 25, 1
   9              		.eabi_attribute 26, 1
  10              		.eabi_attribute 30, 2
  11              		.eabi_attribute 34, 1
  12              		.eabi_attribute 18, 4
  13              		.thumb
  14              		.file	"chprintf.c"
  15              		.text
  16              	.Ltext0:
  17              		.cfi_sections	.debug_frame
  18              		.section	.text.long_to_string_with_divisor.constprop.0,"ax",%progbits
  19              		.align	2
  20              		.p2align 4,,15
  21              		.thumb
  22              		.thumb_func
  23              		.type	long_to_string_with_divisor.constprop.0, %function
  24              	long_to_string_with_divisor.constprop.0:
  25              	.LFB212:
  26              		.file 1 "/home/peter/ChibiOS_16.1.4/os/hal/lib/streams/chprintf.c"
  27              		.loc 1 37 0
  28              		.cfi_startproc
  29              		@ args = 0, pretend = 0, frame = 0
  30              		@ frame_needed = 0, uses_anonymous_args = 0
  31              		@ link register save eliminated.
  32              	.LVL0:
  33 0000 F0B4     		push	{r4, r5, r6, r7}
  34              		.cfi_def_cfa_offset 16
  35              		.cfi_offset 4, -16
  36              		.cfi_offset 5, -12
  37              		.cfi_offset 6, -8
  38              		.cfi_offset 7, -4
  39              		.loc 1 52 0
  40 0002 00F10B07 		add	r7, r0, #11
  41              	.LVL1:
  42 0006 3C46     		mov	r4, r7
  43 0008 0D46     		mov	r5, r1
  44              	.LVL2:
  45              	.L3:
  46              		.loc 1 54 0
  47 000a B1FBF2F6 		udiv	r6, r1, r2
  48              		.loc 1 60 0
  49 000e B5FBF2F5 		udiv	r5, r5, r2
  50              	.LVL3:
  51              		.loc 1 54 0
  52 0012 02FB1611 		mls	r1, r2, r6, r1
  53              	.LVL4:
  54              		.loc 1 55 0
  55 0016 01F13003 		add	r3, r1, #48
  56              	.LVL5:
  57              		.loc 1 56 0
ARM GAS  /tmp/ccodQwgR.s 			page 2


  58 001a 392B     		cmp	r3, #57
  59              		.loc 1 57 0
  60 001c C8BF     		it	gt
  61 001e 01F13703 		addgt	r3, r1, #55
  62              	.LVL6:
  63              		.loc 1 58 0
  64 0022 DBB2     		uxtb	r3, r3
  65              	.LVL7:
  66 0024 04F8013D 		strb	r3, [r4, #-1]!
  67              	.LVL8:
  68              		.loc 1 59 0
  69 0028 3146     		mov	r1, r6
  70              	.LVL9:
  71              		.loc 1 60 0
  72 002a 002D     		cmp	r5, #0
  73 002c EDD1     		bne	.L3
  74              	.LVL10:
  75              		.loc 1 62 0
  76 002e 3A1B     		subs	r2, r7, r4
  77              	.LVL11:
  78 0030 0244     		add	r2, r2, r0
  79 0032 01E0     		b	.L5
  80              	.LVL12:
  81              	.L10:
  82 0034 14F8013F 		ldrb	r3, [r4, #1]!	@ zero_extendqisi2
  83              	.LVL13:
  84              	.L5:
  85              		.loc 1 64 0
  86 0038 00F8013B 		strb	r3, [r0], #1
  87              	.LVL14:
  88              		.loc 1 65 0
  89 003c 9042     		cmp	r0, r2
  90 003e F9D1     		bne	.L10
  91              		.loc 1 68 0
  92 0040 F0BC     		pop	{r4, r5, r6, r7}
  93              		.cfi_restore 7
  94              		.cfi_restore 6
  95              		.cfi_restore 5
  96              		.cfi_restore 4
  97              		.cfi_def_cfa_offset 0
  98              	.LVL15:
  99 0042 7047     		bx	lr
 100              		.cfi_endproc
 101              	.LFE212:
 102              		.size	long_to_string_with_divisor.constprop.0, .-long_to_string_with_divisor.constprop.0
 103 0044 AFF30080 		.section	.text.chvprintf,"ax",%progbits
 103      AFF30080 
 103      AFF30080 
 104              		.align	2
 105              		.p2align 4,,15
 106              		.global	chvprintf
 107              		.thumb
 108              		.thumb_func
 109              		.type	chvprintf, %function
 110              	chvprintf:
 111              	.LFB209:
 112              		.loc 1 121 0
ARM GAS  /tmp/ccodQwgR.s 			page 3


 113              		.cfi_startproc
 114              		@ args = 0, pretend = 0, frame = 24
 115              		@ frame_needed = 0, uses_anonymous_args = 0
 116              	.LVL16:
 117 0000 2DE9F04F 		push	{r4, r5, r6, r7, r8, r9, r10, fp, lr}
 118              		.cfi_def_cfa_offset 36
 119              		.cfi_offset 4, -36
 120              		.cfi_offset 5, -32
 121              		.cfi_offset 6, -28
 122              		.cfi_offset 7, -24
 123              		.cfi_offset 8, -20
 124              		.cfi_offset 9, -16
 125              		.cfi_offset 10, -12
 126              		.cfi_offset 11, -8
 127              		.cfi_offset 14, -4
 128 0004 8146     		mov	r9, r0
 129 0006 8A46     		mov	r10, r1
 130              		.loc 1 124 0
 131 0008 8B46     		mov	fp, r1
 132              		.loc 1 121 0
 133 000a 87B0     		sub	sp, sp, #28
 134              		.cfi_def_cfa_offset 64
 135              		.loc 1 121 0
 136 000c 1546     		mov	r5, r2
 137              	.LVL17:
 138 000e 0DF10D03 		add	r3, sp, #13
 139 0012 03AA     		add	r2, sp, #12
 140              	.LVL18:
 141 0014 9B1A     		subs	r3, r3, r2
 142 0016 0193     		str	r3, [sp, #4]
 143              		.loc 1 124 0
 144 0018 4FF00008 		mov	r8, #0
 145              	.LVL19:
 146              	.L12:
 147              		.loc 1 135 0
 148 001c 9BF80010 		ldrb	r1, [fp]	@ zero_extendqisi2
 149 0020 0BF10103 		add	r3, fp, #1
 150              	.LVL20:
 151              		.loc 1 136 0
 152 0024 79B1     		cbz	r1, .L82
 153              	.L93:
 154              		.loc 1 138 0
 155 0026 2529     		cmp	r1, #37
 156 0028 11D0     		beq	.L14
 157              		.loc 1 135 0
 158 002a 9B46     		mov	fp, r3
 159              		.loc 1 139 0
 160 002c D9F80020 		ldr	r2, [r9]
 161 0030 4846     		mov	r0, r9
 162 0032 9268     		ldr	r2, [r2, #8]
 163 0034 9047     		blx	r2
 164              	.LVL21:
 165              		.loc 1 135 0
 166 0036 9BF80010 		ldrb	r1, [fp]	@ zero_extendqisi2
 167              		.loc 1 140 0
 168 003a 08F10108 		add	r8, r8, #1
 169              	.LVL22:
ARM GAS  /tmp/ccodQwgR.s 			page 4


 170              		.loc 1 135 0
 171 003e 0BF10103 		add	r3, fp, #1
 172              	.LVL23:
 173              		.loc 1 136 0
 174 0042 0029     		cmp	r1, #0
 175 0044 EFD1     		bne	.L93
 176              	.L82:
 177              		.loc 1 277 0
 178 0046 4046     		mov	r0, r8
 179 0048 07B0     		add	sp, sp, #28
 180              		.cfi_remember_state
 181              		.cfi_def_cfa_offset 36
 182              		@ sp needed
 183 004a BDE8F08F 		pop	{r4, r5, r6, r7, r8, r9, r10, fp, pc}
 184              	.LVL24:
 185              	.L14:
 186              		.cfi_restore_state
 187              		.loc 1 146 0
 188 004e 9BF80120 		ldrb	r2, [fp, #1]	@ zero_extendqisi2
 189              		.loc 1 155 0
 190 0052 0026     		movs	r6, #0
 191              		.loc 1 146 0
 192 0054 2D2A     		cmp	r2, #45
 193 0056 03BF     		ittte	eq
 194 0058 9BF80220 		ldrbeq	r2, [fp, #2]	@ zero_extendqisi2
 195              		.loc 1 147 0
 196 005c 0BF10203 		addeq	r3, fp, #2
 197              	.LVL25:
 198              		.loc 1 148 0
 199 0060 4FF0010A 		moveq	r10, #1
 200              		.loc 1 145 0
 201 0064 4FF0000A 		movne	r10, #0
 202              	.LVL26:
 203              		.loc 1 151 0
 204 0068 302A     		cmp	r2, #48
 205 006a 03BF     		ittte	eq
 206 006c 5A78     		ldrbeq	r2, [r3, #1]	@ zero_extendqisi2
 207              		.loc 1 152 0
 208 006e 0133     		addeq	r3, r3, #1
 209              	.LVL27:
 210              		.loc 1 153 0
 211 0070 3027     		moveq	r7, #48
 212              		.loc 1 150 0
 213 0072 2027     		movne	r7, #32
 214              	.LVL28:
 215 0074 591C     		adds	r1, r3, #1
 216              	.LVL29:
 217 0076 06E0     		b	.L20
 218              	.LVL30:
 219              	.L94:
 220              		.loc 1 161 0
 221 0078 2B78     		ldrb	r3, [r5]	@ zero_extendqisi2
 222              	.LVL31:
 223 007a 0435     		adds	r5, r5, #4
 224              	.LVL32:
 225              	.L18:
 226 007c 9BF80020 		ldrb	r2, [fp]	@ zero_extendqisi2
ARM GAS  /tmp/ccodQwgR.s 			page 5


 227              		.loc 1 164 0
 228 0080 03EB4006 		add	r6, r3, r0, lsl #1
 229              	.LVL33:
 230 0084 0131     		adds	r1, r1, #1
 231              	.LVL34:
 232              	.L20:
 233              		.loc 1 158 0
 234 0086 A2F13003 		sub	r3, r2, #48
 235 008a DBB2     		uxtb	r3, r3
 236 008c 092B     		cmp	r3, #9
 237              		.loc 1 157 0
 238 008e 8B46     		mov	fp, r1
 239              	.LVL35:
 240              		.loc 1 164 0
 241 0090 06EB8600 		add	r0, r6, r6, lsl #2
 242              		.loc 1 158 0
 243 0094 F2D9     		bls	.L18
 244              		.loc 1 160 0
 245 0096 2A2A     		cmp	r2, #42
 246 0098 EED0     		beq	.L94
 247              	.LVL36:
 248              		.loc 1 167 0
 249 009a 2E2A     		cmp	r2, #46
 250 009c 4FF00001 		mov	r1, #0
 251              	.LVL37:
 252 00a0 43D0     		beq	.L23
 253              	.LVL38:
 254              		.loc 1 181 0
 255 00a2 02F0DF03 		and	r3, r2, #223
 256 00a6 4C2B     		cmp	r3, #76
 257 00a8 4ED0     		beq	.L95
 258              	.L83:
 259              		.loc 1 190 0
 260 00aa A2F14400 		sub	r0, r2, #68
 261 00ae 3428     		cmp	r0, #52
 262 00b0 00F2F680 		bhi	.L26
 263 00b4 DFE810F0 		tbh	[pc, r0, lsl #1]
 264              	.L35:
 265 00b8 EA00     		.2byte	(.L43-.L35)/2
 266 00ba F400     		.2byte	(.L26-.L35)/2
 267 00bc F400     		.2byte	(.L26-.L35)/2
 268 00be F400     		.2byte	(.L26-.L35)/2
 269 00c0 F400     		.2byte	(.L26-.L35)/2
 270 00c2 EA00     		.2byte	(.L43-.L35)/2
 271 00c4 F400     		.2byte	(.L26-.L35)/2
 272 00c6 F400     		.2byte	(.L26-.L35)/2
 273 00c8 F400     		.2byte	(.L26-.L35)/2
 274 00ca F400     		.2byte	(.L26-.L35)/2
 275 00cc F400     		.2byte	(.L26-.L35)/2
 276 00ce E800     		.2byte	(.L29-.L35)/2
 277 00d0 F400     		.2byte	(.L26-.L35)/2
 278 00d2 F400     		.2byte	(.L26-.L35)/2
 279 00d4 F400     		.2byte	(.L26-.L35)/2
 280 00d6 F400     		.2byte	(.L26-.L35)/2
 281 00d8 F400     		.2byte	(.L26-.L35)/2
 282 00da DD00     		.2byte	(.L30-.L35)/2
 283 00dc F400     		.2byte	(.L26-.L35)/2
ARM GAS  /tmp/ccodQwgR.s 			page 6


 284 00de F400     		.2byte	(.L26-.L35)/2
 285 00e0 F100     		.2byte	(.L68-.L35)/2
 286 00e2 F400     		.2byte	(.L26-.L35)/2
 287 00e4 F400     		.2byte	(.L26-.L35)/2
 288 00e6 F400     		.2byte	(.L26-.L35)/2
 289 00e8 F400     		.2byte	(.L26-.L35)/2
 290 00ea F400     		.2byte	(.L26-.L35)/2
 291 00ec F400     		.2byte	(.L26-.L35)/2
 292 00ee F400     		.2byte	(.L26-.L35)/2
 293 00f0 F400     		.2byte	(.L26-.L35)/2
 294 00f2 F400     		.2byte	(.L26-.L35)/2
 295 00f4 F400     		.2byte	(.L26-.L35)/2
 296 00f6 A100     		.2byte	(.L32-.L35)/2
 297 00f8 EA00     		.2byte	(.L43-.L35)/2
 298 00fa F400     		.2byte	(.L26-.L35)/2
 299 00fc F400     		.2byte	(.L26-.L35)/2
 300 00fe F400     		.2byte	(.L26-.L35)/2
 301 0100 F400     		.2byte	(.L26-.L35)/2
 302 0102 EA00     		.2byte	(.L43-.L35)/2
 303 0104 F400     		.2byte	(.L26-.L35)/2
 304 0106 F400     		.2byte	(.L26-.L35)/2
 305 0108 F400     		.2byte	(.L26-.L35)/2
 306 010a F400     		.2byte	(.L26-.L35)/2
 307 010c F400     		.2byte	(.L26-.L35)/2
 308 010e E800     		.2byte	(.L29-.L35)/2
 309 0110 F400     		.2byte	(.L26-.L35)/2
 310 0112 F400     		.2byte	(.L26-.L35)/2
 311 0114 F400     		.2byte	(.L26-.L35)/2
 312 0116 7100     		.2byte	(.L33-.L35)/2
 313 0118 F400     		.2byte	(.L26-.L35)/2
 314 011a DD00     		.2byte	(.L30-.L35)/2
 315 011c F400     		.2byte	(.L26-.L35)/2
 316 011e F400     		.2byte	(.L26-.L35)/2
 317 0120 F100     		.2byte	(.L68-.L35)/2
 318              	.LVL39:
 319              		.p2align 1
 320              	.L96:
 321              		.loc 1 173 0
 322 0122 2B78     		ldrb	r3, [r5]	@ zero_extendqisi2
 323              	.LVL40:
 324 0124 0435     		adds	r5, r5, #4
 325              	.LVL41:
 326              	.L22:
 327              		.loc 1 177 0
 328 0126 03EB4001 		add	r1, r3, r0, lsl #1
 329              	.LVL42:
 330              	.L23:
 331              		.loc 1 169 0
 332 012a 1BF8012B 		ldrb	r2, [fp], #1	@ zero_extendqisi2
 333              	.LVL43:
 334              		.loc 1 176 0
 335 012e 01EB8100 		add	r0, r1, r1, lsl #2
 336              		.loc 1 170 0
 337 0132 A2F13003 		sub	r3, r2, #48
 338 0136 DBB2     		uxtb	r3, r3
 339 0138 092B     		cmp	r3, #9
 340 013a F4D9     		bls	.L22
ARM GAS  /tmp/ccodQwgR.s 			page 7


 341              		.loc 1 172 0
 342 013c 2A2A     		cmp	r2, #42
 343 013e F0D0     		beq	.L96
 344              	.LVL44:
 345              		.loc 1 181 0
 346 0140 02F0DF03 		and	r3, r2, #223
 347 0144 4C2B     		cmp	r3, #76
 348 0146 B0D1     		bne	.L83
 349              	.L95:
 350              	.LVL45:
 351              		.loc 1 183 0
 352 0148 9BF80030 		ldrb	r3, [fp]	@ zero_extendqisi2
 353 014c 002B     		cmp	r3, #0
 354 014e 00F0A780 		beq	.L26
 355              		.loc 1 190 0
 356 0152 A3F14402 		sub	r2, r3, #68
 357              	.LVL46:
 358              		.loc 1 184 0
 359 0156 0BF1010B 		add	fp, fp, #1
 360              	.LVL47:
 361              		.loc 1 190 0
 362 015a 342A     		cmp	r2, #52
 363 015c 00F29F80 		bhi	.L65
 364 0160 DFE802F0 		tbb	[pc, r2]
 365              	.L28:
 366 0164 94       		.byte	(.L43-.L28)/2
 367 0165 9D       		.byte	(.L65-.L28)/2
 368 0166 9D       		.byte	(.L65-.L28)/2
 369 0167 9D       		.byte	(.L65-.L28)/2
 370 0168 9D       		.byte	(.L65-.L28)/2
 371 0169 94       		.byte	(.L43-.L28)/2
 372 016a 9D       		.byte	(.L65-.L28)/2
 373 016b 9D       		.byte	(.L65-.L28)/2
 374 016c 9D       		.byte	(.L65-.L28)/2
 375 016d 9D       		.byte	(.L65-.L28)/2
 376 016e 9D       		.byte	(.L65-.L28)/2
 377 016f 92       		.byte	(.L29-.L28)/2
 378 0170 9D       		.byte	(.L65-.L28)/2
 379 0171 9D       		.byte	(.L65-.L28)/2
 380 0172 9D       		.byte	(.L65-.L28)/2
 381 0173 9D       		.byte	(.L65-.L28)/2
 382 0174 9D       		.byte	(.L65-.L28)/2
 383 0175 87       		.byte	(.L30-.L28)/2
 384 0176 9D       		.byte	(.L65-.L28)/2
 385 0177 9D       		.byte	(.L65-.L28)/2
 386 0178 9B       		.byte	(.L68-.L28)/2
 387 0179 9D       		.byte	(.L65-.L28)/2
 388 017a 9D       		.byte	(.L65-.L28)/2
 389 017b 9D       		.byte	(.L65-.L28)/2
 390 017c 9D       		.byte	(.L65-.L28)/2
 391 017d 9D       		.byte	(.L65-.L28)/2
 392 017e 9D       		.byte	(.L65-.L28)/2
 393 017f 9D       		.byte	(.L65-.L28)/2
 394 0180 9D       		.byte	(.L65-.L28)/2
 395 0181 9D       		.byte	(.L65-.L28)/2
 396 0182 9D       		.byte	(.L65-.L28)/2
 397 0183 4B       		.byte	(.L32-.L28)/2
ARM GAS  /tmp/ccodQwgR.s 			page 8


 398 0184 94       		.byte	(.L43-.L28)/2
 399 0185 9D       		.byte	(.L65-.L28)/2
 400 0186 9D       		.byte	(.L65-.L28)/2
 401 0187 9D       		.byte	(.L65-.L28)/2
 402 0188 9D       		.byte	(.L65-.L28)/2
 403 0189 94       		.byte	(.L43-.L28)/2
 404 018a 9D       		.byte	(.L65-.L28)/2
 405 018b 9D       		.byte	(.L65-.L28)/2
 406 018c 9D       		.byte	(.L65-.L28)/2
 407 018d 9D       		.byte	(.L65-.L28)/2
 408 018e 9D       		.byte	(.L65-.L28)/2
 409 018f 92       		.byte	(.L29-.L28)/2
 410 0190 9D       		.byte	(.L65-.L28)/2
 411 0191 9D       		.byte	(.L65-.L28)/2
 412 0192 9D       		.byte	(.L65-.L28)/2
 413 0193 1B       		.byte	(.L33-.L28)/2
 414 0194 9D       		.byte	(.L65-.L28)/2
 415 0195 87       		.byte	(.L30-.L28)/2
 416 0196 9D       		.byte	(.L65-.L28)/2
 417 0197 9D       		.byte	(.L65-.L28)/2
 418 0198 9B       		.byte	(.L68-.L28)/2
 419              	.LVL48:
 420 0199 00       		.p2align 1
 421              	.L33:
 422              		.loc 1 197 0
 423 019a 2C68     		ldr	r4, [r5]
 424              		.loc 1 198 0
 425 019c 594B     		ldr	r3, .L101
 426              		.loc 1 197 0
 427 019e 0435     		adds	r5, r5, #4
 428              	.LVL49:
 429              		.loc 1 198 0
 430 01a0 002C     		cmp	r4, #0
 431 01a2 08BF     		it	eq
 432 01a4 1C46     		moveq	r4, r3
 433              	.LVL50:
 434              		.loc 1 201 0
 435 01a6 2378     		ldrb	r3, [r4]	@ zero_extendqisi2
 436              		.loc 1 199 0
 437 01a8 0029     		cmp	r1, #0
 438 01aa 00F09380 		beq	.L39
 439              	.LVL51:
 440              		.loc 1 201 0 discriminator 1
 441 01ae 002B     		cmp	r3, #0
 442 01b0 00F09580 		beq	.L40
 443              		.loc 1 201 0 is_stmt 0
 444 01b4 0139     		subs	r1, r1, #1
 445              	.LVL52:
 446              	.L57:
 447              		.loc 1 201 0 discriminator 4
 448 01b6 2046     		mov	r0, r4
 449 01b8 01E0     		b	.L42
 450              	.LVL53:
 451              	.L97:
 452              		.loc 1 201 0 discriminator 3
 453 01ba 0139     		subs	r1, r1, #1
 454              	.LVL54:
ARM GAS  /tmp/ccodQwgR.s 			page 9


 455 01bc 03D4     		bmi	.L87
 456              	.LVL55:
 457              	.L42:
 458              		.loc 1 201 0 discriminator 4
 459 01be 10F8013F 		ldrb	r3, [r0, #1]!	@ zero_extendqisi2
 460              	.LVL56:
 461 01c2 002B     		cmp	r3, #0
 462 01c4 F9D1     		bne	.L97
 463              	.LVL57:
 464              	.L87:
 465 01c6 001B     		subs	r0, r0, r4
 466              	.LVL58:
 467              		.loc 1 251 0 is_stmt 1
 468 01c8 361A     		subs	r6, r6, r0
 469              	.LVL59:
 470 01ca 431E     		subs	r3, r0, #1
 471              		.loc 1 196 0
 472 01cc 2027     		movs	r7, #32
 473              	.LVL60:
 474 01ce 26EAE676 		bic	r6, r6, r6, asr #31
 475              	.LVL61:
 476              		.loc 1 253 0
 477 01d2 BAF1000F 		cmp	r10, #0
 478 01d6 1FD0     		beq	.L98
 479              	.L48:
 480              	.LVL62:
 481              		.loc 1 266 0
 482 01d8 002B     		cmp	r3, #0
 483 01da 0093     		str	r3, [sp]
 484 01dc 34DA     		bge	.L58
 485              	.LVL63:
 486              	.L53:
 487              		.loc 1 271 0
 488 01de 002E     		cmp	r6, #0
 489 01e0 3FF41CAF 		beq	.L12
 490 01e4 3446     		mov	r4, r6
 491              	.LVL64:
 492              	.L55:
 493              		.loc 1 272 0
 494 01e6 D9F80030 		ldr	r3, [r9]
 495 01ea 4846     		mov	r0, r9
 496 01ec 9B68     		ldr	r3, [r3, #8]
 497 01ee 3946     		mov	r1, r7
 498 01f0 9847     		blx	r3
 499              	.LVL65:
 500              		.loc 1 271 0
 501 01f2 013C     		subs	r4, r4, #1
 502              	.LVL66:
 503 01f4 F7D1     		bne	.L55
 504 01f6 B044     		add	r8, r8, r6
 505 01f8 10E7     		b	.L12
 506              	.LVL67:
 507              	.L32:
 508 01fa 019A     		ldr	r2, [sp, #4]
 509              		.loc 1 193 0
 510 01fc 2B68     		ldr	r3, [r5]
 511 01fe 1046     		mov	r0, r2
ARM GAS  /tmp/ccodQwgR.s 			page 10


 512 0200 8DF80C30 		strb	r3, [sp, #12]
 513 0204 0435     		adds	r5, r5, #4
 514 0206 531E     		subs	r3, r2, #1
 515              		.loc 1 192 0
 516 0208 2027     		movs	r7, #32
 517              		.loc 1 144 0
 518 020a 03AC     		add	r4, sp, #12
 519              	.LVL68:
 520              	.L37:
 521              		.loc 1 251 0
 522 020c 361A     		subs	r6, r6, r0
 523              	.LVL69:
 524 020e 26EAE676 		bic	r6, r6, r6, asr #31
 525              	.LVL70:
 526              		.loc 1 253 0
 527 0212 BAF1000F 		cmp	r10, #0
 528 0216 DFD1     		bne	.L48
 529              	.L98:
 530 0218 0093     		str	r3, [sp]
 531              	.LVL71:
 532              	.L59:
 533              		.loc 1 254 0
 534 021a C6F1000A 		rsb	r10, r6, #0
 535              	.LVL72:
 536              		.loc 1 255 0
 537 021e BAF1000F 		cmp	r10, #0
 538 0222 44D0     		beq	.L49
 539              		.loc 1 256 0
 540 0224 2178     		ldrb	r1, [r4]	@ zero_extendqisi2
 541 0226 2D29     		cmp	r1, #45
 542 0228 46D0     		beq	.L99
 543              	.L50:
 544              		.loc 1 258 0 discriminator 1
 545 022a 5646     		mov	r6, r10
 546              	.LVL73:
 547              	.L51:
 548              		.loc 1 262 0 discriminator 1
 549 022c D9F80030 		ldr	r3, [r9]
 550 0230 4846     		mov	r0, r9
 551 0232 9B68     		ldr	r3, [r3, #8]
 552 0234 3946     		mov	r1, r7
 553 0236 9847     		blx	r3
 554              	.LVL74:
 555              		.loc 1 264 0 discriminator 1
 556 0238 0136     		adds	r6, r6, #1
 557              	.LVL75:
 558 023a F7D1     		bne	.L51
 559              		.loc 1 266 0
 560 023c 009B     		ldr	r3, [sp]
 561 023e CAEB0808 		rsb	r8, r10, r8
 562              	.LVL76:
 563 0242 002B     		cmp	r3, #0
 564 0244 FFF6EAAE 		blt	.L12
 565              	.LVL77:
 566              	.L58:
 567 0248 DDF800A0 		ldr	r10, [sp]
 568              	.LVL78:
ARM GAS  /tmp/ccodQwgR.s 			page 11


 569              	.L54:
 570              		.loc 1 267 0
 571 024c D9F80030 		ldr	r3, [r9]
 572              		.loc 1 266 0
 573 0250 0AF1FF3A 		add	r10, r10, #-1
 574              	.LVL79:
 575              		.loc 1 267 0
 576 0254 9B68     		ldr	r3, [r3, #8]
 577 0256 4846     		mov	r0, r9
 578 0258 14F8011B 		ldrb	r1, [r4], #1	@ zero_extendqisi2
 579              	.LVL80:
 580 025c 9847     		blx	r3
 581              	.LVL81:
 582              		.loc 1 266 0
 583 025e BAF1FF3F 		cmp	r10, #-1
 584 0262 F3D1     		bne	.L54
 585 0264 009B     		ldr	r3, [sp]
 586 0266 08F10108 		add	r8, r8, #1
 587 026a 002B     		cmp	r3, #0
 588 026c A8BF     		it	ge
 589 026e 9844     		addge	r8, r8, r3
 590 0270 B5E7     		b	.L53
 591              	.LVL82:
 592              	.L30:
 593              		.loc 1 235 0
 594 0272 0A22     		movs	r2, #10
 595              	.LVL83:
 596              	.L89:
 597              		.loc 1 243 0
 598 0274 2968     		ldr	r1, [r5]
 599              	.LVL84:
 600              	.LBB6:
 601              	.LBB7:
 602              		.loc 1 72 0
 603 0276 03A8     		add	r0, sp, #12
 604              	.LVL85:
 605              	.LBE7:
 606              	.LBE6:
 607              		.loc 1 243 0
 608 0278 0435     		adds	r5, r5, #4
 609              	.LVL86:
 610              	.L88:
 611              	.LBB9:
 612              	.LBB8:
 613              		.loc 1 72 0
 614 027a FFF7FEFF 		bl	long_to_string_with_divisor.constprop.0
 615              	.LVL87:
 616 027e 03AB     		add	r3, sp, #12
 617              	.LVL88:
 618 0280 C01A     		subs	r0, r0, r3
 619 0282 431E     		subs	r3, r0, #1
 620              	.LVL89:
 621              	.LBE8:
 622              	.LBE9:
 623              		.loc 1 144 0
 624 0284 03AC     		add	r4, sp, #12
 625              	.LVL90:
ARM GAS  /tmp/ccodQwgR.s 			page 12


 626              		.loc 1 245 0
 627 0286 C1E7     		b	.L37
 628              	.LVL91:
 629              	.L29:
 630 0288 0822     		movs	r2, #8
 631 028a F3E7     		b	.L89
 632              	.LVL92:
 633              	.L43:
 634              		.loc 1 211 0
 635 028c 2968     		ldr	r1, [r5]
 636              	.LVL93:
 637 028e 0435     		adds	r5, r5, #4
 638              		.loc 1 212 0
 639 0290 0029     		cmp	r1, #0
 640 0292 2EDB     		blt	.L100
 641              		.loc 1 143 0
 642 0294 03A8     		add	r0, sp, #12
 643              	.LVL94:
 644              	.L45:
 645              	.LBB10:
 646              	.LBB11:
 647              		.loc 1 72 0
 648 0296 0A22     		movs	r2, #10
 649 0298 EFE7     		b	.L88
 650              	.LVL95:
 651              	.L68:
 652              	.L36:
 653              	.LBE11:
 654              	.LBE10:
 655              		.loc 1 190 0
 656 029a 1022     		movs	r2, #16
 657 029c EAE7     		b	.L89
 658              	.LVL96:
 659              	.L65:
 660 029e 1A46     		mov	r2, r3
 661              	.LVL97:
 662              	.L26:
 663 02a0 019B     		ldr	r3, [sp, #4]
 664              		.loc 1 144 0
 665 02a2 03AC     		add	r4, sp, #12
 666              	.LVL98:
 667 02a4 1846     		mov	r0, r3
 668              		.loc 1 247 0
 669 02a6 8DF80C20 		strb	r2, [sp, #12]
 670 02aa 013B     		subs	r3, r3, #1
 671              		.loc 1 248 0
 672 02ac AEE7     		b	.L37
 673              	.LVL99:
 674              	.L49:
 675              		.loc 1 266 0
 676 02ae 009B     		ldr	r3, [sp]
 677 02b0 5646     		mov	r6, r10
 678              	.LVL100:
 679 02b2 002B     		cmp	r3, #0
 680 02b4 C8DA     		bge	.L58
 681              	.LVL101:
 682 02b6 B1E6     		b	.L12
ARM GAS  /tmp/ccodQwgR.s 			page 13


 683              	.LVL102:
 684              	.L99:
 685              		.loc 1 256 0 discriminator 1
 686 02b8 302F     		cmp	r7, #48
 687 02ba B6D1     		bne	.L50
 688              		.loc 1 257 0
 689 02bc D9F80030 		ldr	r3, [r9]
 690 02c0 4846     		mov	r0, r9
 691 02c2 9B68     		ldr	r3, [r3, #8]
 692 02c4 9847     		blx	r3
 693              	.LVL103:
 694 02c6 009B     		ldr	r3, [sp]
 695 02c8 0134     		adds	r4, r4, #1
 696              	.LVL104:
 697 02ca 013B     		subs	r3, r3, #1
 698              		.loc 1 258 0
 699 02cc 08F10108 		add	r8, r8, #1
 700              	.LVL105:
 701 02d0 0093     		str	r3, [sp]
 702              	.LVL106:
 703 02d2 AAE7     		b	.L50
 704              	.LVL107:
 705              	.L39:
 706              		.loc 1 201 0
 707 02d4 47F6FE71 		movw	r1, #32766
 708 02d8 002B     		cmp	r3, #0
 709 02da 7FF46CAF 		bne	.L57
 710              	.LVL108:
 711              	.L40:
 712 02de 26EAE676 		bic	r6, r6, r6, asr #31
 713              	.LVL109:
 714              		.loc 1 253 0
 715 02e2 BAF1000F 		cmp	r10, #0
 716 02e6 0BD1     		bne	.L71
 717 02e8 4FF0FF33 		mov	r3, #-1
 718 02ec 0093     		str	r3, [sp]
 719 02ee 2027     		movs	r7, #32
 720 02f0 93E7     		b	.L59
 721              	.LVL110:
 722              	.L100:
 723              		.loc 1 213 0
 724 02f2 2D23     		movs	r3, #45
 725              		.loc 1 214 0
 726 02f4 4942     		negs	r1, r1
 727              	.LVL111:
 728              		.loc 1 213 0
 729 02f6 8DF80C30 		strb	r3, [sp, #12]
 730 02fa 0DF10D00 		add	r0, sp, #13
 731              	.LVL112:
 732 02fe CAE7     		b	.L45
 733              	.LVL113:
 734              	.L71:
 735              		.loc 1 253 0
 736 0300 2027     		movs	r7, #32
 737 0302 6CE7     		b	.L53
 738              	.L102:
 739              		.align	2
ARM GAS  /tmp/ccodQwgR.s 			page 14


 740              	.L101:
 741 0304 00000000 		.word	.LC0
 742              		.cfi_endproc
 743              	.LFE209:
 744              		.size	chvprintf, .-chvprintf
 745 0308 AFF30080 		.section	.text.chprintf,"ax",%progbits
 745      AFF30080 
 746              		.align	2
 747              		.p2align 4,,15
 748              		.global	chprintf
 749              		.thumb
 750              		.thumb_func
 751              		.type	chprintf, %function
 752              	chprintf:
 753              	.LFB210:
 754              		.loc 1 302 0
 755              		.cfi_startproc
 756              		@ args = 4, pretend = 12, frame = 8
 757              		@ frame_needed = 0, uses_anonymous_args = 1
 758              	.LVL114:
 759 0000 0EB4     		push	{r1, r2, r3}
 760              		.cfi_def_cfa_offset 12
 761              		.cfi_offset 1, -12
 762              		.cfi_offset 2, -8
 763              		.cfi_offset 3, -4
 764 0002 00B5     		push	{lr}
 765              		.cfi_def_cfa_offset 16
 766              		.cfi_offset 14, -16
 767 0004 82B0     		sub	sp, sp, #8
 768              		.cfi_def_cfa_offset 24
 769              		.loc 1 302 0
 770 0006 03AB     		add	r3, sp, #12
 771 0008 53F8041B 		ldr	r1, [r3], #4
 772              		.loc 1 307 0
 773 000c 1A46     		mov	r2, r3
 774              		.loc 1 306 0
 775 000e 0193     		str	r3, [sp, #4]
 776              		.loc 1 307 0
 777 0010 FFF7FEFF 		bl	chvprintf
 778              	.LVL115:
 779              		.loc 1 311 0
 780 0014 02B0     		add	sp, sp, #8
 781              		.cfi_def_cfa_offset 16
 782              		@ sp needed
 783 0016 5DF804EB 		ldr	lr, [sp], #4
 784              		.cfi_restore 14
 785              		.cfi_def_cfa_offset 12
 786 001a 03B0     		add	sp, sp, #12
 787              		.cfi_restore 3
 788              		.cfi_restore 2
 789              		.cfi_restore 1
 790              		.cfi_def_cfa_offset 0
 791 001c 7047     		bx	lr
 792              		.cfi_endproc
 793              	.LFE210:
 794              		.size	chprintf, .-chprintf
 795 001e 00BF     		.section	.text.chsnprintf,"ax",%progbits
ARM GAS  /tmp/ccodQwgR.s 			page 15


 796              		.align	2
 797              		.p2align 4,,15
 798              		.global	chsnprintf
 799              		.thumb
 800              		.thumb_func
 801              		.type	chsnprintf, %function
 802              	chsnprintf:
 803              	.LFB211:
 804              		.loc 1 341 0
 805              		.cfi_startproc
 806              		@ args = 4, pretend = 8, frame = 24
 807              		@ frame_needed = 0, uses_anonymous_args = 1
 808              	.LVL116:
 809 0000 0CB4     		push	{r2, r3}
 810              		.cfi_def_cfa_offset 8
 811              		.cfi_offset 2, -8
 812              		.cfi_offset 3, -4
 813 0002 30B5     		push	{r4, r5, lr}
 814              		.cfi_def_cfa_offset 20
 815              		.cfi_offset 4, -20
 816              		.cfi_offset 5, -16
 817              		.cfi_offset 14, -12
 818 0004 0546     		mov	r5, r0
 819 0006 87B0     		sub	sp, sp, #28
 820              		.cfi_def_cfa_offset 48
 821              		.loc 1 348 0
 822 0008 0C46     		mov	r4, r1
 823 000a B1B1     		cbz	r1, .L106
 824              	.LVL117:
 825              		.loc 1 355 0
 826 000c 01A8     		add	r0, sp, #4
 827              	.LVL118:
 828 000e 2946     		mov	r1, r5
 829              	.LVL119:
 830 0010 621E     		subs	r2, r4, #1
 831              	.LVL120:
 832 0012 0023     		movs	r3, #0
 833 0014 FFF7FEFF 		bl	msObjectInit
 834              	.LVL121:
 835              		.loc 1 359 0
 836 0018 0BAB     		add	r3, sp, #44
 837              		.loc 1 360 0
 838 001a 1A46     		mov	r2, r3
 839 001c 01A8     		add	r0, sp, #4
 840              	.LVL122:
 841 001e 0A99     		ldr	r1, [sp, #40]
 842              		.loc 1 359 0
 843 0020 0093     		str	r3, [sp]
 844              		.loc 1 360 0
 845 0022 FFF7FEFF 		bl	chvprintf
 846              	.LVL123:
 847              		.loc 1 364 0
 848 0026 049B     		ldr	r3, [sp, #16]
 849 0028 9C42     		cmp	r4, r3
 850 002a 01D9     		bls	.L108
 851              		.loc 1 365 0
 852 002c 0022     		movs	r2, #0
ARM GAS  /tmp/ccodQwgR.s 			page 16


 853 002e EA54     		strb	r2, [r5, r3]
 854              	.L108:
 855              		.loc 1 369 0
 856 0030 07B0     		add	sp, sp, #28
 857              		.cfi_remember_state
 858              		.cfi_def_cfa_offset 20
 859              		@ sp needed
 860 0032 BDE83040 		pop	{r4, r5, lr}
 861              		.cfi_restore 14
 862              		.cfi_restore 5
 863              		.cfi_restore 4
 864              		.cfi_def_cfa_offset 8
 865              	.LVL124:
 866 0036 02B0     		add	sp, sp, #8
 867              		.cfi_restore 3
 868              		.cfi_restore 2
 869              		.cfi_def_cfa_offset 0
 870 0038 7047     		bx	lr
 871              	.LVL125:
 872              	.L106:
 873              		.cfi_restore_state
 874              		.loc 1 355 0
 875 003a 0146     		mov	r1, r0
 876              	.LVL126:
 877 003c 2246     		mov	r2, r4
 878 003e 01A8     		add	r0, sp, #4
 879              	.LVL127:
 880 0040 2346     		mov	r3, r4
 881 0042 FFF7FEFF 		bl	msObjectInit
 882              	.LVL128:
 883              		.loc 1 359 0
 884 0046 0BAB     		add	r3, sp, #44
 885              		.loc 1 360 0
 886 0048 01A8     		add	r0, sp, #4
 887              	.LVL129:
 888 004a 1A46     		mov	r2, r3
 889 004c 0A99     		ldr	r1, [sp, #40]
 890              		.loc 1 359 0
 891 004e 0093     		str	r3, [sp]
 892              		.loc 1 360 0
 893 0050 FFF7FEFF 		bl	chvprintf
 894              	.LVL130:
 895              		.loc 1 369 0
 896 0054 07B0     		add	sp, sp, #28
 897              		.cfi_def_cfa_offset 20
 898              		@ sp needed
 899 0056 BDE83040 		pop	{r4, r5, lr}
 900              		.cfi_restore 4
 901              		.cfi_restore 5
 902              		.cfi_restore 14
 903              		.cfi_def_cfa_offset 8
 904              	.LVL131:
 905 005a 02B0     		add	sp, sp, #8
 906              		.cfi_restore 2
 907              		.cfi_restore 3
 908              		.cfi_def_cfa_offset 0
 909 005c 7047     		bx	lr
ARM GAS  /tmp/ccodQwgR.s 			page 17


 910              		.cfi_endproc
 911              	.LFE211:
 912              		.size	chsnprintf, .-chsnprintf
 913 005e 00BF     		.section	.rodata.str1.4,"aMS",%progbits,1
 914              		.align	2
 915              	.LC0:
 916 0000 286E756C 		.ascii	"(null)\000"
 916      6C2900
 917 0007 00       		.text
 918              	.Letext0:
 919              		.file 2 "/usr/lib/gcc/arm-none-eabi/4.9.3/include/stddef.h"
 920              		.file 3 "/usr/include/newlib/machine/_default_types.h"
 921              		.file 4 "/usr/include/newlib/stdint.h"
 922              		.file 5 "/home/peter/ChibiOS_16.1.4/os/rt/ports/ARMCMx/compilers/GCC/chtypes.h"
 923              		.file 6 "/home/peter/ChibiOS_16.1.4/os/rt/include/chsystypes.h"
 924              		.file 7 "/home/peter/ChibiOS_16.1.4/os/rt/include/chschd.h"
 925              		.file 8 "/home/peter/ChibiOS_16.1.4/os/ext/CMSIS/ST/STM32F2xx/stm32f205xx.h"
 926              		.file 9 "/home/peter/ChibiOS_16.1.4/os/rt/ports/ARMCMx/chcore.h"
 927              		.file 10 "/home/peter/ChibiOS_16.1.4/os/rt/ports/ARMCMx/chcore_v7m.h"
 928              		.file 11 "/home/peter/ChibiOS_16.1.4/os/rt/include/chtm.h"
 929              		.file 12 "/home/peter/ChibiOS_16.1.4/os/rt/include/chsem.h"
 930              		.file 13 "/home/peter/ChibiOS_16.1.4/os/rt/include/chmtx.h"
 931              		.file 14 "/home/peter/ChibiOS_16.1.4/os/rt/include/chevents.h"
 932              		.file 15 "/home/peter/ChibiOS_16.1.4/os/rt/include/chqueues.h"
 933              		.file 16 "/home/peter/ChibiOS_16.1.4/os/hal/include/serial.h"
 934              		.file 17 "/usr/lib/gcc/arm-none-eabi/4.9.3/include/stdarg.h"
 935              		.file 18 "<built-in>"
 936              		.file 19 "/home/peter/ChibiOS_16.1.4/os/hal/lib/streams/memstreams.h"
 937              		.file 20 "/home/peter/ChibiOS_16.1.4/os/ext/CMSIS/include/core_cm3.h"