ARM GAS  /tmp/ccodQwgR.s 			page 1


   1              		.syntax unified
   2              		.cpu cortex-m3
   3              		.fpu softvfp
   4              		.eabi_attribute 20, 1
   5              		.eabi_attribute 21, 1
   6              		.eabi_attribute 23, 3
   7              		.eabi_attribute 24, 1
   8              		.eabi_attribute 25, 1
   9              		.eabi_attribute 26, 1
  10              		.eabi_attribute 30, 2
  11              		.eabi_attribute 34, 1
  12              		.eabi_attribute 18, 4
  13              		.thumb
  14              		.file	"chprintf.c"
  15              		.text
  16              	.Ltext0:
  17              		.cfi_sections	.debug_frame
  18              		.section	.text.long_to_string_with_divisor.constprop.0,"ax",%progbits
  19              		.align	2
  20              		.p2align 4,,15
  21              		.thumb
  22              		.thumb_func
  23              		.type	long_to_string_with_divisor.constprop.0, %function
  24              	long_to_string_with_divisor.constprop.0:
  25              	.LFB212:
  26              		.file 1 "/home/peter/ChibiOS_16.1.4/os/hal/lib/streams/chprintf.c"
  27              		.loc 1 37 0
  28              		.cfi_startproc
  29              		@ args = 0, pretend = 0, frame = 0
  30              		@ frame_needed = 0, uses_anonymous_args = 0
  31              		@ link register save eliminated.
  32              	.LVL0:
  33 0000 F0B4     		push	{r4, r5, r6, r7}
  34              		.cfi_def_cfa_offset 16
  35              		.cfi_offset 4, -16
  36              		.cfi_offset 5, -12
  37              		.cfi_offset 6, -8
  38              		.cfi_offset 7, -4
  39              		.loc 1 52 0
  40 0002 00F10B07 		add	r7, r0, #11
  41              	.LVL1:
  42 0006 3C46     		mov	r4, r7
  43 0008 0D46     		mov	r5, r1
  44              	.LVL2:
  45              	.L3:
  46              		.loc 1 54 0
  47 000a B1FBF2F6 		udiv	r6, r1, r2
  48              		.loc 1 60 0
  49 000e B5FBF2F5 		udiv	r5, r5, r2
  50              	.LVL3:
  51              		.loc 1 54 0
  52 0012 02FB1611 		mls	r1, r2, r6, r1
  53              	.LVL4:
  54              		.loc 1 55 0
  55 0016 01F13003 		add	r3, r1, #48
  56              	.LVL5:
  57              		.loc 1 56 0
ARM GAS  /tmp/ccodQwgR.s 			page 2


  58 001a 392B     		cmp	r3, #57
  59              		.loc 1 57 0
  60 001c C8BF     		it	gt
  61 001e 01F13703 		addgt	r3, r1, #55
  62              	.LVL6:
  63              		.loc 1 58 0
  64 0022 DBB2     		uxtb	r3, r3
  65              	.LVL7:
  66 0024 04F8013D 		strb	r3, [r4, #-1]!
  67              	.LVL8:
  68              		.loc 1 59 0
  69 0028 3146     		mov	r1, r6
  70              	.LVL9:
  71              		.loc 1 60 0
  72 002a 002D     		cmp	r5, #0
  73 002c EDD1     		bne	.L3
  74              	.LVL10:
  75              		.loc 1 62 0
  76 002e 3A1B     		subs	r2, r7, r4
  77              	.LVL11:
  78 0030 0244     		add	r2, r2, r0
  79 0032 01E0     		b	.L5
  80              	.LVL12:
  81              	.L10:
  82 0034 14F8013F 		ldrb	r3, [r4, #1]!	@ zero_extendqisi2
  83              	.LVL13:
  84              	.L5:
  85              		.loc 1 64 0
  86 0038 00F8013B 		strb	r3, [r0], #1
  87              	.LVL14:
  88              		.loc 1 65 0
  89 003c 9042     		cmp	r0, r2
  90 003e F9D1     		bne	.L10
  91              		.loc 1 68 0
  92 0040 F0BC     		pop	{r4, r5, r6, r7}
  93              		.cfi_restore 7
  94              		.cfi_restore 6
  95              		.cfi_restore 5
  96              		.cfi_restore 4
  97              		.cfi_def_cfa_offset 0
  98              	.LVL15:
  99 0042 7047     		bx	lr
 100              		.cfi_endproc
 101              	.LFE212:
 102              		.size	long_to_string_with_divisor.constprop.0, .-long_to_string_with_divisor.constprop.0
 103 0044 AFF30080 		.section	.text.chvprintf,"ax",%progbits
 103      AFF30080 
 103      AFF30080 
 104              		.align	2
 105              		.p2align 4,,15
 106              		.global	chvprintf
 107              		.thumb
 108              		.thumb_func
 109              		.type	chvprintf, %function
 110              	chvprintf:
 111              	.LFB209:
 112              		.loc 1 121 0
ARM GAS  /tmp/ccodQwgR.s 			page 3


 113              		.cfi_startproc
 114              		@ args = 0, pretend = 0, frame = 24
 115              		@ frame_needed = 0, uses_anonymous_args = 0
 116              	.LVL16:
 117 0000 2DE9F04F 		push	{r4, r5, r6, r7, r8, r9, r10, fp, lr}
 118              		.cfi_def_cfa_offset 36
 119              		.cfi_offset 4, -36
 120              		.cfi_offset 5, -32
 121              		.cfi_offset 6, -28
 122              		.cfi_offset 7, -24
 123              		.cfi_offset 8, -20
 124              		.cfi_offset 9, -16
 125              		.cfi_offset 10, -12
 126              		.cfi_offset 11, -8
 127              		.cfi_offset 14, -4
 128 0004 8146     		mov	r9, r0
 129 0006 8A46     		mov	r10, r1
 130              		.loc 1 124 0
 131 0008 8B46     		mov	fp, r1
 132              		.loc 1 121 0
 133 000a 87B0     		sub	sp, sp, #28
 134              		.cfi_def_cfa_offset 64
 135              		.loc 1 121 0
 136 000c 1546     		mov	r5, r2
 137              	.LVL17:
 138 000e 0DF10D03 		add	r3, sp, #13
 139 0012 03AA     		add	r2, sp, #12
 140              	.LVL18:
 141 0014 9B1A     		subs	r3, r3, r2
 142 0016 0193     		str	r3, [sp, #4]
 143              		.loc 1 124 0
 144 0018 4FF00008 		mov	r8, #0
 145              	.LVL19:
 146              	.L12:
 147              		.loc 1 135 0
 148 001c 9BF80010 		ldrb	r1, [fp]	@ zero_extendqisi2
 149 0020 0BF10103 		add	r3, fp, #1
 150              	.LVL20:
 151              		.loc 1 136 0
 152 0024 79B1     		cbz	r1, .L82
 153              	.L93:
 154              		.loc 1 138 0
 155 0026 2529     		cmp	r1, #37
 156 0028 11D0     		beq	.L14
 157              		.loc 1 135 0
 158 002a 9B46     		mov	fp, r3
 159              		.loc 1 139 0
 160 002c D9F80020 		ldr	r2, [r9]
 161 0030 4846     		mov	r0, r9
 162 0032 9268     		ldr	r2, [r2, #8]
 163 0034 9047     		blx	r2
 164              	.LVL21:
 165              		.loc 1 135 0
 166 0036 9BF80010 		ldrb	r1, [fp]	@ zero_extendqisi2
 167              		.loc 1 140 0
 168 003a 08F10108 		add	r8, r8, #1
 169              	.LVL22:
ARM GAS  /tmp/ccodQwgR.s 			page 4


 170              		.loc 1 135 0
 171 003e 0BF10103 		add	r3, fp, #1
 172              	.LVL23:
 173              		.loc 1 136 0
 174 0042 0029     		cmp	r1, #0
 175 0044 EFD1     		bne	.L93
 176              	.L82:
 177              		.loc 1 277 0
 178 0046 4046     		mov	r0, r8
 179 0048 07B0     		add	sp, sp, #28
 180              		.cfi_remember_state
 181              		.cfi_def_cfa_offset 36
 182              		@ sp needed
 183 004a BDE8F08F 		pop	{r4, r5, r6, r7, r8, r9, r10, fp, pc}
 184              	.LVL24:
 185              	.L14:
 186              		.cfi_restore_state
 187              		.loc 1 146 0
 188 004e 9BF80120 		ldrb	r2, [fp, #1]	@ zero_extendqisi2
 189              		.loc 1 155 0
 190 0052 0026     		movs	r6, #0
 191              		.loc 1 146 0
 192 0054 2D2A     		cmp	r2, #45
 193 0056 03BF     		ittte	eq
 194 0058 9BF80220 		ldrbeq	r2, [fp, #2]	@ zero_extendqisi2
 195              		.loc 1 147 0
 196 005c 0BF10203 		addeq	r3, fp, #2
 197              	.LVL25:
 198              		.loc 1 148 0
 199 0060 4FF0010A 		moveq	r10, #1
 200              		.loc 1 145 0
 201 0064 4FF0000A 		movne	r10, #0
 202              	.LVL26:
 203              		.loc 1 151 0
 204 0068 302A     		cmp	r2, #48
 205 006a 03BF     		ittte	eq
 206 006c 5A78     		ldrbeq	r2, [r3, #1]	@ zero_extendqisi2
 207              		.loc 1 152 0
 208 006e 0133     		addeq	r3, r3, #1
 209              	.LVL27:
 210              		.loc 1 153 0
 211 0070 3027     		moveq	r7, #48
 212              		.loc 1 150 0
 213 0072 2027     		movne	r7, #32
 214              	.LVL28:
 215 0074 591C     		adds	r1, r3, #1
 216              	.LVL29:
 217 0076 06E0     		b	.L20
 218              	.LVL30:
 219              	.L94:
 220              		.loc 1 161 0
 221 0078 2B78     		ldrb	r3, [r5]	@ zero_extendqisi2
 222              	.LVL31:
 223 007a 0435     		adds	r5, r5, #4
 224              	.LVL32:
 225              	.L18:
 226 007c 9BF80020 		ldrb	r2, [fp]	@ zero_extendqisi2
ARM GAS  /tmp/ccodQwgR.s 			page 5


 227              		.loc 1 164 0
 228 0080 03EB4006 		add	r6, r3, r0, lsl #1
 229              	.LVL33:
 230 0084 0131     		adds	r1, r1, #1
 231              	.LVL34:
 232              	.L20:
 233              		.loc 1 158 0
 234 0086 A2F13003 		sub	r3, r2, #48
 235 008a DBB2     		uxtb	r3, r3
 236 008c 092B     		cmp	r3, #9
 237              		.loc 1 157 0
 238 008e 8B46     		mov	fp, r1
 239              	.LVL35:
 240              		.loc 1 164 0
 241 0090 06EB8600 		add	r0, r6, r6, lsl #2
 242              		.loc 1 158 0
 243 0094 F2D9     		bls	.L18
 244              		.loc 1 160 0
 245 0096 2A2A     		cmp	r2, #42
 246 0098 EED0     		beq	.L94
 247              	.LVL36:
 248              		.loc 1 167 0
 249 009a 2E2A     		cmp	r2, #46
 250 009c 4FF00001 		mov	r1, #0
 251              	.LVL37:
 252 00a0 43D0     		beq	.L23
 253              	.LVL38:
 254              		.loc 1 181 0
 255 00a2 02F0DF03 		and	r3, r2, #223
 256 00a6 4C2B     		cmp	r3, #76
 257 00a8 4ED0     		beq	.L95
 258              	.L83:
 259              		.loc 1 190 0
 260 00aa A2F14400 		sub	r0, r2, #68
 261 00ae 3428     		cmp	r0, #52
 262 00b0 00F2F680 		bhi	.L26
 263 00b4 DFE810F0 		tbh	[pc, r0, lsl #1]
 264              	.L35:
 265 00b8 EA00     		.2byte	(.L43-.L35)/2
 266 00ba F400     		.2byte	(.L26-.L35)/2
 267 00bc F400     		.2byte	(.L26-.L35)/2
 268 00be F400     		.2byte	(.L26-.L35)/2
 269 00c0 F400     		.2byte	(.L26-.L35)/2
 270 00c2 EA00     		.2byte	(.L43-.L35)/2
 271 00c4 F400     		.2byte	(.L26-.L35)/2
 272 00c6 F400     		.2byte	(.L26-.L35)/2
 273 00c8 F400     		.2byte	(.L26-.L35)/2
 274 00ca F400     		.2byte	(.L26-.L35)/2
 275 00cc F400     		.2byte	(.L26-.L35)/2
 276 00ce E800     		.2byte	(.L29-.L35)/2
 277 00d0 F400     		.2byte	(.L26-.L35)/2
 278 00d2 F400     		.2byte	(.L26-.L35)/2
 279 00d4 F400     		.2byte	(.L26-.L35)/2
 280 00d6 F400     		.2byte	(.L26-.L35)/2
 281 00d8 F400     		.2byte	(.L26-.L35)/2
 282 00da DD00     		.2byte	(.L30-.L35)/2
 283 00dc F400     		.2byte	(.L26-.L35)/2
ARM GAS  /tmp/ccodQwgR.s 			page 6


 284 00de F400     		.2byte	(.L26-.L35)/2
 285 00e0 F100     		.2byte	(.L68-.L35)/2
 286 00e2 F400     		.2byte	(.L26-.L35)/2
 287 00e4 F400     		.2byte	(.L26-.L35)/2
 288 00e6 F400     		.2byte	(.L26-.L35)/2
 289 00e8 F400     		.2byte	(.L26-.L35)/2
 290 00ea F400     		.2byte	(.L26-.L35)/2
 291 00ec F400     		.2byte	(.L26-.L35)/2
 292 00ee F400     		.2byte	(.L26-.L35)/2
 293 00f0 F400     		.2byte	(.L26-.L35)/2
 294 00f2 F400     		.2byte	(.L26-.L35)/2
 295 00f4 F400     		.2byte	(.L26-.L35)/2
 296 00f6 A100     		.2byte	(.L32-.L35)/2
 297 00f8 EA00     		.2byte	(.L43-.L35)/2
 298 00fa F400     		.2byte	(.L26-.L35)/2
 299 00fc F400     		.2byte	(.L26-.L35)/2
 300 00fe F400     		.2byte	(.L26-.L35)/2
 301 0100 F400     		.2byte	(.L26-.L35)/2
 302 0102 EA00     		.2byte	(.L43-.L35)/2
 303 0104 F400     		.2byte	(.L26-.L35)/2
 304 0106 F400     		.2byte	(.L26-.L35)/2
 305 0108 F400     		.2byte	(.L26-.L35)/2
 306 010a F400     		.2byte	(.L26-.L35)/2
 307 010c F400     		.2byte	(.L26-.L35)/2
 308 010e E800     		.2byte	(.L29-.L35)/2
 309 0110 F400     		.2byte	(.L26-.L35)/2
 310 0112 F400     		.2byte	(.L26-.L35)/2
 311 0114 F400     		.2byte	(.L26-.L35)/2
 312 0116 7100     		.2byte	(.L33-.L35)/2
 313 0118 F400     		.2byte	(.L26-.L35)/2
 314 011a DD00     		.2byte	(.L30-.L35)/2
 315 011c F400     		.2byte	(.L26-.L35)/2
 316 011e F400     		.2byte	(.L26-.L35)/2
 317 0120 F100     		.2byte	(.L68-.L35)/2
 318              	.LVL39:
 319              		.p2align 1
 320              	.L96:
 321              		.loc 1 173 0
 322 0122 2B78     		ldrb	r3, [r5]	@ zero_extendqisi2
 323              	.LVL40:
 324 0124 0435     		adds	r5, r5, #4
 325              	.LVL41:
 326              	.L22:
 327              		.loc 1 177 0
 328 0126 03EB4001 		add	r1, r3, r0, lsl #1
 329              	.LVL42:
 330              	.L23:
 331              		.loc 1 169 0
 332 012a 1BF8012B 		ldrb	r2, [fp], #1	@ zero_extendqisi2
 333              	.LVL43:
 334              		.loc 1 176 0
 335 012e 01EB8100 		add	r0, r1, r1, lsl #2
 336              		.loc 1 170 0
 337 0132 A2F13003 		sub	r3, r2, #48
 338 0136 DBB2     		uxtb	r3, r3
 339 0138 092B     		cmp	r3, #9
 340 013a F4D9     		bls	.L22
ARM GAS  /tmp/ccodQwgR.s 			page 7


 341              		.loc 1 172 0
 342 013c 2A2A     		cmp	r2, #42
 343 013e F0D0     		beq	.L96
 344              	.LVL44:
 345              		.loc 1 181 0
 346 0140 02F0DF03 		and	r3, r2, #223
 347 0144 4C2B     		cmp	r3, #76
 348 0146 B0D1     		bne	.L83
 349              	.L95:
 350              	.LVL45:
 351              		.loc 1 183 0
 352 0148 9BF80030 		ldrb	r3, [fp]	@ zero_extendqisi2
 353 014c 002B     		cmp	r3, #0
 354 014e 00F0A780 		beq	.L26
 355              		.loc 1 190 0
 356 0152 A3F14402 		sub	r2, r3, #68
 357              	.LVL46:
 358              		.loc 1 184 0
 359 0156 0BF1010B 		add	fp, fp, #1
 360              	.LVL47:
 361              		.loc 1 190 0
 362 015a 342A     		cmp	r2, #52
 363 015c 00F29F80 		bhi	.L65
 364 0160 DFE802F0 		tbb	[pc, r2]
 365              	.L28:
 366 0164 94       		.byte	(.L43-.L28)/2
 367 0165 9D       		.byte	(.L65-.L28)/2
 368 0166 9D       		.byte	(.L65-.L28)/2
 369 0167 9D       		.byte	(.L65-.L28)/2
 370 0168 9D       		.byte	(.L65-.L28)/2
 371 0169 94       		.byte	(.L43-.L28)/2
 372 016a 9D       		.byte	(.L65-.L28)/2
 373 016b 9D       		.byte	(.L65-.L28)/2
 374 016c 9D       		.byte	(.L65-.L28)/2
 375 016d 9D       		.byte	(.L65-.L28)/2
 376 016e 9D       		.byte	(.L65-.L28)/2
 377 016f 92       		.byte	(.L29-.L28)/2
 378 0170 9D       		.byte	(.L65-.L28)/2
 379 0171 9D       		.byte	(.L65-.L28)/2
 380 0172 9D       		.byte	(.L65-.L28)/2
 381 0173 9D       		.byte	(.L65-.L28)/2
 382 0174 9D       		.byte	(.L65-.L28)/2
 383 0175 87       		.byte	(.L30-.L28)/2
 384 0176 9D       		.byte	(.L65-.L28)/2
 385 0177 9D       		.byte	(.L65-.L28)/2
 386 0178 9B       		.byte	(.L68-.L28)/2
 387 0179 9D       		.byte	(.L65-.L28)/2
 388 017a 9D       		.byte	(.L65-.L28)/2
 389 017b 9D       		.byte	(.L65-.L28)/2
 390 017c 9D       		.byte	(.L65-.L28)/2
 391 017d 9D       		.byte	(.L65-.L28)/2
 392 017e 9D       		.byte	(.L65-.L28)/2
 393 017f 9D       		.byte	(.L65-.L28)/2
 394 0180 9D       		.byte	(.L65-.L28)/2
 395 0181 9D       		.byte	(.L65-.L28)/2
 396 0182 9D       		.byte	(.L65-.L28)/2
 397 0183 4B       		.byte	(.L32-.L28)/2
ARM GAS  /tmp/ccodQwgR.s 			page 8


 398 0184 94       		.byte	(.L43-.L28)/2
 399 0185 9D       		.byte	(.L65-.L28)/2
 400 0186 9D       		.byte	(.L65-.L28)/2
 401 0187 9D       		.byte	(.L65-.L28)/2
 402 0188 9D       		.byte	(.L65-.L28)/2
 403 0189 94       		.byte	(.L43-.L28)/2
 404 018a 9D       		.byte	(.L65-.L28)/2
 405 018b 9D       		.byte	(.L65-.L28)/2
 406 018c 9D       		.byte	(.L65-.L28)/2
 407 018d 9D       		.byte	(.L65-.L28)/2
 408 018e 9D       		.byte	(.L65-.L28)/2
 409 018f 92       		.byte	(.L29-.L28)/2
 410 0190 9D       		.byte	(.L65-.L28)/2
 411 0191 9D       		.byte	(.L65-.L28)/2
 412 0192 9D       		.byte	(.L65-.L28)/2
 413 0193 1B       		.byte	(.L33-.L28)/2
 414 0194 9D       		.byte	(.L65-.L28)/2
 415 0195 87       		.byte	(.L30-.L28)/2
 416 0196 9D       		.byte	(.L65-.L28)/2
 417 0197 9D       		.byte	(.L65-.L28)/2
 418 0198 9B       		.byte	(.L68-.L28)/2
 419              	.LVL48:
 420 0199 00       		.p2align 1
 421              	.L33:
 422              		.loc 1 197 0
 423 019a 2C68     		ldr	r4, [r5]
 424              		.loc 1 198 0
 425 019c 594B     		ldr	r3, .L101
 426              		.loc 1 197 0
 427 019e 0435     		adds	r5, r5, #4
 428              	.LVL49:
 429              		.loc 1 198 0
 430 01a0 002C     		cmp	r4, #0
 431 01a2 08BF     		it	eq
 432 01a4 1C46     		moveq	r4, r3
 433              	.LVL50:
 434              		.loc 1 201 0
 435 01a6 2378     		ldrb	r3, [r4]	@ zero_extendqisi2
 436              		.loc 1 199 0
 437 01a8 0029     		cmp	r1, #0
 438 01aa 00F09380 		beq	.L39
 439              	.LVL51:
 440              		.loc 1 201 0 discriminator 1
 441 01ae 002B     		cmp	r3, #0
 442 01b0 00F09580 		beq	.L40
 443              		.loc 1 201 0 is_stmt 0
 444 01b4 0139     		subs	r1, r1, #1
 445              	.LVL52:
 446              	.L57:
 447              		.loc 1 201 0 discriminator 4
 448 01b6 2046     		mov	r0, r4
 449 01b8 01E0     		b	.L42
 450              	.LVL53:
 451              	.L97:
 452              		.loc 1 201 0 discriminator 3
 453 01ba 0139     		subs	r1, r1, #1
 454              	.LVL54:
ARM GAS  /tmp/ccodQwgR.s 			page 9


 455 01bc 03D4     		bmi	.L87
 456              	.LVL55:
 457              	.L42:
 458              		.loc 1 201 0 discriminator 4
 459 01be 10F8013F 		ldrb	r3, [r0, #1]!	@ zero_extendqisi2
 460              	.LVL56:
 461 01c2 002B     		cmp	r3, #0
 462 01c4 F9D1     		bne	.L97
 463              	.LVL57:
 464              	.L87:
 465 01c6 001B     		subs	r0, r0, r4
 466              	.LVL58:
 467              		.loc 1 251 0 is_stmt 1
 468 01c8 361A     		subs	r6, r6, r0
 469              	.LVL59:
 470 01ca 431E     		subs	r3, r0, #1
 471              		.loc 1 196 0
 472 01cc 2027     		movs	r7, #32
 473              	.LVL60:
 474 01ce 26EAE676 		bic	r6, r6, r6, asr #31
 475              	.LVL61:
 476              		.loc 1 253 0
 477 01d2 BAF1000F 		cmp	r10, #0
 478 01d6 1FD0     		beq	.L98
 479              	.L48:
 480              	.LVL62:
 481              		.loc 1 266 0
 482 01d8 002B     		cmp	r3, #0
 483 01da 0093     		str	r3, [sp]
 484 01dc 34DA     		bge	.L58
 485              	.LVL63:
 486              	.L53:
 487              		.loc 1 271 0
 488 01de 002E     		cmp	r6, #0
 489 01e0 3FF41CAF 		beq	.L12
 490 01e4 3446     		mov	r4, r6
 491              	.LVL64:
 492              	.L55:
 493              		.loc 1 272 0
 494 01e6 D9F80030 		ldr	r3, [r9]
 495 01ea 4846     		mov	r0, r9
 496 01ec 9B68     		ldr	r3, [r3, #8]
 497 01ee 3946     		mov	r1, r7
 498 01f0 9847     		blx	r3
 499              	.LVL65:
 500              		.loc 1 271 0
 501 01f2 013C     		subs	r4, r4, #1
 502              	.LVL66:
 503 01f4 F7D1     		bne	.L55
 504 01f6 B044     		add	r8, r8, r6
 505 01f8 10E7     		b	.L12
 506              	.LVL67:
 507              	.L32:
 508 01fa 019A     		ldr	r2, [sp, #4]
 509              		.loc 1 193 0
 510 01fc 2B68     		ldr	r3, [r5]
 511 01fe 1046     		mov	r0, r2
ARM GAS  /tmp/ccodQwgR.s 			page 10


 512 0200 8DF80C30 		strb	r3, [sp, #12]
 513 0204 0435     		adds	r5, r5, #4
 514 0206 531E     		subs	r3, r2, #1
 515              		.loc 1 192 0
 516 0208 2027     		movs	r7, #32
 517              		.loc 1 144 0
 518 020a 03AC     		add	r4, sp, #12
 519              	.LVL68:
 520              	.L37:
 521              		.loc 1 251 0
 522 020c 361A     		subs	r6, r6, r0
 523              	.LVL69:
 524 020e 26EAE676 		bic	r6, r6, r6, asr #31
 525              	.LVL70:
 526              		.loc 1 253 0
 527 0212 BAF1000F 		cmp	r10, #0
 528 0216 DFD1     		bne	.L48
 529              	.L98:
 530 0218 0093     		str	r3, [sp]
 531              	.LVL71:
 532              	.L59:
 533              		.loc 1 254 0
 534 021a C6F1000A 		rsb	r10, r6, #0
 535              	.LVL72:
 536              		.loc 1 255 0
 537 021e BAF1000F 		cmp	r10, #0
 538 0222 44D0     		beq	.L49
 539              		.loc 1 256 0
 540 0224 2178     		ldrb	r1, [r4]	@ zero_extendqisi2
 541 0226 2D29     		cmp	r1, #45
 542 0228 46D0     		beq	.L99
 543              	.L50:
 544              		.loc 1 258 0 discriminator 1
 545 022a 5646     		mov	r6, r10
 546              	.LVL73:
 547              	.L51:
 548              		.loc 1 262 0 discriminator 1
 549 022c D9F80030 		ldr	r3, [r9]
 550 0230 4846     		mov	r0, r9
 551 0232 9B68     		ldr	r3, [r3, #8]
 552 0234 3946     		mov	r1, r7
 553 0236 9847     		blx	r3
 554              	.LVL74:
 555              		.loc 1 264 0 discriminator 1
 556 0238 0136     		adds	r6, r6, #1
 557              	.LVL75:
 558 023a F7D1     		bne	.L51
 559              		.loc 1 266 0
 560 023c 009B     		ldr	r3, [sp]
 561 023e CAEB0808 		rsb	r8, r10, r8
 562              	.LVL76:
 563 0242 002B     		cmp	r3, #0
 564 0244 FFF6EAAE 		blt	.L12
 565              	.LVL77:
 566              	.L58:
 567 0248 DDF800A0 		ldr	r10, [sp]
 568              	.LVL78:
ARM GAS  /tmp/ccodQwgR.s 			page 11


 569              	.L54:
 570              		.loc 1 267 0
 571 024c D9F80030 		ldr	r3, [r9]
 572              		.loc 1 266 0
 573 0250 0AF1FF3A 		add	r10, r10, #-1
 574              	.LVL79:
 575              		.loc 1 267 0
 576 0254 9B68     		ldr	r3, [r3, #8]
 577 0256 4846     		mov	r0, r9
 578 0258 14F8011B 		ldrb	r1, [r4], #1	@ zero_extendqisi2
 579              	.LVL80:
 580 025c 9847     		blx	r3
 581              	.LVL81:
 582              		.loc 1 266 0
 583 025e BAF1FF3F 		cmp	r10, #-1
 584 0262 F3D1     		bne	.L54
 585 0264 009B     		ldr	r3, [sp]
 586 0266 08F10108 		add	r8, r8, #1
 587 026a 002B     		cmp	r3, #0
 588 026c A8BF     		it	ge
 589 026e 9844     		addge	r8, r8, r3
 590 0270 B5E7     		b	.L53
 591              	.LVL82:
 592              	.L30:
 593              		.loc 1 235 0
 594 0272 0A22     		movs	r2, #10
 595              	.LVL83:
 596              	.L89:
 597              		.loc 1 243 0
 598 0274 2968     		ldr	r1, [r5]
 599              	.LVL84:
 600              	.LBB6:
 601              	.LBB7:
 602              		.loc 1 72 0
 603 0276 03A8     		add	r0, sp, #12
 604              	.LVL85:
 605              	.LBE7:
 606              	.LBE6:
 607              		.loc 1 243 0
 608 0278 0435     		adds	r5, r5, #4
 609              	.LVL86:
 610              	.L88:
 611              	.LBB9:
 612              	.LBB8:
 613              		.loc 1 72 0
 614 027a FFF7FEFF 		bl	long_to_string_with_divisor.constprop.0
 615              	.LVL87:
 616 027e 03AB     		add	r3, sp, #12
 617              	.LVL88:
 618 0280 C01A     		subs	r0, r0, r3
 619 0282 431E     		subs	r3, r0, #1
 620              	.LVL89:
 621              	.LBE8:
 622              	.LBE9:
 623              		.loc 1 144 0
 624 0284 03AC     		add	r4, sp, #12
 625              	.LVL90:
ARM GAS  /tmp/ccodQwgR.s 			page 12


 626              		.loc 1 245 0
 627 0286 C1E7     		b	.L37
 628              	.LVL91:
 629              	.L29:
 630 0288 0822     		movs	r2, #8
 631 028a F3E7     		b	.L89
 632              	.LVL92:
 633              	.L43:
 634              		.loc 1 211 0
 635 028c 2968     		ldr	r1, [r5]
 636              	.LVL93:
 637 028e 0435     		adds	r5, r5, #4
 638              		.loc 1 212 0
 639 0290 0029     		cmp	r1, #0
 640 0292 2EDB     		blt	.L100
 641              		.loc 1 143 0
 642 0294 03A8     		add	r0, sp, #12
 643              	.LVL94:
 644              	.L45:
 645              	.LBB10:
 646              	.LBB11:
 647              		.loc 1 72 0
 648 0296 0A22     		movs	r2, #10
 649 0298 EFE7     		b	.L88
 650              	.LVL95:
 651              	.L68:
 652              	.L36:
 653              	.LBE11:
 654              	.LBE10:
 655              		.loc 1 190 0
 656 029a 1022     		movs	r2, #16
 657 029c EAE7     		b	.L89
 658              	.LVL96:
 659              	.L65:
 660 029e 1A46     		mov	r2, r3
 661              	.LVL97:
 662              	.L26:
 663 02a0 019B     		ldr	r3, [sp, #4]
 664              		.loc 1 144 0
 665 02a2 03AC     		add	r4, sp, #12
 666              	.LVL98:
 667 02a4 1846     		mov	r0, r3
 668              		.loc 1 247 0
 669 02a6 8DF80C20 		strb	r2, [sp, #12]
 670 02aa 013B     		subs	r3, r3, #1
 671              		.loc 1 248 0
 672 02ac AEE7     		b	.L37
 673              	.LVL99:
 674              	.L49:
 675              		.loc 1 266 0
 676 02ae 009B     		ldr	r3, [sp]
 677 02b0 5646     		mov	r6, r10
 678              	.LVL100:
 679 02b2 002B     		cmp	r3, #0
 680 02b4 C8DA     		bge	.L58
 681              	.LVL101:
 682 02b6 B1E6     		b	.L12
ARM GAS  /tmp/ccodQwgR.s 			page 13


 683              	.LVL102:
 684              	.L99:
 685              		.loc 1 256 0 discriminator 1
 686 02b8 302F     		cmp	r7, #48
 687 02ba B6D1     		bne	.L50
 688              		.loc 1 257 0
 689 02bc D9F80030 		ldr	r3, [r9]
 690 02c0 4846     		mov	r0, r9
 691 02c2 9B68     		ldr	r3, [r3, #8]
 692 02c4 9847     		blx	r3
 693              	.LVL103:
 694 02c6 009B     		ldr	r3, [sp]
 695 02c8 0134     		adds	r4, r4, #1
 696              	.LVL104:
 697 02ca 013B     		subs	r3, r3, #1
 698              		.loc 1 258 0
 699 02cc 08F10108 		add	r8, r8, #1
 700              	.LVL105:
 701 02d0 0093     		str	r3, [sp]
 702              	.LVL106:
 703 02d2 AAE7     		b	.L50
 704              	.LVL107:
 705              	.L39:
 706              		.loc 1 201 0
 707 02d4 47F6FE71 		movw	r1, #32766
 708 02d8 002B     		cmp	r3, #0
 709 02da 7FF46CAF 		bne	.L57
 710              	.LVL108:
 711              	.L40:
 712 02de 26EAE676 		bic	r6, r6, r6, asr #31
 713              	.LVL109:
 714              		.loc 1 253 0
 715 02e2 BAF1000F 		cmp	r10, #0
 716 02e6 0BD1     		bne	.L71
 717 02e8 4FF0FF33 		mov	r3, #-1
 718 02ec 0093     		str	r3, [sp]
 719 02ee 2027     		movs	r7, #32
 720 02f0 93E7     		b	.L59
 721              	.LVL110:
 722              	.L100:
 723              		.loc 1 213 0
 724 02f2 2D23     		movs	r3, #45
 725              		.loc 1 214 0
 726 02f4 4942     		negs	r1, r1
 727              	.LVL111:
 728              		.loc 1 213 0
 729 02f6 8DF80C30 		strb	r3, [sp, #12]
 730 02fa 0DF10D00 		add	r0, sp, #13
 731              	.LVL112:
 732 02fe CAE7     		b	.L45
 733              	.LVL113:
 734              	.L71:
 735              		.loc 1 253 0
 736 0300 2027     		movs	r7, #32
 737 0302 6CE7     		b	.L53
 738              	.L102:
 739              		.align	2
ARM GAS  /tmp/ccodQwgR.s 			page 14


 740              	.L101:
 741 0304 00000000 		.word	.LC0
 742              		.cfi_endproc
 743              	.LFE209:
 744              		.size	chvprintf, .-chvprintf
 745 0308 AFF30080 		.section	.text.chprintf,"ax",%progbits
 745      AFF30080 
 746              		.align	2
 747              		.p2align 4,,15
 748              		.global	chprintf
 749              		.thumb
 750              		.thumb_func
 751              		.type	chprintf, %function
 752              	chprintf:
 753              	.LFB210:
 754              		.loc 1 302 0
 755              		.cfi_startproc
 756              		@ args = 4, pretend = 12, frame = 8
 757              		@ frame_needed = 0, uses_anonymous_args = 1
 758              	.LVL114:
 759 0000 0EB4     		push	{r1, r2, r3}
 760              		.cfi_def_cfa_offset 12
 761              		.cfi_offset 1, -12
 762              		.cfi_offset 2, -8
 763              		.cfi_offset 3, -4
 764 0002 00B5     		push	{lr}
 765              		.cfi_def_cfa_offset 16
 766              		.cfi_offset 14, -16
 767 0004 82B0     		sub	sp, sp, #8
 768              		.cfi_def_cfa_offset 24
 769              		.loc 1 302 0
 770 0006 03AB     		add	r3, sp, #12
 771 0008 53F8041B 		ldr	r1, [r3], #4
 772              		.loc 1 307 0
 773 000c 1A46     		mov	r2, r3
 774              		.loc 1 306 0
 775 000e 0193     		str	r3, [sp, #4]
 776              		.loc 1 307 0
 777 0010 FFF7FEFF 		bl	chvprintf
 778              	.LVL115:
 779              		.loc 1 311 0
 780 0014 02B0     		add	sp, sp, #8
 781              		.cfi_def_cfa_offset 16
 782              		@ sp needed
 783 0016 5DF804EB 		ldr	lr, [sp], #4
 784              		.cfi_restore 14
 785              		.cfi_def_cfa_offset 12
 786 001a 03B0     		add	sp, sp, #12
 787              		.cfi_restore 3
 788              		.cfi_restore 2
 789              		.cfi_restore 1
 790              		.cfi_def_cfa_offset 0
 791 001c 7047     		bx	lr
 792              		.cfi_endproc
 793              	.LFE210:
 794              		.size	chprintf, .-chprintf
 795 001e 00BF     		.section	.text.chsnprintf,"ax",%progbits
ARM GAS  /tmp/ccodQwgR.s 			page 15


 796              		.align	2
 797              		.p2align 4,,15
 798              		.global	chsnprintf
 799              		.thumb
 800              		.thumb_func
 801              		.type	chsnprintf, %function
 802              	chsnprintf:
 803              	.LFB211:
 804              		.loc 1 341 0
 805              		.cfi_startproc
 806              		@ args = 4, pretend = 8, frame = 24
 807              		@ frame_needed = 0, uses_anonymous_args = 1
 808              	.LVL116:
 809 0000 0CB4     		push	{r2, r3}
 810              		.cfi_def_cfa_offset 8
 811              		.cfi_offset 2, -8
 812              		.cfi_offset 3, -4
 813 0002 30B5     		push	{r4, r5, lr}
 814              		.cfi_def_cfa_offset 20
 815              		.cfi_offset 4, -20
 816              		.cfi_offset 5, -16
 817              		.cfi_offset 14, -12
 818 0004 0546     		mov	r5, r0
 819 0006 87B0     		sub	sp, sp, #28
 820              		.cfi_def_cfa_offset 48
 821              		.loc 1 348 0
 822 0008 0C46     		mov	r4, r1
 823 000a B1B1     		cbz	r1, .L106
 824              	.LVL117:
 825              		.loc 1 355 0
 826 000c 01A8     		add	r0, sp, #4
 827              	.LVL118:
 828 000e 2946     		mov	r1, r5
 829              	.LVL119:
 830 0010 621E     		subs	r2, r4, #1
 831              	.LVL120:
 832 0012 0023     		movs	r3, #0
 833 0014 FFF7FEFF 		bl	msObjectInit
 834              	.LVL121:
 835              		.loc 1 359 0
 836 0018 0BAB     		add	r3, sp, #44
 837              		.loc 1 360 0
 838 001a 1A46     		mov	r2, r3
 839 001c 01A8     		add	r0, sp, #4
 840              	.LVL122:
 841 001e 0A99     		ldr	r1, [sp, #40]
 842              		.loc 1 359 0
 843 0020 0093     		str	r3, [sp]
 844              		.loc 1 360 0
 845 0022 FFF7FEFF 		bl	chvprintf
 846              	.LVL123:
 847              		.loc 1 364 0
 848 0026 049B     		ldr	r3, [sp, #16]
 849 0028 9C42     		cmp	r4, r3
 850 002a 01D9     		bls	.L108
 851              		.loc 1 365 0
 852 002c 0022     		movs	r2, #0
ARM GAS  /tmp/ccodQwgR.s 			page 16


 853 002e EA54     		strb	r2, [r5, r3]
 854              	.L108:
 855              		.loc 1 369 0
 856 0030 07B0     		add	sp, sp, #28
 857              		.cfi_remember_state
 858              		.cfi_def_cfa_offset 20
 859              		@ sp needed
 860 0032 BDE83040 		pop	{r4, r5, lr}
 861              		.cfi_restore 14
 862              		.cfi_restore 5
 863              		.cfi_restore 4
 864              		.cfi_def_cfa_offset 8
 865              	.LVL124:
 866 0036 02B0     		add	sp, sp, #8
 867              		.cfi_restore 3
 868              		.cfi_restore 2
 869              		.cfi_def_cfa_offset 0
 870 0038 7047     		bx	lr
 871              	.LVL125:
 872              	.L106:
 873              		.cfi_restore_state
 874              		.loc 1 355 0
 875 003a 0146     		mov	r1, r0
 876              	.LVL126:
 877 003c 2246     		mov	r2, r4
 878 003e 01A8     		add	r0, sp, #4
 879              	.LVL127:
 880 0040 2346     		mov	r3, r4
 881 0042 FFF7FEFF 		bl	msObjectInit
 882              	.LVL128:
 883              		.loc 1 359 0
 884 0046 0BAB     		add	r3, sp, #44
 885              		.loc 1 360 0
 886 0048 01A8     		add	r0, sp, #4
 887              	.LVL129:
 888 004a 1A46     		mov	r2, r3
 889 004c 0A99     		ldr	r1, [sp, #40]
 890              		.loc 1 359 0
 891 004e 0093     		str	r3, [sp]
 892              		.loc 1 360 0
 893 0050 FFF7FEFF 		bl	chvprintf
 894              	.LVL130:
 895              		.loc 1 369 0
 896 0054 07B0     		add	sp, sp, #28
 897              		.cfi_def_cfa_offset 20
 898              		@ sp needed
 899 0056 BDE83040 		pop	{r4, r5, lr}
 900              		.cfi_restore 4
 901              		.cfi_restore 5
 902              		.cfi_restore 14
 903              		.cfi_def_cfa_offset 8
 904              	.LVL131:
 905 005a 02B0     		add	sp, sp, #8
 906              		.cfi_restore 2
 907              		.cfi_restore 3
 908              		.cfi_def_cfa_offset 0
 909 005c 7047     		bx	lr
ARM GAS  /tmp/ccodQwgR.s 			page 17


 910              		.cfi_endproc
 911              	.LFE211:
 912              		.size	chsnprintf, .-chsnprintf
 913 005e 00BF     		.section	.rodata.str1.4,"aMS",%progbits,1
 914              		.align	2
 915              	.LC0:
 916 0000 286E756C 		.ascii	"(null)\000"
 916      6C2900
 917 0007 00       		.text
 918              	.Letext0:
 919              		.file 2 "/usr/lib/gcc/arm-none-eabi/4.9.3/include/stddef.h"
 920              		.file 3 "/usr/include/newlib/machine/_default_types.h"
 921              		.file 4 "/usr/include/newlib/stdint.h"
 922              		.file 5 "/home/peter/ChibiOS_16.1.4/os/rt/ports/ARMCMx/compilers/GCC/chtypes.h"
 923              		.file 6 "/home/peter/ChibiOS_16.1.4/os/rt/include/chsystypes.h"
 924              		.file 7 "/home/peter/ChibiOS_16.1.4/os/rt/include/chschd.h"
 925              		.file 8 "/home/peter/ChibiOS_16.1.4/os/ext/CMSIS/ST/STM32F2xx/stm32f205xx.h"
 926              		.file 9 "/home/peter/ChibiOS_16.1.4/os/rt/ports/ARMCMx/chcore.h"
 927              		.file 10 "/home/peter/ChibiOS_16.1.4/os/rt/ports/ARMCMx/chcore_v7m.h"
 928              		.file 11 "/home/peter/ChibiOS_16.1.4/os/rt/include/chtm.h"
 929              		.file 12 "/home/peter/ChibiOS_16.1.4/os/rt/include/chsem.h"
 930              		.file 13 "/home/peter/ChibiOS_16.1.4/os/rt/include/chmtx.h"
 931              		.file 14 "/home/peter/ChibiOS_16.1.4/os/rt/include/chevents.h"
 932              		.file 15 "/home/peter/ChibiOS_16.1.4/os/rt/include/chqueues.h"
 933              		.file 16 "/home/peter/ChibiOS_16.1.4/os/hal/include/serial.h"
 934              		.file 17 "/usr/lib/gcc/arm-none-eabi/4.9.3/include/stdarg.h"
 935              		.file 18 "<built-in>"
 936              		.file 19 "/home/peter/ChibiOS_16.1.4/os/hal/lib/streams/memstreams.h"
 937              		.file 20 "/home/peter/ChibiOS_16.1.4/os/ext/CMSIS/include/core_cm3.h"
 938              		.section	.debug_info,"",%progbits
 939              	.Ldebug_info0:
 940 0000 680F0000 		.4byte	0xf68
 941 0004 0400     		.2byte	0x4
 942 0006 00000000 		.4byte	.Ldebug_abbrev0
 943 000a 04       		.byte	0x4
 944 000b 01       		.uleb128 0x1
 945 000c 8A050000 		.4byte	.LASF173
 946 0010 01       		.byte	0x1
 947 0011 A4070000 		.4byte	.LASF174
 948 0015 71010000 		.4byte	.LASF175
 949 0019 18000000 		.4byte	.Ldebug_ranges0+0x18
 950 001d 00000000 		.4byte	0
 951 0021 00000000 		.4byte	.Ldebug_line0
 952 0025 02       		.uleb128 0x2
 953 0026 04       		.byte	0x4
 954 0027 05       		.byte	0x5
 955 0028 696E7400 		.ascii	"int\000"
 956 002c 03       		.uleb128 0x3
 957 002d 24000000 		.4byte	.LASF2
 958 0031 02       		.byte	0x2
 959 0032 D4       		.byte	0xd4
 960 0033 37000000 		.4byte	0x37
 961 0037 04       		.uleb128 0x4
 962 0038 04       		.byte	0x4
 963 0039 07       		.byte	0x7
 964 003a 55020000 		.4byte	.LASF0
 965 003e 04       		.uleb128 0x4
ARM GAS  /tmp/ccodQwgR.s 			page 18


 966 003f 01       		.byte	0x1
 967 0040 06       		.byte	0x6
 968 0041 13010000 		.4byte	.LASF1
 969 0045 03       		.uleb128 0x3
 970 0046 34000000 		.4byte	.LASF3
 971 004a 03       		.byte	0x3
 972 004b 1D       		.byte	0x1d
 973 004c 50000000 		.4byte	0x50
 974 0050 04       		.uleb128 0x4
 975 0051 01       		.byte	0x1
 976 0052 08       		.byte	0x8
 977 0053 8C040000 		.4byte	.LASF4
 978 0057 04       		.uleb128 0x4
 979 0058 02       		.byte	0x2
 980 0059 05       		.byte	0x5
 981 005a C1040000 		.4byte	.LASF5
 982 005e 04       		.uleb128 0x4
 983 005f 02       		.byte	0x2
 984 0060 07       		.byte	0x7
 985 0061 AF020000 		.4byte	.LASF6
 986 0065 03       		.uleb128 0x3
 987 0066 27030000 		.4byte	.LASF7
 988 006a 03       		.byte	0x3
 989 006b 3F       		.byte	0x3f
 990 006c 70000000 		.4byte	0x70
 991 0070 04       		.uleb128 0x4
 992 0071 04       		.byte	0x4
 993 0072 05       		.byte	0x5
 994 0073 5F010000 		.4byte	.LASF8
 995 0077 03       		.uleb128 0x3
 996 0078 89060000 		.4byte	.LASF9
 997 007c 03       		.byte	0x3
 998 007d 41       		.byte	0x41
 999 007e 82000000 		.4byte	0x82
 1000 0082 04       		.uleb128 0x4
 1001 0083 04       		.byte	0x4
 1002 0084 07       		.byte	0x7
 1003 0085 24010000 		.4byte	.LASF10
 1004 0089 04       		.uleb128 0x4
 1005 008a 08       		.byte	0x8
 1006 008b 05       		.byte	0x5
 1007 008c 05010000 		.4byte	.LASF11
 1008 0090 03       		.uleb128 0x3
 1009 0091 28040000 		.4byte	.LASF12
 1010 0095 03       		.byte	0x3
 1011 0096 5B       		.byte	0x5b
 1012 0097 9B000000 		.4byte	0x9b
 1013 009b 04       		.uleb128 0x4
 1014 009c 08       		.byte	0x8
 1015 009d 07       		.byte	0x7
 1016 009e 74000000 		.4byte	.LASF13
 1017 00a2 03       		.uleb128 0x3
 1018 00a3 59070000 		.4byte	.LASF14
 1019 00a7 04       		.byte	0x4
 1020 00a8 15       		.byte	0x15
 1021 00a9 45000000 		.4byte	0x45
 1022 00ad 03       		.uleb128 0x3
ARM GAS  /tmp/ccodQwgR.s 			page 19


 1023 00ae 84040000 		.4byte	.LASF15
 1024 00b2 04       		.byte	0x4
 1025 00b3 2C       		.byte	0x2c
 1026 00b4 65000000 		.4byte	0x65
 1027 00b8 03       		.uleb128 0x3
 1028 00b9 41050000 		.4byte	.LASF16
 1029 00bd 04       		.byte	0x4
 1030 00be 2D       		.byte	0x2d
 1031 00bf 77000000 		.4byte	0x77
 1032 00c3 03       		.uleb128 0x3
 1033 00c4 2B000000 		.4byte	.LASF17
 1034 00c8 04       		.byte	0x4
 1035 00c9 39       		.byte	0x39
 1036 00ca 90000000 		.4byte	0x90
 1037 00ce 03       		.uleb128 0x3
 1038 00cf E0060000 		.4byte	.LASF18
 1039 00d3 05       		.byte	0x5
 1040 00d4 39       		.byte	0x39
 1041 00d5 B8000000 		.4byte	0xb8
 1042 00d9 03       		.uleb128 0x3
 1043 00da 05030000 		.4byte	.LASF19
 1044 00de 05       		.byte	0x5
 1045 00df 3C       		.byte	0x3c
 1046 00e0 A2000000 		.4byte	0xa2
 1047 00e4 03       		.uleb128 0x3
 1048 00e5 68010000 		.4byte	.LASF20
 1049 00e9 05       		.byte	0x5
 1050 00ea 3D       		.byte	0x3d
 1051 00eb A2000000 		.4byte	0xa2
 1052 00ef 03       		.uleb128 0x3
 1053 00f0 0F000000 		.4byte	.LASF21
 1054 00f4 05       		.byte	0x5
 1055 00f5 3E       		.byte	0x3e
 1056 00f6 A2000000 		.4byte	0xa2
 1057 00fa 03       		.uleb128 0x3
 1058 00fb 45010000 		.4byte	.LASF22
 1059 00ff 05       		.byte	0x5
 1060 0100 3F       		.byte	0x3f
 1061 0101 A2000000 		.4byte	0xa2
 1062 0105 03       		.uleb128 0x3
 1063 0106 4A040000 		.4byte	.LASF23
 1064 010a 05       		.byte	0x5
 1065 010b 40       		.byte	0x40
 1066 010c B8000000 		.4byte	0xb8
 1067 0110 03       		.uleb128 0x3
 1068 0111 D6020000 		.4byte	.LASF24
 1069 0115 05       		.byte	0x5
 1070 0116 41       		.byte	0x41
 1071 0117 AD000000 		.4byte	0xad
 1072 011b 03       		.uleb128 0x3
 1073 011c 1B030000 		.4byte	.LASF25
 1074 0120 05       		.byte	0x5
 1075 0121 43       		.byte	0x43
 1076 0122 B8000000 		.4byte	0xb8
 1077 0126 03       		.uleb128 0x3
 1078 0127 F8060000 		.4byte	.LASF26
 1079 012b 05       		.byte	0x5
ARM GAS  /tmp/ccodQwgR.s 			page 20


 1080 012c 44       		.byte	0x44
 1081 012d B8000000 		.4byte	0xb8
 1082 0131 03       		.uleb128 0x3
 1083 0132 49020000 		.4byte	.LASF27
 1084 0136 05       		.byte	0x5
 1085 0137 45       		.byte	0x45
 1086 0138 AD000000 		.4byte	0xad
 1087 013c 03       		.uleb128 0x3
 1088 013d 6B060000 		.4byte	.LASF28
 1089 0141 06       		.byte	0x6
 1090 0142 33       		.byte	0x33
 1091 0143 B8000000 		.4byte	0xb8
 1092 0147 03       		.uleb128 0x3
 1093 0148 5B060000 		.4byte	.LASF29
 1094 014c 06       		.byte	0x6
 1095 014d 3F       		.byte	0x3f
 1096 014e 52010000 		.4byte	0x152
 1097 0152 05       		.uleb128 0x5
 1098 0153 C2020000 		.4byte	.LASF50
 1099 0157 44       		.byte	0x44
 1100 0158 07       		.byte	0x7
 1101 0159 C2       		.byte	0xc2
 1102 015a 4B020000 		.4byte	0x24b
 1103 015e 06       		.uleb128 0x6
 1104 015f EB040000 		.4byte	.LASF30
 1105 0163 07       		.byte	0x7
 1106 0164 C3       		.byte	0xc3
 1107 0165 56020000 		.4byte	0x256
 1108 0169 00       		.byte	0
 1109 016a 06       		.uleb128 0x6
 1110 016b 43040000 		.4byte	.LASF31
 1111 016f 07       		.byte	0x7
 1112 0170 C5       		.byte	0xc5
 1113 0171 56020000 		.4byte	0x256
 1114 0175 04       		.byte	0x4
 1115 0176 06       		.uleb128 0x6
 1116 0177 EE000000 		.4byte	.LASF32
 1117 017b 07       		.byte	0x7
 1118 017c C7       		.byte	0xc7
 1119 017d 05010000 		.4byte	0x105
 1120 0181 08       		.byte	0x8
 1121 0182 06       		.uleb128 0x6
 1122 0183 EC070000 		.4byte	.LASF33
 1123 0187 07       		.byte	0x7
 1124 0188 C8       		.byte	0xc8
 1125 0189 FA040000 		.4byte	0x4fa
 1126 018d 0C       		.byte	0xc
 1127 018e 06       		.uleb128 0x6
 1128 018f DB010000 		.4byte	.LASF34
 1129 0193 07       		.byte	0x7
 1130 0194 CA       		.byte	0xca
 1131 0195 56020000 		.4byte	0x256
 1132 0199 10       		.byte	0x10
 1133 019a 06       		.uleb128 0x6
 1134 019b E0030000 		.4byte	.LASF35
 1135 019f 07       		.byte	0x7
 1136 01a0 CB       		.byte	0xcb
ARM GAS  /tmp/ccodQwgR.s 			page 21


 1137 01a1 56020000 		.4byte	0x256
 1138 01a5 14       		.byte	0x14
 1139 01a6 06       		.uleb128 0x6
 1140 01a7 67040000 		.4byte	.LASF36
 1141 01ab 07       		.byte	0x7
 1142 01ac D2       		.byte	0xd2
 1143 01ad 79060000 		.4byte	0x679
 1144 01b1 18       		.byte	0x18
 1145 01b2 06       		.uleb128 0x6
 1146 01b3 CB040000 		.4byte	.LASF37
 1147 01b7 07       		.byte	0x7
 1148 01b8 DD       		.byte	0xdd
 1149 01b9 E4000000 		.4byte	0xe4
 1150 01bd 1C       		.byte	0x1c
 1151 01be 06       		.uleb128 0x6
 1152 01bf F2040000 		.4byte	.LASF38
 1153 01c3 07       		.byte	0x7
 1154 01c4 E1       		.byte	0xe1
 1155 01c5 D9000000 		.4byte	0xd9
 1156 01c9 1D       		.byte	0x1d
 1157 01ca 06       		.uleb128 0x6
 1158 01cb BC010000 		.4byte	.LASF39
 1159 01cf 07       		.byte	0x7
 1160 01d0 E6       		.byte	0xe6
 1161 01d1 EF000000 		.4byte	0xef
 1162 01d5 1E       		.byte	0x1e
 1163 01d6 06       		.uleb128 0x6
 1164 01d7 D3040000 		.4byte	.LASF40
 1165 01db 07       		.byte	0x7
 1166 01dc EC       		.byte	0xec
 1167 01dd FA000000 		.4byte	0xfa
 1168 01e1 1F       		.byte	0x1f
 1169 01e2 07       		.uleb128 0x7
 1170 01e3 705F7500 		.ascii	"p_u\000"
 1171 01e7 07       		.byte	0x7
 1172 01e8 3101     		.2byte	0x131
 1173 01ea B4050000 		.4byte	0x5b4
 1174 01ee 20       		.byte	0x20
 1175 01ef 08       		.uleb128 0x8
 1176 01f0 6C030000 		.4byte	.LASF41
 1177 01f4 07       		.byte	0x7
 1178 01f5 3601     		.2byte	0x136
 1179 01f7 5C020000 		.4byte	0x25c
 1180 01fb 24       		.byte	0x24
 1181 01fc 08       		.uleb128 0x8
 1182 01fd 88020000 		.4byte	.LASF42
 1183 0201 07       		.byte	0x7
 1184 0202 3C01     		.2byte	0x13c
 1185 0204 80020000 		.4byte	0x280
 1186 0208 28       		.byte	0x28
 1187 0209 08       		.uleb128 0x8
 1188 020a 4B060000 		.4byte	.LASF43
 1189 020e 07       		.byte	0x7
 1190 020f 4001     		.2byte	0x140
 1191 0211 10010000 		.4byte	0x110
 1192 0215 30       		.byte	0x30
 1193 0216 08       		.uleb128 0x8
ARM GAS  /tmp/ccodQwgR.s 			page 22


 1194 0217 2C050000 		.4byte	.LASF44
 1195 021b 07       		.byte	0x7
 1196 021c 4601     		.2byte	0x146
 1197 021e 1B010000 		.4byte	0x11b
 1198 0222 34       		.byte	0x34
 1199 0223 08       		.uleb128 0x8
 1200 0224 B7040000 		.4byte	.LASF45
 1201 0228 07       		.byte	0x7
 1202 0229 4D01     		.2byte	0x14d
 1203 022b 73060000 		.4byte	0x673
 1204 022f 38       		.byte	0x38
 1205 0230 08       		.uleb128 0x8
 1206 0231 75060000 		.4byte	.LASF46
 1207 0235 07       		.byte	0x7
 1208 0236 5101     		.2byte	0x151
 1209 0238 05010000 		.4byte	0x105
 1210 023c 3C       		.byte	0x3c
 1211 023d 08       		.uleb128 0x8
 1212 023e 36010000 		.4byte	.LASF47
 1213 0242 07       		.byte	0x7
 1214 0243 5801     		.2byte	0x158
 1215 0245 33030000 		.4byte	0x333
 1216 0249 40       		.byte	0x40
 1217 024a 00       		.byte	0
 1218 024b 03       		.uleb128 0x3
 1219 024c 7F030000 		.4byte	.LASF48
 1220 0250 06       		.byte	0x6
 1221 0251 44       		.byte	0x44
 1222 0252 56020000 		.4byte	0x256
 1223 0256 09       		.uleb128 0x9
 1224 0257 04       		.byte	0x4
 1225 0258 47010000 		.4byte	0x147
 1226 025c 03       		.uleb128 0x3
 1227 025d 00000000 		.4byte	.LASF49
 1228 0261 06       		.byte	0x6
 1229 0262 49       		.byte	0x49
 1230 0263 67020000 		.4byte	0x267
 1231 0267 05       		.uleb128 0x5
 1232 0268 62050000 		.4byte	.LASF51
 1233 026c 04       		.byte	0x4
 1234 026d 07       		.byte	0x7
 1235 026e B0       		.byte	0xb0
 1236 026f 80020000 		.4byte	0x280
 1237 0273 06       		.uleb128 0x6
 1238 0274 EB040000 		.4byte	.LASF30
 1239 0278 07       		.byte	0x7
 1240 0279 B1       		.byte	0xb1
 1241 027a 56020000 		.4byte	0x256
 1242 027e 00       		.byte	0
 1243 027f 00       		.byte	0
 1244 0280 03       		.uleb128 0x3
 1245 0281 0F050000 		.4byte	.LASF52
 1246 0285 06       		.byte	0x6
 1247 0286 50       		.byte	0x50
 1248 0287 8B020000 		.4byte	0x28b
 1249 028b 05       		.uleb128 0x5
 1250 028c DD000000 		.4byte	.LASF53
ARM GAS  /tmp/ccodQwgR.s 			page 23


 1251 0290 08       		.byte	0x8
 1252 0291 07       		.byte	0x7
 1253 0292 B7       		.byte	0xb7
 1254 0293 B0020000 		.4byte	0x2b0
 1255 0297 06       		.uleb128 0x6
 1256 0298 EB040000 		.4byte	.LASF30
 1257 029c 07       		.byte	0x7
 1258 029d B8       		.byte	0xb8
 1259 029e 56020000 		.4byte	0x256
 1260 02a2 00       		.byte	0
 1261 02a3 06       		.uleb128 0x6
 1262 02a4 43040000 		.4byte	.LASF31
 1263 02a8 07       		.byte	0x7
 1264 02a9 B9       		.byte	0xb9
 1265 02aa 56020000 		.4byte	0x256
 1266 02ae 04       		.byte	0x4
 1267 02af 00       		.byte	0
 1268 02b0 03       		.uleb128 0x3
 1269 02b1 17000000 		.4byte	.LASF54
 1270 02b5 06       		.byte	0x6
 1271 02b6 57       		.byte	0x57
 1272 02b7 BB020000 		.4byte	0x2bb
 1273 02bb 0A       		.uleb128 0xa
 1274 02bc 0D030000 		.4byte	.LASF55
 1275 02c0 1C       		.byte	0x1c
 1276 02c1 07       		.byte	0x7
 1277 02c2 9001     		.2byte	0x190
 1278 02c4 17030000 		.4byte	0x317
 1279 02c8 08       		.uleb128 0x8
 1280 02c9 51050000 		.4byte	.LASF56
 1281 02cd 07       		.byte	0x7
 1282 02ce 9101     		.2byte	0x191
 1283 02d0 80020000 		.4byte	0x280
 1284 02d4 00       		.byte	0
 1285 02d5 08       		.uleb128 0x8
 1286 02d6 DD040000 		.4byte	.LASF57
 1287 02da 07       		.byte	0x7
 1288 02db 9201     		.2byte	0x192
 1289 02dd 05010000 		.4byte	0x105
 1290 02e1 08       		.byte	0x8
 1291 02e2 08       		.uleb128 0x8
 1292 02e3 E8030000 		.4byte	.LASF58
 1293 02e7 07       		.byte	0x7
 1294 02e8 9401     		.2byte	0x194
 1295 02ea FA040000 		.4byte	0x4fa
 1296 02ee 0C       		.byte	0xc
 1297 02ef 08       		.uleb128 0x8
 1298 02f0 EB010000 		.4byte	.LASF59
 1299 02f4 07       		.byte	0x7
 1300 02f5 9701     		.2byte	0x197
 1301 02f7 56020000 		.4byte	0x256
 1302 02fb 10       		.byte	0x10
 1303 02fc 08       		.uleb128 0x8
 1304 02fd 09040000 		.4byte	.LASF60
 1305 0301 07       		.byte	0x7
 1306 0302 9801     		.2byte	0x198
 1307 0304 56020000 		.4byte	0x256
ARM GAS  /tmp/ccodQwgR.s 			page 24


 1308 0308 14       		.byte	0x14
 1309 0309 08       		.uleb128 0x8
 1310 030a FF030000 		.4byte	.LASF61
 1311 030e 07       		.byte	0x7
 1312 030f 9B01     		.2byte	0x19b
 1313 0311 56020000 		.4byte	0x256
 1314 0315 18       		.byte	0x18
 1315 0316 00       		.byte	0
 1316 0317 03       		.uleb128 0x3
 1317 0318 80060000 		.4byte	.LASF62
 1318 031c 06       		.byte	0x6
 1319 031d 5C       		.byte	0x5c
 1320 031e 22030000 		.4byte	0x322
 1321 0322 09       		.uleb128 0x9
 1322 0323 04       		.byte	0x4
 1323 0324 28030000 		.4byte	0x328
 1324 0328 0B       		.uleb128 0xb
 1325 0329 33030000 		.4byte	0x333
 1326 032d 0C       		.uleb128 0xc
 1327 032e 33030000 		.4byte	0x333
 1328 0332 00       		.byte	0
 1329 0333 0D       		.uleb128 0xd
 1330 0334 04       		.byte	0x4
 1331 0335 03       		.uleb128 0x3
 1332 0336 33040000 		.4byte	.LASF63
 1333 033a 06       		.byte	0x6
 1334 033b 61       		.byte	0x61
 1335 033c 40030000 		.4byte	0x340
 1336 0340 0A       		.uleb128 0xa
 1337 0341 CF060000 		.4byte	.LASF64
 1338 0345 14       		.byte	0x14
 1339 0346 07       		.byte	0x7
 1340 0347 6B01     		.2byte	0x16b
 1341 0349 8F030000 		.4byte	0x38f
 1342 034d 08       		.uleb128 0x8
 1343 034e 62020000 		.4byte	.LASF65
 1344 0352 07       		.byte	0x7
 1345 0353 6C01     		.2byte	0x16c
 1346 0355 8B060000 		.4byte	0x68b
 1347 0359 00       		.byte	0
 1348 035a 08       		.uleb128 0x8
 1349 035b FC010000 		.4byte	.LASF66
 1350 035f 07       		.byte	0x7
 1351 0360 6D01     		.2byte	0x16d
 1352 0362 8B060000 		.4byte	0x68b
 1353 0366 04       		.byte	0x4
 1354 0367 08       		.uleb128 0x8
 1355 0368 59050000 		.4byte	.LASF67
 1356 036c 07       		.byte	0x7
 1357 036d 6E01     		.2byte	0x16e
 1358 036f 3C010000 		.4byte	0x13c
 1359 0373 08       		.byte	0x8
 1360 0374 08       		.uleb128 0x8
 1361 0375 F2070000 		.4byte	.LASF68
 1362 0379 07       		.byte	0x7
 1363 037a 6F01     		.2byte	0x16f
 1364 037c 17030000 		.4byte	0x317
ARM GAS  /tmp/ccodQwgR.s 			page 25


 1365 0380 0C       		.byte	0xc
 1366 0381 08       		.uleb128 0x8
 1367 0382 F1060000 		.4byte	.LASF69
 1368 0386 07       		.byte	0x7
 1369 0387 7101     		.2byte	0x171
 1370 0389 33030000 		.4byte	0x333
 1371 038d 10       		.byte	0x10
 1372 038e 00       		.byte	0
 1373 038f 03       		.uleb128 0x3
 1374 0390 AF000000 		.4byte	.LASF70
 1375 0394 06       		.byte	0x6
 1376 0395 66       		.byte	0x66
 1377 0396 9A030000 		.4byte	0x39a
 1378 039a 0A       		.uleb128 0xa
 1379 039b 92030000 		.4byte	.LASF71
 1380 039f 10       		.byte	0x10
 1381 03a0 07       		.byte	0x7
 1382 03a1 7B01     		.2byte	0x17b
 1383 03a3 DC030000 		.4byte	0x3dc
 1384 03a7 08       		.uleb128 0x8
 1385 03a8 62020000 		.4byte	.LASF65
 1386 03ac 07       		.byte	0x7
 1387 03ad 7C01     		.2byte	0x17c
 1388 03af 8B060000 		.4byte	0x68b
 1389 03b3 00       		.byte	0
 1390 03b4 08       		.uleb128 0x8
 1391 03b5 FC010000 		.4byte	.LASF66
 1392 03b9 07       		.byte	0x7
 1393 03ba 7E01     		.2byte	0x17e
 1394 03bc 8B060000 		.4byte	0x68b
 1395 03c0 04       		.byte	0x4
 1396 03c1 08       		.uleb128 0x8
 1397 03c2 59050000 		.4byte	.LASF67
 1398 03c6 07       		.byte	0x7
 1399 03c7 8001     		.2byte	0x180
 1400 03c9 3C010000 		.4byte	0x13c
 1401 03cd 08       		.byte	0x8
 1402 03ce 08       		.uleb128 0x8
 1403 03cf 99070000 		.4byte	.LASF72
 1404 03d3 07       		.byte	0x7
 1405 03d4 8201     		.2byte	0x182
 1406 03d6 91060000 		.4byte	0x691
 1407 03da 0C       		.byte	0xc
 1408 03db 00       		.byte	0
 1409 03dc 03       		.uleb128 0x3
 1410 03dd 52000000 		.4byte	.LASF73
 1411 03e1 06       		.byte	0x6
 1412 03e2 6B       		.byte	0x6b
 1413 03e3 E7030000 		.4byte	0x3e7
 1414 03e7 0A       		.uleb128 0xa
 1415 03e8 6E040000 		.4byte	.LASF74
 1416 03ec 04       		.byte	0x4
 1417 03ed 07       		.byte	0x7
 1418 03ee A201     		.2byte	0x1a2
 1419 03f0 02040000 		.4byte	0x402
 1420 03f4 08       		.uleb128 0x8
 1421 03f5 94060000 		.4byte	.LASF75
ARM GAS  /tmp/ccodQwgR.s 			page 26


 1422 03f9 07       		.byte	0x7
 1423 03fa AA01     		.2byte	0x1aa
 1424 03fc 96060000 		.4byte	0x696
 1425 0400 00       		.byte	0
 1426 0401 00       		.byte	0
 1427 0402 03       		.uleb128 0x3
 1428 0403 C3060000 		.4byte	.LASF76
 1429 0407 06       		.byte	0x6
 1430 0408 70       		.byte	0x70
 1431 0409 0D040000 		.4byte	0x40d
 1432 040d 0E       		.uleb128 0xe
 1433 040e 55010000 		.4byte	.LASF77
 1434 0412 5001     		.2byte	0x150
 1435 0414 07       		.byte	0x7
 1436 0415 C201     		.2byte	0x1c2
 1437 0417 69040000 		.4byte	0x469
 1438 041b 08       		.uleb128 0x8
 1439 041c 46070000 		.4byte	.LASF78
 1440 0420 07       		.byte	0x7
 1441 0421 C601     		.2byte	0x1c6
 1442 0423 B0020000 		.4byte	0x2b0
 1443 0427 00       		.byte	0
 1444 0428 08       		.uleb128 0x8
 1445 0429 04020000 		.4byte	.LASF79
 1446 042d 07       		.byte	0x7
 1447 042e CA01     		.2byte	0x1ca
 1448 0430 8F030000 		.4byte	0x38f
 1449 0434 1C       		.byte	0x1c
 1450 0435 07       		.uleb128 0x7
 1451 0436 64626700 		.ascii	"dbg\000"
 1452 043a 07       		.byte	0x7
 1453 043b CE01     		.2byte	0x1ce
 1454 043d DC030000 		.4byte	0x3dc
 1455 0441 2C       		.byte	0x2c
 1456 0442 08       		.uleb128 0x8
 1457 0443 A4000000 		.4byte	.LASF80
 1458 0447 07       		.byte	0x7
 1459 0448 D201     		.2byte	0x1d2
 1460 044a 47010000 		.4byte	0x147
 1461 044e 30       		.byte	0x30
 1462 044f 07       		.uleb128 0x7
 1463 0450 746D00   		.ascii	"tm\000"
 1464 0453 07       		.byte	0x7
 1465 0454 D701     		.2byte	0x1d7
 1466 0456 A9050000 		.4byte	0x5a9
 1467 045a 74       		.byte	0x74
 1468 045b 08       		.uleb128 0x8
 1469 045c 3A020000 		.4byte	.LASF81
 1470 0460 07       		.byte	0x7
 1471 0461 E301     		.2byte	0x1e3
 1472 0463 9B060000 		.4byte	0x69b
 1473 0467 78       		.byte	0x78
 1474 0468 00       		.byte	0
 1475 0469 04       		.uleb128 0x4
 1476 046a 04       		.byte	0x4
 1477 046b 07       		.byte	0x7
 1478 046c 76030000 		.4byte	.LASF82
ARM GAS  /tmp/ccodQwgR.s 			page 27


 1479 0470 0F       		.uleb128 0xf
 1480 0471 B8000000 		.4byte	0xb8
 1481 0475 10       		.uleb128 0x10
 1482 0476 1C       		.byte	0x1c
 1483 0477 08       		.byte	0x8
 1484 0478 A502     		.2byte	0x2a5
 1485 047a D8040000 		.4byte	0x4d8
 1486 047e 07       		.uleb128 0x7
 1487 047f 535200   		.ascii	"SR\000"
 1488 0482 08       		.byte	0x8
 1489 0483 A702     		.2byte	0x2a7
 1490 0485 70040000 		.4byte	0x470
 1491 0489 00       		.byte	0
 1492 048a 07       		.uleb128 0x7
 1493 048b 445200   		.ascii	"DR\000"
 1494 048e 08       		.byte	0x8
 1495 048f A802     		.2byte	0x2a8
 1496 0491 70040000 		.4byte	0x470
 1497 0495 04       		.byte	0x4
 1498 0496 07       		.uleb128 0x7
 1499 0497 42525200 		.ascii	"BRR\000"
 1500 049b 08       		.byte	0x8
 1501 049c A902     		.2byte	0x2a9
 1502 049e 70040000 		.4byte	0x470
 1503 04a2 08       		.byte	0x8
 1504 04a3 07       		.uleb128 0x7
 1505 04a4 43523100 		.ascii	"CR1\000"
 1506 04a8 08       		.byte	0x8
 1507 04a9 AA02     		.2byte	0x2aa
 1508 04ab 70040000 		.4byte	0x470
 1509 04af 0C       		.byte	0xc
 1510 04b0 07       		.uleb128 0x7
 1511 04b1 43523200 		.ascii	"CR2\000"
 1512 04b5 08       		.byte	0x8
 1513 04b6 AB02     		.2byte	0x2ab
 1514 04b8 70040000 		.4byte	0x470
 1515 04bc 10       		.byte	0x10
 1516 04bd 07       		.uleb128 0x7
 1517 04be 43523300 		.ascii	"CR3\000"
 1518 04c2 08       		.byte	0x8
 1519 04c3 AC02     		.2byte	0x2ac
 1520 04c5 70040000 		.4byte	0x470
 1521 04c9 14       		.byte	0x14
 1522 04ca 08       		.uleb128 0x8
 1523 04cb 1F010000 		.4byte	.LASF83
 1524 04cf 08       		.byte	0x8
 1525 04d0 AD02     		.2byte	0x2ad
 1526 04d2 70040000 		.4byte	0x470
 1527 04d6 18       		.byte	0x18
 1528 04d7 00       		.byte	0
 1529 04d8 11       		.uleb128 0x11
 1530 04d9 F0020000 		.4byte	.LASF84
 1531 04dd 08       		.byte	0x8
 1532 04de AE02     		.2byte	0x2ae
 1533 04e0 75040000 		.4byte	0x475
 1534 04e4 03       		.uleb128 0x3
 1535 04e5 F3010000 		.4byte	.LASF85
ARM GAS  /tmp/ccodQwgR.s 			page 28


 1536 04e9 09       		.byte	0x9
 1537 04ea 65       		.byte	0x65
 1538 04eb 33030000 		.4byte	0x333
 1539 04ef 03       		.uleb128 0x3
 1540 04f0 3B030000 		.4byte	.LASF86
 1541 04f4 09       		.byte	0x9
 1542 04f5 6D       		.byte	0x6d
 1543 04f6 C3000000 		.4byte	0xc3
 1544 04fa 05       		.uleb128 0x5
 1545 04fb BB060000 		.4byte	.LASF87
 1546 04ff 04       		.byte	0x4
 1547 0500 09       		.byte	0x9
 1548 0501 89       		.byte	0x89
 1549 0502 13050000 		.4byte	0x513
 1550 0506 12       		.uleb128 0x12
 1551 0507 72313300 		.ascii	"r13\000"
 1552 050b 09       		.byte	0x9
 1553 050c 8A       		.byte	0x8a
 1554 050d 8E050000 		.4byte	0x58e
 1555 0511 00       		.byte	0
 1556 0512 00       		.byte	0
 1557 0513 05       		.uleb128 0x5
 1558 0514 3E000000 		.4byte	.LASF88
 1559 0518 24       		.byte	0x24
 1560 0519 0A       		.byte	0xa
 1561 051a FD       		.byte	0xfd
 1562 051b 8E050000 		.4byte	0x58e
 1563 051f 07       		.uleb128 0x7
 1564 0520 723400   		.ascii	"r4\000"
 1565 0523 0A       		.byte	0xa
 1566 0524 1001     		.2byte	0x110
 1567 0526 E4040000 		.4byte	0x4e4
 1568 052a 00       		.byte	0
 1569 052b 07       		.uleb128 0x7
 1570 052c 723500   		.ascii	"r5\000"
 1571 052f 0A       		.byte	0xa
 1572 0530 1101     		.2byte	0x111
 1573 0532 E4040000 		.4byte	0x4e4
 1574 0536 04       		.byte	0x4
 1575 0537 07       		.uleb128 0x7
 1576 0538 723600   		.ascii	"r6\000"
 1577 053b 0A       		.byte	0xa
 1578 053c 1201     		.2byte	0x112
 1579 053e E4040000 		.4byte	0x4e4
 1580 0542 08       		.byte	0x8
 1581 0543 07       		.uleb128 0x7
 1582 0544 723700   		.ascii	"r7\000"
 1583 0547 0A       		.byte	0xa
 1584 0548 1301     		.2byte	0x113
 1585 054a E4040000 		.4byte	0x4e4
 1586 054e 0C       		.byte	0xc
 1587 054f 07       		.uleb128 0x7
 1588 0550 723800   		.ascii	"r8\000"
 1589 0553 0A       		.byte	0xa
 1590 0554 1401     		.2byte	0x114
 1591 0556 E4040000 		.4byte	0x4e4
 1592 055a 10       		.byte	0x10
ARM GAS  /tmp/ccodQwgR.s 			page 29


 1593 055b 07       		.uleb128 0x7
 1594 055c 723900   		.ascii	"r9\000"
 1595 055f 0A       		.byte	0xa
 1596 0560 1501     		.2byte	0x115
 1597 0562 E4040000 		.4byte	0x4e4
 1598 0566 14       		.byte	0x14
 1599 0567 07       		.uleb128 0x7
 1600 0568 72313000 		.ascii	"r10\000"
 1601 056c 0A       		.byte	0xa
 1602 056d 1601     		.2byte	0x116
 1603 056f E4040000 		.4byte	0x4e4
 1604 0573 18       		.byte	0x18
 1605 0574 07       		.uleb128 0x7
 1606 0575 72313100 		.ascii	"r11\000"
 1607 0579 0A       		.byte	0xa
 1608 057a 1701     		.2byte	0x117
 1609 057c E4040000 		.4byte	0x4e4
 1610 0580 1C       		.byte	0x1c
 1611 0581 07       		.uleb128 0x7
 1612 0582 6C7200   		.ascii	"lr\000"
 1613 0585 0A       		.byte	0xa
 1614 0586 1801     		.2byte	0x118
 1615 0588 E4040000 		.4byte	0x4e4
 1616 058c 20       		.byte	0x20
 1617 058d 00       		.byte	0
 1618 058e 09       		.uleb128 0x9
 1619 058f 04       		.byte	0x4
 1620 0590 13050000 		.4byte	0x513
 1621 0594 13       		.uleb128 0x13
 1622 0595 04       		.byte	0x4
 1623 0596 0B       		.byte	0xb
 1624 0597 38       		.byte	0x38
 1625 0598 A9050000 		.4byte	0x5a9
 1626 059c 06       		.uleb128 0x6
 1627 059d 9E060000 		.4byte	.LASF89
 1628 05a1 0B       		.byte	0xb
 1629 05a2 3C       		.byte	0x3c
 1630 05a3 CE000000 		.4byte	0xce
 1631 05a7 00       		.byte	0
 1632 05a8 00       		.byte	0
 1633 05a9 03       		.uleb128 0x3
 1634 05aa EE030000 		.4byte	.LASF90
 1635 05ae 0B       		.byte	0xb
 1636 05af 3D       		.byte	0x3d
 1637 05b0 94050000 		.4byte	0x594
 1638 05b4 14       		.uleb128 0x14
 1639 05b5 04       		.byte	0x4
 1640 05b6 07       		.byte	0x7
 1641 05b7 FA       		.byte	0xfa
 1642 05b8 11060000 		.4byte	0x611
 1643 05bc 15       		.uleb128 0x15
 1644 05bd 08050000 		.4byte	.LASF91
 1645 05c1 07       		.byte	0x7
 1646 05c2 0101     		.2byte	0x101
 1647 05c4 10010000 		.4byte	0x110
 1648 05c8 15       		.uleb128 0x15
 1649 05c9 9B000000 		.4byte	.LASF92
ARM GAS  /tmp/ccodQwgR.s 			page 30


 1650 05cd 07       		.byte	0x7
 1651 05ce 0801     		.2byte	0x108
 1652 05d0 10010000 		.4byte	0x110
 1653 05d4 15       		.uleb128 0x15
 1654 05d5 6B070000 		.4byte	.LASF93
 1655 05d9 07       		.byte	0x7
 1656 05da 0F01     		.2byte	0x10f
 1657 05dc 33030000 		.4byte	0x333
 1658 05e0 15       		.uleb128 0x15
 1659 05e1 B3030000 		.4byte	.LASF94
 1660 05e5 07       		.byte	0x7
 1661 05e6 1601     		.2byte	0x116
 1662 05e8 11060000 		.4byte	0x611
 1663 05ec 15       		.uleb128 0x15
 1664 05ed 7A020000 		.4byte	.LASF95
 1665 05f1 07       		.byte	0x7
 1666 05f2 1E01     		.2byte	0x11e
 1667 05f4 3C060000 		.4byte	0x63c
 1668 05f8 15       		.uleb128 0x15
 1669 05f9 4A050000 		.4byte	.LASF96
 1670 05fd 07       		.byte	0x7
 1671 05fe 2701     		.2byte	0x127
 1672 0600 73060000 		.4byte	0x673
 1673 0604 15       		.uleb128 0x15
 1674 0605 E4040000 		.4byte	.LASF97
 1675 0609 07       		.byte	0x7
 1676 060a 2F01     		.2byte	0x12f
 1677 060c 1B010000 		.4byte	0x11b
 1678 0610 00       		.byte	0
 1679 0611 09       		.uleb128 0x9
 1680 0612 04       		.byte	0x4
 1681 0613 4B020000 		.4byte	0x24b
 1682 0617 05       		.uleb128 0x5
 1683 0618 1F050000 		.4byte	.LASF98
 1684 061c 0C       		.byte	0xc
 1685 061d 0C       		.byte	0xc
 1686 061e 34       		.byte	0x34
 1687 061f 3C060000 		.4byte	0x63c
 1688 0623 06       		.uleb128 0x6
 1689 0624 E3010000 		.4byte	.LASF99
 1690 0628 0C       		.byte	0xc
 1691 0629 35       		.byte	0x35
 1692 062a 80020000 		.4byte	0x280
 1693 062e 00       		.byte	0
 1694 062f 06       		.uleb128 0x6
 1695 0630 93070000 		.4byte	.LASF100
 1696 0634 0C       		.byte	0xc
 1697 0635 37       		.byte	0x37
 1698 0636 31010000 		.4byte	0x131
 1699 063a 08       		.byte	0x8
 1700 063b 00       		.byte	0
 1701 063c 09       		.uleb128 0x9
 1702 063d 04       		.byte	0x4
 1703 063e 17060000 		.4byte	0x617
 1704 0642 05       		.uleb128 0x5
 1705 0643 24070000 		.4byte	.LASF101
 1706 0647 10       		.byte	0x10
ARM GAS  /tmp/ccodQwgR.s 			page 31


 1707 0648 0D       		.byte	0xd
 1708 0649 39       		.byte	0x39
 1709 064a 73060000 		.4byte	0x673
 1710 064e 06       		.uleb128 0x6
 1711 064f 9A040000 		.4byte	.LASF102
 1712 0653 0D       		.byte	0xd
 1713 0654 3A       		.byte	0x3a
 1714 0655 80020000 		.4byte	0x280
 1715 0659 00       		.byte	0
 1716 065a 06       		.uleb128 0x6
 1717 065b E4070000 		.4byte	.LASF103
 1718 065f 0D       		.byte	0xd
 1719 0660 3C       		.byte	0x3c
 1720 0661 56020000 		.4byte	0x256
 1721 0665 08       		.byte	0x8
 1722 0666 06       		.uleb128 0x6
 1723 0667 64060000 		.4byte	.LASF104
 1724 066b 0D       		.byte	0xd
 1725 066c 3E       		.byte	0x3e
 1726 066d B6060000 		.4byte	0x6b6
 1727 0671 0C       		.byte	0xc
 1728 0672 00       		.byte	0
 1729 0673 09       		.uleb128 0x9
 1730 0674 04       		.byte	0x4
 1731 0675 42060000 		.4byte	0x642
 1732 0679 09       		.uleb128 0x9
 1733 067a 04       		.byte	0x4
 1734 067b 7F060000 		.4byte	0x67f
 1735 067f 16       		.uleb128 0x16
 1736 0680 84060000 		.4byte	0x684
 1737 0684 04       		.uleb128 0x4
 1738 0685 01       		.byte	0x1
 1739 0686 08       		.byte	0x8
 1740 0687 46060000 		.4byte	.LASF105
 1741 068b 09       		.uleb128 0x9
 1742 068c 04       		.byte	0x4
 1743 068d 35030000 		.4byte	0x335
 1744 0691 0F       		.uleb128 0xf
 1745 0692 3C010000 		.4byte	0x13c
 1746 0696 0F       		.uleb128 0xf
 1747 0697 79060000 		.4byte	0x679
 1748 069b 17       		.uleb128 0x17
 1749 069c EF040000 		.4byte	0x4ef
 1750 06a0 AB060000 		.4byte	0x6ab
 1751 06a4 18       		.uleb128 0x18
 1752 06a5 69040000 		.4byte	0x469
 1753 06a9 1A       		.byte	0x1a
 1754 06aa 00       		.byte	0
 1755 06ab 03       		.uleb128 0x3
 1756 06ac 1A020000 		.4byte	.LASF106
 1757 06b0 0D       		.byte	0xd
 1758 06b1 34       		.byte	0x34
 1759 06b2 42060000 		.4byte	0x642
 1760 06b6 09       		.uleb128 0x9
 1761 06b7 04       		.byte	0x4
 1762 06b8 AB060000 		.4byte	0x6ab
 1763 06bc 03       		.uleb128 0x3
ARM GAS  /tmp/ccodQwgR.s 			page 32


 1764 06bd A5060000 		.4byte	.LASF107
 1765 06c1 0E       		.byte	0xe
 1766 06c2 34       		.byte	0x34
 1767 06c3 C7060000 		.4byte	0x6c7
 1768 06c7 05       		.uleb128 0x5
 1769 06c8 FA070000 		.4byte	.LASF108
 1770 06cc 14       		.byte	0x14
 1771 06cd 0E       		.byte	0xe
 1772 06ce 39       		.byte	0x39
 1773 06cf 10070000 		.4byte	0x710
 1774 06d3 06       		.uleb128 0x6
 1775 06d4 E3020000 		.4byte	.LASF109
 1776 06d8 0E       		.byte	0xe
 1777 06d9 3A       		.byte	0x3a
 1778 06da 10070000 		.4byte	0x710
 1779 06de 00       		.byte	0
 1780 06df 06       		.uleb128 0x6
 1781 06e0 A2040000 		.4byte	.LASF110
 1782 06e4 0E       		.byte	0xe
 1783 06e5 3D       		.byte	0x3d
 1784 06e6 56020000 		.4byte	0x256
 1785 06ea 04       		.byte	0x4
 1786 06eb 06       		.uleb128 0x6
 1787 06ec 11040000 		.4byte	.LASF111
 1788 06f0 0E       		.byte	0xe
 1789 06f1 3F       		.byte	0x3f
 1790 06f2 1B010000 		.4byte	0x11b
 1791 06f6 08       		.byte	0x8
 1792 06f7 06       		.uleb128 0x6
 1793 06f8 AE040000 		.4byte	.LASF112
 1794 06fc 0E       		.byte	0xe
 1795 06fd 41       		.byte	0x41
 1796 06fe 26010000 		.4byte	0x126
 1797 0702 0C       		.byte	0xc
 1798 0703 06       		.uleb128 0x6
 1799 0704 CC020000 		.4byte	.LASF113
 1800 0708 0E       		.byte	0xe
 1801 0709 43       		.byte	0x43
 1802 070a 26010000 		.4byte	0x126
 1803 070e 10       		.byte	0x10
 1804 070f 00       		.byte	0
 1805 0710 09       		.uleb128 0x9
 1806 0711 04       		.byte	0x4
 1807 0712 BC060000 		.4byte	0x6bc
 1808 0716 05       		.uleb128 0x5
 1809 0717 4C070000 		.4byte	.LASF114
 1810 071b 04       		.byte	0x4
 1811 071c 0E       		.byte	0xe
 1812 071d 4A       		.byte	0x4a
 1813 071e 2F070000 		.4byte	0x72f
 1814 0722 06       		.uleb128 0x6
 1815 0723 2D070000 		.4byte	.LASF115
 1816 0727 0E       		.byte	0xe
 1817 0728 4B       		.byte	0x4b
 1818 0729 10070000 		.4byte	0x710
 1819 072d 00       		.byte	0
 1820 072e 00       		.byte	0
ARM GAS  /tmp/ccodQwgR.s 			page 33


 1821 072f 03       		.uleb128 0x3
 1822 0730 2B020000 		.4byte	.LASF116
 1823 0734 0E       		.byte	0xe
 1824 0735 4E       		.byte	0x4e
 1825 0736 16070000 		.4byte	0x716
 1826 073a 03       		.uleb128 0x3
 1827 073b D2000000 		.4byte	.LASF117
 1828 073f 0F       		.byte	0xf
 1829 0740 3F       		.byte	0x3f
 1830 0741 45070000 		.4byte	0x745
 1831 0745 05       		.uleb128 0x5
 1832 0746 22020000 		.4byte	.LASF118
 1833 074a 24       		.byte	0x24
 1834 074b 0F       		.byte	0xf
 1835 074c 4D       		.byte	0x4d
 1836 074d B2070000 		.4byte	0x7b2
 1837 0751 06       		.uleb128 0x6
 1838 0752 FB000000 		.4byte	.LASF119
 1839 0756 0F       		.byte	0xf
 1840 0757 4E       		.byte	0x4e
 1841 0758 80020000 		.4byte	0x280
 1842 075c 00       		.byte	0
 1843 075d 06       		.uleb128 0x6
 1844 075e A9030000 		.4byte	.LASF120
 1845 0762 0F       		.byte	0xf
 1846 0763 4F       		.byte	0x4f
 1847 0764 D4070000 		.4byte	0x7d4
 1848 0768 08       		.byte	0x8
 1849 0769 06       		.uleb128 0x6
 1850 076a C3010000 		.4byte	.LASF121
 1851 076e 0F       		.byte	0xf
 1852 076f 50       		.byte	0x50
 1853 0770 D9070000 		.4byte	0x7d9
 1854 0774 0C       		.byte	0xc
 1855 0775 06       		.uleb128 0x6
 1856 0776 1E070000 		.4byte	.LASF122
 1857 077a 0F       		.byte	0xf
 1858 077b 51       		.byte	0x51
 1859 077c D9070000 		.4byte	0x7d9
 1860 0780 10       		.byte	0x10
 1861 0781 06       		.uleb128 0x6
 1862 0782 CC010000 		.4byte	.LASF123
 1863 0786 0F       		.byte	0xf
 1864 0787 53       		.byte	0x53
 1865 0788 D9070000 		.4byte	0x7d9
 1866 078c 14       		.byte	0x14
 1867 078d 06       		.uleb128 0x6
 1868 078e 52040000 		.4byte	.LASF124
 1869 0792 0F       		.byte	0xf
 1870 0793 54       		.byte	0x54
 1871 0794 D9070000 		.4byte	0x7d9
 1872 0798 18       		.byte	0x18
 1873 0799 06       		.uleb128 0x6
 1874 079a 3D070000 		.4byte	.LASF125
 1875 079e 0F       		.byte	0xf
 1876 079f 55       		.byte	0x55
 1877 07a0 B2070000 		.4byte	0x7b2
ARM GAS  /tmp/ccodQwgR.s 			page 34


 1878 07a4 1C       		.byte	0x1c
 1879 07a5 06       		.uleb128 0x6
 1880 07a6 DD070000 		.4byte	.LASF126
 1881 07aa 0F       		.byte	0xf
 1882 07ab 56       		.byte	0x56
 1883 07ac 33030000 		.4byte	0x333
 1884 07b0 20       		.byte	0x20
 1885 07b1 00       		.byte	0
 1886 07b2 03       		.uleb128 0x3
 1887 07b3 31030000 		.4byte	.LASF127
 1888 07b7 0F       		.byte	0xf
 1889 07b8 42       		.byte	0x42
 1890 07b9 BD070000 		.4byte	0x7bd
 1891 07bd 09       		.uleb128 0x9
 1892 07be 04       		.byte	0x4
 1893 07bf C3070000 		.4byte	0x7c3
 1894 07c3 0B       		.uleb128 0xb
 1895 07c4 CE070000 		.4byte	0x7ce
 1896 07c8 0C       		.uleb128 0xc
 1897 07c9 CE070000 		.4byte	0x7ce
 1898 07cd 00       		.byte	0
 1899 07ce 09       		.uleb128 0x9
 1900 07cf 04       		.byte	0x4
 1901 07d0 3A070000 		.4byte	0x73a
 1902 07d4 0F       		.uleb128 0xf
 1903 07d5 2C000000 		.4byte	0x2c
 1904 07d9 09       		.uleb128 0x9
 1905 07da 04       		.byte	0x4
 1906 07db A2000000 		.4byte	0xa2
 1907 07df 03       		.uleb128 0x3
 1908 07e0 59030000 		.4byte	.LASF128
 1909 07e4 0F       		.byte	0xf
 1910 07e5 64       		.byte	0x64
 1911 07e6 3A070000 		.4byte	0x73a
 1912 07ea 03       		.uleb128 0x3
 1913 07eb 05070000 		.4byte	.LASF129
 1914 07ef 0F       		.byte	0xf
 1915 07f0 71       		.byte	0x71
 1916 07f1 3A070000 		.4byte	0x73a
 1917 07f5 19       		.uleb128 0x19
 1918 07f6 2C000000 		.4byte	0x2c
 1919 07fa 0E080000 		.4byte	0x80e
 1920 07fe 0C       		.uleb128 0xc
 1921 07ff 33030000 		.4byte	0x333
 1922 0803 0C       		.uleb128 0xc
 1923 0804 0E080000 		.4byte	0x80e
 1924 0808 0C       		.uleb128 0xc
 1925 0809 2C000000 		.4byte	0x2c
 1926 080d 00       		.byte	0
 1927 080e 09       		.uleb128 0x9
 1928 080f 04       		.byte	0x4
 1929 0810 14080000 		.4byte	0x814
 1930 0814 16       		.uleb128 0x16
 1931 0815 A2000000 		.4byte	0xa2
 1932 0819 09       		.uleb128 0x9
 1933 081a 04       		.byte	0x4
 1934 081b F5070000 		.4byte	0x7f5
ARM GAS  /tmp/ccodQwgR.s 			page 35


 1935 081f 19       		.uleb128 0x19
 1936 0820 2C000000 		.4byte	0x2c
 1937 0824 38080000 		.4byte	0x838
 1938 0828 0C       		.uleb128 0xc
 1939 0829 33030000 		.4byte	0x333
 1940 082d 0C       		.uleb128 0xc
 1941 082e D9070000 		.4byte	0x7d9
 1942 0832 0C       		.uleb128 0xc
 1943 0833 2C000000 		.4byte	0x2c
 1944 0837 00       		.byte	0
 1945 0838 09       		.uleb128 0x9
 1946 0839 04       		.byte	0x4
 1947 083a 1F080000 		.4byte	0x81f
 1948 083e 19       		.uleb128 0x19
 1949 083f 10010000 		.4byte	0x110
 1950 0843 52080000 		.4byte	0x852
 1951 0847 0C       		.uleb128 0xc
 1952 0848 33030000 		.4byte	0x333
 1953 084c 0C       		.uleb128 0xc
 1954 084d A2000000 		.4byte	0xa2
 1955 0851 00       		.byte	0
 1956 0852 09       		.uleb128 0x9
 1957 0853 04       		.byte	0x4
 1958 0854 3E080000 		.4byte	0x83e
 1959 0858 19       		.uleb128 0x19
 1960 0859 10010000 		.4byte	0x110
 1961 085d 67080000 		.4byte	0x867
 1962 0861 0C       		.uleb128 0xc
 1963 0862 33030000 		.4byte	0x333
 1964 0866 00       		.byte	0
 1965 0867 09       		.uleb128 0x9
 1966 0868 04       		.byte	0x4
 1967 0869 58080000 		.4byte	0x858
 1968 086d 19       		.uleb128 0x19
 1969 086e 10010000 		.4byte	0x110
 1970 0872 86080000 		.4byte	0x886
 1971 0876 0C       		.uleb128 0xc
 1972 0877 33030000 		.4byte	0x333
 1973 087b 0C       		.uleb128 0xc
 1974 087c A2000000 		.4byte	0xa2
 1975 0880 0C       		.uleb128 0xc
 1976 0881 3C010000 		.4byte	0x13c
 1977 0885 00       		.byte	0
 1978 0886 09       		.uleb128 0x9
 1979 0887 04       		.byte	0x4
 1980 0888 6D080000 		.4byte	0x86d
 1981 088c 19       		.uleb128 0x19
 1982 088d 10010000 		.4byte	0x110
 1983 0891 A0080000 		.4byte	0x8a0
 1984 0895 0C       		.uleb128 0xc
 1985 0896 33030000 		.4byte	0x333
 1986 089a 0C       		.uleb128 0xc
 1987 089b 3C010000 		.4byte	0x13c
 1988 089f 00       		.byte	0
 1989 08a0 09       		.uleb128 0x9
 1990 08a1 04       		.byte	0x4
 1991 08a2 8C080000 		.4byte	0x88c
ARM GAS  /tmp/ccodQwgR.s 			page 36


 1992 08a6 19       		.uleb128 0x19
 1993 08a7 2C000000 		.4byte	0x2c
 1994 08ab C4080000 		.4byte	0x8c4
 1995 08af 0C       		.uleb128 0xc
 1996 08b0 33030000 		.4byte	0x333
 1997 08b4 0C       		.uleb128 0xc
 1998 08b5 0E080000 		.4byte	0x80e
 1999 08b9 0C       		.uleb128 0xc
 2000 08ba 2C000000 		.4byte	0x2c
 2001 08be 0C       		.uleb128 0xc
 2002 08bf 3C010000 		.4byte	0x13c
 2003 08c3 00       		.byte	0
 2004 08c4 09       		.uleb128 0x9
 2005 08c5 04       		.byte	0x4
 2006 08c6 A6080000 		.4byte	0x8a6
 2007 08ca 19       		.uleb128 0x19
 2008 08cb 2C000000 		.4byte	0x2c
 2009 08cf E8080000 		.4byte	0x8e8
 2010 08d3 0C       		.uleb128 0xc
 2011 08d4 33030000 		.4byte	0x333
 2012 08d8 0C       		.uleb128 0xc
 2013 08d9 D9070000 		.4byte	0x7d9
 2014 08dd 0C       		.uleb128 0xc
 2015 08de 2C000000 		.4byte	0x2c
 2016 08e2 0C       		.uleb128 0xc
 2017 08e3 3C010000 		.4byte	0x13c
 2018 08e7 00       		.byte	0
 2019 08e8 09       		.uleb128 0x9
 2020 08e9 04       		.byte	0x4
 2021 08ea CA080000 		.4byte	0x8ca
 2022 08ee 04       		.uleb128 0x4
 2023 08ef 01       		.byte	0x1
 2024 08f0 02       		.byte	0x2
 2025 08f1 7E040000 		.4byte	.LASF130
 2026 08f5 1A       		.uleb128 0x1a
 2027 08f6 01       		.byte	0x1
 2028 08f7 10       		.byte	0x10
 2029 08f8 55       		.byte	0x55
 2030 08f9 10090000 		.4byte	0x910
 2031 08fd 1B       		.uleb128 0x1b
 2032 08fe 37050000 		.4byte	.LASF131
 2033 0902 00       		.sleb128 0
 2034 0903 1B       		.uleb128 0x1b
 2035 0904 00050000 		.4byte	.LASF132
 2036 0908 01       		.sleb128 1
 2037 0909 1B       		.uleb128 0x1b
 2038 090a E8060000 		.4byte	.LASF133
 2039 090e 02       		.sleb128 2
 2040 090f 00       		.byte	0
 2041 0910 03       		.uleb128 0x3
 2042 0911 14070000 		.4byte	.LASF134
 2043 0915 10       		.byte	0x10
 2044 0916 59       		.byte	0x59
 2045 0917 F5080000 		.4byte	0x8f5
 2046 091b 03       		.uleb128 0x3
 2047 091c 72050000 		.4byte	.LASF135
 2048 0920 10       		.byte	0x10
ARM GAS  /tmp/ccodQwgR.s 			page 37


 2049 0921 5E       		.byte	0x5e
 2050 0922 26090000 		.4byte	0x926
 2051 0926 05       		.uleb128 0x5
 2052 0927 72050000 		.4byte	.LASF135
 2053 092b 78       		.byte	0x78
 2054 092c 10       		.byte	0x10
 2055 092d 78       		.byte	0x78
 2056 092e 91090000 		.4byte	0x991
 2057 0932 12       		.uleb128 0x12
 2058 0933 766D7400 		.ascii	"vmt\000"
 2059 0937 10       		.byte	0x10
 2060 0938 7A       		.byte	0x7a
 2061 0939 FE090000 		.4byte	0x9fe
 2062 093d 00       		.byte	0
 2063 093e 06       		.uleb128 0x6
 2064 093f A9020000 		.4byte	.LASF136
 2065 0943 10       		.byte	0x10
 2066 0944 7B       		.byte	0x7b
 2067 0945 2F070000 		.4byte	0x72f
 2068 0949 04       		.byte	0x4
 2069 094a 06       		.uleb128 0x6
 2070 094b 4F010000 		.4byte	.LASF137
 2071 094f 10       		.byte	0x10
 2072 0950 7B       		.byte	0x7b
 2073 0951 10090000 		.4byte	0x910
 2074 0955 08       		.byte	0x8
 2075 0956 06       		.uleb128 0x6
 2076 0957 81020000 		.4byte	.LASF138
 2077 095b 10       		.byte	0x10
 2078 095c 7B       		.byte	0x7b
 2079 095d DF070000 		.4byte	0x7df
 2080 0961 0C       		.byte	0xc
 2081 0962 06       		.uleb128 0x6
 2082 0963 DC020000 		.4byte	.LASF139
 2083 0967 10       		.byte	0x10
 2084 0968 7B       		.byte	0x7b
 2085 0969 EA070000 		.4byte	0x7ea
 2086 096d 30       		.byte	0x30
 2087 096e 12       		.uleb128 0x12
 2088 096f 696200   		.ascii	"ib\000"
 2089 0972 10       		.byte	0x10
 2090 0973 7B       		.byte	0x7b
 2091 0974 090A0000 		.4byte	0xa09
 2092 0978 54       		.byte	0x54
 2093 0979 12       		.uleb128 0x12
 2094 097a 6F6200   		.ascii	"ob\000"
 2095 097d 10       		.byte	0x10
 2096 097e 7B       		.byte	0x7b
 2097 097f 090A0000 		.4byte	0xa09
 2098 0983 64       		.byte	0x64
 2099 0984 06       		.uleb128 0x6
 2100 0985 4F020000 		.4byte	.LASF140
 2101 0989 10       		.byte	0x10
 2102 098a 7B       		.byte	0x7b
 2103 098b 190A0000 		.4byte	0xa19
 2104 098f 74       		.byte	0x74
 2105 0990 00       		.byte	0
ARM GAS  /tmp/ccodQwgR.s 			page 38


 2106 0991 05       		.uleb128 0x5
 2107 0992 6A020000 		.4byte	.LASF141
 2108 0996 20       		.byte	0x20
 2109 0997 10       		.byte	0x10
 2110 0998 6D       		.byte	0x6d
 2111 0999 FE090000 		.4byte	0x9fe
 2112 099d 06       		.uleb128 0x6
 2113 099e 53030000 		.4byte	.LASF142
 2114 09a2 10       		.byte	0x10
 2115 09a3 6E       		.byte	0x6e
 2116 09a4 19080000 		.4byte	0x819
 2117 09a8 00       		.byte	0
 2118 09a9 06       		.uleb128 0x6
 2119 09aa EB020000 		.4byte	.LASF143
 2120 09ae 10       		.byte	0x10
 2121 09af 6E       		.byte	0x6e
 2122 09b0 38080000 		.4byte	0x838
 2123 09b4 04       		.byte	0x4
 2124 09b5 12       		.uleb128 0x12
 2125 09b6 70757400 		.ascii	"put\000"
 2126 09ba 10       		.byte	0x10
 2127 09bb 6E       		.byte	0x6e
 2128 09bc 52080000 		.4byte	0x852
 2129 09c0 08       		.byte	0x8
 2130 09c1 12       		.uleb128 0x12
 2131 09c2 67657400 		.ascii	"get\000"
 2132 09c6 10       		.byte	0x10
 2133 09c7 6E       		.byte	0x6e
 2134 09c8 67080000 		.4byte	0x867
 2135 09cc 0C       		.byte	0xc
 2136 09cd 06       		.uleb128 0x6
 2137 09ce 67030000 		.4byte	.LASF144
 2138 09d2 10       		.byte	0x10
 2139 09d3 6E       		.byte	0x6e
 2140 09d4 86080000 		.4byte	0x886
 2141 09d8 10       		.byte	0x10
 2142 09d9 06       		.uleb128 0x6
 2143 09da 9E020000 		.4byte	.LASF145
 2144 09de 10       		.byte	0x10
 2145 09df 6E       		.byte	0x6e
 2146 09e0 A0080000 		.4byte	0x8a0
 2147 09e4 14       		.byte	0x14
 2148 09e5 06       		.uleb128 0x6
 2149 09e6 FE020000 		.4byte	.LASF146
 2150 09ea 10       		.byte	0x10
 2151 09eb 6E       		.byte	0x6e
 2152 09ec C4080000 		.4byte	0x8c4
 2153 09f0 18       		.byte	0x18
 2154 09f1 06       		.uleb128 0x6
 2155 09f2 F5000000 		.4byte	.LASF147
 2156 09f6 10       		.byte	0x10
 2157 09f7 6E       		.byte	0x6e
 2158 09f8 E8080000 		.4byte	0x8e8
 2159 09fc 1C       		.byte	0x1c
 2160 09fd 00       		.byte	0
 2161 09fe 09       		.uleb128 0x9
 2162 09ff 04       		.byte	0x4
ARM GAS  /tmp/ccodQwgR.s 			page 39


 2163 0a00 040A0000 		.4byte	0xa04
 2164 0a04 16       		.uleb128 0x16
 2165 0a05 91090000 		.4byte	0x991
 2166 0a09 17       		.uleb128 0x17
 2167 0a0a A2000000 		.4byte	0xa2
 2168 0a0e 190A0000 		.4byte	0xa19
 2169 0a12 18       		.uleb128 0x18
 2170 0a13 69040000 		.4byte	0x469
 2171 0a17 0F       		.byte	0xf
 2172 0a18 00       		.byte	0
 2173 0a19 09       		.uleb128 0x9
 2174 0a1a 04       		.byte	0x4
 2175 0a1b D8040000 		.4byte	0x4d8
 2176 0a1f 03       		.uleb128 0x3
 2177 0a20 D1030000 		.4byte	.LASF148
 2178 0a24 11       		.byte	0x11
 2179 0a25 28       		.byte	0x28
 2180 0a26 2A0A0000 		.4byte	0xa2a
 2181 0a2a 05       		.uleb128 0x5
 2182 0a2b B2010000 		.4byte	.LASF149
 2183 0a2f 04       		.byte	0x4
 2184 0a30 12       		.byte	0x12
 2185 0a31 00       		.byte	0
 2186 0a32 410A0000 		.4byte	0xa41
 2187 0a36 1C       		.uleb128 0x1c
 2188 0a37 B6060000 		.4byte	.LASF150
 2189 0a3b 33030000 		.4byte	0x333
 2190 0a3f 00       		.byte	0
 2191 0a40 00       		.byte	0
 2192 0a41 03       		.uleb128 0x3
 2193 0a42 4A000000 		.4byte	.LASF151
 2194 0a46 11       		.byte	0x11
 2195 0a47 62       		.byte	0x62
 2196 0a48 1F0A0000 		.4byte	0xa1f
 2197 0a4c 05       		.uleb128 0x5
 2198 0a4d 1B040000 		.4byte	.LASF152
 2199 0a51 10       		.byte	0x10
 2200 0a52 13       		.byte	0x13
 2201 0a53 3D       		.byte	0x3d
 2202 0a54 890A0000 		.4byte	0xa89
 2203 0a58 06       		.uleb128 0x6
 2204 0a59 53030000 		.4byte	.LASF142
 2205 0a5d 13       		.byte	0x13
 2206 0a5e 3E       		.byte	0x3e
 2207 0a5f 19080000 		.4byte	0x819
 2208 0a63 00       		.byte	0
 2209 0a64 06       		.uleb128 0x6
 2210 0a65 EB020000 		.4byte	.LASF143
 2211 0a69 13       		.byte	0x13
 2212 0a6a 3E       		.byte	0x3e
 2213 0a6b 38080000 		.4byte	0x838
 2214 0a6f 04       		.byte	0x4
 2215 0a70 12       		.uleb128 0x12
 2216 0a71 70757400 		.ascii	"put\000"
 2217 0a75 13       		.byte	0x13
 2218 0a76 3E       		.byte	0x3e
 2219 0a77 52080000 		.4byte	0x852
ARM GAS  /tmp/ccodQwgR.s 			page 40


 2220 0a7b 08       		.byte	0x8
 2221 0a7c 12       		.uleb128 0x12
 2222 0a7d 67657400 		.ascii	"get\000"
 2223 0a81 13       		.byte	0x13
 2224 0a82 3E       		.byte	0x3e
 2225 0a83 67080000 		.4byte	0x867
 2226 0a87 0C       		.byte	0xc
 2227 0a88 00       		.byte	0
 2228 0a89 13       		.uleb128 0x13
 2229 0a8a 14       		.byte	0x14
 2230 0a8b 13       		.byte	0x13
 2231 0a8c 46       		.byte	0x46
 2232 0a8d CE0A0000 		.4byte	0xace
 2233 0a91 12       		.uleb128 0x12
 2234 0a92 766D7400 		.ascii	"vmt\000"
 2235 0a96 13       		.byte	0x13
 2236 0a97 48       		.byte	0x48
 2237 0a98 CE0A0000 		.4byte	0xace
 2238 0a9c 00       		.byte	0
 2239 0a9d 06       		.uleb128 0x6
 2240 0a9e D4010000 		.4byte	.LASF153
 2241 0aa2 13       		.byte	0x13
 2242 0aa3 49       		.byte	0x49
 2243 0aa4 D9070000 		.4byte	0x7d9
 2244 0aa8 04       		.byte	0x4
 2245 0aa9 06       		.uleb128 0x6
 2246 0aaa 8E070000 		.4byte	.LASF154
 2247 0aae 13       		.byte	0x13
 2248 0aaf 49       		.byte	0x49
 2249 0ab0 2C000000 		.4byte	0x2c
 2250 0ab4 08       		.byte	0x8
 2251 0ab5 12       		.uleb128 0x12
 2252 0ab6 656F7300 		.ascii	"eos\000"
 2253 0aba 13       		.byte	0x13
 2254 0abb 49       		.byte	0x49
 2255 0abc 2C000000 		.4byte	0x2c
 2256 0ac0 0C       		.byte	0xc
 2257 0ac1 06       		.uleb128 0x6
 2258 0ac2 9E060000 		.4byte	.LASF89
 2259 0ac6 13       		.byte	0x13
 2260 0ac7 49       		.byte	0x49
 2261 0ac8 2C000000 		.4byte	0x2c
 2262 0acc 10       		.byte	0x10
 2263 0acd 00       		.byte	0
 2264 0ace 09       		.uleb128 0x9
 2265 0acf 04       		.byte	0x4
 2266 0ad0 D40A0000 		.4byte	0xad4
 2267 0ad4 16       		.uleb128 0x16
 2268 0ad5 4C0A0000 		.4byte	0xa4c
 2269 0ad9 03       		.uleb128 0x3
 2270 0ada 5A040000 		.4byte	.LASF155
 2271 0ade 13       		.byte	0x13
 2272 0adf 4A       		.byte	0x4a
 2273 0ae0 890A0000 		.4byte	0xa89
 2274 0ae4 1D       		.uleb128 0x1d
 2275 0ae5 35070000 		.4byte	.LASF157
 2276 0ae9 01       		.byte	0x1
ARM GAS  /tmp/ccodQwgR.s 			page 41


 2277 0aea 46       		.byte	0x46
 2278 0aeb 140B0000 		.4byte	0xb14
 2279 0aef 01       		.byte	0x1
 2280 0af0 140B0000 		.4byte	0xb14
 2281 0af4 1E       		.uleb128 0x1e
 2282 0af5 7000     		.ascii	"p\000"
 2283 0af7 01       		.byte	0x1
 2284 0af8 46       		.byte	0x46
 2285 0af9 140B0000 		.4byte	0xb14
 2286 0afd 1E       		.uleb128 0x1e
 2287 0afe 6E756D00 		.ascii	"num\000"
 2288 0b02 01       		.byte	0x1
 2289 0b03 46       		.byte	0x46
 2290 0b04 70000000 		.4byte	0x70
 2291 0b08 1F       		.uleb128 0x1f
 2292 0b09 FA040000 		.4byte	.LASF156
 2293 0b0d 01       		.byte	0x1
 2294 0b0e 46       		.byte	0x46
 2295 0b0f 37000000 		.4byte	0x37
 2296 0b13 00       		.byte	0
 2297 0b14 09       		.uleb128 0x9
 2298 0b15 04       		.byte	0x4
 2299 0b16 84060000 		.4byte	0x684
 2300 0b1a 1D       		.uleb128 0x1d
 2301 0b1b 72070000 		.4byte	.LASF158
 2302 0b1f 01       		.byte	0x1
 2303 0b20 25       		.byte	0x25
 2304 0b21 140B0000 		.4byte	0xb14
 2305 0b25 01       		.byte	0x1
 2306 0b26 7A0B0000 		.4byte	0xb7a
 2307 0b2a 1E       		.uleb128 0x1e
 2308 0b2b 7000     		.ascii	"p\000"
 2309 0b2d 01       		.byte	0x1
 2310 0b2e 25       		.byte	0x25
 2311 0b2f 140B0000 		.4byte	0xb14
 2312 0b33 1E       		.uleb128 0x1e
 2313 0b34 6E756D00 		.ascii	"num\000"
 2314 0b38 01       		.byte	0x1
 2315 0b39 26       		.byte	0x26
 2316 0b3a 70000000 		.4byte	0x70
 2317 0b3e 1F       		.uleb128 0x1f
 2318 0b3f FA040000 		.4byte	.LASF156
 2319 0b43 01       		.byte	0x1
 2320 0b44 27       		.byte	0x27
 2321 0b45 37000000 		.4byte	0x37
 2322 0b49 1F       		.uleb128 0x1f
 2323 0b4a C9030000 		.4byte	.LASF159
 2324 0b4e 01       		.byte	0x1
 2325 0b4f 28       		.byte	0x28
 2326 0b50 70000000 		.4byte	0x70
 2327 0b54 20       		.uleb128 0x20
 2328 0b55 6900     		.ascii	"i\000"
 2329 0b57 01       		.byte	0x1
 2330 0b58 29       		.byte	0x29
 2331 0b59 25000000 		.4byte	0x25
 2332 0b5d 20       		.uleb128 0x20
 2333 0b5e 7100     		.ascii	"q\000"
ARM GAS  /tmp/ccodQwgR.s 			page 42


 2334 0b60 01       		.byte	0x1
 2335 0b61 2A       		.byte	0x2a
 2336 0b62 140B0000 		.4byte	0xb14
 2337 0b66 20       		.uleb128 0x20
 2338 0b67 6C00     		.ascii	"l\000"
 2339 0b69 01       		.byte	0x1
 2340 0b6a 2B       		.byte	0x2b
 2341 0b6b 70000000 		.4byte	0x70
 2342 0b6f 20       		.uleb128 0x20
 2343 0b70 6C6C00   		.ascii	"ll\000"
 2344 0b73 01       		.byte	0x1
 2345 0b74 2B       		.byte	0x2b
 2346 0b75 70000000 		.4byte	0x70
 2347 0b79 00       		.byte	0
 2348 0b7a 21       		.uleb128 0x21
 2349 0b7b 1A0B0000 		.4byte	0xb1a
 2350 0b7f 00000000 		.4byte	.LFB212
 2351 0b83 44000000 		.4byte	.LFE212-.LFB212
 2352 0b87 01       		.uleb128 0x1
 2353 0b88 9C       		.byte	0x9c
 2354 0b89 D30B0000 		.4byte	0xbd3
 2355 0b8d 22       		.uleb128 0x22
 2356 0b8e 2A0B0000 		.4byte	0xb2a
 2357 0b92 00000000 		.4byte	.LLST0
 2358 0b96 22       		.uleb128 0x22
 2359 0b97 330B0000 		.4byte	0xb33
 2360 0b9b 38000000 		.4byte	.LLST1
 2361 0b9f 22       		.uleb128 0x22
 2362 0ba0 3E0B0000 		.4byte	0xb3e
 2363 0ba4 59000000 		.4byte	.LLST2
 2364 0ba8 23       		.uleb128 0x23
 2365 0ba9 540B0000 		.4byte	0xb54
 2366 0bad 7A000000 		.4byte	.LLST3
 2367 0bb1 23       		.uleb128 0x23
 2368 0bb2 5D0B0000 		.4byte	0xb5d
 2369 0bb6 A8000000 		.4byte	.LLST4
 2370 0bba 23       		.uleb128 0x23
 2371 0bbb 660B0000 		.4byte	0xb66
 2372 0bbf DE000000 		.4byte	.LLST5
 2373 0bc3 23       		.uleb128 0x23
 2374 0bc4 6F0B0000 		.4byte	0xb6f
 2375 0bc8 FC000000 		.4byte	.LLST6
 2376 0bcc 24       		.uleb128 0x24
 2377 0bcd 490B0000 		.4byte	0xb49
 2378 0bd1 00       		.byte	0
 2379 0bd2 00       		.byte	0
 2380 0bd3 25       		.uleb128 0x25
 2381 0bd4 61070000 		.4byte	.LASF166
 2382 0bd8 01       		.byte	0x1
 2383 0bd9 79       		.byte	0x79
 2384 0bda 25000000 		.4byte	0x25
 2385 0bde 00000000 		.4byte	.LFB209
 2386 0be2 08030000 		.4byte	.LFE209-.LFB209
 2387 0be6 01       		.uleb128 0x1
 2388 0be7 9C       		.byte	0x9c
 2389 0be8 7E0D0000 		.4byte	0xd7e
 2390 0bec 26       		.uleb128 0x26
ARM GAS  /tmp/ccodQwgR.s 			page 43


 2391 0bed 63687000 		.ascii	"chp\000"
 2392 0bf1 01       		.byte	0x1
 2393 0bf2 79       		.byte	0x79
 2394 0bf3 7E0D0000 		.4byte	0xd7e
 2395 0bf7 25010000 		.4byte	.LLST7
 2396 0bfb 26       		.uleb128 0x26
 2397 0bfc 666D7400 		.ascii	"fmt\000"
 2398 0c00 01       		.byte	0x1
 2399 0c01 79       		.byte	0x79
 2400 0c02 79060000 		.4byte	0x679
 2401 0c06 43010000 		.4byte	.LLST8
 2402 0c0a 26       		.uleb128 0x26
 2403 0c0b 617000   		.ascii	"ap\000"
 2404 0c0e 01       		.byte	0x1
 2405 0c0f 79       		.byte	0x79
 2406 0c10 410A0000 		.4byte	0xa41
 2407 0c14 F8010000 		.4byte	.LLST9
 2408 0c18 27       		.uleb128 0x27
 2409 0c19 7000     		.ascii	"p\000"
 2410 0c1b 01       		.byte	0x1
 2411 0c1c 7A       		.byte	0x7a
 2412 0c1d 140B0000 		.4byte	0xb14
 2413 0c21 0B020000 		.4byte	.LLST10
 2414 0c25 27       		.uleb128 0x27
 2415 0c26 7300     		.ascii	"s\000"
 2416 0c28 01       		.byte	0x1
 2417 0c29 7A       		.byte	0x7a
 2418 0c2a 140B0000 		.4byte	0xb14
 2419 0c2e CA020000 		.4byte	.LLST11
 2420 0c32 27       		.uleb128 0x27
 2421 0c33 6300     		.ascii	"c\000"
 2422 0c35 01       		.byte	0x1
 2423 0c36 7A       		.byte	0x7a
 2424 0c37 84060000 		.4byte	0x684
 2425 0c3b 9D030000 		.4byte	.LLST12
 2426 0c3f 28       		.uleb128 0x28
 2427 0c40 0B020000 		.4byte	.LASF160
 2428 0c44 01       		.byte	0x1
 2429 0c45 7A       		.byte	0x7a
 2430 0c46 84060000 		.4byte	0x684
 2431 0c4a 20040000 		.4byte	.LLST13
 2432 0c4e 27       		.uleb128 0x27
 2433 0c4f 6900     		.ascii	"i\000"
 2434 0c51 01       		.byte	0x1
 2435 0c52 7B       		.byte	0x7b
 2436 0c53 25000000 		.4byte	0x25
 2437 0c57 A0040000 		.4byte	.LLST14
 2438 0c5b 28       		.uleb128 0x28
 2439 0c5c 51060000 		.4byte	.LASF161
 2440 0c60 01       		.byte	0x1
 2441 0c61 7B       		.byte	0x7b
 2442 0c62 25000000 		.4byte	0x25
 2443 0c66 33050000 		.4byte	.LLST15
 2444 0c6a 28       		.uleb128 0x28
 2445 0c6b A3020000 		.4byte	.LASF162
 2446 0c6f 01       		.byte	0x1
 2447 0c70 7B       		.byte	0x7b
ARM GAS  /tmp/ccodQwgR.s 			page 44


 2448 0c71 25000000 		.4byte	0x25
 2449 0c75 CB050000 		.4byte	.LLST16
 2450 0c79 27       		.uleb128 0x27
 2451 0c7a 6E00     		.ascii	"n\000"
 2452 0c7c 01       		.byte	0x1
 2453 0c7d 7C       		.byte	0x7c
 2454 0c7e 25000000 		.4byte	0x25
 2455 0c82 94060000 		.4byte	.LLST17
 2456 0c86 28       		.uleb128 0x28
 2457 0c87 12020000 		.4byte	.LASF163
 2458 0c8b 01       		.byte	0x1
 2459 0c8c 7D       		.byte	0x7d
 2460 0c8d EE080000 		.4byte	0x8ee
 2461 0c91 D4060000 		.4byte	.LLST18
 2462 0c95 28       		.uleb128 0x28
 2463 0c96 93020000 		.4byte	.LASF164
 2464 0c9a 01       		.byte	0x1
 2465 0c9b 7D       		.byte	0x7d
 2466 0c9c EE080000 		.4byte	0x8ee
 2467 0ca0 F4060000 		.4byte	.LLST19
 2468 0ca4 27       		.uleb128 0x27
 2469 0ca5 6C00     		.ascii	"l\000"
 2470 0ca7 01       		.byte	0x1
 2471 0ca8 7E       		.byte	0x7e
 2472 0ca9 70000000 		.4byte	0x70
 2473 0cad 40070000 		.4byte	.LLST20
 2474 0cb1 29       		.uleb128 0x29
 2475 0cb2 3E010000 		.4byte	.LASF165
 2476 0cb6 01       		.byte	0x1
 2477 0cb7 83       		.byte	0x83
 2478 0cb8 840D0000 		.4byte	0xd84
 2479 0cbc 02       		.uleb128 0x2
 2480 0cbd 91       		.byte	0x91
 2481 0cbe 4C       		.sleb128 -52
 2482 0cbf 2A       		.uleb128 0x2a
 2483 0cc0 B9030000 		.4byte	.LASF176
 2484 0cc4 01       		.byte	0x1
 2485 0cc5 EF       		.byte	0xef
 2486 0cc6 9A020000 		.4byte	.L36
 2487 0cca 2B       		.uleb128 0x2b
 2488 0ccb E40A0000 		.4byte	0xae4
 2489 0ccf 76020000 		.4byte	.LBB6
 2490 0cd3 00000000 		.4byte	.Ldebug_ranges0+0
 2491 0cd7 01       		.byte	0x1
 2492 0cd8 F4       		.byte	0xf4
 2493 0cd9 F60C0000 		.4byte	0xcf6
 2494 0cdd 2C       		.uleb128 0x2c
 2495 0cde 080B0000 		.4byte	0xb08
 2496 0ce2 2C       		.uleb128 0x2c
 2497 0ce3 FD0A0000 		.4byte	0xafd
 2498 0ce7 2C       		.uleb128 0x2c
 2499 0ce8 F40A0000 		.4byte	0xaf4
 2500 0cec 2D       		.uleb128 0x2d
 2501 0ced 7E020000 		.4byte	.LVL87
 2502 0cf1 7A0B0000 		.4byte	0xb7a
 2503 0cf5 00       		.byte	0
 2504 0cf6 2E       		.uleb128 0x2e
ARM GAS  /tmp/ccodQwgR.s 			page 45


 2505 0cf7 E40A0000 		.4byte	0xae4
 2506 0cfb 96020000 		.4byte	.LBB10
 2507 0cff 04000000 		.4byte	.LBE10-.LBB10
 2508 0d03 01       		.byte	0x1
 2509 0d04 D8       		.byte	0xd8
 2510 0d05 250D0000 		.4byte	0xd25
 2511 0d09 22       		.uleb128 0x22
 2512 0d0a 080B0000 		.4byte	0xb08
 2513 0d0e 69070000 		.4byte	.LLST21
 2514 0d12 22       		.uleb128 0x22
 2515 0d13 FD0A0000 		.4byte	0xafd
 2516 0d17 7D070000 		.4byte	.LLST22
 2517 0d1b 22       		.uleb128 0x22
 2518 0d1c F40A0000 		.4byte	0xaf4
 2519 0d20 90070000 		.4byte	.LLST23
 2520 0d24 00       		.byte	0
 2521 0d25 2F       		.uleb128 0x2f
 2522 0d26 36000000 		.4byte	.LVL21
 2523 0d2a 350D0000 		.4byte	0xd35
 2524 0d2e 30       		.uleb128 0x30
 2525 0d2f 01       		.uleb128 0x1
 2526 0d30 50       		.byte	0x50
 2527 0d31 02       		.uleb128 0x2
 2528 0d32 79       		.byte	0x79
 2529 0d33 00       		.sleb128 0
 2530 0d34 00       		.byte	0
 2531 0d35 2F       		.uleb128 0x2f
 2532 0d36 F2010000 		.4byte	.LVL65
 2533 0d3a 4B0D0000 		.4byte	0xd4b
 2534 0d3e 30       		.uleb128 0x30
 2535 0d3f 01       		.uleb128 0x1
 2536 0d40 51       		.byte	0x51
 2537 0d41 02       		.uleb128 0x2
 2538 0d42 77       		.byte	0x77
 2539 0d43 00       		.sleb128 0
 2540 0d44 30       		.uleb128 0x30
 2541 0d45 01       		.uleb128 0x1
 2542 0d46 50       		.byte	0x50
 2543 0d47 02       		.uleb128 0x2
 2544 0d48 79       		.byte	0x79
 2545 0d49 00       		.sleb128 0
 2546 0d4a 00       		.byte	0
 2547 0d4b 2F       		.uleb128 0x2f
 2548 0d4c 38020000 		.4byte	.LVL74
 2549 0d50 610D0000 		.4byte	0xd61
 2550 0d54 30       		.uleb128 0x30
 2551 0d55 01       		.uleb128 0x1
 2552 0d56 51       		.byte	0x51
 2553 0d57 02       		.uleb128 0x2
 2554 0d58 77       		.byte	0x77
 2555 0d59 00       		.sleb128 0
 2556 0d5a 30       		.uleb128 0x30
 2557 0d5b 01       		.uleb128 0x1
 2558 0d5c 50       		.byte	0x50
 2559 0d5d 02       		.uleb128 0x2
 2560 0d5e 79       		.byte	0x79
 2561 0d5f 00       		.sleb128 0
ARM GAS  /tmp/ccodQwgR.s 			page 46


 2562 0d60 00       		.byte	0
 2563 0d61 2F       		.uleb128 0x2f
 2564 0d62 5E020000 		.4byte	.LVL81
 2565 0d66 710D0000 		.4byte	0xd71
 2566 0d6a 30       		.uleb128 0x30
 2567 0d6b 01       		.uleb128 0x1
 2568 0d6c 50       		.byte	0x50
 2569 0d6d 02       		.uleb128 0x2
 2570 0d6e 79       		.byte	0x79
 2571 0d6f 00       		.sleb128 0
 2572 0d70 00       		.byte	0
 2573 0d71 31       		.uleb128 0x31
 2574 0d72 C6020000 		.4byte	.LVL103
 2575 0d76 30       		.uleb128 0x30
 2576 0d77 01       		.uleb128 0x1
 2577 0d78 50       		.byte	0x50
 2578 0d79 02       		.uleb128 0x2
 2579 0d7a 79       		.byte	0x79
 2580 0d7b 00       		.sleb128 0
 2581 0d7c 00       		.byte	0
 2582 0d7d 00       		.byte	0
 2583 0d7e 09       		.uleb128 0x9
 2584 0d7f 04       		.byte	0x4
 2585 0d80 1B090000 		.4byte	0x91b
 2586 0d84 17       		.uleb128 0x17
 2587 0d85 84060000 		.4byte	0x684
 2588 0d89 940D0000 		.4byte	0xd94
 2589 0d8d 18       		.uleb128 0x18
 2590 0d8e 69040000 		.4byte	0x469
 2591 0d92 0B       		.byte	0xb
 2592 0d93 00       		.byte	0
 2593 0d94 32       		.uleb128 0x32
 2594 0d95 09080000 		.4byte	.LASF167
 2595 0d99 01       		.byte	0x1
 2596 0d9a 2E01     		.2byte	0x12e
 2597 0d9c 25000000 		.4byte	0x25
 2598 0da0 00000000 		.4byte	.LFB210
 2599 0da4 1E000000 		.4byte	.LFE210-.LFB210
 2600 0da8 01       		.uleb128 0x1
 2601 0da9 9C       		.byte	0x9c
 2602 0daa 090E0000 		.4byte	0xe09
 2603 0dae 33       		.uleb128 0x33
 2604 0daf 63687000 		.ascii	"chp\000"
 2605 0db3 01       		.byte	0x1
 2606 0db4 2E01     		.2byte	0x12e
 2607 0db6 7E0D0000 		.4byte	0xd7e
 2608 0dba A3070000 		.4byte	.LLST24
 2609 0dbe 34       		.uleb128 0x34
 2610 0dbf 666D7400 		.ascii	"fmt\000"
 2611 0dc3 01       		.byte	0x1
 2612 0dc4 2E01     		.2byte	0x12e
 2613 0dc6 79060000 		.4byte	0x679
 2614 0dca 02       		.uleb128 0x2
 2615 0dcb 91       		.byte	0x91
 2616 0dcc 74       		.sleb128 -12
 2617 0dcd 35       		.uleb128 0x35
 2618 0dce 36       		.uleb128 0x36
ARM GAS  /tmp/ccodQwgR.s 			page 47


 2619 0dcf 617000   		.ascii	"ap\000"
 2620 0dd2 01       		.byte	0x1
 2621 0dd3 2F01     		.2byte	0x12f
 2622 0dd5 410A0000 		.4byte	0xa41
 2623 0dd9 02       		.uleb128 0x2
 2624 0dda 91       		.byte	0x91
 2625 0ddb 6C       		.sleb128 -20
 2626 0ddc 37       		.uleb128 0x37
 2627 0ddd 8B000000 		.4byte	.LASF168
 2628 0de1 01       		.byte	0x1
 2629 0de2 3001     		.2byte	0x130
 2630 0de4 25000000 		.4byte	0x25
 2631 0de8 01       		.uleb128 0x1
 2632 0de9 50       		.byte	0x50
 2633 0dea 38       		.uleb128 0x38
 2634 0deb 14000000 		.4byte	.LVL115
 2635 0def D30B0000 		.4byte	0xbd3
 2636 0df3 30       		.uleb128 0x30
 2637 0df4 01       		.uleb128 0x1
 2638 0df5 52       		.byte	0x52
 2639 0df6 02       		.uleb128 0x2
 2640 0df7 91       		.byte	0x91
 2641 0df8 60       		.sleb128 -32
 2642 0df9 30       		.uleb128 0x30
 2643 0dfa 01       		.uleb128 0x1
 2644 0dfb 51       		.byte	0x51
 2645 0dfc 03       		.uleb128 0x3
 2646 0dfd 91       		.byte	0x91
 2647 0dfe 5C       		.sleb128 -36
 2648 0dff 06       		.byte	0x6
 2649 0e00 30       		.uleb128 0x30
 2650 0e01 01       		.uleb128 0x1
 2651 0e02 50       		.byte	0x50
 2652 0e03 03       		.uleb128 0x3
 2653 0e04 F3       		.byte	0xf3
 2654 0e05 01       		.uleb128 0x1
 2655 0e06 50       		.byte	0x50
 2656 0e07 00       		.byte	0
 2657 0e08 00       		.byte	0
 2658 0e09 32       		.uleb128 0x32
 2659 0e0a 7F050000 		.4byte	.LASF169
 2660 0e0e 01       		.byte	0x1
 2661 0e0f 5501     		.2byte	0x155
 2662 0e11 25000000 		.4byte	0x25
 2663 0e15 00000000 		.4byte	.LFB211
 2664 0e19 5E000000 		.4byte	.LFE211-.LFB211
 2665 0e1d 01       		.uleb128 0x1
 2666 0e1e 9C       		.byte	0x9c
 2667 0e1f 290F0000 		.4byte	0xf29
 2668 0e23 33       		.uleb128 0x33
 2669 0e24 73747200 		.ascii	"str\000"
 2670 0e28 01       		.byte	0x1
 2671 0e29 5501     		.2byte	0x155
 2672 0e2b 140B0000 		.4byte	0xb14
 2673 0e2f C4070000 		.4byte	.LLST25
 2674 0e33 39       		.uleb128 0x39
 2675 0e34 8E070000 		.4byte	.LASF154
ARM GAS  /tmp/ccodQwgR.s 			page 48


 2676 0e38 01       		.byte	0x1
 2677 0e39 5501     		.2byte	0x155
 2678 0e3b 2C000000 		.4byte	0x2c
 2679 0e3f 14080000 		.4byte	.LLST26
 2680 0e43 34       		.uleb128 0x34
 2681 0e44 666D7400 		.ascii	"fmt\000"
 2682 0e48 01       		.byte	0x1
 2683 0e49 5501     		.2byte	0x155
 2684 0e4b 79060000 		.4byte	0x679
 2685 0e4f 02       		.uleb128 0x2
 2686 0e50 91       		.byte	0x91
 2687 0e51 78       		.sleb128 -8
 2688 0e52 35       		.uleb128 0x35
 2689 0e53 36       		.uleb128 0x36
 2690 0e54 617000   		.ascii	"ap\000"
 2691 0e57 01       		.byte	0x1
 2692 0e58 5601     		.2byte	0x156
 2693 0e5a 410A0000 		.4byte	0xa41
 2694 0e5e 02       		.uleb128 0x2
 2695 0e5f 91       		.byte	0x91
 2696 0e60 50       		.sleb128 -48
 2697 0e61 36       		.uleb128 0x36
 2698 0e62 6D7300   		.ascii	"ms\000"
 2699 0e65 01       		.byte	0x1
 2700 0e66 5701     		.2byte	0x157
 2701 0e68 D90A0000 		.4byte	0xad9
 2702 0e6c 02       		.uleb128 0x2
 2703 0e6d 91       		.byte	0x91
 2704 0e6e 54       		.sleb128 -44
 2705 0e6f 3A       		.uleb128 0x3a
 2706 0e70 63687000 		.ascii	"chp\000"
 2707 0e74 01       		.byte	0x1
 2708 0e75 5801     		.2byte	0x158
 2709 0e77 7E0D0000 		.4byte	0xd7e
 2710 0e7b 64080000 		.4byte	.LLST27
 2711 0e7f 3B       		.uleb128 0x3b
 2712 0e80 68000000 		.4byte	.LASF170
 2713 0e84 01       		.byte	0x1
 2714 0e85 5901     		.2byte	0x159
 2715 0e87 2C000000 		.4byte	0x2c
 2716 0e8b B6080000 		.4byte	.LLST28
 2717 0e8f 3B       		.uleb128 0x3b
 2718 0e90 61000000 		.4byte	.LASF171
 2719 0e94 01       		.byte	0x1
 2720 0e95 5A01     		.2byte	0x15a
 2721 0e97 25000000 		.4byte	0x25
 2722 0e9b 0C090000 		.4byte	.LLST29
 2723 0e9f 3C       		.uleb128 0x3c
 2724 0ea0 18000000 		.4byte	.LVL121
 2725 0ea4 450F0000 		.4byte	0xf45
 2726 0ea8 C40E0000 		.4byte	0xec4
 2727 0eac 30       		.uleb128 0x30
 2728 0ead 01       		.uleb128 0x1
 2729 0eae 53       		.byte	0x53
 2730 0eaf 01       		.uleb128 0x1
 2731 0eb0 30       		.byte	0x30
 2732 0eb1 30       		.uleb128 0x30
ARM GAS  /tmp/ccodQwgR.s 			page 49


 2733 0eb2 01       		.uleb128 0x1
 2734 0eb3 52       		.byte	0x52
 2735 0eb4 02       		.uleb128 0x2
 2736 0eb5 74       		.byte	0x74
 2737 0eb6 7F       		.sleb128 -1
 2738 0eb7 30       		.uleb128 0x30
 2739 0eb8 01       		.uleb128 0x1
 2740 0eb9 51       		.byte	0x51
 2741 0eba 02       		.uleb128 0x2
 2742 0ebb 75       		.byte	0x75
 2743 0ebc 00       		.sleb128 0
 2744 0ebd 30       		.uleb128 0x30
 2745 0ebe 01       		.uleb128 0x1
 2746 0ebf 50       		.byte	0x50
 2747 0ec0 02       		.uleb128 0x2
 2748 0ec1 91       		.byte	0x91
 2749 0ec2 44       		.sleb128 -60
 2750 0ec3 00       		.byte	0
 2751 0ec4 3C       		.uleb128 0x3c
 2752 0ec5 26000000 		.4byte	.LVL123
 2753 0ec9 D30B0000 		.4byte	0xbd3
 2754 0ecd E50E0000 		.4byte	0xee5
 2755 0ed1 30       		.uleb128 0x30
 2756 0ed2 01       		.uleb128 0x1
 2757 0ed3 52       		.byte	0x52
 2758 0ed4 02       		.uleb128 0x2
 2759 0ed5 91       		.byte	0x91
 2760 0ed6 6C       		.sleb128 -20
 2761 0ed7 30       		.uleb128 0x30
 2762 0ed8 01       		.uleb128 0x1
 2763 0ed9 51       		.byte	0x51
 2764 0eda 03       		.uleb128 0x3
 2765 0edb 91       		.byte	0x91
 2766 0edc 68       		.sleb128 -24
 2767 0edd 06       		.byte	0x6
 2768 0ede 30       		.uleb128 0x30
 2769 0edf 01       		.uleb128 0x1
 2770 0ee0 50       		.byte	0x50
 2771 0ee1 02       		.uleb128 0x2
 2772 0ee2 91       		.byte	0x91
 2773 0ee3 44       		.sleb128 -60
 2774 0ee4 00       		.byte	0
 2775 0ee5 3C       		.uleb128 0x3c
 2776 0ee6 46000000 		.4byte	.LVL128
 2777 0eea 450F0000 		.4byte	0xf45
 2778 0eee 0B0F0000 		.4byte	0xf0b
 2779 0ef2 30       		.uleb128 0x30
 2780 0ef3 01       		.uleb128 0x1
 2781 0ef4 53       		.byte	0x53
 2782 0ef5 02       		.uleb128 0x2
 2783 0ef6 74       		.byte	0x74
 2784 0ef7 00       		.sleb128 0
 2785 0ef8 30       		.uleb128 0x30
 2786 0ef9 01       		.uleb128 0x1
 2787 0efa 52       		.byte	0x52
 2788 0efb 02       		.uleb128 0x2
 2789 0efc 74       		.byte	0x74
ARM GAS  /tmp/ccodQwgR.s 			page 50


 2790 0efd 00       		.sleb128 0
 2791 0efe 30       		.uleb128 0x30
 2792 0eff 01       		.uleb128 0x1
 2793 0f00 51       		.byte	0x51
 2794 0f01 02       		.uleb128 0x2
 2795 0f02 75       		.byte	0x75
 2796 0f03 00       		.sleb128 0
 2797 0f04 30       		.uleb128 0x30
 2798 0f05 01       		.uleb128 0x1
 2799 0f06 50       		.byte	0x50
 2800 0f07 02       		.uleb128 0x2
 2801 0f08 91       		.byte	0x91
 2802 0f09 44       		.sleb128 -60
 2803 0f0a 00       		.byte	0
 2804 0f0b 38       		.uleb128 0x38
 2805 0f0c 54000000 		.4byte	.LVL130
 2806 0f10 D30B0000 		.4byte	0xbd3
 2807 0f14 30       		.uleb128 0x30
 2808 0f15 01       		.uleb128 0x1
 2809 0f16 52       		.byte	0x52
 2810 0f17 02       		.uleb128 0x2
 2811 0f18 91       		.byte	0x91
 2812 0f19 6C       		.sleb128 -20
 2813 0f1a 30       		.uleb128 0x30
 2814 0f1b 01       		.uleb128 0x1
 2815 0f1c 51       		.byte	0x51
 2816 0f1d 03       		.uleb128 0x3
 2817 0f1e 91       		.byte	0x91
 2818 0f1f 68       		.sleb128 -24
 2819 0f20 06       		.byte	0x6
 2820 0f21 30       		.uleb128 0x30
 2821 0f22 01       		.uleb128 0x1
 2822 0f23 50       		.byte	0x50
 2823 0f24 02       		.uleb128 0x2
 2824 0f25 91       		.byte	0x91
 2825 0f26 44       		.sleb128 -60
 2826 0f27 00       		.byte	0
 2827 0f28 00       		.byte	0
 2828 0f29 3D       		.uleb128 0x3d
 2829 0f2a C5000000 		.4byte	.LASF172
 2830 0f2e 14       		.byte	0x14
 2831 0f2f 5506     		.2byte	0x655
 2832 0f31 350F0000 		.4byte	0xf35
 2833 0f35 0F       		.uleb128 0xf
 2834 0f36 AD000000 		.4byte	0xad
 2835 0f3a 3E       		.uleb128 0x3e
 2836 0f3b 636800   		.ascii	"ch\000"
 2837 0f3e 07       		.byte	0x7
 2838 0f3f 0902     		.2byte	0x209
 2839 0f41 02040000 		.4byte	0x402
 2840 0f45 3F       		.uleb128 0x3f
 2841 0f46 46030000 		.4byte	.LASF177
 2842 0f4a 13       		.byte	0x13
 2843 0f4b 57       		.byte	0x57
 2844 0f4c 650F0000 		.4byte	0xf65
 2845 0f50 0C       		.uleb128 0xc
 2846 0f51 650F0000 		.4byte	0xf65
ARM GAS  /tmp/ccodQwgR.s 			page 51


 2847 0f55 0C       		.uleb128 0xc
 2848 0f56 D9070000 		.4byte	0x7d9
 2849 0f5a 0C       		.uleb128 0xc
 2850 0f5b 2C000000 		.4byte	0x2c
 2851 0f5f 0C       		.uleb128 0xc
 2852 0f60 2C000000 		.4byte	0x2c
 2853 0f64 00       		.byte	0
 2854 0f65 09       		.uleb128 0x9
 2855 0f66 04       		.byte	0x4
 2856 0f67 D90A0000 		.4byte	0xad9
 2857 0f6b 00       		.byte	0
 2858              		.section	.debug_abbrev,"",%progbits
 2859              	.Ldebug_abbrev0:
 2860 0000 01       		.uleb128 0x1
 2861 0001 11       		.uleb128 0x11
 2862 0002 01       		.byte	0x1
 2863 0003 25       		.uleb128 0x25
 2864 0004 0E       		.uleb128 0xe
 2865 0005 13       		.uleb128 0x13
 2866 0006 0B       		.uleb128 0xb
 2867 0007 03       		.uleb128 0x3
 2868 0008 0E       		.uleb128 0xe
 2869 0009 1B       		.uleb128 0x1b
 2870 000a 0E       		.uleb128 0xe
 2871 000b 55       		.uleb128 0x55
 2872 000c 17       		.uleb128 0x17
 2873 000d 11       		.uleb128 0x11
 2874 000e 01       		.uleb128 0x1
 2875 000f 10       		.uleb128 0x10
 2876 0010 17       		.uleb128 0x17
 2877 0011 00       		.byte	0
 2878 0012 00       		.byte	0
 2879 0013 02       		.uleb128 0x2
 2880 0014 24       		.uleb128 0x24
 2881 0015 00       		.byte	0
 2882 0016 0B       		.uleb128 0xb
 2883 0017 0B       		.uleb128 0xb
 2884 0018 3E       		.uleb128 0x3e
 2885 0019 0B       		.uleb128 0xb
 2886 001a 03       		.uleb128 0x3
 2887 001b 08       		.uleb128 0x8
 2888 001c 00       		.byte	0
 2889 001d 00       		.byte	0
 2890 001e 03       		.uleb128 0x3
 2891 001f 16       		.uleb128 0x16
 2892 0020 00       		.byte	0
 2893 0021 03       		.uleb128 0x3
 2894 0022 0E       		.uleb128 0xe
 2895 0023 3A       		.uleb128 0x3a
 2896 0024 0B       		.uleb128 0xb
 2897 0025 3B       		.uleb128 0x3b
 2898 0026 0B       		.uleb128 0xb
 2899 0027 49       		.uleb128 0x49
 2900 0028 13       		.uleb128 0x13
 2901 0029 00       		.byte	0
 2902 002a 00       		.byte	0
 2903 002b 04       		.uleb128 0x4
ARM GAS  /tmp/ccodQwgR.s 			page 52


 2904 002c 24       		.uleb128 0x24
 2905 002d 00       		.byte	0
 2906 002e 0B       		.uleb128 0xb
 2907 002f 0B       		.uleb128 0xb
 2908 0030 3E       		.uleb128 0x3e
 2909 0031 0B       		.uleb128 0xb
 2910 0032 03       		.uleb128 0x3
 2911 0033 0E       		.uleb128 0xe
 2912 0034 00       		.byte	0
 2913 0035 00       		.byte	0
 2914 0036 05       		.uleb128 0x5
 2915 0037 13       		.uleb128 0x13
 2916 0038 01       		.byte	0x1
 2917 0039 03       		.uleb128 0x3
 2918 003a 0E       		.uleb128 0xe
 2919 003b 0B       		.uleb128 0xb
 2920 003c 0B       		.uleb128 0xb
 2921 003d 3A       		.uleb128 0x3a
 2922 003e 0B       		.uleb128 0xb
 2923 003f 3B       		.uleb128 0x3b
 2924 0040 0B       		.uleb128 0xb
 2925 0041 01       		.uleb128 0x1
 2926 0042 13       		.uleb128 0x13
 2927 0043 00       		.byte	0
 2928 0044 00       		.byte	0
 2929 0045 06       		.uleb128 0x6
 2930 0046 0D       		.uleb128 0xd
 2931 0047 00       		.byte	0
 2932 0048 03       		.uleb128 0x3
 2933 0049 0E       		.uleb128 0xe
 2934 004a 3A       		.uleb128 0x3a
 2935 004b 0B       		.uleb128 0xb
 2936 004c 3B       		.uleb128 0x3b
 2937 004d 0B       		.uleb128 0xb
 2938 004e 49       		.uleb128 0x49
 2939 004f 13       		.uleb128 0x13
 2940 0050 38       		.uleb128 0x38
 2941 0051 0B       		.uleb128 0xb
 2942 0052 00       		.byte	0
 2943 0053 00       		.byte	0
 2944 0054 07       		.uleb128 0x7
 2945 0055 0D       		.uleb128 0xd
 2946 0056 00       		.byte	0
 2947 0057 03       		.uleb128 0x3
 2948 0058 08       		.uleb128 0x8
 2949 0059 3A       		.uleb128 0x3a
 2950 005a 0B       		.uleb128 0xb
 2951 005b 3B       		.uleb128 0x3b
 2952 005c 05       		.uleb128 0x5
 2953 005d 49       		.uleb128 0x49
 2954 005e 13       		.uleb128 0x13
 2955 005f 38       		.uleb128 0x38
 2956 0060 0B       		.uleb128 0xb
 2957 0061 00       		.byte	0
 2958 0062 00       		.byte	0
 2959 0063 08       		.uleb128 0x8
 2960 0064 0D       		.uleb128 0xd
ARM GAS  /tmp/ccodQwgR.s 			page 53


 2961 0065 00       		.byte	0
 2962 0066 03       		.uleb128 0x3
 2963 0067 0E       		.uleb128 0xe
 2964 0068 3A       		.uleb128 0x3a
 2965 0069 0B       		.uleb128 0xb
 2966 006a 3B       		.uleb128 0x3b
 2967 006b 05       		.uleb128 0x5
 2968 006c 49       		.uleb128 0x49
 2969 006d 13       		.uleb128 0x13
 2970 006e 38       		.uleb128 0x38
 2971 006f 0B       		.uleb128 0xb
 2972 0070 00       		.byte	0
 2973 0071 00       		.byte	0
 2974 0072 09       		.uleb128 0x9
 2975 0073 0F       		.uleb128 0xf
 2976 0074 00       		.byte	0
 2977 0075 0B       		.uleb128 0xb
 2978 0076 0B       		.uleb128 0xb
 2979 0077 49       		.uleb128 0x49
 2980 0078 13       		.uleb128 0x13
 2981 0079 00       		.byte	0
 2982 007a 00       		.byte	0
 2983 007b 0A       		.uleb128 0xa
 2984 007c 13       		.uleb128 0x13
 2985 007d 01       		.byte	0x1
 2986 007e 03       		.uleb128 0x3
 2987 007f 0E       		.uleb128 0xe
 2988 0080 0B       		.uleb128 0xb
 2989 0081 0B       		.uleb128 0xb
 2990 0082 3A       		.uleb128 0x3a
 2991 0083 0B       		.uleb128 0xb
 2992 0084 3B       		.uleb128 0x3b
 2993 0085 05       		.uleb128 0x5
 2994 0086 01       		.uleb128 0x1
 2995 0087 13       		.uleb128 0x13
 2996 0088 00       		.byte	0
 2997 0089 00       		.byte	0
 2998 008a 0B       		.uleb128 0xb
 2999 008b 15       		.uleb128 0x15
 3000 008c 01       		.byte	0x1
 3001 008d 27       		.uleb128 0x27
 3002 008e 19       		.uleb128 0x19
 3003 008f 01       		.uleb128 0x1
 3004 0090 13       		.uleb128 0x13
 3005 0091 00       		.byte	0
 3006 0092 00       		.byte	0
 3007 0093 0C       		.uleb128 0xc
 3008 0094 05       		.uleb128 0x5
 3009 0095 00       		.byte	0
 3010 0096 49       		.uleb128 0x49
 3011 0097 13       		.uleb128 0x13
 3012 0098 00       		.byte	0
 3013 0099 00       		.byte	0
 3014 009a 0D       		.uleb128 0xd
 3015 009b 0F       		.uleb128 0xf
 3016 009c 00       		.byte	0
 3017 009d 0B       		.uleb128 0xb
ARM GAS  /tmp/ccodQwgR.s 			page 54


 3018 009e 0B       		.uleb128 0xb
 3019 009f 00       		.byte	0
 3020 00a0 00       		.byte	0
 3021 00a1 0E       		.uleb128 0xe
 3022 00a2 13       		.uleb128 0x13
 3023 00a3 01       		.byte	0x1
 3024 00a4 03       		.uleb128 0x3
 3025 00a5 0E       		.uleb128 0xe
 3026 00a6 0B       		.uleb128 0xb
 3027 00a7 05       		.uleb128 0x5
 3028 00a8 3A       		.uleb128 0x3a
 3029 00a9 0B       		.uleb128 0xb
 3030 00aa 3B       		.uleb128 0x3b
 3031 00ab 05       		.uleb128 0x5
 3032 00ac 01       		.uleb128 0x1
 3033 00ad 13       		.uleb128 0x13
 3034 00ae 00       		.byte	0
 3035 00af 00       		.byte	0
 3036 00b0 0F       		.uleb128 0xf
 3037 00b1 35       		.uleb128 0x35
 3038 00b2 00       		.byte	0
 3039 00b3 49       		.uleb128 0x49
 3040 00b4 13       		.uleb128 0x13
 3041 00b5 00       		.byte	0
 3042 00b6 00       		.byte	0
 3043 00b7 10       		.uleb128 0x10
 3044 00b8 13       		.uleb128 0x13
 3045 00b9 01       		.byte	0x1
 3046 00ba 0B       		.uleb128 0xb
 3047 00bb 0B       		.uleb128 0xb
 3048 00bc 3A       		.uleb128 0x3a
 3049 00bd 0B       		.uleb128 0xb
 3050 00be 3B       		.uleb128 0x3b
 3051 00bf 05       		.uleb128 0x5
 3052 00c0 01       		.uleb128 0x1
 3053 00c1 13       		.uleb128 0x13
 3054 00c2 00       		.byte	0
 3055 00c3 00       		.byte	0
 3056 00c4 11       		.uleb128 0x11
 3057 00c5 16       		.uleb128 0x16
 3058 00c6 00       		.byte	0
 3059 00c7 03       		.uleb128 0x3
 3060 00c8 0E       		.uleb128 0xe
 3061 00c9 3A       		.uleb128 0x3a
 3062 00ca 0B       		.uleb128 0xb
 3063 00cb 3B       		.uleb128 0x3b
 3064 00cc 05       		.uleb128 0x5
 3065 00cd 49       		.uleb128 0x49
 3066 00ce 13       		.uleb128 0x13
 3067 00cf 00       		.byte	0
 3068 00d0 00       		.byte	0
 3069 00d1 12       		.uleb128 0x12
 3070 00d2 0D       		.uleb128 0xd
 3071 00d3 00       		.byte	0
 3072 00d4 03       		.uleb128 0x3
 3073 00d5 08       		.uleb128 0x8
 3074 00d6 3A       		.uleb128 0x3a
ARM GAS  /tmp/ccodQwgR.s 			page 55


 3075 00d7 0B       		.uleb128 0xb
 3076 00d8 3B       		.uleb128 0x3b
 3077 00d9 0B       		.uleb128 0xb
 3078 00da 49       		.uleb128 0x49
 3079 00db 13       		.uleb128 0x13
 3080 00dc 38       		.uleb128 0x38
 3081 00dd 0B       		.uleb128 0xb
 3082 00de 00       		.byte	0
 3083 00df 00       		.byte	0
 3084 00e0 13       		.uleb128 0x13
 3085 00e1 13       		.uleb128 0x13
 3086 00e2 01       		.byte	0x1
 3087 00e3 0B       		.uleb128 0xb
 3088 00e4 0B       		.uleb128 0xb
 3089 00e5 3A       		.uleb128 0x3a
 3090 00e6 0B       		.uleb128 0xb
 3091 00e7 3B       		.uleb128 0x3b
 3092 00e8 0B       		.uleb128 0xb
 3093 00e9 01       		.uleb128 0x1
 3094 00ea 13       		.uleb128 0x13
 3095 00eb 00       		.byte	0
 3096 00ec 00       		.byte	0
 3097 00ed 14       		.uleb128 0x14
 3098 00ee 17       		.uleb128 0x17
 3099 00ef 01       		.byte	0x1
 3100 00f0 0B       		.uleb128 0xb
 3101 00f1 0B       		.uleb128 0xb
 3102 00f2 3A       		.uleb128 0x3a
 3103 00f3 0B       		.uleb128 0xb
 3104 00f4 3B       		.uleb128 0x3b
 3105 00f5 0B       		.uleb128 0xb
 3106 00f6 01       		.uleb128 0x1
 3107 00f7 13       		.uleb128 0x13
 3108 00f8 00       		.byte	0
 3109 00f9 00       		.byte	0
 3110 00fa 15       		.uleb128 0x15
 3111 00fb 0D       		.uleb128 0xd
 3112 00fc 00       		.byte	0
 3113 00fd 03       		.uleb128 0x3
 3114 00fe 0E       		.uleb128 0xe
 3115 00ff 3A       		.uleb128 0x3a
 3116 0100 0B       		.uleb128 0xb
 3117 0101 3B       		.uleb128 0x3b
 3118 0102 05       		.uleb128 0x5
 3119 0103 49       		.uleb128 0x49
 3120 0104 13       		.uleb128 0x13
 3121 0105 00       		.byte	0
 3122 0106 00       		.byte	0
 3123 0107 16       		.uleb128 0x16
 3124 0108 26       		.uleb128 0x26
 3125 0109 00       		.byte	0
 3126 010a 49       		.uleb128 0x49
 3127 010b 13       		.uleb128 0x13
 3128 010c 00       		.byte	0
 3129 010d 00       		.byte	0
 3130 010e 17       		.uleb128 0x17
 3131 010f 01       		.uleb128 0x1
ARM GAS  /tmp/ccodQwgR.s 			page 56


 3132 0110 01       		.byte	0x1
 3133 0111 49       		.uleb128 0x49
 3134 0112 13       		.uleb128 0x13
 3135 0113 01       		.uleb128 0x1
 3136 0114 13       		.uleb128 0x13
 3137 0115 00       		.byte	0
 3138 0116 00       		.byte	0
 3139 0117 18       		.uleb128 0x18
 3140 0118 21       		.uleb128 0x21
 3141 0119 00       		.byte	0
 3142 011a 49       		.uleb128 0x49
 3143 011b 13       		.uleb128 0x13
 3144 011c 2F       		.uleb128 0x2f
 3145 011d 0B       		.uleb128 0xb
 3146 011e 00       		.byte	0
 3147 011f 00       		.byte	0
 3148 0120 19       		.uleb128 0x19
 3149 0121 15       		.uleb128 0x15
 3150 0122 01       		.byte	0x1
 3151 0123 27       		.uleb128 0x27
 3152 0124 19       		.uleb128 0x19
 3153 0125 49       		.uleb128 0x49
 3154 0126 13       		.uleb128 0x13
 3155 0127 01       		.uleb128 0x1
 3156 0128 13       		.uleb128 0x13
 3157 0129 00       		.byte	0
 3158 012a 00       		.byte	0
 3159 012b 1A       		.uleb128 0x1a
 3160 012c 04       		.uleb128 0x4
 3161 012d 01       		.byte	0x1
 3162 012e 0B       		.uleb128 0xb
 3163 012f 0B       		.uleb128 0xb
 3164 0130 3A       		.uleb128 0x3a
 3165 0131 0B       		.uleb128 0xb
 3166 0132 3B       		.uleb128 0x3b
 3167 0133 0B       		.uleb128 0xb
 3168 0134 01       		.uleb128 0x1
 3169 0135 13       		.uleb128 0x13
 3170 0136 00       		.byte	0
 3171 0137 00       		.byte	0
 3172 0138 1B       		.uleb128 0x1b
 3173 0139 28       		.uleb128 0x28
 3174 013a 00       		.byte	0
 3175 013b 03       		.uleb128 0x3
 3176 013c 0E       		.uleb128 0xe
 3177 013d 1C       		.uleb128 0x1c
 3178 013e 0D       		.uleb128 0xd
 3179 013f 00       		.byte	0
 3180 0140 00       		.byte	0
 3181 0141 1C       		.uleb128 0x1c
 3182 0142 0D       		.uleb128 0xd
 3183 0143 00       		.byte	0
 3184 0144 03       		.uleb128 0x3
 3185 0145 0E       		.uleb128 0xe
 3186 0146 49       		.uleb128 0x49
 3187 0147 13       		.uleb128 0x13
 3188 0148 38       		.uleb128 0x38
ARM GAS  /tmp/ccodQwgR.s 			page 57


 3189 0149 0B       		.uleb128 0xb
 3190 014a 34       		.uleb128 0x34
 3191 014b 19       		.uleb128 0x19
 3192 014c 00       		.byte	0
 3193 014d 00       		.byte	0
 3194 014e 1D       		.uleb128 0x1d
 3195 014f 2E       		.uleb128 0x2e
 3196 0150 01       		.byte	0x1
 3197 0151 03       		.uleb128 0x3
 3198 0152 0E       		.uleb128 0xe
 3199 0153 3A       		.uleb128 0x3a
 3200 0154 0B       		.uleb128 0xb
 3201 0155 3B       		.uleb128 0x3b
 3202 0156 0B       		.uleb128 0xb
 3203 0157 27       		.uleb128 0x27
 3204 0158 19       		.uleb128 0x19
 3205 0159 49       		.uleb128 0x49
 3206 015a 13       		.uleb128 0x13
 3207 015b 20       		.uleb128 0x20
 3208 015c 0B       		.uleb128 0xb
 3209 015d 01       		.uleb128 0x1
 3210 015e 13       		.uleb128 0x13
 3211 015f 00       		.byte	0
 3212 0160 00       		.byte	0
 3213 0161 1E       		.uleb128 0x1e
 3214 0162 05       		.uleb128 0x5
 3215 0163 00       		.byte	0
 3216 0164 03       		.uleb128 0x3
 3217 0165 08       		.uleb128 0x8
 3218 0166 3A       		.uleb128 0x3a
 3219 0167 0B       		.uleb128 0xb
 3220 0168 3B       		.uleb128 0x3b
 3221 0169 0B       		.uleb128 0xb
 3222 016a 49       		.uleb128 0x49
 3223 016b 13       		.uleb128 0x13
 3224 016c 00       		.byte	0
 3225 016d 00       		.byte	0
 3226 016e 1F       		.uleb128 0x1f
 3227 016f 05       		.uleb128 0x5
 3228 0170 00       		.byte	0
 3229 0171 03       		.uleb128 0x3
 3230 0172 0E       		.uleb128 0xe
 3231 0173 3A       		.uleb128 0x3a
 3232 0174 0B       		.uleb128 0xb
 3233 0175 3B       		.uleb128 0x3b
 3234 0176 0B       		.uleb128 0xb
 3235 0177 49       		.uleb128 0x49
 3236 0178 13       		.uleb128 0x13
 3237 0179 00       		.byte	0
 3238 017a 00       		.byte	0
 3239 017b 20       		.uleb128 0x20
 3240 017c 34       		.uleb128 0x34
 3241 017d 00       		.byte	0
 3242 017e 03       		.uleb128 0x3
 3243 017f 08       		.uleb128 0x8
 3244 0180 3A       		.uleb128 0x3a
 3245 0181 0B       		.uleb128 0xb
ARM GAS  /tmp/ccodQwgR.s 			page 58


 3246 0182 3B       		.uleb128 0x3b
 3247 0183 0B       		.uleb128 0xb
 3248 0184 49       		.uleb128 0x49
 3249 0185 13       		.uleb128 0x13
 3250 0186 00       		.byte	0
 3251 0187 00       		.byte	0
 3252 0188 21       		.uleb128 0x21
 3253 0189 2E       		.uleb128 0x2e
 3254 018a 01       		.byte	0x1
 3255 018b 31       		.uleb128 0x31
 3256 018c 13       		.uleb128 0x13
 3257 018d 11       		.uleb128 0x11
 3258 018e 01       		.uleb128 0x1
 3259 018f 12       		.uleb128 0x12
 3260 0190 06       		.uleb128 0x6
 3261 0191 40       		.uleb128 0x40
 3262 0192 18       		.uleb128 0x18
 3263 0193 9742     		.uleb128 0x2117
 3264 0195 19       		.uleb128 0x19
 3265 0196 01       		.uleb128 0x1
 3266 0197 13       		.uleb128 0x13
 3267 0198 00       		.byte	0
 3268 0199 00       		.byte	0
 3269 019a 22       		.uleb128 0x22
 3270 019b 05       		.uleb128 0x5
 3271 019c 00       		.byte	0
 3272 019d 31       		.uleb128 0x31
 3273 019e 13       		.uleb128 0x13
 3274 019f 02       		.uleb128 0x2
 3275 01a0 17       		.uleb128 0x17
 3276 01a1 00       		.byte	0
 3277 01a2 00       		.byte	0
 3278 01a3 23       		.uleb128 0x23
 3279 01a4 34       		.uleb128 0x34
 3280 01a5 00       		.byte	0
 3281 01a6 31       		.uleb128 0x31
 3282 01a7 13       		.uleb128 0x13
 3283 01a8 02       		.uleb128 0x2
 3284 01a9 17       		.uleb128 0x17
 3285 01aa 00       		.byte	0
 3286 01ab 00       		.byte	0
 3287 01ac 24       		.uleb128 0x24
 3288 01ad 05       		.uleb128 0x5
 3289 01ae 00       		.byte	0
 3290 01af 31       		.uleb128 0x31
 3291 01b0 13       		.uleb128 0x13
 3292 01b1 1C       		.uleb128 0x1c
 3293 01b2 0B       		.uleb128 0xb
 3294 01b3 00       		.byte	0
 3295 01b4 00       		.byte	0
 3296 01b5 25       		.uleb128 0x25
 3297 01b6 2E       		.uleb128 0x2e
 3298 01b7 01       		.byte	0x1
 3299 01b8 3F       		.uleb128 0x3f
 3300 01b9 19       		.uleb128 0x19
 3301 01ba 03       		.uleb128 0x3
 3302 01bb 0E       		.uleb128 0xe
ARM GAS  /tmp/ccodQwgR.s 			page 59


 3303 01bc 3A       		.uleb128 0x3a
 3304 01bd 0B       		.uleb128 0xb
 3305 01be 3B       		.uleb128 0x3b
 3306 01bf 0B       		.uleb128 0xb
 3307 01c0 27       		.uleb128 0x27
 3308 01c1 19       		.uleb128 0x19
 3309 01c2 49       		.uleb128 0x49
 3310 01c3 13       		.uleb128 0x13
 3311 01c4 11       		.uleb128 0x11
 3312 01c5 01       		.uleb128 0x1
 3313 01c6 12       		.uleb128 0x12
 3314 01c7 06       		.uleb128 0x6
 3315 01c8 40       		.uleb128 0x40
 3316 01c9 18       		.uleb128 0x18
 3317 01ca 9742     		.uleb128 0x2117
 3318 01cc 19       		.uleb128 0x19
 3319 01cd 01       		.uleb128 0x1
 3320 01ce 13       		.uleb128 0x13
 3321 01cf 00       		.byte	0
 3322 01d0 00       		.byte	0
 3323 01d1 26       		.uleb128 0x26
 3324 01d2 05       		.uleb128 0x5
 3325 01d3 00       		.byte	0
 3326 01d4 03       		.uleb128 0x3
 3327 01d5 08       		.uleb128 0x8
 3328 01d6 3A       		.uleb128 0x3a
 3329 01d7 0B       		.uleb128 0xb
 3330 01d8 3B       		.uleb128 0x3b
 3331 01d9 0B       		.uleb128 0xb
 3332 01da 49       		.uleb128 0x49
 3333 01db 13       		.uleb128 0x13
 3334 01dc 02       		.uleb128 0x2
 3335 01dd 17       		.uleb128 0x17
 3336 01de 00       		.byte	0
 3337 01df 00       		.byte	0
 3338 01e0 27       		.uleb128 0x27
 3339 01e1 34       		.uleb128 0x34
 3340 01e2 00       		.byte	0
 3341 01e3 03       		.uleb128 0x3
 3342 01e4 08       		.uleb128 0x8
 3343 01e5 3A       		.uleb128 0x3a
 3344 01e6 0B       		.uleb128 0xb
 3345 01e7 3B       		.uleb128 0x3b
 3346 01e8 0B       		.uleb128 0xb
 3347 01e9 49       		.uleb128 0x49
 3348 01ea 13       		.uleb128 0x13
 3349 01eb 02       		.uleb128 0x2
 3350 01ec 17       		.uleb128 0x17
 3351 01ed 00       		.byte	0
 3352 01ee 00       		.byte	0
 3353 01ef 28       		.uleb128 0x28
 3354 01f0 34       		.uleb128 0x34
 3355 01f1 00       		.byte	0
 3356 01f2 03       		.uleb128 0x3
 3357 01f3 0E       		.uleb128 0xe
 3358 01f4 3A       		.uleb128 0x3a
 3359 01f5 0B       		.uleb128 0xb
ARM GAS  /tmp/ccodQwgR.s 			page 60


 3360 01f6 3B       		.uleb128 0x3b
 3361 01f7 0B       		.uleb128 0xb
 3362 01f8 49       		.uleb128 0x49
 3363 01f9 13       		.uleb128 0x13
 3364 01fa 02       		.uleb128 0x2
 3365 01fb 17       		.uleb128 0x17
 3366 01fc 00       		.byte	0
 3367 01fd 00       		.byte	0
 3368 01fe 29       		.uleb128 0x29
 3369 01ff 34       		.uleb128 0x34
 3370 0200 00       		.byte	0
 3371 0201 03       		.uleb128 0x3
 3372 0202 0E       		.uleb128 0xe
 3373 0203 3A       		.uleb128 0x3a
 3374 0204 0B       		.uleb128 0xb
 3375 0205 3B       		.uleb128 0x3b
 3376 0206 0B       		.uleb128 0xb
 3377 0207 49       		.uleb128 0x49
 3378 0208 13       		.uleb128 0x13
 3379 0209 02       		.uleb128 0x2
 3380 020a 18       		.uleb128 0x18
 3381 020b 00       		.byte	0
 3382 020c 00       		.byte	0
 3383 020d 2A       		.uleb128 0x2a
 3384 020e 0A       		.uleb128 0xa
 3385 020f 00       		.byte	0
 3386 0210 03       		.uleb128 0x3
 3387 0211 0E       		.uleb128 0xe
 3388 0212 3A       		.uleb128 0x3a
 3389 0213 0B       		.uleb128 0xb
 3390 0214 3B       		.uleb128 0x3b
 3391 0215 0B       		.uleb128 0xb
 3392 0216 11       		.uleb128 0x11
 3393 0217 01       		.uleb128 0x1
 3394 0218 00       		.byte	0
 3395 0219 00       		.byte	0
 3396 021a 2B       		.uleb128 0x2b
 3397 021b 1D       		.uleb128 0x1d
 3398 021c 01       		.byte	0x1
 3399 021d 31       		.uleb128 0x31
 3400 021e 13       		.uleb128 0x13
 3401 021f 52       		.uleb128 0x52
 3402 0220 01       		.uleb128 0x1
 3403 0221 55       		.uleb128 0x55
 3404 0222 17       		.uleb128 0x17
 3405 0223 58       		.uleb128 0x58
 3406 0224 0B       		.uleb128 0xb
 3407 0225 59       		.uleb128 0x59
 3408 0226 0B       		.uleb128 0xb
 3409 0227 01       		.uleb128 0x1
 3410 0228 13       		.uleb128 0x13
 3411 0229 00       		.byte	0
 3412 022a 00       		.byte	0
 3413 022b 2C       		.uleb128 0x2c
 3414 022c 05       		.uleb128 0x5
 3415 022d 00       		.byte	0
 3416 022e 31       		.uleb128 0x31
ARM GAS  /tmp/ccodQwgR.s 			page 61


 3417 022f 13       		.uleb128 0x13
 3418 0230 00       		.byte	0
 3419 0231 00       		.byte	0
 3420 0232 2D       		.uleb128 0x2d
 3421 0233 898201   		.uleb128 0x4109
 3422 0236 00       		.byte	0
 3423 0237 11       		.uleb128 0x11
 3424 0238 01       		.uleb128 0x1
 3425 0239 31       		.uleb128 0x31
 3426 023a 13       		.uleb128 0x13
 3427 023b 00       		.byte	0
 3428 023c 00       		.byte	0
 3429 023d 2E       		.uleb128 0x2e
 3430 023e 1D       		.uleb128 0x1d
 3431 023f 01       		.byte	0x1
 3432 0240 31       		.uleb128 0x31
 3433 0241 13       		.uleb128 0x13
 3434 0242 11       		.uleb128 0x11
 3435 0243 01       		.uleb128 0x1
 3436 0244 12       		.uleb128 0x12
 3437 0245 06       		.uleb128 0x6
 3438 0246 58       		.uleb128 0x58
 3439 0247 0B       		.uleb128 0xb
 3440 0248 59       		.uleb128 0x59
 3441 0249 0B       		.uleb128 0xb
 3442 024a 01       		.uleb128 0x1
 3443 024b 13       		.uleb128 0x13
 3444 024c 00       		.byte	0
 3445 024d 00       		.byte	0
 3446 024e 2F       		.uleb128 0x2f
 3447 024f 898201   		.uleb128 0x4109
 3448 0252 01       		.byte	0x1
 3449 0253 11       		.uleb128 0x11
 3450 0254 01       		.uleb128 0x1
 3451 0255 01       		.uleb128 0x1
 3452 0256 13       		.uleb128 0x13
 3453 0257 00       		.byte	0
 3454 0258 00       		.byte	0
 3455 0259 30       		.uleb128 0x30
 3456 025a 8A8201   		.uleb128 0x410a
 3457 025d 00       		.byte	0
 3458 025e 02       		.uleb128 0x2
 3459 025f 18       		.uleb128 0x18
 3460 0260 9142     		.uleb128 0x2111
 3461 0262 18       		.uleb128 0x18
 3462 0263 00       		.byte	0
 3463 0264 00       		.byte	0
 3464 0265 31       		.uleb128 0x31
 3465 0266 898201   		.uleb128 0x4109
 3466 0269 01       		.byte	0x1
 3467 026a 11       		.uleb128 0x11
 3468 026b 01       		.uleb128 0x1
 3469 026c 00       		.byte	0
 3470 026d 00       		.byte	0
 3471 026e 32       		.uleb128 0x32
 3472 026f 2E       		.uleb128 0x2e
 3473 0270 01       		.byte	0x1
ARM GAS  /tmp/ccodQwgR.s 			page 62


 3474 0271 3F       		.uleb128 0x3f
 3475 0272 19       		.uleb128 0x19
 3476 0273 03       		.uleb128 0x3
 3477 0274 0E       		.uleb128 0xe
 3478 0275 3A       		.uleb128 0x3a
 3479 0276 0B       		.uleb128 0xb
 3480 0277 3B       		.uleb128 0x3b
 3481 0278 05       		.uleb128 0x5
 3482 0279 27       		.uleb128 0x27
 3483 027a 19       		.uleb128 0x19
 3484 027b 49       		.uleb128 0x49
 3485 027c 13       		.uleb128 0x13
 3486 027d 11       		.uleb128 0x11
 3487 027e 01       		.uleb128 0x1
 3488 027f 12       		.uleb128 0x12
 3489 0280 06       		.uleb128 0x6
 3490 0281 40       		.uleb128 0x40
 3491 0282 18       		.uleb128 0x18
 3492 0283 9742     		.uleb128 0x2117
 3493 0285 19       		.uleb128 0x19
 3494 0286 01       		.uleb128 0x1
 3495 0287 13       		.uleb128 0x13
 3496 0288 00       		.byte	0
 3497 0289 00       		.byte	0
 3498 028a 33       		.uleb128 0x33
 3499 028b 05       		.uleb128 0x5
 3500 028c 00       		.byte	0
 3501 028d 03       		.uleb128 0x3
 3502 028e 08       		.uleb128 0x8
 3503 028f 3A       		.uleb128 0x3a
 3504 0290 0B       		.uleb128 0xb
 3505 0291 3B       		.uleb128 0x3b
 3506 0292 05       		.uleb128 0x5
 3507 0293 49       		.uleb128 0x49
 3508 0294 13       		.uleb128 0x13
 3509 0295 02       		.uleb128 0x2
 3510 0296 17       		.uleb128 0x17
 3511 0297 00       		.byte	0
 3512 0298 00       		.byte	0
 3513 0299 34       		.uleb128 0x34
 3514 029a 05       		.uleb128 0x5
 3515 029b 00       		.byte	0
 3516 029c 03       		.uleb128 0x3
 3517 029d 08       		.uleb128 0x8
 3518 029e 3A       		.uleb128 0x3a
 3519 029f 0B       		.uleb128 0xb
 3520 02a0 3B       		.uleb128 0x3b
 3521 02a1 05       		.uleb128 0x5
 3522 02a2 49       		.uleb128 0x49
 3523 02a3 13       		.uleb128 0x13
 3524 02a4 02       		.uleb128 0x2
 3525 02a5 18       		.uleb128 0x18
 3526 02a6 00       		.byte	0
 3527 02a7 00       		.byte	0
 3528 02a8 35       		.uleb128 0x35
 3529 02a9 18       		.uleb128 0x18
 3530 02aa 00       		.byte	0
ARM GAS  /tmp/ccodQwgR.s 			page 63


 3531 02ab 00       		.byte	0
 3532 02ac 00       		.byte	0
 3533 02ad 36       		.uleb128 0x36
 3534 02ae 34       		.uleb128 0x34
 3535 02af 00       		.byte	0
 3536 02b0 03       		.uleb128 0x3
 3537 02b1 08       		.uleb128 0x8
 3538 02b2 3A       		.uleb128 0x3a
 3539 02b3 0B       		.uleb128 0xb
 3540 02b4 3B       		.uleb128 0x3b
 3541 02b5 05       		.uleb128 0x5
 3542 02b6 49       		.uleb128 0x49
 3543 02b7 13       		.uleb128 0x13
 3544 02b8 02       		.uleb128 0x2
 3545 02b9 18       		.uleb128 0x18
 3546 02ba 00       		.byte	0
 3547 02bb 00       		.byte	0
 3548 02bc 37       		.uleb128 0x37
 3549 02bd 34       		.uleb128 0x34
 3550 02be 00       		.byte	0
 3551 02bf 03       		.uleb128 0x3
 3552 02c0 0E       		.uleb128 0xe
 3553 02c1 3A       		.uleb128 0x3a
 3554 02c2 0B       		.uleb128 0xb
 3555 02c3 3B       		.uleb128 0x3b
 3556 02c4 05       		.uleb128 0x5
 3557 02c5 49       		.uleb128 0x49
 3558 02c6 13       		.uleb128 0x13
 3559 02c7 02       		.uleb128 0x2
 3560 02c8 18       		.uleb128 0x18
 3561 02c9 00       		.byte	0
 3562 02ca 00       		.byte	0
 3563 02cb 38       		.uleb128 0x38
 3564 02cc 898201   		.uleb128 0x4109
 3565 02cf 01       		.byte	0x1
 3566 02d0 11       		.uleb128 0x11
 3567 02d1 01       		.uleb128 0x1
 3568 02d2 31       		.uleb128 0x31
 3569 02d3 13       		.uleb128 0x13
 3570 02d4 00       		.byte	0
 3571 02d5 00       		.byte	0
 3572 02d6 39       		.uleb128 0x39
 3573 02d7 05       		.uleb128 0x5
 3574 02d8 00       		.byte	0
 3575 02d9 03       		.uleb128 0x3
 3576 02da 0E       		.uleb128 0xe
 3577 02db 3A       		.uleb128 0x3a
 3578 02dc 0B       		.uleb128 0xb
 3579 02dd 3B       		.uleb128 0x3b
 3580 02de 05       		.uleb128 0x5
 3581 02df 49       		.uleb128 0x49
 3582 02e0 13       		.uleb128 0x13
 3583 02e1 02       		.uleb128 0x2
 3584 02e2 17       		.uleb128 0x17
 3585 02e3 00       		.byte	0
 3586 02e4 00       		.byte	0
 3587 02e5 3A       		.uleb128 0x3a
ARM GAS  /tmp/ccodQwgR.s 			page 64


 3588 02e6 34       		.uleb128 0x34
 3589 02e7 00       		.byte	0
 3590 02e8 03       		.uleb128 0x3
 3591 02e9 08       		.uleb128 0x8
 3592 02ea 3A       		.uleb128 0x3a
 3593 02eb 0B       		.uleb128 0xb
 3594 02ec 3B       		.uleb128 0x3b
 3595 02ed 05       		.uleb128 0x5
 3596 02ee 49       		.uleb128 0x49
 3597 02ef 13       		.uleb128 0x13
 3598 02f0 02       		.uleb128 0x2
 3599 02f1 17       		.uleb128 0x17
 3600 02f2 00       		.byte	0
 3601 02f3 00       		.byte	0
 3602 02f4 3B       		.uleb128 0x3b
 3603 02f5 34       		.uleb128 0x34
 3604 02f6 00       		.byte	0
 3605 02f7 03       		.uleb128 0x3
 3606 02f8 0E       		.uleb128 0xe
 3607 02f9 3A       		.uleb128 0x3a
 3608 02fa 0B       		.uleb128 0xb
 3609 02fb 3B       		.uleb128 0x3b
 3610 02fc 05       		.uleb128 0x5
 3611 02fd 49       		.uleb128 0x49
 3612 02fe 13       		.uleb128 0x13
 3613 02ff 02       		.uleb128 0x2
 3614 0300 17       		.uleb128 0x17
 3615 0301 00       		.byte	0
 3616 0302 00       		.byte	0
 3617 0303 3C       		.uleb128 0x3c
 3618 0304 898201   		.uleb128 0x4109
 3619 0307 01       		.byte	0x1
 3620 0308 11       		.uleb128 0x11
 3621 0309 01       		.uleb128 0x1
 3622 030a 31       		.uleb128 0x31
 3623 030b 13       		.uleb128 0x13
 3624 030c 01       		.uleb128 0x1
 3625 030d 13       		.uleb128 0x13
 3626 030e 00       		.byte	0
 3627 030f 00       		.byte	0
 3628 0310 3D       		.uleb128 0x3d
 3629 0311 34       		.uleb128 0x34
 3630 0312 00       		.byte	0
 3631 0313 03       		.uleb128 0x3
 3632 0314 0E       		.uleb128 0xe
 3633 0315 3A       		.uleb128 0x3a
 3634 0316 0B       		.uleb128 0xb
 3635 0317 3B       		.uleb128 0x3b
 3636 0318 05       		.uleb128 0x5
 3637 0319 49       		.uleb128 0x49
 3638 031a 13       		.uleb128 0x13
 3639 031b 3F       		.uleb128 0x3f
 3640 031c 19       		.uleb128 0x19
 3641 031d 3C       		.uleb128 0x3c
 3642 031e 19       		.uleb128 0x19
 3643 031f 00       		.byte	0
 3644 0320 00       		.byte	0
ARM GAS  /tmp/ccodQwgR.s 			page 65


 3645 0321 3E       		.uleb128 0x3e
 3646 0322 34       		.uleb128 0x34
 3647 0323 00       		.byte	0
 3648 0324 03       		.uleb128 0x3
 3649 0325 08       		.uleb128 0x8
 3650 0326 3A       		.uleb128 0x3a
 3651 0327 0B       		.uleb128 0xb
 3652 0328 3B       		.uleb128 0x3b
 3653 0329 05       		.uleb128 0x5
 3654 032a 49       		.uleb128 0x49
 3655 032b 13       		.uleb128 0x13
 3656 032c 3F       		.uleb128 0x3f
 3657 032d 19       		.uleb128 0x19
 3658 032e 3C       		.uleb128 0x3c
 3659 032f 19       		.uleb128 0x19
 3660 0330 00       		.byte	0
 3661 0331 00       		.byte	0
 3662 0332 3F       		.uleb128 0x3f
 3663 0333 2E       		.uleb128 0x2e
 3664 0334 01       		.byte	0x1
 3665 0335 3F       		.uleb128 0x3f
 3666 0336 19       		.uleb128 0x19
 3667 0337 03       		.uleb128 0x3
 3668 0338 0E       		.uleb128 0xe
 3669 0339 3A       		.uleb128 0x3a
 3670 033a 0B       		.uleb128 0xb
 3671 033b 3B       		.uleb128 0x3b
 3672 033c 0B       		.uleb128 0xb
 3673 033d 27       		.uleb128 0x27
 3674 033e 19       		.uleb128 0x19
 3675 033f 3C       		.uleb128 0x3c
 3676 0340 19       		.uleb128 0x19
 3677 0341 01       		.uleb128 0x1
 3678 0342 13       		.uleb128 0x13
 3679 0343 00       		.byte	0
 3680 0344 00       		.byte	0
 3681 0345 00       		.byte	0
 3682              		.section	.debug_loc,"",%progbits
 3683              	.Ldebug_loc0:
 3684              	.LLST0:
 3685 0000 00000000 		.4byte	.LVL0
 3686 0004 34000000 		.4byte	.LVL12
 3687 0008 0100     		.2byte	0x1
 3688 000a 50       		.byte	0x50
 3689 000b 34000000 		.4byte	.LVL12
 3690 000f 38000000 		.4byte	.LVL13
 3691 0013 0300     		.2byte	0x3
 3692 0015 70       		.byte	0x70
 3693 0016 7F       		.sleb128 -1
 3694 0017 9F       		.byte	0x9f
 3695 0018 38000000 		.4byte	.LVL13
 3696 001c 3C000000 		.4byte	.LVL14
 3697 0020 0100     		.2byte	0x1
 3698 0022 50       		.byte	0x50
 3699 0023 3C000000 		.4byte	.LVL14
 3700 0027 44000000 		.4byte	.LFE212
 3701 002b 0300     		.2byte	0x3
ARM GAS  /tmp/ccodQwgR.s 			page 66


 3702 002d 70       		.byte	0x70
 3703 002e 7F       		.sleb128 -1
 3704 002f 9F       		.byte	0x9f
 3705 0030 00000000 		.4byte	0
 3706 0034 00000000 		.4byte	0
 3707              	.LLST1:
 3708 0038 00000000 		.4byte	.LVL0
 3709 003c 0A000000 		.4byte	.LVL2
 3710 0040 0100     		.2byte	0x1
 3711 0042 51       		.byte	0x51
 3712 0043 0A000000 		.4byte	.LVL2
 3713 0047 44000000 		.4byte	.LFE212
 3714 004b 0400     		.2byte	0x4
 3715 004d F3       		.byte	0xf3
 3716 004e 01       		.uleb128 0x1
 3717 004f 51       		.byte	0x51
 3718 0050 9F       		.byte	0x9f
 3719 0051 00000000 		.4byte	0
 3720 0055 00000000 		.4byte	0
 3721              	.LLST2:
 3722 0059 00000000 		.4byte	.LVL0
 3723 005d 30000000 		.4byte	.LVL11
 3724 0061 0100     		.2byte	0x1
 3725 0063 52       		.byte	0x52
 3726 0064 30000000 		.4byte	.LVL11
 3727 0068 44000000 		.4byte	.LFE212
 3728 006c 0400     		.2byte	0x4
 3729 006e F3       		.byte	0xf3
 3730 006f 01       		.uleb128 0x1
 3731 0070 52       		.byte	0x52
 3732 0071 9F       		.byte	0x9f
 3733 0072 00000000 		.4byte	0
 3734 0076 00000000 		.4byte	0
 3735              	.LLST3:
 3736 007a 16000000 		.4byte	.LVL4
 3737 007e 1A000000 		.4byte	.LVL5
 3738 0082 0100     		.2byte	0x1
 3739 0084 51       		.byte	0x51
 3740 0085 1A000000 		.4byte	.LVL5
 3741 0089 24000000 		.4byte	.LVL7
 3742 008d 0100     		.2byte	0x1
 3743 008f 53       		.byte	0x53
 3744 0090 2E000000 		.4byte	.LVL10
 3745 0094 34000000 		.4byte	.LVL12
 3746 0098 0600     		.2byte	0x6
 3747 009a 77       		.byte	0x77
 3748 009b 00       		.sleb128 0
 3749 009c 74       		.byte	0x74
 3750 009d 00       		.sleb128 0
 3751 009e 1C       		.byte	0x1c
 3752 009f 9F       		.byte	0x9f
 3753 00a0 00000000 		.4byte	0
 3754 00a4 00000000 		.4byte	0
 3755              	.LLST4:
 3756 00a8 06000000 		.4byte	.LVL1
 3757 00ac 0A000000 		.4byte	.LVL2
 3758 00b0 0100     		.2byte	0x1
ARM GAS  /tmp/ccodQwgR.s 			page 67


 3759 00b2 57       		.byte	0x57
 3760 00b3 0A000000 		.4byte	.LVL2
 3761 00b7 22000000 		.4byte	.LVL6
 3762 00bb 0100     		.2byte	0x1
 3763 00bd 54       		.byte	0x54
 3764 00be 22000000 		.4byte	.LVL6
 3765 00c2 28000000 		.4byte	.LVL8
 3766 00c6 0300     		.2byte	0x3
 3767 00c8 74       		.byte	0x74
 3768 00c9 7F       		.sleb128 -1
 3769 00ca 9F       		.byte	0x9f
 3770 00cb 28000000 		.4byte	.LVL8
 3771 00cf 34000000 		.4byte	.LVL12
 3772 00d3 0100     		.2byte	0x1
 3773 00d5 54       		.byte	0x54
 3774 00d6 00000000 		.4byte	0
 3775 00da 00000000 		.4byte	0
 3776              	.LLST5:
 3777 00de 00000000 		.4byte	.LVL0
 3778 00e2 16000000 		.4byte	.LVL4
 3779 00e6 0100     		.2byte	0x1
 3780 00e8 51       		.byte	0x51
 3781 00e9 2A000000 		.4byte	.LVL9
 3782 00ed 44000000 		.4byte	.LFE212
 3783 00f1 0100     		.2byte	0x1
 3784 00f3 51       		.byte	0x51
 3785 00f4 00000000 		.4byte	0
 3786 00f8 00000000 		.4byte	0
 3787              	.LLST6:
 3788 00fc 00000000 		.4byte	.LVL0
 3789 0100 0A000000 		.4byte	.LVL2
 3790 0104 0100     		.2byte	0x1
 3791 0106 51       		.byte	0x51
 3792 0107 0A000000 		.4byte	.LVL2
 3793 010b 12000000 		.4byte	.LVL3
 3794 010f 0100     		.2byte	0x1
 3795 0111 55       		.byte	0x55
 3796 0112 2A000000 		.4byte	.LVL9
 3797 0116 42000000 		.4byte	.LVL15
 3798 011a 0100     		.2byte	0x1
 3799 011c 55       		.byte	0x55
 3800 011d 00000000 		.4byte	0
 3801 0121 00000000 		.4byte	0
 3802              	.LLST7:
 3803 0125 00000000 		.4byte	.LVL16
 3804 0129 1C000000 		.4byte	.LVL19
 3805 012d 0100     		.2byte	0x1
 3806 012f 50       		.byte	0x50
 3807 0130 1C000000 		.4byte	.LVL19
 3808 0134 08030000 		.4byte	.LFE209
 3809 0138 0100     		.2byte	0x1
 3810 013a 59       		.byte	0x59
 3811 013b 00000000 		.4byte	0
 3812 013f 00000000 		.4byte	0
 3813              	.LLST8:
 3814 0143 00000000 		.4byte	.LVL16
 3815 0147 1C000000 		.4byte	.LVL19
ARM GAS  /tmp/ccodQwgR.s 			page 68


 3816 014b 0100     		.2byte	0x1
 3817 014d 51       		.byte	0x51
 3818 014e 1C000000 		.4byte	.LVL19
 3819 0152 24000000 		.4byte	.LVL20
 3820 0156 0100     		.2byte	0x1
 3821 0158 5B       		.byte	0x5b
 3822 0159 24000000 		.4byte	.LVL20
 3823 015d 35000000 		.4byte	.LVL21-1
 3824 0161 0100     		.2byte	0x1
 3825 0163 53       		.byte	0x53
 3826 0164 35000000 		.4byte	.LVL21-1
 3827 0168 42000000 		.4byte	.LVL23
 3828 016c 0100     		.2byte	0x1
 3829 016e 5B       		.byte	0x5b
 3830 016f 42000000 		.4byte	.LVL23
 3831 0173 68000000 		.4byte	.LVL26
 3832 0177 0100     		.2byte	0x1
 3833 0179 53       		.byte	0x53
 3834 017a 68000000 		.4byte	.LVL26
 3835 017e 70000000 		.4byte	.LVL27
 3836 0182 0300     		.2byte	0x3
 3837 0184 73       		.byte	0x73
 3838 0185 01       		.sleb128 1
 3839 0186 9F       		.byte	0x9f
 3840 0187 74000000 		.4byte	.LVL28
 3841 018b 78000000 		.4byte	.LVL30
 3842 018f 0100     		.2byte	0x1
 3843 0191 53       		.byte	0x53
 3844 0192 78000000 		.4byte	.LVL30
 3845 0196 86000000 		.4byte	.LVL34
 3846 019a 0100     		.2byte	0x1
 3847 019c 51       		.byte	0x51
 3848 019d 86000000 		.4byte	.LVL34
 3849 01a1 90000000 		.4byte	.LVL35
 3850 01a5 0300     		.2byte	0x3
 3851 01a7 71       		.byte	0x71
 3852 01a8 7F       		.sleb128 -1
 3853 01a9 9F       		.byte	0x9f
 3854 01aa 90000000 		.4byte	.LVL35
 3855 01ae A0000000 		.4byte	.LVL37
 3856 01b2 0100     		.2byte	0x1
 3857 01b4 51       		.byte	0x51
 3858 01b5 A0000000 		.4byte	.LVL37
 3859 01b9 22010000 		.4byte	.LVL39
 3860 01bd 0100     		.2byte	0x1
 3861 01bf 5B       		.byte	0x5b
 3862 01c0 22010000 		.4byte	.LVL39
 3863 01c4 2A010000 		.4byte	.LVL42
 3864 01c8 0300     		.2byte	0x3
 3865 01ca 7B       		.byte	0x7b
 3866 01cb 7F       		.sleb128 -1
 3867 01cc 9F       		.byte	0x9f
 3868 01cd 2A010000 		.4byte	.LVL42
 3869 01d1 2E010000 		.4byte	.LVL43
 3870 01d5 0100     		.2byte	0x1
 3871 01d7 5B       		.byte	0x5b
 3872 01d8 2E010000 		.4byte	.LVL43
ARM GAS  /tmp/ccodQwgR.s 			page 69


 3873 01dc 40010000 		.4byte	.LVL44
 3874 01e0 0300     		.2byte	0x3
 3875 01e2 7B       		.byte	0x7b
 3876 01e3 7F       		.sleb128 -1
 3877 01e4 9F       		.byte	0x9f
 3878 01e5 40010000 		.4byte	.LVL44
 3879 01e9 08030000 		.4byte	.LFE209
 3880 01ed 0100     		.2byte	0x1
 3881 01ef 5B       		.byte	0x5b
 3882 01f0 00000000 		.4byte	0
 3883 01f4 00000000 		.4byte	0
 3884              	.LLST9:
 3885 01f8 00000000 		.4byte	.LVL16
 3886 01fc 14000000 		.4byte	.LVL18
 3887 0200 0100     		.2byte	0x1
 3888 0202 52       		.byte	0x52
 3889 0203 00000000 		.4byte	0
 3890 0207 00000000 		.4byte	0
 3891              	.LLST10:
 3892 020b 4E000000 		.4byte	.LVL24
 3893 020f AE010000 		.4byte	.LVL51
 3894 0213 0300     		.2byte	0x3
 3895 0215 91       		.byte	0x91
 3896 0216 4C       		.sleb128 -52
 3897 0217 9F       		.byte	0x9f
 3898 0218 AE010000 		.4byte	.LVL51
 3899 021c BA010000 		.4byte	.LVL53
 3900 0220 0100     		.2byte	0x1
 3901 0222 54       		.byte	0x54
 3902 0223 BA010000 		.4byte	.LVL53
 3903 0227 BE010000 		.4byte	.LVL55
 3904 022b 0300     		.2byte	0x3
 3905 022d 70       		.byte	0x70
 3906 022e 7F       		.sleb128 -1
 3907 022f 9F       		.byte	0x9f
 3908 0230 BE010000 		.4byte	.LVL55
 3909 0234 C2010000 		.4byte	.LVL56
 3910 0238 0100     		.2byte	0x1
 3911 023a 50       		.byte	0x50
 3912 023b C2010000 		.4byte	.LVL56
 3913 023f C8010000 		.4byte	.LVL58
 3914 0243 0300     		.2byte	0x3
 3915 0245 70       		.byte	0x70
 3916 0246 7F       		.sleb128 -1
 3917 0247 9F       		.byte	0x9f
 3918 0248 FA010000 		.4byte	.LVL67
 3919 024c 0C020000 		.4byte	.LVL68
 3920 0250 0300     		.2byte	0x3
 3921 0252 91       		.byte	0x91
 3922 0253 4D       		.sleb128 -51
 3923 0254 9F       		.byte	0x9f
 3924 0255 72020000 		.4byte	.LVL82
 3925 0259 78020000 		.4byte	.LVL85
 3926 025d 0300     		.2byte	0x3
 3927 025f 91       		.byte	0x91
 3928 0260 4C       		.sleb128 -52
 3929 0261 9F       		.byte	0x9f
ARM GAS  /tmp/ccodQwgR.s 			page 70


 3930 0262 78020000 		.4byte	.LVL85
 3931 0266 7D020000 		.4byte	.LVL87-1
 3932 026a 0100     		.2byte	0x1
 3933 026c 50       		.byte	0x50
 3934 026d 88020000 		.4byte	.LVL91
 3935 0271 96020000 		.4byte	.LVL94
 3936 0275 0300     		.2byte	0x3
 3937 0277 91       		.byte	0x91
 3938 0278 4C       		.sleb128 -52
 3939 0279 9F       		.byte	0x9f
 3940 027a 96020000 		.4byte	.LVL94
 3941 027e 9A020000 		.4byte	.LVL95
 3942 0282 0100     		.2byte	0x1
 3943 0284 50       		.byte	0x50
 3944 0285 9A020000 		.4byte	.LVL95
 3945 0289 A0020000 		.4byte	.LVL97
 3946 028d 0300     		.2byte	0x3
 3947 028f 91       		.byte	0x91
 3948 0290 4C       		.sleb128 -52
 3949 0291 9F       		.byte	0x9f
 3950 0292 A0020000 		.4byte	.LVL97
 3951 0296 AE020000 		.4byte	.LVL99
 3952 029a 0300     		.2byte	0x3
 3953 029c 91       		.byte	0x91
 3954 029d 4D       		.sleb128 -51
 3955 029e 9F       		.byte	0x9f
 3956 029f D4020000 		.4byte	.LVL107
 3957 02a3 DE020000 		.4byte	.LVL108
 3958 02a7 0100     		.2byte	0x1
 3959 02a9 54       		.byte	0x54
 3960 02aa F2020000 		.4byte	.LVL110
 3961 02ae FE020000 		.4byte	.LVL112
 3962 02b2 0300     		.2byte	0x3
 3963 02b4 91       		.byte	0x91
 3964 02b5 4D       		.sleb128 -51
 3965 02b6 9F       		.byte	0x9f
 3966 02b7 FE020000 		.4byte	.LVL112
 3967 02bb 00030000 		.4byte	.LVL113
 3968 02bf 0100     		.2byte	0x1
 3969 02c1 50       		.byte	0x50
 3970 02c2 00000000 		.4byte	0
 3971 02c6 00000000 		.4byte	0
 3972              	.LLST11:
 3973 02ca 4E000000 		.4byte	.LVL24
 3974 02ce A0010000 		.4byte	.LVL49
 3975 02d2 0300     		.2byte	0x3
 3976 02d4 91       		.byte	0x91
 3977 02d5 4C       		.sleb128 -52
 3978 02d6 9F       		.byte	0x9f
 3979 02d7 A0010000 		.4byte	.LVL49
 3980 02db E6010000 		.4byte	.LVL64
 3981 02df 0100     		.2byte	0x1
 3982 02e1 54       		.byte	0x54
 3983 02e2 FA010000 		.4byte	.LVL67
 3984 02e6 0C020000 		.4byte	.LVL68
 3985 02ea 0300     		.2byte	0x3
 3986 02ec 91       		.byte	0x91
ARM GAS  /tmp/ccodQwgR.s 			page 71


 3987 02ed 4C       		.sleb128 -52
 3988 02ee 9F       		.byte	0x9f
 3989 02ef 0C020000 		.4byte	.LVL68
 3990 02f3 2C020000 		.4byte	.LVL73
 3991 02f7 0100     		.2byte	0x1
 3992 02f9 54       		.byte	0x54
 3993 02fa 42020000 		.4byte	.LVL76
 3994 02fe 5C020000 		.4byte	.LVL80
 3995 0302 0100     		.2byte	0x1
 3996 0304 54       		.byte	0x54
 3997 0305 5C020000 		.4byte	.LVL80
 3998 0309 5E020000 		.4byte	.LVL81
 3999 030d 0300     		.2byte	0x3
 4000 030f 74       		.byte	0x74
 4001 0310 7F       		.sleb128 -1
 4002 0311 9F       		.byte	0x9f
 4003 0312 5E020000 		.4byte	.LVL81
 4004 0316 72020000 		.4byte	.LVL82
 4005 031a 0100     		.2byte	0x1
 4006 031c 54       		.byte	0x54
 4007 031d 72020000 		.4byte	.LVL82
 4008 0321 78020000 		.4byte	.LVL85
 4009 0325 0300     		.2byte	0x3
 4010 0327 91       		.byte	0x91
 4011 0328 4C       		.sleb128 -52
 4012 0329 9F       		.byte	0x9f
 4013 032a 78020000 		.4byte	.LVL85
 4014 032e 7A020000 		.4byte	.LVL86
 4015 0332 0100     		.2byte	0x1
 4016 0334 50       		.byte	0x50
 4017 0335 7A020000 		.4byte	.LVL86
 4018 0339 80020000 		.4byte	.LVL88
 4019 033d 0300     		.2byte	0x3
 4020 033f 91       		.byte	0x91
 4021 0340 4C       		.sleb128 -52
 4022 0341 9F       		.byte	0x9f
 4023 0342 80020000 		.4byte	.LVL88
 4024 0346 84020000 		.4byte	.LVL89
 4025 034a 0100     		.2byte	0x1
 4026 034c 53       		.byte	0x53
 4027 034d 84020000 		.4byte	.LVL89
 4028 0351 86020000 		.4byte	.LVL90
 4029 0355 0300     		.2byte	0x3
 4030 0357 91       		.byte	0x91
 4031 0358 4C       		.sleb128 -52
 4032 0359 9F       		.byte	0x9f
 4033 035a 86020000 		.4byte	.LVL90
 4034 035e 88020000 		.4byte	.LVL91
 4035 0362 0100     		.2byte	0x1
 4036 0364 54       		.byte	0x54
 4037 0365 88020000 		.4byte	.LVL91
 4038 0369 A4020000 		.4byte	.LVL98
 4039 036d 0300     		.2byte	0x3
 4040 036f 91       		.byte	0x91
 4041 0370 4C       		.sleb128 -52
 4042 0371 9F       		.byte	0x9f
 4043 0372 A4020000 		.4byte	.LVL98
ARM GAS  /tmp/ccodQwgR.s 			page 72


 4044 0376 F2020000 		.4byte	.LVL110
 4045 037a 0100     		.2byte	0x1
 4046 037c 54       		.byte	0x54
 4047 037d F2020000 		.4byte	.LVL110
 4048 0381 00030000 		.4byte	.LVL113
 4049 0385 0300     		.2byte	0x3
 4050 0387 91       		.byte	0x91
 4051 0388 4C       		.sleb128 -52
 4052 0389 9F       		.byte	0x9f
 4053 038a 00030000 		.4byte	.LVL113
 4054 038e 08030000 		.4byte	.LFE209
 4055 0392 0100     		.2byte	0x1
 4056 0394 54       		.byte	0x54
 4057 0395 00000000 		.4byte	0
 4058 0399 00000000 		.4byte	0
 4059              	.LLST12:
 4060 039d 24000000 		.4byte	.LVL20
 4061 03a1 35000000 		.4byte	.LVL21-1
 4062 03a5 0100     		.2byte	0x1
 4063 03a7 51       		.byte	0x51
 4064 03a8 42000000 		.4byte	.LVL23
 4065 03ac 76000000 		.4byte	.LVL29
 4066 03b0 0100     		.2byte	0x1
 4067 03b2 51       		.byte	0x51
 4068 03b3 78000000 		.4byte	.LVL30
 4069 03b7 7A000000 		.4byte	.LVL31
 4070 03bb 0100     		.2byte	0x1
 4071 03bd 52       		.byte	0x52
 4072 03be 7A000000 		.4byte	.LVL31
 4073 03c2 86000000 		.4byte	.LVL34
 4074 03c6 0100     		.2byte	0x1
 4075 03c8 53       		.byte	0x53
 4076 03c9 90000000 		.4byte	.LVL35
 4077 03cd 24010000 		.4byte	.LVL40
 4078 03d1 0100     		.2byte	0x1
 4079 03d3 52       		.byte	0x52
 4080 03d4 24010000 		.4byte	.LVL40
 4081 03d8 2A010000 		.4byte	.LVL42
 4082 03dc 0100     		.2byte	0x1
 4083 03de 53       		.byte	0x53
 4084 03df 2E010000 		.4byte	.LVL43
 4085 03e3 56010000 		.4byte	.LVL46
 4086 03e7 0100     		.2byte	0x1
 4087 03e9 52       		.byte	0x52
 4088 03ea 5A010000 		.4byte	.LVL47
 4089 03ee 99010000 		.4byte	.LVL48
 4090 03f2 0100     		.2byte	0x1
 4091 03f4 53       		.byte	0x53
 4092 03f5 72020000 		.4byte	.LVL82
 4093 03f9 74020000 		.4byte	.LVL83
 4094 03fd 0200     		.2byte	0x2
 4095 03ff 3A       		.byte	0x3a
 4096 0400 9F       		.byte	0x9f
 4097 0401 88020000 		.4byte	.LVL91
 4098 0405 8C020000 		.4byte	.LVL92
 4099 0409 0200     		.2byte	0x2
 4100 040b 38       		.byte	0x38
ARM GAS  /tmp/ccodQwgR.s 			page 73


 4101 040c 9F       		.byte	0x9f
 4102 040d 9E020000 		.4byte	.LVL96
 4103 0411 A0020000 		.4byte	.LVL97
 4104 0415 0100     		.2byte	0x1
 4105 0417 53       		.byte	0x53
 4106 0418 00000000 		.4byte	0
 4107 041c 00000000 		.4byte	0
 4108              	.LLST13:
 4109 0420 68000000 		.4byte	.LVL26
 4110 0424 74000000 		.4byte	.LVL28
 4111 0428 0300     		.2byte	0x3
 4112 042a 08       		.byte	0x8
 4113 042b 30       		.byte	0x30
 4114 042c 9F       		.byte	0x9f
 4115 042d 74000000 		.4byte	.LVL28
 4116 0431 99010000 		.4byte	.LVL48
 4117 0435 0100     		.2byte	0x1
 4118 0437 57       		.byte	0x57
 4119 0438 99010000 		.4byte	.LVL48
 4120 043c CE010000 		.4byte	.LVL60
 4121 0440 0300     		.2byte	0x3
 4122 0442 08       		.byte	0x8
 4123 0443 20       		.byte	0x20
 4124 0444 9F       		.byte	0x9f
 4125 0445 CE010000 		.4byte	.LVL60
 4126 0449 DE010000 		.4byte	.LVL63
 4127 044d 0100     		.2byte	0x1
 4128 044f 57       		.byte	0x57
 4129 0450 FA010000 		.4byte	.LVL67
 4130 0454 0C020000 		.4byte	.LVL68
 4131 0458 0300     		.2byte	0x3
 4132 045a 08       		.byte	0x8
 4133 045b 20       		.byte	0x20
 4134 045c 9F       		.byte	0x9f
 4135 045d 0C020000 		.4byte	.LVL68
 4136 0461 1A020000 		.4byte	.LVL71
 4137 0465 0100     		.2byte	0x1
 4138 0467 57       		.byte	0x57
 4139 0468 72020000 		.4byte	.LVL82
 4140 046c AE020000 		.4byte	.LVL99
 4141 0470 0100     		.2byte	0x1
 4142 0472 57       		.byte	0x57
 4143 0473 D4020000 		.4byte	.LVL107
 4144 0477 F2020000 		.4byte	.LVL110
 4145 047b 0300     		.2byte	0x3
 4146 047d 08       		.byte	0x8
 4147 047e 20       		.byte	0x20
 4148 047f 9F       		.byte	0x9f
 4149 0480 F2020000 		.4byte	.LVL110
 4150 0484 00030000 		.4byte	.LVL113
 4151 0488 0100     		.2byte	0x1
 4152 048a 57       		.byte	0x57
 4153 048b 00030000 		.4byte	.LVL113
 4154 048f 08030000 		.4byte	.LFE209
 4155 0493 0300     		.2byte	0x3
 4156 0495 08       		.byte	0x8
 4157 0496 20       		.byte	0x20
ARM GAS  /tmp/ccodQwgR.s 			page 74


 4158 0497 9F       		.byte	0x9f
 4159 0498 00000000 		.4byte	0
 4160 049c 00000000 		.4byte	0
 4161              	.LLST14:
 4162 04a0 CE010000 		.4byte	.LVL60
 4163 04a4 D8010000 		.4byte	.LVL62
 4164 04a8 0100     		.2byte	0x1
 4165 04aa 50       		.byte	0x50
 4166 04ab D8010000 		.4byte	.LVL62
 4167 04af DE010000 		.4byte	.LVL63
 4168 04b3 0100     		.2byte	0x1
 4169 04b5 53       		.byte	0x53
 4170 04b6 0C020000 		.4byte	.LVL68
 4171 04ba 1A020000 		.4byte	.LVL71
 4172 04be 0100     		.2byte	0x1
 4173 04c0 50       		.byte	0x50
 4174 04c1 42020000 		.4byte	.LVL76
 4175 04c5 4C020000 		.4byte	.LVL78
 4176 04c9 0100     		.2byte	0x1
 4177 04cb 53       		.byte	0x53
 4178 04cc 4C020000 		.4byte	.LVL78
 4179 04d0 54020000 		.4byte	.LVL79
 4180 04d4 0100     		.2byte	0x1
 4181 04d6 5A       		.byte	0x5a
 4182 04d7 54020000 		.4byte	.LVL79
 4183 04db 5E020000 		.4byte	.LVL81
 4184 04df 0300     		.2byte	0x3
 4185 04e1 7A       		.byte	0x7a
 4186 04e2 01       		.sleb128 1
 4187 04e3 9F       		.byte	0x9f
 4188 04e4 5E020000 		.4byte	.LVL81
 4189 04e8 72020000 		.4byte	.LVL82
 4190 04ec 0100     		.2byte	0x1
 4191 04ee 5A       		.byte	0x5a
 4192 04ef B2020000 		.4byte	.LVL100
 4193 04f3 B8020000 		.4byte	.LVL102
 4194 04f7 0100     		.2byte	0x1
 4195 04f9 53       		.byte	0x53
 4196 04fa D0020000 		.4byte	.LVL105
 4197 04fe D2020000 		.4byte	.LVL106
 4198 0502 0200     		.2byte	0x2
 4199 0504 7D       		.byte	0x7d
 4200 0505 00       		.sleb128 0
 4201 0506 D2020000 		.4byte	.LVL106
 4202 050a D4020000 		.4byte	.LVL107
 4203 050e 0300     		.2byte	0x3
 4204 0510 73       		.byte	0x73
 4205 0511 01       		.sleb128 1
 4206 0512 9F       		.byte	0x9f
 4207 0513 DE020000 		.4byte	.LVL108
 4208 0517 F2020000 		.4byte	.LVL110
 4209 051b 0200     		.2byte	0x2
 4210 051d 30       		.byte	0x30
 4211 051e 9F       		.byte	0x9f
 4212 051f 00030000 		.4byte	.LVL113
 4213 0523 08030000 		.4byte	.LFE209
 4214 0527 0200     		.2byte	0x2
ARM GAS  /tmp/ccodQwgR.s 			page 75


 4215 0529 30       		.byte	0x30
 4216 052a 9F       		.byte	0x9f
 4217 052b 00000000 		.4byte	0
 4218 052f 00000000 		.4byte	0
 4219              	.LLST15:
 4220 0533 9A000000 		.4byte	.LVL36
 4221 0537 A2000000 		.4byte	.LVL38
 4222 053b 0200     		.2byte	0x2
 4223 053d 30       		.byte	0x30
 4224 053e 9F       		.byte	0x9f
 4225 053f A2000000 		.4byte	.LVL38
 4226 0543 26010000 		.4byte	.LVL41
 4227 0547 0100     		.2byte	0x1
 4228 0549 51       		.byte	0x51
 4229 054a 26010000 		.4byte	.LVL41
 4230 054e 2A010000 		.4byte	.LVL42
 4231 0552 0500     		.2byte	0x5
 4232 0554 70       		.byte	0x70
 4233 0555 00       		.sleb128 0
 4234 0556 31       		.byte	0x31
 4235 0557 24       		.byte	0x24
 4236 0558 9F       		.byte	0x9f
 4237 0559 2A010000 		.4byte	.LVL42
 4238 055d BA010000 		.4byte	.LVL53
 4239 0561 0100     		.2byte	0x1
 4240 0563 51       		.byte	0x51
 4241 0564 BA010000 		.4byte	.LVL53
 4242 0568 BC010000 		.4byte	.LVL54
 4243 056c 0300     		.2byte	0x3
 4244 056e 71       		.byte	0x71
 4245 056f 7F       		.sleb128 -1
 4246 0570 9F       		.byte	0x9f
 4247 0571 BC010000 		.4byte	.LVL54
 4248 0575 BE010000 		.4byte	.LVL55
 4249 0579 0100     		.2byte	0x1
 4250 057b 51       		.byte	0x51
 4251 057c BE010000 		.4byte	.LVL55
 4252 0580 C6010000 		.4byte	.LVL57
 4253 0584 0300     		.2byte	0x3
 4254 0586 71       		.byte	0x71
 4255 0587 7F       		.sleb128 -1
 4256 0588 9F       		.byte	0x9f
 4257 0589 FA010000 		.4byte	.LVL67
 4258 058d 0C020000 		.4byte	.LVL68
 4259 0591 0100     		.2byte	0x1
 4260 0593 51       		.byte	0x51
 4261 0594 72020000 		.4byte	.LVL82
 4262 0598 76020000 		.4byte	.LVL84
 4263 059c 0100     		.2byte	0x1
 4264 059e 51       		.byte	0x51
 4265 059f 88020000 		.4byte	.LVL91
 4266 05a3 8E020000 		.4byte	.LVL93
 4267 05a7 0100     		.2byte	0x1
 4268 05a9 51       		.byte	0x51
 4269 05aa 9A020000 		.4byte	.LVL95
 4270 05ae AE020000 		.4byte	.LVL99
 4271 05b2 0100     		.2byte	0x1
ARM GAS  /tmp/ccodQwgR.s 			page 76


 4272 05b4 51       		.byte	0x51
 4273 05b5 D4020000 		.4byte	.LVL107
 4274 05b9 DE020000 		.4byte	.LVL108
 4275 05bd 0400     		.2byte	0x4
 4276 05bf 0A       		.byte	0xa
 4277 05c0 FF7F     		.2byte	0x7fff
 4278 05c2 9F       		.byte	0x9f
 4279 05c3 00000000 		.4byte	0
 4280 05c7 00000000 		.4byte	0
 4281              	.LLST16:
 4282 05cb 74000000 		.4byte	.LVL28
 4283 05cf 78000000 		.4byte	.LVL30
 4284 05d3 0200     		.2byte	0x2
 4285 05d5 30       		.byte	0x30
 4286 05d6 9F       		.byte	0x9f
 4287 05d7 78000000 		.4byte	.LVL30
 4288 05db CA010000 		.4byte	.LVL59
 4289 05df 0100     		.2byte	0x1
 4290 05e1 56       		.byte	0x56
 4291 05e2 CE010000 		.4byte	.LVL60
 4292 05e6 E6010000 		.4byte	.LVL64
 4293 05ea 0100     		.2byte	0x1
 4294 05ec 56       		.byte	0x56
 4295 05ed E6010000 		.4byte	.LVL64
 4296 05f1 F2010000 		.4byte	.LVL65
 4297 05f5 0100     		.2byte	0x1
 4298 05f7 54       		.byte	0x54
 4299 05f8 F2010000 		.4byte	.LVL65
 4300 05fc F4010000 		.4byte	.LVL66
 4301 0600 0300     		.2byte	0x3
 4302 0602 74       		.byte	0x74
 4303 0603 7F       		.sleb128 -1
 4304 0604 9F       		.byte	0x9f
 4305 0605 F4010000 		.4byte	.LVL66
 4306 0609 FA010000 		.4byte	.LVL67
 4307 060d 0100     		.2byte	0x1
 4308 060f 54       		.byte	0x54
 4309 0610 FA010000 		.4byte	.LVL67
 4310 0614 1E020000 		.4byte	.LVL72
 4311 0618 0100     		.2byte	0x1
 4312 061a 56       		.byte	0x56
 4313 061b 1E020000 		.4byte	.LVL72
 4314 061f 2C020000 		.4byte	.LVL73
 4315 0623 0100     		.2byte	0x1
 4316 0625 5A       		.byte	0x5a
 4317 0626 2C020000 		.4byte	.LVL73
 4318 062a 38020000 		.4byte	.LVL74
 4319 062e 0100     		.2byte	0x1
 4320 0630 56       		.byte	0x56
 4321 0631 38020000 		.4byte	.LVL74
 4322 0635 3A020000 		.4byte	.LVL75
 4323 0639 0300     		.2byte	0x3
 4324 063b 76       		.byte	0x76
 4325 063c 01       		.sleb128 1
 4326 063d 9F       		.byte	0x9f
 4327 063e 3A020000 		.4byte	.LVL75
 4328 0642 42020000 		.4byte	.LVL76
ARM GAS  /tmp/ccodQwgR.s 			page 77


 4329 0646 0100     		.2byte	0x1
 4330 0648 56       		.byte	0x56
 4331 0649 42020000 		.4byte	.LVL76
 4332 064d 48020000 		.4byte	.LVL77
 4333 0651 0200     		.2byte	0x2
 4334 0653 30       		.byte	0x30
 4335 0654 9F       		.byte	0x9f
 4336 0655 72020000 		.4byte	.LVL82
 4337 0659 AE020000 		.4byte	.LVL99
 4338 065d 0100     		.2byte	0x1
 4339 065f 56       		.byte	0x56
 4340 0660 AE020000 		.4byte	.LVL99
 4341 0664 B6020000 		.4byte	.LVL101
 4342 0668 0100     		.2byte	0x1
 4343 066a 5A       		.byte	0x5a
 4344 066b B6020000 		.4byte	.LVL101
 4345 066f B8020000 		.4byte	.LVL102
 4346 0673 0100     		.2byte	0x1
 4347 0675 56       		.byte	0x56
 4348 0676 B8020000 		.4byte	.LVL102
 4349 067a D4020000 		.4byte	.LVL107
 4350 067e 0100     		.2byte	0x1
 4351 0680 5A       		.byte	0x5a
 4352 0681 D4020000 		.4byte	.LVL107
 4353 0685 08030000 		.4byte	.LFE209
 4354 0689 0100     		.2byte	0x1
 4355 068b 56       		.byte	0x56
 4356 068c 00000000 		.4byte	0
 4357 0690 00000000 		.4byte	0
 4358              	.LLST17:
 4359 0694 0E000000 		.4byte	.LVL17
 4360 0698 1C000000 		.4byte	.LVL19
 4361 069c 0200     		.2byte	0x2
 4362 069e 30       		.byte	0x30
 4363 069f 9F       		.byte	0x9f
 4364 06a0 1C000000 		.4byte	.LVL19
 4365 06a4 E6010000 		.4byte	.LVL64
 4366 06a8 0100     		.2byte	0x1
 4367 06aa 58       		.byte	0x58
 4368 06ab FA010000 		.4byte	.LVL67
 4369 06af 2C020000 		.4byte	.LVL73
 4370 06b3 0100     		.2byte	0x1
 4371 06b5 58       		.byte	0x58
 4372 06b6 42020000 		.4byte	.LVL76
 4373 06ba 4C020000 		.4byte	.LVL78
 4374 06be 0100     		.2byte	0x1
 4375 06c0 58       		.byte	0x58
 4376 06c1 72020000 		.4byte	.LVL82
 4377 06c5 08030000 		.4byte	.LFE209
 4378 06c9 0100     		.2byte	0x1
 4379 06cb 58       		.byte	0x58
 4380 06cc 00000000 		.4byte	0
 4381 06d0 00000000 		.4byte	0
 4382              	.LLST18:
 4383 06d4 48010000 		.4byte	.LVL45
 4384 06d8 99010000 		.4byte	.LVL48
 4385 06dc 0200     		.2byte	0x2
ARM GAS  /tmp/ccodQwgR.s 			page 78


 4386 06de 31       		.byte	0x31
 4387 06df 9F       		.byte	0x9f
 4388 06e0 9E020000 		.4byte	.LVL96
 4389 06e4 A0020000 		.4byte	.LVL97
 4390 06e8 0200     		.2byte	0x2
 4391 06ea 31       		.byte	0x31
 4392 06eb 9F       		.byte	0x9f
 4393 06ec 00000000 		.4byte	0
 4394 06f0 00000000 		.4byte	0
 4395              	.LLST19:
 4396 06f4 4E000000 		.4byte	.LVL24
 4397 06f8 60000000 		.4byte	.LVL25
 4398 06fc 0200     		.2byte	0x2
 4399 06fe 30       		.byte	0x30
 4400 06ff 9F       		.byte	0x9f
 4401 0700 60000000 		.4byte	.LVL25
 4402 0704 68000000 		.4byte	.LVL26
 4403 0708 0200     		.2byte	0x2
 4404 070a 31       		.byte	0x31
 4405 070b 9F       		.byte	0x9f
 4406 070c 68000000 		.4byte	.LVL26
 4407 0710 DE010000 		.4byte	.LVL63
 4408 0714 0100     		.2byte	0x1
 4409 0716 5A       		.byte	0x5a
 4410 0717 FA010000 		.4byte	.LVL67
 4411 071b 1E020000 		.4byte	.LVL72
 4412 071f 0100     		.2byte	0x1
 4413 0721 5A       		.byte	0x5a
 4414 0722 72020000 		.4byte	.LVL82
 4415 0726 AE020000 		.4byte	.LVL99
 4416 072a 0100     		.2byte	0x1
 4417 072c 5A       		.byte	0x5a
 4418 072d D4020000 		.4byte	.LVL107
 4419 0731 08030000 		.4byte	.LFE209
 4420 0735 0100     		.2byte	0x1
 4421 0737 5A       		.byte	0x5a
 4422 0738 00000000 		.4byte	0
 4423 073c 00000000 		.4byte	0
 4424              	.LLST20:
 4425 0740 76020000 		.4byte	.LVL84
 4426 0744 7D020000 		.4byte	.LVL87-1
 4427 0748 0100     		.2byte	0x1
 4428 074a 51       		.byte	0x51
 4429 074b 8E020000 		.4byte	.LVL93
 4430 074f 9A020000 		.4byte	.LVL95
 4431 0753 0100     		.2byte	0x1
 4432 0755 51       		.byte	0x51
 4433 0756 F2020000 		.4byte	.LVL110
 4434 075a 00030000 		.4byte	.LVL113
 4435 075e 0100     		.2byte	0x1
 4436 0760 51       		.byte	0x51
 4437 0761 00000000 		.4byte	0
 4438 0765 00000000 		.4byte	0
 4439              	.LLST21:
 4440 0769 96020000 		.4byte	.LVL94
 4441 076d 9A020000 		.4byte	.LVL95
 4442 0771 0200     		.2byte	0x2
ARM GAS  /tmp/ccodQwgR.s 			page 79


 4443 0773 3A       		.byte	0x3a
 4444 0774 9F       		.byte	0x9f
 4445 0775 00000000 		.4byte	0
 4446 0779 00000000 		.4byte	0
 4447              	.LLST22:
 4448 077d 96020000 		.4byte	.LVL94
 4449 0781 9A020000 		.4byte	.LVL95
 4450 0785 0100     		.2byte	0x1
 4451 0787 51       		.byte	0x51
 4452 0788 00000000 		.4byte	0
 4453 078c 00000000 		.4byte	0
 4454              	.LLST23:
 4455 0790 96020000 		.4byte	.LVL94
 4456 0794 9A020000 		.4byte	.LVL95
 4457 0798 0100     		.2byte	0x1
 4458 079a 50       		.byte	0x50
 4459 079b 00000000 		.4byte	0
 4460 079f 00000000 		.4byte	0
 4461              	.LLST24:
 4462 07a3 00000000 		.4byte	.LVL114
 4463 07a7 13000000 		.4byte	.LVL115-1
 4464 07ab 0100     		.2byte	0x1
 4465 07ad 50       		.byte	0x50
 4466 07ae 13000000 		.4byte	.LVL115-1
 4467 07b2 1E000000 		.4byte	.LFE210
 4468 07b6 0400     		.2byte	0x4
 4469 07b8 F3       		.byte	0xf3
 4470 07b9 01       		.uleb128 0x1
 4471 07ba 50       		.byte	0x50
 4472 07bb 9F       		.byte	0x9f
 4473 07bc 00000000 		.4byte	0
 4474 07c0 00000000 		.4byte	0
 4475              	.LLST25:
 4476 07c4 00000000 		.4byte	.LVL116
 4477 07c8 0E000000 		.4byte	.LVL118
 4478 07cc 0100     		.2byte	0x1
 4479 07ce 50       		.byte	0x50
 4480 07cf 0E000000 		.4byte	.LVL118
 4481 07d3 36000000 		.4byte	.LVL124
 4482 07d7 0100     		.2byte	0x1
 4483 07d9 55       		.byte	0x55
 4484 07da 36000000 		.4byte	.LVL124
 4485 07de 3A000000 		.4byte	.LVL125
 4486 07e2 0400     		.2byte	0x4
 4487 07e4 F3       		.byte	0xf3
 4488 07e5 01       		.uleb128 0x1
 4489 07e6 50       		.byte	0x50
 4490 07e7 9F       		.byte	0x9f
 4491 07e8 3A000000 		.4byte	.LVL125
 4492 07ec 40000000 		.4byte	.LVL127
 4493 07f0 0100     		.2byte	0x1
 4494 07f2 50       		.byte	0x50
 4495 07f3 40000000 		.4byte	.LVL127
 4496 07f7 5A000000 		.4byte	.LVL131
 4497 07fb 0100     		.2byte	0x1
 4498 07fd 55       		.byte	0x55
 4499 07fe 5A000000 		.4byte	.LVL131
ARM GAS  /tmp/ccodQwgR.s 			page 80


 4500 0802 5E000000 		.4byte	.LFE211
 4501 0806 0400     		.2byte	0x4
 4502 0808 F3       		.byte	0xf3
 4503 0809 01       		.uleb128 0x1
 4504 080a 50       		.byte	0x50
 4505 080b 9F       		.byte	0x9f
 4506 080c 00000000 		.4byte	0
 4507 0810 00000000 		.4byte	0
 4508              	.LLST26:
 4509 0814 00000000 		.4byte	.LVL116
 4510 0818 10000000 		.4byte	.LVL119
 4511 081c 0100     		.2byte	0x1
 4512 081e 51       		.byte	0x51
 4513 081f 10000000 		.4byte	.LVL119
 4514 0823 36000000 		.4byte	.LVL124
 4515 0827 0100     		.2byte	0x1
 4516 0829 54       		.byte	0x54
 4517 082a 36000000 		.4byte	.LVL124
 4518 082e 3A000000 		.4byte	.LVL125
 4519 0832 0400     		.2byte	0x4
 4520 0834 F3       		.byte	0xf3
 4521 0835 01       		.uleb128 0x1
 4522 0836 51       		.byte	0x51
 4523 0837 9F       		.byte	0x9f
 4524 0838 3A000000 		.4byte	.LVL125
 4525 083c 3C000000 		.4byte	.LVL126
 4526 0840 0100     		.2byte	0x1
 4527 0842 51       		.byte	0x51
 4528 0843 3C000000 		.4byte	.LVL126
 4529 0847 5A000000 		.4byte	.LVL131
 4530 084b 0100     		.2byte	0x1
 4531 084d 54       		.byte	0x54
 4532 084e 5A000000 		.4byte	.LVL131
 4533 0852 5E000000 		.4byte	.LFE211
 4534 0856 0400     		.2byte	0x4
 4535 0858 F3       		.byte	0xf3
 4536 0859 01       		.uleb128 0x1
 4537 085a 51       		.byte	0x51
 4538 085b 9F       		.byte	0x9f
 4539 085c 00000000 		.4byte	0
 4540 0860 00000000 		.4byte	0
 4541              	.LLST27:
 4542 0864 18000000 		.4byte	.LVL121
 4543 0868 1E000000 		.4byte	.LVL122
 4544 086c 0300     		.2byte	0x3
 4545 086e 91       		.byte	0x91
 4546 086f 44       		.sleb128 -60
 4547 0870 9F       		.byte	0x9f
 4548 0871 1E000000 		.4byte	.LVL122
 4549 0875 25000000 		.4byte	.LVL123-1
 4550 0879 0100     		.2byte	0x1
 4551 087b 50       		.byte	0x50
 4552 087c 25000000 		.4byte	.LVL123-1
 4553 0880 3A000000 		.4byte	.LVL125
 4554 0884 0300     		.2byte	0x3
 4555 0886 91       		.byte	0x91
 4556 0887 44       		.sleb128 -60
ARM GAS  /tmp/ccodQwgR.s 			page 81


 4557 0888 9F       		.byte	0x9f
 4558 0889 46000000 		.4byte	.LVL128
 4559 088d 4A000000 		.4byte	.LVL129
 4560 0891 0300     		.2byte	0x3
 4561 0893 91       		.byte	0x91
 4562 0894 44       		.sleb128 -60
 4563 0895 9F       		.byte	0x9f
 4564 0896 4A000000 		.4byte	.LVL129
 4565 089a 53000000 		.4byte	.LVL130-1
 4566 089e 0100     		.2byte	0x1
 4567 08a0 50       		.byte	0x50
 4568 08a1 53000000 		.4byte	.LVL130-1
 4569 08a5 5E000000 		.4byte	.LFE211
 4570 08a9 0300     		.2byte	0x3
 4571 08ab 91       		.byte	0x91
 4572 08ac 44       		.sleb128 -60
 4573 08ad 9F       		.byte	0x9f
 4574 08ae 00000000 		.4byte	0
 4575 08b2 00000000 		.4byte	0
 4576              	.LLST28:
 4577 08b6 0C000000 		.4byte	.LVL117
 4578 08ba 10000000 		.4byte	.LVL119
 4579 08be 0300     		.2byte	0x3
 4580 08c0 71       		.byte	0x71
 4581 08c1 7F       		.sleb128 -1
 4582 08c2 9F       		.byte	0x9f
 4583 08c3 10000000 		.4byte	.LVL119
 4584 08c7 12000000 		.4byte	.LVL120
 4585 08cb 0300     		.2byte	0x3
 4586 08cd 74       		.byte	0x74
 4587 08ce 7F       		.sleb128 -1
 4588 08cf 9F       		.byte	0x9f
 4589 08d0 12000000 		.4byte	.LVL120
 4590 08d4 17000000 		.4byte	.LVL121-1
 4591 08d8 0100     		.2byte	0x1
 4592 08da 52       		.byte	0x52
 4593 08db 17000000 		.4byte	.LVL121-1
 4594 08df 36000000 		.4byte	.LVL124
 4595 08e3 0300     		.2byte	0x3
 4596 08e5 74       		.byte	0x74
 4597 08e6 7F       		.sleb128 -1
 4598 08e7 9F       		.byte	0x9f
 4599 08e8 36000000 		.4byte	.LVL124
 4600 08ec 3A000000 		.4byte	.LVL125
 4601 08f0 0600     		.2byte	0x6
 4602 08f2 F3       		.byte	0xf3
 4603 08f3 01       		.uleb128 0x1
 4604 08f4 51       		.byte	0x51
 4605 08f5 31       		.byte	0x31
 4606 08f6 1C       		.byte	0x1c
 4607 08f7 9F       		.byte	0x9f
 4608 08f8 3A000000 		.4byte	.LVL125
 4609 08fc 5E000000 		.4byte	.LFE211
 4610 0900 0200     		.2byte	0x2
 4611 0902 30       		.byte	0x30
 4612 0903 9F       		.byte	0x9f
 4613 0904 00000000 		.4byte	0
ARM GAS  /tmp/ccodQwgR.s 			page 82


 4614 0908 00000000 		.4byte	0
 4615              	.LLST29:
 4616 090c 26000000 		.4byte	.LVL123
 4617 0910 3A000000 		.4byte	.LVL125
 4618 0914 0100     		.2byte	0x1
 4619 0916 50       		.byte	0x50
 4620 0917 54000000 		.4byte	.LVL130
 4621 091b 5E000000 		.4byte	.LFE211
 4622 091f 0100     		.2byte	0x1
 4623 0921 50       		.byte	0x50
 4624 0922 00000000 		.4byte	0
 4625 0926 00000000 		.4byte	0
 4626              		.section	.debug_aranges,"",%progbits
 4627 0000 34000000 		.4byte	0x34
 4628 0004 0200     		.2byte	0x2
 4629 0006 00000000 		.4byte	.Ldebug_info0
 4630 000a 04       		.byte	0x4
 4631 000b 00       		.byte	0
 4632 000c 0000     		.2byte	0
 4633 000e 0000     		.2byte	0
 4634 0010 00000000 		.4byte	.LFB212
 4635 0014 44000000 		.4byte	.LFE212-.LFB212
 4636 0018 00000000 		.4byte	.LFB209
 4637 001c 08030000 		.4byte	.LFE209-.LFB209
 4638 0020 00000000 		.4byte	.LFB210
 4639 0024 1E000000 		.4byte	.LFE210-.LFB210
 4640 0028 00000000 		.4byte	.LFB211
 4641 002c 5E000000 		.4byte	.LFE211-.LFB211
 4642 0030 00000000 		.4byte	0
 4643 0034 00000000 		.4byte	0
 4644              		.section	.debug_ranges,"",%progbits
 4645              	.Ldebug_ranges0:
 4646 0000 76020000 		.4byte	.LBB6
 4647 0004 78020000 		.4byte	.LBE6
 4648 0008 7A020000 		.4byte	.LBB9
 4649 000c 84020000 		.4byte	.LBE9
 4650 0010 00000000 		.4byte	0
 4651 0014 00000000 		.4byte	0
 4652 0018 00000000 		.4byte	.LFB212
 4653 001c 44000000 		.4byte	.LFE212
 4654 0020 00000000 		.4byte	.LFB209
 4655 0024 08030000 		.4byte	.LFE209
 4656 0028 00000000 		.4byte	.LFB210
 4657 002c 1E000000 		.4byte	.LFE210
 4658 0030 00000000 		.4byte	.LFB211
 4659 0034 5E000000 		.4byte	.LFE211
 4660 0038 00000000 		.4byte	0
 4661 003c 00000000 		.4byte	0
 4662              		.section	.debug_line,"",%progbits
 4663              	.Ldebug_line0:
 4664 0000 25040000 		.section	.debug_str,"MS",%progbits,1
 4664      0200CC02 
 4664      00000201 
 4664      FB0E0D00 
 4664      01010101 
 4665              	.LASF49:
 4666 0000 74687265 		.ascii	"threads_list_t\000"
ARM GAS  /tmp/ccodQwgR.s 			page 83


 4666      6164735F 
 4666      6C697374 
 4666      5F7400
 4667              	.LASF21:
 4668 000f 74726566 		.ascii	"trefs_t\000"
 4668      735F7400 
 4669              	.LASF54:
 4670 0017 72656164 		.ascii	"ready_list_t\000"
 4670      795F6C69 
 4670      73745F74 
 4670      00
 4671              	.LASF2:
 4672 0024 73697A65 		.ascii	"size_t\000"
 4672      5F7400
 4673              	.LASF17:
 4674 002b 75696E74 		.ascii	"uint64_t\000"
 4674      36345F74 
 4674      00
 4675              	.LASF3:
 4676 0034 5F5F7569 		.ascii	"__uint8_t\000"
 4676      6E74385F 
 4676      7400
 4677              	.LASF88:
 4678 003e 706F7274 		.ascii	"port_intctx\000"
 4678      5F696E74 
 4678      63747800 
 4679              	.LASF151:
 4680 004a 76615F6C 		.ascii	"va_list\000"
 4680      69737400 
 4681              	.LASF73:
 4682 0052 73797374 		.ascii	"system_debug_t\000"
 4682      656D5F64 
 4682      65627567 
 4682      5F7400
 4683              	.LASF171:
 4684 0061 72657476 		.ascii	"retval\000"
 4684      616C00
 4685              	.LASF170:
 4686 0068 73697A65 		.ascii	"size_wo_nul\000"
 4686      5F776F5F 
 4686      6E756C00 
 4687              	.LASF13:
 4688 0074 6C6F6E67 		.ascii	"long long unsigned int\000"
 4688      206C6F6E 
 4688      6720756E 
 4688      7369676E 
 4688      65642069 
 4689              	.LASF168:
 4690 008b 666F726D 		.ascii	"formatted_bytes\000"
 4690      61747465 
 4690      645F6279 
 4690      74657300 
 4691              	.LASF92:
 4692 009b 65786974 		.ascii	"exitcode\000"
 4692      636F6465 
 4692      00
 4693              	.LASF80:
ARM GAS  /tmp/ccodQwgR.s 			page 84


 4694 00a4 6D61696E 		.ascii	"mainthread\000"
 4694      74687265 
 4694      616400
 4695              	.LASF70:
 4696 00af 76697274 		.ascii	"virtual_timers_list_t\000"
 4696      75616C5F 
 4696      74696D65 
 4696      72735F6C 
 4696      6973745F 
 4697              	.LASF172:
 4698 00c5 49544D5F 		.ascii	"ITM_RxBuffer\000"
 4698      52784275 
 4698      66666572 
 4698      00
 4699              	.LASF117:
 4700 00d2 696F5F71 		.ascii	"io_queue_t\000"
 4700      75657565 
 4700      5F7400
 4701              	.LASF53:
 4702 00dd 63685F74 		.ascii	"ch_threads_queue\000"
 4702      68726561 
 4702      64735F71 
 4702      75657565 
 4702      00
 4703              	.LASF32:
 4704 00ee 705F7072 		.ascii	"p_prio\000"
 4704      696F00
 4705              	.LASF147:
 4706 00f5 72656164 		.ascii	"readt\000"
 4706      7400
 4707              	.LASF119:
 4708 00fb 715F7761 		.ascii	"q_waiting\000"
 4708      6974696E 
 4708      6700
 4709              	.LASF11:
 4710 0105 6C6F6E67 		.ascii	"long long int\000"
 4710      206C6F6E 
 4710      6720696E 
 4710      7400
 4711              	.LASF1:
 4712 0113 7369676E 		.ascii	"signed char\000"
 4712      65642063 
 4712      68617200 
 4713              	.LASF83:
 4714 011f 47545052 		.ascii	"GTPR\000"
 4714      00
 4715              	.LASF10:
 4716 0124 6C6F6E67 		.ascii	"long unsigned int\000"
 4716      20756E73 
 4716      69676E65 
 4716      6420696E 
 4716      7400
 4717              	.LASF47:
 4718 0136 705F6D70 		.ascii	"p_mpool\000"
 4718      6F6F6C00 
 4719              	.LASF165:
 4720 013e 746D7062 		.ascii	"tmpbuf\000"
ARM GAS  /tmp/ccodQwgR.s 			page 85


 4720      756600
 4721              	.LASF22:
 4722 0145 74736C69 		.ascii	"tslices_t\000"
 4722      6365735F 
 4722      7400
 4723              	.LASF137:
 4724 014f 73746174 		.ascii	"state\000"
 4724      6500
 4725              	.LASF77:
 4726 0155 63685F73 		.ascii	"ch_system\000"
 4726      79737465 
 4726      6D00
 4727              	.LASF8:
 4728 015f 6C6F6E67 		.ascii	"long int\000"
 4728      20696E74 
 4728      00
 4729              	.LASF20:
 4730 0168 74737461 		.ascii	"tstate_t\000"
 4730      74655F74 
 4730      00
 4731              	.LASF175:
 4732 0171 2F686F6D 		.ascii	"/home/peter/Plocha/robocup_2017/dribler_versions/ro"
 4732      652F7065 
 4732      7465722F 
 4732      506C6F63 
 4732      68612F72 
 4733 01a4 626F6375 		.ascii	"bocup_austria\000"
 4733      705F6175 
 4733      73747269 
 4733      6100
 4734              	.LASF149:
 4735 01b2 5F5F7661 		.ascii	"__va_list\000"
 4735      5F6C6973 
 4735      7400
 4736              	.LASF39:
 4737 01bc 705F7265 		.ascii	"p_refs\000"
 4737      667300
 4738              	.LASF121:
 4739 01c3 715F6275 		.ascii	"q_buffer\000"
 4739      66666572 
 4739      00
 4740              	.LASF123:
 4741 01cc 715F7772 		.ascii	"q_wrptr\000"
 4741      70747200 
 4742              	.LASF153:
 4743 01d4 62756666 		.ascii	"buffer\000"
 4743      657200
 4744              	.LASF34:
 4745 01db 705F6E65 		.ascii	"p_newer\000"
 4745      77657200 
 4746              	.LASF99:
 4747 01e3 735F7175 		.ascii	"s_queue\000"
 4747      65756500 
 4748              	.LASF59:
 4749 01eb 725F6E65 		.ascii	"r_newer\000"
 4749      77657200 
 4750              	.LASF85:
ARM GAS  /tmp/ccodQwgR.s 			page 86


 4751 01f3 72656761 		.ascii	"regarm_t\000"
 4751      726D5F74 
 4751      00
 4752              	.LASF66:
 4753 01fc 76745F70 		.ascii	"vt_prev\000"
 4753      72657600 
 4754              	.LASF79:
 4755 0204 76746C69 		.ascii	"vtlist\000"
 4755      737400
 4756              	.LASF160:
 4757 020b 66696C6C 		.ascii	"filler\000"
 4757      657200
 4758              	.LASF163:
 4759 0212 69735F6C 		.ascii	"is_long\000"
 4759      6F6E6700 
 4760              	.LASF106:
 4761 021a 6D757465 		.ascii	"mutex_t\000"
 4761      785F7400 
 4762              	.LASF118:
 4763 0222 696F5F71 		.ascii	"io_queue\000"
 4763      75657565 
 4763      00
 4764              	.LASF116:
 4765 022b 6576656E 		.ascii	"event_source_t\000"
 4765      745F736F 
 4765      75726365 
 4765      5F7400
 4766              	.LASF81:
 4767 023a 69646C65 		.ascii	"idle_thread_wa\000"
 4767      5F746872 
 4767      6561645F 
 4767      776100
 4768              	.LASF27:
 4769 0249 636E745F 		.ascii	"cnt_t\000"
 4769      7400
 4770              	.LASF140:
 4771 024f 75736172 		.ascii	"usart\000"
 4771      7400
 4772              	.LASF0:
 4773 0255 756E7369 		.ascii	"unsigned int\000"
 4773      676E6564 
 4773      20696E74 
 4773      00
 4774              	.LASF65:
 4775 0262 76745F6E 		.ascii	"vt_next\000"
 4775      65787400 
 4776              	.LASF141:
 4777 026a 53657269 		.ascii	"SerialDriverVMT\000"
 4777      616C4472 
 4777      69766572 
 4777      564D5400 
 4778              	.LASF95:
 4779 027a 77747365 		.ascii	"wtsemp\000"
 4779      6D7000
 4780              	.LASF138:
 4781 0281 69717565 		.ascii	"iqueue\000"
 4781      756500
ARM GAS  /tmp/ccodQwgR.s 			page 87


 4782              	.LASF42:
 4783 0288 705F6D73 		.ascii	"p_msgqueue\000"
 4783      67717565 
 4783      756500
 4784              	.LASF164:
 4785 0293 6C656674 		.ascii	"left_align\000"
 4785      5F616C69 
 4785      676E00
 4786              	.LASF145:
 4787 029e 67657474 		.ascii	"gett\000"
 4787      00
 4788              	.LASF162:
 4789 02a3 77696474 		.ascii	"width\000"
 4789      6800
 4790              	.LASF136:
 4791 02a9 6576656E 		.ascii	"event\000"
 4791      7400
 4792              	.LASF6:
 4793 02af 73686F72 		.ascii	"short unsigned int\000"
 4793      7420756E 
 4793      7369676E 
 4793      65642069 
 4793      6E7400
 4794              	.LASF50:
 4795 02c2 63685F74 		.ascii	"ch_thread\000"
 4795      68726561 
 4795      6400
 4796              	.LASF113:
 4797 02cc 656C5F77 		.ascii	"el_wflags\000"
 4797      666C6167 
 4797      7300
 4798              	.LASF24:
 4799 02d6 6D73675F 		.ascii	"msg_t\000"
 4799      7400
 4800              	.LASF139:
 4801 02dc 6F717565 		.ascii	"oqueue\000"
 4801      756500
 4802              	.LASF109:
 4803 02e3 656C5F6E 		.ascii	"el_next\000"
 4803      65787400 
 4804              	.LASF143:
 4805 02eb 72656164 		.ascii	"read\000"
 4805      00
 4806              	.LASF84:
 4807 02f0 55534152 		.ascii	"USART_TypeDef\000"
 4807      545F5479 
 4807      70654465 
 4807      6600
 4808              	.LASF146:
 4809 02fe 77726974 		.ascii	"writet\000"
 4809      657400
 4810              	.LASF19:
 4811 0305 746D6F64 		.ascii	"tmode_t\000"
 4811      655F7400 
 4812              	.LASF55:
 4813 030d 63685F72 		.ascii	"ch_ready_list\000"
 4813      65616479 
ARM GAS  /tmp/ccodQwgR.s 			page 88


 4813      5F6C6973 
 4813      7400
 4814              	.LASF25:
 4815 031b 6576656E 		.ascii	"eventmask_t\000"
 4815      746D6173 
 4815      6B5F7400 
 4816              	.LASF7:
 4817 0327 5F5F696E 		.ascii	"__int32_t\000"
 4817      7433325F 
 4817      7400
 4818              	.LASF127:
 4819 0331 716E6F74 		.ascii	"qnotify_t\000"
 4819      6966795F 
 4819      7400
 4820              	.LASF86:
 4821 033b 73746B61 		.ascii	"stkalign_t\000"
 4821      6C69676E 
 4821      5F7400
 4822              	.LASF177:
 4823 0346 6D734F62 		.ascii	"msObjectInit\000"
 4823      6A656374 
 4823      496E6974 
 4823      00
 4824              	.LASF142:
 4825 0353 77726974 		.ascii	"write\000"
 4825      6500
 4826              	.LASF128:
 4827 0359 696E7075 		.ascii	"input_queue_t\000"
 4827      745F7175 
 4827      6575655F 
 4827      7400
 4828              	.LASF144:
 4829 0367 70757474 		.ascii	"putt\000"
 4829      00
 4830              	.LASF41:
 4831 036c 705F7761 		.ascii	"p_waiting\000"
 4831      6974696E 
 4831      6700
 4832              	.LASF82:
 4833 0376 73697A65 		.ascii	"sizetype\000"
 4833      74797065 
 4833      00
 4834              	.LASF48:
 4835 037f 74687265 		.ascii	"thread_reference_t\000"
 4835      61645F72 
 4835      65666572 
 4835      656E6365 
 4835      5F7400
 4836              	.LASF71:
 4837 0392 63685F76 		.ascii	"ch_virtual_timers_list\000"
 4837      69727475 
 4837      616C5F74 
 4837      696D6572 
 4837      735F6C69 
 4838              	.LASF120:
 4839 03a9 715F636F 		.ascii	"q_counter\000"
 4839      756E7465 
ARM GAS  /tmp/ccodQwgR.s 			page 89


 4839      7200
 4840              	.LASF94:
 4841 03b3 77747472 		.ascii	"wttrp\000"
 4841      7000
 4842              	.LASF176:
 4843 03b9 756E7369 		.ascii	"unsigned_common\000"
 4843      676E6564 
 4843      5F636F6D 
 4843      6D6F6E00 
 4844              	.LASF159:
 4845 03c9 64697669 		.ascii	"divisor\000"
 4845      736F7200 
 4846              	.LASF148:
 4847 03d1 5F5F676E 		.ascii	"__gnuc_va_list\000"
 4847      75635F76 
 4847      615F6C69 
 4847      737400
 4848              	.LASF35:
 4849 03e0 705F6F6C 		.ascii	"p_older\000"
 4849      64657200 
 4850              	.LASF58:
 4851 03e8 725F6374 		.ascii	"r_ctx\000"
 4851      7800
 4852              	.LASF90:
 4853 03ee 746D5F63 		.ascii	"tm_calibration_t\000"
 4853      616C6962 
 4853      72617469 
 4853      6F6E5F74 
 4853      00
 4854              	.LASF61:
 4855 03ff 725F6375 		.ascii	"r_current\000"
 4855      7272656E 
 4855      7400
 4856              	.LASF60:
 4857 0409 725F6F6C 		.ascii	"r_older\000"
 4857      64657200 
 4858              	.LASF111:
 4859 0411 656C5F65 		.ascii	"el_events\000"
 4859      76656E74 
 4859      7300
 4860              	.LASF152:
 4861 041b 4D656D53 		.ascii	"MemStreamVMT\000"
 4861      74726561 
 4861      6D564D54 
 4861      00
 4862              	.LASF12:
 4863 0428 5F5F7569 		.ascii	"__uint64_t\000"
 4863      6E743634 
 4863      5F7400
 4864              	.LASF63:
 4865 0433 76697274 		.ascii	"virtual_timer_t\000"
 4865      75616C5F 
 4865      74696D65 
 4865      725F7400 
 4866              	.LASF31:
 4867 0443 705F7072 		.ascii	"p_prev\000"
 4867      657600
ARM GAS  /tmp/ccodQwgR.s 			page 90


 4868              	.LASF23:
 4869 044a 74707269 		.ascii	"tprio_t\000"
 4869      6F5F7400 
 4870              	.LASF124:
 4871 0452 715F7264 		.ascii	"q_rdptr\000"
 4871      70747200 
 4872              	.LASF155:
 4873 045a 4D656D6F 		.ascii	"MemoryStream\000"
 4873      72795374 
 4873      7265616D 
 4873      00
 4874              	.LASF36:
 4875 0467 705F6E61 		.ascii	"p_name\000"
 4875      6D6500
 4876              	.LASF74:
 4877 046e 63685F73 		.ascii	"ch_system_debug\000"
 4877      79737465 
 4877      6D5F6465 
 4877      62756700 
 4878              	.LASF130:
 4879 047e 5F426F6F 		.ascii	"_Bool\000"
 4879      6C00
 4880              	.LASF15:
 4881 0484 696E7433 		.ascii	"int32_t\000"
 4881      325F7400 
 4882              	.LASF4:
 4883 048c 756E7369 		.ascii	"unsigned char\000"
 4883      676E6564 
 4883      20636861 
 4883      7200
 4884              	.LASF102:
 4885 049a 6D5F7175 		.ascii	"m_queue\000"
 4885      65756500 
 4886              	.LASF110:
 4887 04a2 656C5F6C 		.ascii	"el_listener\000"
 4887      69737465 
 4887      6E657200 
 4888              	.LASF112:
 4889 04ae 656C5F66 		.ascii	"el_flags\000"
 4889      6C616773 
 4889      00
 4890              	.LASF45:
 4891 04b7 705F6D74 		.ascii	"p_mtxlist\000"
 4891      786C6973 
 4891      7400
 4892              	.LASF5:
 4893 04c1 73686F72 		.ascii	"short int\000"
 4893      7420696E 
 4893      7400
 4894              	.LASF37:
 4895 04cb 705F7374 		.ascii	"p_state\000"
 4895      61746500 
 4896              	.LASF40:
 4897 04d3 705F7072 		.ascii	"p_preempt\000"
 4897      65656D70 
 4897      7400
 4898              	.LASF57:
ARM GAS  /tmp/ccodQwgR.s 			page 91


 4899 04dd 725F7072 		.ascii	"r_prio\000"
 4899      696F00
 4900              	.LASF97:
 4901 04e4 65776D61 		.ascii	"ewmask\000"
 4901      736B00
 4902              	.LASF30:
 4903 04eb 705F6E65 		.ascii	"p_next\000"
 4903      787400
 4904              	.LASF38:
 4905 04f2 705F666C 		.ascii	"p_flags\000"
 4905      61677300 
 4906              	.LASF156:
 4907 04fa 72616469 		.ascii	"radix\000"
 4907      7800
 4908              	.LASF132:
 4909 0500 53445F53 		.ascii	"SD_STOP\000"
 4909      544F5000 
 4910              	.LASF91:
 4911 0508 7264796D 		.ascii	"rdymsg\000"
 4911      736700
 4912              	.LASF52:
 4913 050f 74687265 		.ascii	"threads_queue_t\000"
 4913      6164735F 
 4913      71756575 
 4913      655F7400 
 4914              	.LASF98:
 4915 051f 63685F73 		.ascii	"ch_semaphore\000"
 4915      656D6170 
 4915      686F7265 
 4915      00
 4916              	.LASF44:
 4917 052c 705F6570 		.ascii	"p_epending\000"
 4917      656E6469 
 4917      6E6700
 4918              	.LASF131:
 4919 0537 53445F55 		.ascii	"SD_UNINIT\000"
 4919      4E494E49 
 4919      5400
 4920              	.LASF16:
 4921 0541 75696E74 		.ascii	"uint32_t\000"
 4921      33325F74 
 4921      00
 4922              	.LASF96:
 4923 054a 77746D74 		.ascii	"wtmtxp\000"
 4923      787000
 4924              	.LASF56:
 4925 0551 725F7175 		.ascii	"r_queue\000"
 4925      65756500 
 4926              	.LASF67:
 4927 0559 76745F64 		.ascii	"vt_delta\000"
 4927      656C7461 
 4927      00
 4928              	.LASF51:
 4929 0562 63685F74 		.ascii	"ch_threads_list\000"
 4929      68726561 
 4929      64735F6C 
 4929      69737400 
ARM GAS  /tmp/ccodQwgR.s 			page 92


 4930              	.LASF135:
 4931 0572 53657269 		.ascii	"SerialDriver\000"
 4931      616C4472 
 4931      69766572 
 4931      00
 4932              	.LASF169:
 4933 057f 6368736E 		.ascii	"chsnprintf\000"
 4933      7072696E 
 4933      746600
 4934              	.LASF173:
 4935 058a 474E5520 		.ascii	"GNU C 4.9.3 20150529 (prerelease) -mcpu=cortex-m3 -"
 4935      4320342E 
 4935      392E3320 
 4935      32303135 
 4935      30353239 
 4936 05bd 6D6E6F2D 		.ascii	"mno-thumb-interwork -mthumb -ggdb -O2 -std=c99 -fom"
 4936      7468756D 
 4936      622D696E 
 4936      74657277 
 4936      6F726B20 
 4937 05f0 69742D66 		.ascii	"it-frame-pointer -falign-functions=16 -ffunction-se"
 4937      72616D65 
 4937      2D706F69 
 4937      6E746572 
 4937      202D6661 
 4938 0623 6374696F 		.ascii	"ctions -fdata-sections -fno-common\000"
 4938      6E73202D 
 4938      66646174 
 4938      612D7365 
 4938      6374696F 
 4939              	.LASF105:
 4940 0646 63686172 		.ascii	"char\000"
 4940      00
 4941              	.LASF43:
 4942 064b 705F6D73 		.ascii	"p_msg\000"
 4942      6700
 4943              	.LASF161:
 4944 0651 70726563 		.ascii	"precision\000"
 4944      6973696F 
 4944      6E00
 4945              	.LASF29:
 4946 065b 74687265 		.ascii	"thread_t\000"
 4946      61645F74 
 4946      00
 4947              	.LASF104:
 4948 0664 6D5F6E65 		.ascii	"m_next\000"
 4948      787400
 4949              	.LASF28:
 4950 066b 73797374 		.ascii	"systime_t\000"
 4950      696D655F 
 4950      7400
 4951              	.LASF46:
 4952 0675 705F7265 		.ascii	"p_realprio\000"
 4952      616C7072 
 4952      696F00
 4953              	.LASF62:
 4954 0680 76746675 		.ascii	"vtfunc_t\000"
ARM GAS  /tmp/ccodQwgR.s 			page 93


 4954      6E635F74 
 4954      00
 4955              	.LASF9:
 4956 0689 5F5F7569 		.ascii	"__uint32_t\000"
 4956      6E743332 
 4956      5F7400
 4957              	.LASF75:
 4958 0694 70616E69 		.ascii	"panic_msg\000"
 4958      635F6D73 
 4958      6700
 4959              	.LASF89:
 4960 069e 6F666673 		.ascii	"offset\000"
 4960      657400
 4961              	.LASF107:
 4962 06a5 6576656E 		.ascii	"event_listener_t\000"
 4962      745F6C69 
 4962      7374656E 
 4962      65725F74 
 4962      00
 4963              	.LASF150:
 4964 06b6 5F5F6170 		.ascii	"__ap\000"
 4964      00
 4965              	.LASF87:
 4966 06bb 636F6E74 		.ascii	"context\000"
 4966      65787400 
 4967              	.LASF76:
 4968 06c3 63685F73 		.ascii	"ch_system_t\000"
 4968      79737465 
 4968      6D5F7400 
 4969              	.LASF64:
 4970 06cf 63685F76 		.ascii	"ch_virtual_timer\000"
 4970      69727475 
 4970      616C5F74 
 4970      696D6572 
 4970      00
 4971              	.LASF18:
 4972 06e0 7274636E 		.ascii	"rtcnt_t\000"
 4972      745F7400 
 4973              	.LASF133:
 4974 06e8 53445F52 		.ascii	"SD_READY\000"
 4974      45414459 
 4974      00
 4975              	.LASF69:
 4976 06f1 76745F70 		.ascii	"vt_par\000"
 4976      617200
 4977              	.LASF26:
 4978 06f8 6576656E 		.ascii	"eventflags_t\000"
 4978      74666C61 
 4978      67735F74 
 4978      00
 4979              	.LASF129:
 4980 0705 6F757470 		.ascii	"output_queue_t\000"
 4980      75745F71 
 4980      75657565 
 4980      5F7400
 4981              	.LASF134:
 4982 0714 73647374 		.ascii	"sdstate_t\000"
ARM GAS  /tmp/ccodQwgR.s 			page 94


 4982      6174655F 
 4982      7400
 4983              	.LASF122:
 4984 071e 715F746F 		.ascii	"q_top\000"
 4984      7000
 4985              	.LASF101:
 4986 0724 63685F6D 		.ascii	"ch_mutex\000"
 4986      75746578 
 4986      00
 4987              	.LASF115:
 4988 072d 65735F6E 		.ascii	"es_next\000"
 4988      65787400 
 4989              	.LASF157:
 4990 0735 63685F6C 		.ascii	"ch_ltoa\000"
 4990      746F6100 
 4991              	.LASF125:
 4992 073d 715F6E6F 		.ascii	"q_notify\000"
 4992      74696679 
 4992      00
 4993              	.LASF78:
 4994 0746 726C6973 		.ascii	"rlist\000"
 4994      7400
 4995              	.LASF114:
 4996 074c 6576656E 		.ascii	"event_source\000"
 4996      745F736F 
 4996      75726365 
 4996      00
 4997              	.LASF14:
 4998 0759 75696E74 		.ascii	"uint8_t\000"
 4998      385F7400 
 4999              	.LASF166:
 5000 0761 63687670 		.ascii	"chvprintf\000"
 5000      72696E74 
 5000      6600
 5001              	.LASF93:
 5002 076b 77746F62 		.ascii	"wtobjp\000"
 5002      6A7000
 5003              	.LASF158:
 5004 0772 6C6F6E67 		.ascii	"long_to_string_with_divisor\000"
 5004      5F746F5F 
 5004      73747269 
 5004      6E675F77 
 5004      6974685F 
 5005              	.LASF154:
 5006 078e 73697A65 		.ascii	"size\000"
 5006      00
 5007              	.LASF100:
 5008 0793 735F636E 		.ascii	"s_cnt\000"
 5008      7400
 5009              	.LASF72:
 5010 0799 76745F73 		.ascii	"vt_systime\000"
 5010      79737469 
 5010      6D6500
 5011              	.LASF174:
 5012 07a4 2F686F6D 		.ascii	"/home/peter/ChibiOS_16.1.4/os/hal/lib/streams/chpri"
 5012      652F7065 
 5012      7465722F 
ARM GAS  /tmp/ccodQwgR.s 			page 95


 5012      43686962 
 5012      694F535F 
 5013 07d7 6E74662E 		.ascii	"ntf.c\000"
 5013      6300
 5014              	.LASF126:
 5015 07dd 715F6C69 		.ascii	"q_link\000"
 5015      6E6B00
 5016              	.LASF103:
 5017 07e4 6D5F6F77 		.ascii	"m_owner\000"
 5017      6E657200 
 5018              	.LASF33:
 5019 07ec 705F6374 		.ascii	"p_ctx\000"
 5019      7800
 5020              	.LASF68:
 5021 07f2 76745F66 		.ascii	"vt_func\000"
 5021      756E6300 
 5022              	.LASF108:
 5023 07fa 6576656E 		.ascii	"event_listener\000"
 5023      745F6C69 
 5023      7374656E 
 5023      657200
 5024              	.LASF167:
 5025 0809 63687072 		.ascii	"chprintf\000"
 5025      696E7466 
 5025      00
 5026              		.ident	"GCC: (15:4.9.3+svn227297-1) 4.9.3 20150529 (prerelease)"
ARM GAS  /tmp/ccodQwgR.s 			page 96


DEFINED SYMBOLS
                            *ABS*:00000000 chprintf.c
     /tmp/ccodQwgR.s:19     .text.long_to_string_with_divisor.constprop.0:00000000 $t
     /tmp/ccodQwgR.s:24     .text.long_to_string_with_divisor.constprop.0:00000000 long_to_string_with_divisor.constprop.0
     /tmp/ccodQwgR.s:104    .text.chvprintf:00000000 $t
     /tmp/ccodQwgR.s:110    .text.chvprintf:00000000 chvprintf
     /tmp/ccodQwgR.s:265    .text.chvprintf:000000b8 $d
     /tmp/ccodQwgR.s:319    .text.chvprintf:00000122 $t
     /tmp/ccodQwgR.s:366    .text.chvprintf:00000164 $d
     /tmp/ccodQwgR.s:741    .text.chvprintf:00000304 $d
     /tmp/ccodQwgR.s:746    .text.chprintf:00000000 $t
     /tmp/ccodQwgR.s:752    .text.chprintf:00000000 chprintf
     /tmp/ccodQwgR.s:796    .text.chsnprintf:00000000 $t
     /tmp/ccodQwgR.s:802    .text.chsnprintf:00000000 chsnprintf
     /tmp/ccodQwgR.s:914    .rodata.str1.4:00000000 $d
                     .debug_frame:00000010 $d
     /tmp/ccodQwgR.s:745    .text.chvprintf:00000308 $t
     /tmp/ccodQwgR.s:420    .text.chvprintf:00000199 $d
     /tmp/ccodQwgR.s:420    .text.chvprintf:0000019a $t

UNDEFINED SYMBOLS
msObjectInit
