ARM GAS  /tmp/ccAsEkjn.s 			page 1


   1              		.syntax unified
   2              		.cpu cortex-m3
   3              		.fpu softvfp
   4              		.eabi_attribute 20, 1
   5              		.eabi_attribute 21, 1
   6              		.eabi_attribute 23, 3
   7              		.eabi_attribute 24, 1
   8              		.eabi_attribute 25, 1
   9              		.eabi_attribute 26, 1
  10              		.eabi_attribute 30, 2
  11              		.eabi_attribute 34, 1
  12              		.eabi_attribute 18, 4
  13              		.thumb
  14              		.file	"chqueues.c"
  15              		.text
  16              	.Ltext0:
  17              		.cfi_sections	.debug_frame
  18              		.section	.text.chIQObjectInit,"ax",%progbits
  19              		.align	2
  20              		.p2align 4,,15
  21              		.global	chIQObjectInit
  22              		.thumb
  23              		.thumb_func
  24              		.type	chIQObjectInit, %function
  25              	chIQObjectInit:
  26              	.LFB170:
  27              		.file 1 "/home/peter/ChibiOS_16.1.4/os/rt/src/chqueues.c"
  28              		.loc 1 88 0
  29              		.cfi_startproc
  30              		@ args = 4, pretend = 0, frame = 0
  31              		@ frame_needed = 0, uses_anonymous_args = 0
  32              		@ link register save eliminated.
  33              	.LVL0:
  34 0000 30B4     		push	{r4, r5}
  35              		.cfi_def_cfa_offset 8
  36              		.cfi_offset 4, -8
  37              		.cfi_offset 5, -4
  38              		.loc 1 88 0
  39 0002 029C     		ldr	r4, [sp, #8]
  40              		.loc 1 91 0
  41 0004 0025     		movs	r5, #0
  42              		.loc 1 95 0
  43 0006 0A44     		add	r2, r2, r1
  44              	.LVL1:
  45              		.loc 1 91 0
  46 0008 8560     		str	r5, [r0, #8]
  47              		.loc 1 97 0
  48 000a 0462     		str	r4, [r0, #32]
  49              		.loc 1 95 0
  50 000c 0261     		str	r2, [r0, #16]
  51              	.LBB108:
  52              	.LBB109:
  53              	.LBB110:
  54              		.file 2 "/home/peter/ChibiOS_16.1.4/os/rt/include/chschd.h"
  55              		.loc 2 604 0
  56 000e 0060     		str	r0, [r0]
  57              		.loc 2 605 0
ARM GAS  /tmp/ccAsEkjn.s 			page 2


  58 0010 4060     		str	r0, [r0, #4]
  59              	.LBE110:
  60              	.LBE109:
  61              	.LBE108:
  62              		.loc 1 92 0
  63 0012 C160     		str	r1, [r0, #12]
  64              		.loc 1 93 0
  65 0014 8161     		str	r1, [r0, #24]
  66              		.loc 1 94 0
  67 0016 4161     		str	r1, [r0, #20]
  68              		.loc 1 96 0
  69 0018 C361     		str	r3, [r0, #28]
  70              		.loc 1 98 0
  71 001a 30BC     		pop	{r4, r5}
  72              		.cfi_restore 5
  73              		.cfi_restore 4
  74              		.cfi_def_cfa_offset 0
  75              	.LVL2:
  76 001c 7047     		bx	lr
  77              		.cfi_endproc
  78              	.LFE170:
  79              		.size	chIQObjectInit, .-chIQObjectInit
  80 001e 00BF     		.section	.text.chIQResetI,"ax",%progbits
  81              		.align	2
  82              		.p2align 4,,15
  83              		.global	chIQResetI
  84              		.thumb
  85              		.thumb_func
  86              		.type	chIQResetI, %function
  87              	chIQResetI:
  88              	.LFB171:
  89              		.loc 1 111 0
  90              		.cfi_startproc
  91              		@ args = 0, pretend = 0, frame = 0
  92              		@ frame_needed = 0, uses_anonymous_args = 0
  93              		@ link register save eliminated.
  94              	.LVL3:
  95              		.loc 1 115 0
  96 0000 C268     		ldr	r2, [r0, #12]
  97              		.loc 1 117 0
  98 0002 0021     		movs	r1, #0
  99 0004 8160     		str	r1, [r0, #8]
 100              		.loc 1 115 0
 101 0006 8261     		str	r2, [r0, #24]
 102              		.loc 1 116 0
 103 0008 4261     		str	r2, [r0, #20]
 104              		.loc 1 118 0
 105 000a 6FF00101 		mvn	r1, #1
 106 000e FFF7FEBF 		b	chThdDequeueAllI
 107              	.LVL4:
 108              		.cfi_endproc
 109              	.LFE171:
 110              		.size	chIQResetI, .-chIQResetI
 111 0012 00BFAFF3 		.section	.text.chIQPutI,"ax",%progbits
 111      0080AFF3 
 111      0080AFF3 
 111      0080
ARM GAS  /tmp/ccAsEkjn.s 			page 3


 112              		.align	2
 113              		.p2align 4,,15
 114              		.global	chIQPutI
 115              		.thumb
 116              		.thumb_func
 117              		.type	chIQPutI, %function
 118              	chIQPutI:
 119              	.LFB172:
 120              		.loc 1 134 0
 121              		.cfi_startproc
 122              		@ args = 0, pretend = 0, frame = 0
 123              		@ frame_needed = 0, uses_anonymous_args = 0
 124              	.LVL5:
 125              	.LBB111:
 126              	.LBB112:
 127              		.file 3 "/home/peter/ChibiOS_16.1.4/os/rt/include/chqueues.h"
 128              		.loc 3 325 0
 129 0000 4369     		ldr	r3, [r0, #20]
 130 0002 8269     		ldr	r2, [r0, #24]
 131              	.LBE112:
 132              	.LBE111:
 133              		.loc 1 134 0
 134 0004 10B5     		push	{r4, lr}
 135              		.cfi_def_cfa_offset 8
 136              		.cfi_offset 4, -8
 137              		.cfi_offset 14, -4
 138              	.LBB115:
 139              	.LBB113:
 140              		.loc 3 325 0
 141 0006 9342     		cmp	r3, r2
 142 0008 10D0     		beq	.L13
 143              	.L5:
 144              	.LBE113:
 145              	.LBE115:
 146              		.loc 1 142 0
 147 000a 8268     		ldr	r2, [r0, #8]
 148              		.loc 1 143 0
 149 000c 5C1C     		adds	r4, r3, #1
 150              		.loc 1 142 0
 151 000e 0132     		adds	r2, r2, #1
 152 0010 8260     		str	r2, [r0, #8]
 153              		.loc 1 143 0
 154 0012 4461     		str	r4, [r0, #20]
 155 0014 1970     		strb	r1, [r3]
 156              		.loc 1 144 0
 157 0016 4269     		ldr	r2, [r0, #20]
 158 0018 0369     		ldr	r3, [r0, #16]
 159 001a 9A42     		cmp	r2, r3
 160 001c 01D3     		bcc	.L8
 161              		.loc 1 145 0
 162 001e C368     		ldr	r3, [r0, #12]
 163 0020 4361     		str	r3, [r0, #20]
 164              	.L8:
 165              		.loc 1 148 0
 166 0022 0021     		movs	r1, #0
 167              	.LVL6:
 168 0024 FFF7FEFF 		bl	chThdDequeueNextI
ARM GAS  /tmp/ccAsEkjn.s 			page 4


 169              	.LVL7:
 170              		.loc 1 150 0
 171 0028 0020     		movs	r0, #0
 172 002a 10BD     		pop	{r4, pc}
 173              	.LVL8:
 174              	.L13:
 175              	.LBB116:
 176              	.LBB114:
 177              		.loc 3 325 0
 178 002c 8268     		ldr	r2, [r0, #8]
 179 002e 002A     		cmp	r2, #0
 180 0030 EBD0     		beq	.L5
 181              	.LBE114:
 182              	.LBE116:
 183              		.loc 1 139 0
 184 0032 6FF00300 		mvn	r0, #3
 185              	.LVL9:
 186 0036 10BD     		pop	{r4, pc}
 187              		.cfi_endproc
 188              	.LFE172:
 189              		.size	chIQPutI, .-chIQPutI
 190 0038 AFF30080 		.section	.text.chIQGetTimeout,"ax",%progbits
 190      AFF30080 
 191              		.align	2
 192              		.p2align 4,,15
 193              		.global	chIQGetTimeout
 194              		.thumb
 195              		.thumb_func
 196              		.type	chIQGetTimeout, %function
 197              	chIQGetTimeout:
 198              	.LFB173:
 199              		.loc 1 173 0
 200              		.cfi_startproc
 201              		@ args = 0, pretend = 0, frame = 0
 202              		@ frame_needed = 0, uses_anonymous_args = 0
 203              	.LVL10:
 204 0000 70B5     		push	{r4, r5, r6, lr}
 205              		.cfi_def_cfa_offset 16
 206              		.cfi_offset 4, -16
 207              		.cfi_offset 5, -12
 208              		.cfi_offset 6, -8
 209              		.cfi_offset 14, -4
 210              	.LBB117:
 211              	.LBB118:
 212              	.LBB119:
 213              	.LBB120:
 214              		.file 4 "/home/peter/ChibiOS_16.1.4/os/ext/CMSIS/include/core_cmFunc.h"
 215              		.loc 4 548 0
 216 0002 2023     		movs	r3, #32
 217              	.LBE120:
 218              	.LBE119:
 219              	.LBE118:
 220              	.LBE117:
 221              		.loc 1 173 0
 222 0004 0E46     		mov	r6, r1
 223 0006 0446     		mov	r4, r0
 224              	.LBB124:
ARM GAS  /tmp/ccAsEkjn.s 			page 5


 225              	.LBB123:
 226              	.LBB122:
 227              	.LBB121:
 228              		.loc 4 548 0
 229              	@ 548 "/home/peter/ChibiOS_16.1.4/os/ext/CMSIS/include/core_cmFunc.h" 1
 230 0008 83F31188 		MSR basepri, r3
 231              	@ 0 "" 2
 232              		.thumb
 233              	.LBE121:
 234              	.LBE122:
 235              	.LBE123:
 236              	.LBE124:
 237              		.loc 1 177 0
 238 000c C369     		ldr	r3, [r0, #28]
 239 000e 3BB1     		cbz	r3, .L16
 240              		.loc 1 178 0
 241 0010 9847     		blx	r3
 242              	.LVL11:
 243 0012 05E0     		b	.L16
 244              	.LVL12:
 245              	.L18:
 246              	.LBB125:
 247              		.loc 1 182 0
 248 0014 2046     		mov	r0, r4
 249 0016 3146     		mov	r1, r6
 250 0018 FFF7FEFF 		bl	chThdEnqueueTimeoutS
 251              	.LVL13:
 252              		.loc 1 183 0
 253 001c 0028     		cmp	r0, #0
 254 001e 13DB     		blt	.L25
 255              	.LVL14:
 256              	.L16:
 257              	.LBE125:
 258              	.LBB131:
 259              	.LBB132:
 260              		.loc 3 307 0
 261 0020 A568     		ldr	r5, [r4, #8]
 262              	.LBE132:
 263              	.LBE131:
 264              		.loc 1 181 0
 265 0022 002D     		cmp	r5, #0
 266 0024 F6D0     		beq	.L18
 267              		.loc 1 190 0
 268 0026 A169     		ldr	r1, [r4, #24]
 269              		.loc 1 189 0
 270 0028 A368     		ldr	r3, [r4, #8]
 271              		.loc 1 191 0
 272 002a 2569     		ldr	r5, [r4, #16]
 273              		.loc 1 190 0
 274 002c 4A1C     		adds	r2, r1, #1
 275              		.loc 1 189 0
 276 002e 013B     		subs	r3, r3, #1
 277              		.loc 1 191 0
 278 0030 AA42     		cmp	r2, r5
 279              		.loc 1 189 0
 280 0032 A360     		str	r3, [r4, #8]
 281              		.loc 1 192 0
ARM GAS  /tmp/ccAsEkjn.s 			page 6


 282 0034 28BF     		it	cs
 283 0036 E368     		ldrcs	r3, [r4, #12]
 284              		.loc 1 190 0
 285 0038 A261     		str	r2, [r4, #24]
 286 003a 0878     		ldrb	r0, [r1]	@ zero_extendqisi2
 287              	.LVL15:
 288              		.loc 1 192 0
 289 003c 28BF     		it	cs
 290 003e A361     		strcs	r3, [r4, #24]
 291              	.LVL16:
 292              	.LBB133:
 293              	.LBB134:
 294              	.LBB135:
 295              	.LBB136:
 296              	.LBB137:
 297              		.loc 4 548 0
 298 0040 0023     		movs	r3, #0
 299              	@ 548 "/home/peter/ChibiOS_16.1.4/os/ext/CMSIS/include/core_cmFunc.h" 1
 300 0042 83F31188 		MSR basepri, r3
 301              	@ 0 "" 2
 302              		.thumb
 303              	.LBE137:
 304              	.LBE136:
 305              	.LBE135:
 306              	.LBE134:
 307              	.LBE133:
 308              		.loc 1 197 0
 309 0046 70BD     		pop	{r4, r5, r6, pc}
 310              	.LVL17:
 311              	.L25:
 312              	.LBB138:
 313              	.LBB126:
 314              	.LBB127:
 315              	.LBB128:
 316              	.LBB129:
 317              	.LBB130:
 318              		.loc 4 548 0
 319              	@ 548 "/home/peter/ChibiOS_16.1.4/os/ext/CMSIS/include/core_cmFunc.h" 1
 320 0048 85F31188 		MSR basepri, r5
 321              	@ 0 "" 2
 322              		.thumb
 323              	.LBE130:
 324              	.LBE129:
 325              	.LBE128:
 326              	.LBE127:
 327              	.LBE126:
 328              		.loc 1 185 0
 329 004c 70BD     		pop	{r4, r5, r6, pc}
 330              	.LBE138:
 331              		.cfi_endproc
 332              	.LFE173:
 333              		.size	chIQGetTimeout, .-chIQGetTimeout
 334 004e 00BF     		.section	.text.chIQReadTimeout,"ax",%progbits
 335              		.align	2
 336              		.p2align 4,,15
 337              		.global	chIQReadTimeout
 338              		.thumb
ARM GAS  /tmp/ccAsEkjn.s 			page 7


 339              		.thumb_func
 340              		.type	chIQReadTimeout, %function
 341              	chIQReadTimeout:
 342              	.LFB174:
 343              		.loc 1 224 0
 344              		.cfi_startproc
 345              		@ args = 0, pretend = 0, frame = 8
 346              		@ frame_needed = 0, uses_anonymous_args = 0
 347              	.LVL18:
 348 0000 2DE9F04F 		push	{r4, r5, r6, r7, r8, r9, r10, fp, lr}
 349              		.cfi_def_cfa_offset 36
 350              		.cfi_offset 4, -36
 351              		.cfi_offset 5, -32
 352              		.cfi_offset 6, -28
 353              		.cfi_offset 7, -24
 354              		.cfi_offset 8, -20
 355              		.cfi_offset 9, -16
 356              		.cfi_offset 10, -12
 357              		.cfi_offset 11, -8
 358              		.cfi_offset 14, -4
 359 0004 0446     		mov	r4, r0
 360 0006 83B0     		sub	sp, sp, #12
 361              		.cfi_def_cfa_offset 48
 362              		.loc 1 224 0
 363 0008 8946     		mov	r9, r1
 364 000a 9346     		mov	fp, r2
 365 000c 1D46     		mov	r5, r3
 366              		.loc 1 225 0
 367 000e D0F81C80 		ldr	r8, [r0, #28]
 368              	.LVL19:
 369              	.LBB139:
 370              	.LBB140:
 371              	.LBB141:
 372              	.LBB142:
 373              		.loc 4 548 0
 374 0012 2027     		movs	r7, #32
 375              	@ 548 "/home/peter/ChibiOS_16.1.4/os/ext/CMSIS/include/core_cmFunc.h" 1
 376 0014 87F31188 		MSR basepri, r7
 377              	@ 0 "" 2
 378              		.thumb
 379              	.LBE142:
 380              	.LBE141:
 381              	.LBE140:
 382              	.LBE139:
 383              		.loc 1 226 0
 384 0018 0026     		movs	r6, #0
 385              	.LBB143:
 386              	.LBB144:
 387              	.LBB145:
 388              	.LBB146:
 389              	.LBB147:
 390              		.loc 4 548 0
 391 001a B246     		mov	r10, r6
 392              	.LBE147:
 393              	.LBE146:
 394              	.LBE145:
 395              	.LBE144:
ARM GAS  /tmp/ccAsEkjn.s 			page 8


 396              	.LBE143:
 397              	.LBB152:
 398              	.LBB153:
 399              	.LBB154:
 400              	.LBB155:
 401 001c 0197     		str	r7, [sp, #4]
 402              	.LVL20:
 403              	.L32:
 404              	.LBE155:
 405              	.LBE154:
 406              	.LBE153:
 407              	.LBE152:
 408              		.loc 1 232 0
 409 001e B8F1000F 		cmp	r8, #0
 410 0022 07D0     		beq	.L28
 411              		.loc 1 233 0
 412 0024 2046     		mov	r0, r4
 413 0026 C047     		blx	r8
 414              	.LVL21:
 415 0028 04E0     		b	.L28
 416              	.LVL22:
 417              	.L30:
 418              		.loc 1 237 0
 419 002a 2046     		mov	r0, r4
 420 002c 2946     		mov	r1, r5
 421 002e FFF7FEFF 		bl	chThdEnqueueTimeoutS
 422              	.LVL23:
 423 0032 D0B9     		cbnz	r0, .L39
 424              	.LVL24:
 425              	.L28:
 426              	.LBB159:
 427              	.LBB160:
 428              		.loc 3 307 0
 429 0034 A768     		ldr	r7, [r4, #8]
 430              	.LBE160:
 431              	.LBE159:
 432              		.loc 1 236 0
 433 0036 002F     		cmp	r7, #0
 434 0038 F7D0     		beq	.L30
 435              		.loc 1 244 0
 436 003a A269     		ldr	r2, [r4, #24]
 437              		.loc 1 243 0
 438 003c A368     		ldr	r3, [r4, #8]
 439              		.loc 1 244 0
 440 003e 511C     		adds	r1, r2, #1
 441              		.loc 1 243 0
 442 0040 013B     		subs	r3, r3, #1
 443              		.loc 1 244 0
 444 0042 A161     		str	r1, [r4, #24]
 445              		.loc 1 243 0
 446 0044 A360     		str	r3, [r4, #8]
 447              		.loc 1 244 0
 448 0046 1378     		ldrb	r3, [r2]	@ zero_extendqisi2
 449 0048 09F8013B 		strb	r3, [r9], #1
 450              	.LVL25:
 451              		.loc 1 245 0
 452 004c 2369     		ldr	r3, [r4, #16]
ARM GAS  /tmp/ccAsEkjn.s 			page 9


 453 004e A269     		ldr	r2, [r4, #24]
 454 0050 9A42     		cmp	r2, r3
 455              		.loc 1 246 0
 456 0052 24BF     		itt	cs
 457 0054 E368     		ldrcs	r3, [r4, #12]
 458 0056 A361     		strcs	r3, [r4, #24]
 459              	.LVL26:
 460              	.LBB161:
 461              	.LBB151:
 462              	.LBB150:
 463              	.LBB149:
 464              	.LBB148:
 465              		.loc 4 548 0
 466              	@ 548 "/home/peter/ChibiOS_16.1.4/os/ext/CMSIS/include/core_cmFunc.h" 1
 467 0058 8AF31188 		MSR basepri, r10
 468              	@ 0 "" 2
 469              		.thumb
 470              	.LBE148:
 471              	.LBE149:
 472              	.LBE150:
 473              	.LBE151:
 474              	.LBE161:
 475              		.loc 1 250 0
 476 005c 0136     		adds	r6, r6, #1
 477              	.LVL27:
 478              		.loc 1 251 0
 479 005e B345     		cmp	fp, r6
 480 0060 05D0     		beq	.L29
 481              	.LVL28:
 482              	.LBB162:
 483              	.LBB158:
 484              	.LBB157:
 485              	.LBB156:
 486              		.loc 4 548 0
 487 0062 019B     		ldr	r3, [sp, #4]
 488              	@ 548 "/home/peter/ChibiOS_16.1.4/os/ext/CMSIS/include/core_cmFunc.h" 1
 489 0064 83F31188 		MSR basepri, r3
 490              	@ 0 "" 2
 491              		.thumb
 492 0068 D9E7     		b	.L32
 493              	.LVL29:
 494              	.L39:
 495              	.LBE156:
 496              	.LBE157:
 497              	.LBE158:
 498              	.LBE162:
 499              	.LBB163:
 500              	.LBB164:
 501              	.LBB165:
 502              	.LBB166:
 503              	.LBB167:
 504              	@ 548 "/home/peter/ChibiOS_16.1.4/os/ext/CMSIS/include/core_cmFunc.h" 1
 505 006a 87F31188 		MSR basepri, r7
 506              	@ 0 "" 2
 507              	.LVL30:
 508              		.thumb
 509              	.L29:
ARM GAS  /tmp/ccAsEkjn.s 			page 10


 510              	.LBE167:
 511              	.LBE166:
 512              	.LBE165:
 513              	.LBE164:
 514              	.LBE163:
 515              		.loc 1 257 0
 516 006e 3046     		mov	r0, r6
 517 0070 03B0     		add	sp, sp, #12
 518              		.cfi_def_cfa_offset 36
 519              		@ sp needed
 520 0072 BDE8F08F 		pop	{r4, r5, r6, r7, r8, r9, r10, fp, pc}
 521              		.cfi_endproc
 522              	.LFE174:
 523              		.size	chIQReadTimeout, .-chIQReadTimeout
 524 0076 00BFAFF3 		.section	.text.chOQObjectInit,"ax",%progbits
 524      0080AFF3 
 524      0080
 525              		.align	2
 526              		.p2align 4,,15
 527              		.global	chOQObjectInit
 528              		.thumb
 529              		.thumb_func
 530              		.type	chOQObjectInit, %function
 531              	chOQObjectInit:
 532              	.LFB175:
 533              		.loc 1 276 0
 534              		.cfi_startproc
 535              		@ args = 4, pretend = 0, frame = 0
 536              		@ frame_needed = 0, uses_anonymous_args = 0
 537              		@ link register save eliminated.
 538              	.LVL31:
 539 0000 30B4     		push	{r4, r5}
 540              		.cfi_def_cfa_offset 8
 541              		.cfi_offset 4, -8
 542              		.cfi_offset 5, -4
 543              		.loc 1 276 0
 544 0002 029C     		ldr	r4, [sp, #8]
 545              		.loc 1 283 0
 546 0004 8D18     		adds	r5, r1, r2
 547 0006 0561     		str	r5, [r0, #16]
 548              		.loc 1 285 0
 549 0008 0462     		str	r4, [r0, #32]
 550              	.LBB168:
 551              	.LBB169:
 552              	.LBB170:
 553              		.loc 2 604 0
 554 000a 0060     		str	r0, [r0]
 555              		.loc 2 605 0
 556 000c 4060     		str	r0, [r0, #4]
 557              	.LBE170:
 558              	.LBE169:
 559              	.LBE168:
 560              		.loc 1 279 0
 561 000e 8260     		str	r2, [r0, #8]
 562              		.loc 1 280 0
 563 0010 C160     		str	r1, [r0, #12]
 564              		.loc 1 281 0
ARM GAS  /tmp/ccAsEkjn.s 			page 11


 565 0012 8161     		str	r1, [r0, #24]
 566              		.loc 1 282 0
 567 0014 4161     		str	r1, [r0, #20]
 568              		.loc 1 284 0
 569 0016 C361     		str	r3, [r0, #28]
 570              		.loc 1 286 0
 571 0018 30BC     		pop	{r4, r5}
 572              		.cfi_restore 5
 573              		.cfi_restore 4
 574              		.cfi_def_cfa_offset 0
 575              	.LVL32:
 576 001a 7047     		bx	lr
 577              		.cfi_endproc
 578              	.LFE175:
 579              		.size	chOQObjectInit, .-chOQObjectInit
 580 001c AFF30080 		.section	.text.chOQResetI,"ax",%progbits
 581              		.align	2
 582              		.p2align 4,,15
 583              		.global	chOQResetI
 584              		.thumb
 585              		.thumb_func
 586              		.type	chOQResetI, %function
 587              	chOQResetI:
 588              	.LFB176:
 589              		.loc 1 299 0
 590              		.cfi_startproc
 591              		@ args = 0, pretend = 0, frame = 0
 592              		@ frame_needed = 0, uses_anonymous_args = 0
 593              		@ link register save eliminated.
 594              	.LVL33:
 595              		.loc 1 303 0
 596 0000 C168     		ldr	r1, [r0, #12]
 597              		.loc 1 305 0
 598 0002 0269     		ldr	r2, [r0, #16]
 599              		.loc 1 303 0
 600 0004 8161     		str	r1, [r0, #24]
 601              		.loc 1 305 0
 602 0006 521A     		subs	r2, r2, r1
 603              		.loc 1 304 0
 604 0008 4161     		str	r1, [r0, #20]
 605              		.loc 1 305 0
 606 000a 8260     		str	r2, [r0, #8]
 607              		.loc 1 306 0
 608 000c 6FF00101 		mvn	r1, #1
 609 0010 FFF7FEBF 		b	chThdDequeueAllI
 610              	.LVL34:
 611              		.cfi_endproc
 612              	.LFE176:
 613              		.size	chOQResetI, .-chOQResetI
 614 0014 AFF30080 		.section	.text.chOQPutTimeout,"ax",%progbits
 614      AFF30080 
 614      AFF30080 
 615              		.align	2
 616              		.p2align 4,,15
 617              		.global	chOQPutTimeout
 618              		.thumb
 619              		.thumb_func
ARM GAS  /tmp/ccAsEkjn.s 			page 12


 620              		.type	chOQPutTimeout, %function
 621              	chOQPutTimeout:
 622              	.LFB177:
 623              		.loc 1 331 0
 624              		.cfi_startproc
 625              		@ args = 0, pretend = 0, frame = 0
 626              		@ frame_needed = 0, uses_anonymous_args = 0
 627              	.LVL35:
 628 0000 F8B5     		push	{r3, r4, r5, r6, r7, lr}
 629              		.cfi_def_cfa_offset 24
 630              		.cfi_offset 3, -24
 631              		.cfi_offset 4, -20
 632              		.cfi_offset 5, -16
 633              		.cfi_offset 6, -12
 634              		.cfi_offset 7, -8
 635              		.cfi_offset 14, -4
 636              		.loc 1 331 0
 637 0002 0446     		mov	r4, r0
 638 0004 0F46     		mov	r7, r1
 639 0006 1646     		mov	r6, r2
 640              	.LBB171:
 641              	.LBB172:
 642              	.LBB173:
 643              	.LBB174:
 644              		.loc 4 548 0
 645 0008 2023     		movs	r3, #32
 646              	@ 548 "/home/peter/ChibiOS_16.1.4/os/ext/CMSIS/include/core_cmFunc.h" 1
 647 000a 83F31188 		MSR basepri, r3
 648              	@ 0 "" 2
 649              		.thumb
 650 000e 05E0     		b	.L44
 651              	.LVL36:
 652              	.L46:
 653              	.LBE174:
 654              	.LBE173:
 655              	.LBE172:
 656              	.LBE171:
 657              	.LBB175:
 658              		.loc 1 335 0
 659 0010 2046     		mov	r0, r4
 660 0012 3146     		mov	r1, r6
 661 0014 FFF7FEFF 		bl	chThdEnqueueTimeoutS
 662              	.LVL37:
 663              		.loc 1 336 0
 664 0018 0028     		cmp	r0, #0
 665 001a 17DB     		blt	.L54
 666              	.LVL38:
 667              	.L44:
 668              	.LBE175:
 669              	.LBB181:
 670              	.LBB182:
 671              		.loc 3 411 0
 672 001c A568     		ldr	r5, [r4, #8]
 673              	.LBE182:
 674              	.LBE181:
 675              		.loc 1 334 0
 676 001e 002D     		cmp	r5, #0
ARM GAS  /tmp/ccAsEkjn.s 			page 13


 677 0020 F6D0     		beq	.L46
 678              		.loc 1 343 0
 679 0022 6269     		ldr	r2, [r4, #20]
 680              		.loc 1 342 0
 681 0024 A368     		ldr	r3, [r4, #8]
 682              		.loc 1 343 0
 683 0026 511C     		adds	r1, r2, #1
 684              		.loc 1 342 0
 685 0028 013B     		subs	r3, r3, #1
 686              		.loc 1 343 0
 687 002a 6161     		str	r1, [r4, #20]
 688              		.loc 1 342 0
 689 002c A360     		str	r3, [r4, #8]
 690              		.loc 1 343 0
 691 002e 1770     		strb	r7, [r2]
 692              		.loc 1 344 0
 693 0030 2369     		ldr	r3, [r4, #16]
 694 0032 6269     		ldr	r2, [r4, #20]
 695 0034 9A42     		cmp	r2, r3
 696              		.loc 1 345 0
 697 0036 24BF     		itt	cs
 698 0038 E368     		ldrcs	r3, [r4, #12]
 699 003a 6361     		strcs	r3, [r4, #20]
 700              		.loc 1 348 0
 701 003c E369     		ldr	r3, [r4, #28]
 702 003e 0BB1     		cbz	r3, .L48
 703              		.loc 1 349 0
 704 0040 2046     		mov	r0, r4
 705 0042 9847     		blx	r3
 706              	.LVL39:
 707              	.L48:
 708              	.LBB183:
 709              	.LBB184:
 710              	.LBB185:
 711              	.LBB186:
 712              	.LBB187:
 713              		.loc 4 548 0
 714 0044 0020     		movs	r0, #0
 715              	@ 548 "/home/peter/ChibiOS_16.1.4/os/ext/CMSIS/include/core_cmFunc.h" 1
 716 0046 80F31188 		MSR basepri, r0
 717              	@ 0 "" 2
 718              		.thumb
 719              	.LBE187:
 720              	.LBE186:
 721              	.LBE185:
 722              	.LBE184:
 723              	.LBE183:
 724              		.loc 1 354 0
 725 004a F8BD     		pop	{r3, r4, r5, r6, r7, pc}
 726              	.LVL40:
 727              	.L54:
 728              	.LBB188:
 729              	.LBB176:
 730              	.LBB177:
 731              	.LBB178:
 732              	.LBB179:
 733              	.LBB180:
ARM GAS  /tmp/ccAsEkjn.s 			page 14


 734              		.loc 4 548 0
 735              	@ 548 "/home/peter/ChibiOS_16.1.4/os/ext/CMSIS/include/core_cmFunc.h" 1
 736 004c 85F31188 		MSR basepri, r5
 737              	@ 0 "" 2
 738              		.thumb
 739              	.LBE180:
 740              	.LBE179:
 741              	.LBE178:
 742              	.LBE177:
 743              	.LBE176:
 744              		.loc 1 338 0
 745 0050 F8BD     		pop	{r3, r4, r5, r6, r7, pc}
 746              	.LBE188:
 747              		.cfi_endproc
 748              	.LFE177:
 749              		.size	chOQPutTimeout, .-chOQPutTimeout
 750 0052 00BFAFF3 		.section	.text.chOQGetI,"ax",%progbits
 750      0080AFF3 
 750      0080AFF3 
 750      0080
 751              		.align	2
 752              		.p2align 4,,15
 753              		.global	chOQGetI
 754              		.thumb
 755              		.thumb_func
 756              		.type	chOQGetI, %function
 757              	chOQGetI:
 758              	.LFB178:
 759              		.loc 1 366 0
 760              		.cfi_startproc
 761              		@ args = 0, pretend = 0, frame = 0
 762              		@ frame_needed = 0, uses_anonymous_args = 0
 763              	.LVL41:
 764 0000 38B5     		push	{r3, r4, r5, lr}
 765              		.cfi_def_cfa_offset 16
 766              		.cfi_offset 3, -16
 767              		.cfi_offset 4, -12
 768              		.cfi_offset 5, -8
 769              		.cfi_offset 14, -4
 770              	.LBB189:
 771              	.LBB190:
 772              		.loc 3 393 0
 773 0002 4269     		ldr	r2, [r0, #20]
 774 0004 8369     		ldr	r3, [r0, #24]
 775 0006 9A42     		cmp	r2, r3
 776 0008 0FD0     		beq	.L63
 777              	.L56:
 778              	.LBE190:
 779              	.LBE189:
 780              		.loc 1 375 0
 781 000a 8268     		ldr	r2, [r0, #8]
 782              		.loc 1 377 0
 783 000c 0569     		ldr	r5, [r0, #16]
 784              		.loc 1 376 0
 785 000e 591C     		adds	r1, r3, #1
 786              		.loc 1 375 0
 787 0010 0132     		adds	r2, r2, #1
ARM GAS  /tmp/ccAsEkjn.s 			page 15


 788 0012 8260     		str	r2, [r0, #8]
 789              		.loc 1 376 0
 790 0014 8161     		str	r1, [r0, #24]
 791              		.loc 1 377 0
 792 0016 A942     		cmp	r1, r5
 793              		.loc 1 376 0
 794 0018 1C78     		ldrb	r4, [r3]	@ zero_extendqisi2
 795              	.LVL42:
 796              		.loc 1 377 0
 797 001a 01D3     		bcc	.L59
 798              		.loc 1 378 0
 799 001c C368     		ldr	r3, [r0, #12]
 800 001e 8361     		str	r3, [r0, #24]
 801              	.L59:
 802              		.loc 1 381 0
 803 0020 0021     		movs	r1, #0
 804 0022 FFF7FEFF 		bl	chThdDequeueNextI
 805              	.LVL43:
 806              		.loc 1 383 0
 807 0026 2046     		mov	r0, r4
 808 0028 38BD     		pop	{r3, r4, r5, pc}
 809              	.LVL44:
 810              	.L63:
 811              	.LBB192:
 812              	.LBB191:
 813              		.loc 3 393 0
 814 002a 8268     		ldr	r2, [r0, #8]
 815 002c 002A     		cmp	r2, #0
 816 002e ECD0     		beq	.L56
 817              	.LBE191:
 818              	.LBE192:
 819              		.loc 1 372 0
 820 0030 6FF00200 		mvn	r0, #2
 821              	.LVL45:
 822 0034 38BD     		pop	{r3, r4, r5, pc}
 823              		.cfi_endproc
 824              	.LFE178:
 825              		.size	chOQGetI, .-chOQGetI
 826 0036 00BFAFF3 		.section	.text.chOQWriteTimeout,"ax",%progbits
 826      0080AFF3 
 826      0080
 827              		.align	2
 828              		.p2align 4,,15
 829              		.global	chOQWriteTimeout
 830              		.thumb
 831              		.thumb_func
 832              		.type	chOQWriteTimeout, %function
 833              	chOQWriteTimeout:
 834              	.LFB179:
 835              		.loc 1 411 0
 836              		.cfi_startproc
 837              		@ args = 0, pretend = 0, frame = 8
 838              		@ frame_needed = 0, uses_anonymous_args = 0
 839              	.LVL46:
 840 0000 2DE9F04F 		push	{r4, r5, r6, r7, r8, r9, r10, fp, lr}
 841              		.cfi_def_cfa_offset 36
 842              		.cfi_offset 4, -36
ARM GAS  /tmp/ccAsEkjn.s 			page 16


 843              		.cfi_offset 5, -32
 844              		.cfi_offset 6, -28
 845              		.cfi_offset 7, -24
 846              		.cfi_offset 8, -20
 847              		.cfi_offset 9, -16
 848              		.cfi_offset 10, -12
 849              		.cfi_offset 11, -8
 850              		.cfi_offset 14, -4
 851 0004 83B0     		sub	sp, sp, #12
 852              		.cfi_def_cfa_offset 48
 853              		.loc 1 411 0
 854 0006 0446     		mov	r4, r0
 855 0008 8B46     		mov	fp, r1
 856 000a 1546     		mov	r5, r2
 857 000c 0193     		str	r3, [sp, #4]
 858              		.loc 1 412 0
 859 000e C769     		ldr	r7, [r0, #28]
 860              	.LVL47:
 861              	.LBB193:
 862              	.LBB194:
 863              	.LBB195:
 864              	.LBB196:
 865              		.loc 4 548 0
 866 0010 4FF02008 		mov	r8, #32
 867              	@ 548 "/home/peter/ChibiOS_16.1.4/os/ext/CMSIS/include/core_cmFunc.h" 1
 868 0014 88F31188 		MSR basepri, r8
 869              	@ 0 "" 2
 870              		.thumb
 871              	.LBE196:
 872              	.LBE195:
 873              	.LBE194:
 874              	.LBE193:
 875              		.loc 1 413 0
 876 0018 0026     		movs	r6, #0
 877              	.LBB197:
 878              	.LBB198:
 879              	.LBB199:
 880              	.LBB200:
 881              	.LBB201:
 882              		.loc 4 548 0
 883 001a B146     		mov	r9, r6
 884              	.LVL48:
 885              	.L65:
 886              	.LBE201:
 887              	.LBE200:
 888              	.LBE199:
 889              	.LBE198:
 890              	.LBE197:
 891              	.LBB206:
 892              	.LBB207:
 893              		.loc 3 411 0
 894 001c A368     		ldr	r3, [r4, #8]
 895              	.LBE207:
 896              	.LBE206:
 897              		.loc 1 427 0
 898 001e 0BF1010A 		add	r10, fp, #1
 899              	.LVL49:
ARM GAS  /tmp/ccAsEkjn.s 			page 17


 900              		.loc 1 419 0
 901 0022 FBB1     		cbz	r3, .L68
 902              	.L81:
 903              		.loc 1 427 0
 904 0024 6269     		ldr	r2, [r4, #20]
 905              		.loc 1 426 0
 906 0026 A368     		ldr	r3, [r4, #8]
 907              		.loc 1 427 0
 908 0028 501C     		adds	r0, r2, #1
 909              		.loc 1 426 0
 910 002a 013B     		subs	r3, r3, #1
 911              		.loc 1 427 0
 912 002c 6061     		str	r0, [r4, #20]
 913              		.loc 1 426 0
 914 002e A360     		str	r3, [r4, #8]
 915              		.loc 1 427 0
 916 0030 9BF80030 		ldrb	r3, [fp]	@ zero_extendqisi2
 917 0034 1370     		strb	r3, [r2]
 918              		.loc 1 428 0
 919 0036 2369     		ldr	r3, [r4, #16]
 920 0038 6269     		ldr	r2, [r4, #20]
 921 003a 9A42     		cmp	r2, r3
 922              		.loc 1 429 0
 923 003c 24BF     		itt	cs
 924 003e E368     		ldrcs	r3, [r4, #12]
 925 0040 6361     		strcs	r3, [r4, #20]
 926              		.loc 1 432 0
 927 0042 0FB1     		cbz	r7, .L70
 928              		.loc 1 433 0
 929 0044 2046     		mov	r0, r4
 930 0046 B847     		blx	r7
 931              	.LVL50:
 932              	.L70:
 933              	.LBB209:
 934              	.LBB205:
 935              	.LBB204:
 936              	.LBB203:
 937              	.LBB202:
 938              		.loc 4 548 0
 939              	@ 548 "/home/peter/ChibiOS_16.1.4/os/ext/CMSIS/include/core_cmFunc.h" 1
 940 0048 89F31188 		MSR basepri, r9
 941              	@ 0 "" 2
 942              	.LVL51:
 943              		.thumb
 944              	.LBE202:
 945              	.LBE203:
 946              	.LBE204:
 947              	.LBE205:
 948              	.LBE209:
 949              		.loc 1 438 0
 950 004c 013D     		subs	r5, r5, #1
 951              	.LVL52:
 952              		.loc 1 437 0
 953 004e 06F10106 		add	r6, r6, #1
 954              	.LVL53:
 955              		.loc 1 438 0
 956 0052 11D0     		beq	.L67
ARM GAS  /tmp/ccAsEkjn.s 			page 18


 957              	.LBB210:
 958              	.LBB211:
 959              	.LBB212:
 960              	.LBB213:
 961              		.loc 4 548 0
 962              	@ 548 "/home/peter/ChibiOS_16.1.4/os/ext/CMSIS/include/core_cmFunc.h" 1
 963 0054 88F31188 		MSR basepri, r8
 964              	@ 0 "" 2
 965              		.thumb
 966              	.LBE213:
 967              	.LBE212:
 968              	.LBE211:
 969              	.LBE210:
 970              		.loc 1 427 0
 971 0058 D346     		mov	fp, r10
 972              	.LVL54:
 973              	.LBB214:
 974              	.LBB208:
 975              		.loc 3 411 0
 976 005a A368     		ldr	r3, [r4, #8]
 977              	.LBE208:
 978              	.LBE214:
 979              		.loc 1 427 0
 980 005c 0BF1010A 		add	r10, fp, #1
 981              	.LVL55:
 982              		.loc 1 419 0
 983 0060 002B     		cmp	r3, #0
 984 0062 DFD1     		bne	.L81
 985              	.LVL56:
 986              	.L68:
 987              		.loc 1 420 0
 988 0064 2046     		mov	r0, r4
 989 0066 0199     		ldr	r1, [sp, #4]
 990 0068 0093     		str	r3, [sp]
 991 006a FFF7FEFF 		bl	chThdEnqueueTimeoutS
 992              	.LVL57:
 993 006e 009B     		ldr	r3, [sp]
 994 0070 0028     		cmp	r0, #0
 995 0072 D3D0     		beq	.L65
 996              	.LVL58:
 997              	.LBB215:
 998              	.LBB216:
 999              	.LBB217:
 1000              	.LBB218:
 1001              	.LBB219:
 1002              		.loc 4 548 0
 1003              	@ 548 "/home/peter/ChibiOS_16.1.4/os/ext/CMSIS/include/core_cmFunc.h" 1
 1004 0074 83F31188 		MSR basepri, r3
 1005              	@ 0 "" 2
 1006              	.LVL59:
 1007              		.thumb
 1008              	.L67:
 1009              	.LBE219:
 1010              	.LBE218:
 1011              	.LBE217:
 1012              	.LBE216:
 1013              	.LBE215:
ARM GAS  /tmp/ccAsEkjn.s 			page 19


 1014              		.loc 1 443 0
 1015 0078 3046     		mov	r0, r6
 1016 007a 03B0     		add	sp, sp, #12
 1017              		.cfi_def_cfa_offset 36
 1018              		@ sp needed
 1019 007c BDE8F08F 		pop	{r4, r5, r6, r7, r8, r9, r10, fp, pc}
 1020              		.cfi_endproc
 1021              	.LFE179:
 1022              		.size	chOQWriteTimeout, .-chOQWriteTimeout
 1023              		.text
 1024              	.Letext0:
 1025              		.file 5 "/usr/lib/gcc/arm-none-eabi/4.9.3/include/stddef.h"
 1026              		.file 6 "/usr/include/newlib/machine/_default_types.h"
 1027              		.file 7 "/usr/include/newlib/stdint.h"
 1028              		.file 8 "/home/peter/ChibiOS_16.1.4/os/rt/ports/ARMCMx/compilers/GCC/chtypes.h"
 1029              		.file 9 "/home/peter/ChibiOS_16.1.4/os/rt/include/chsystypes.h"
 1030              		.file 10 "/home/peter/ChibiOS_16.1.4/os/rt/ports/ARMCMx/chcore.h"
 1031              		.file 11 "/home/peter/ChibiOS_16.1.4/os/rt/ports/ARMCMx/chcore_v7m.h"
 1032              		.file 12 "/home/peter/ChibiOS_16.1.4/os/rt/include/chtm.h"
 1033              		.file 13 "/home/peter/ChibiOS_16.1.4/os/rt/include/chsem.h"
 1034              		.file 14 "/home/peter/ChibiOS_16.1.4/os/rt/include/chmtx.h"
 1035              		.file 15 "/home/peter/ChibiOS_16.1.4/os/rt/include/chthreads.h"
 1036              		.file 16 "/home/peter/ChibiOS_16.1.4/os/rt/include/chsys.h"
 1037              		.file 17 "/home/peter/ChibiOS_16.1.4/os/ext/CMSIS/include/core_cm3.h"
 1038              		.section	.debug_info,"",%progbits
 1039              	.Ldebug_info0:
 1040 0000 91110000 		.4byte	0x1191
 1041 0004 0400     		.2byte	0x4
 1042 0006 00000000 		.4byte	.Ldebug_abbrev0
 1043 000a 04       		.byte	0x4
 1044 000b 01       		.uleb128 0x1
 1045 000c 14050000 		.4byte	.LASF150
 1046 0010 01       		.byte	0x1
 1047 0011 24020000 		.4byte	.LASF151
 1048 0015 E0000000 		.4byte	.Ldebug_ranges0+0xe0
 1049 0019 00000000 		.4byte	0
 1050 001d 00000000 		.4byte	.Ldebug_line0
 1051 0021 02       		.uleb128 0x2
 1052 0022 04       		.byte	0x4
 1053 0023 05       		.byte	0x5
 1054 0024 696E7400 		.ascii	"int\000"
 1055 0028 03       		.uleb128 0x3
 1056 0029 21000000 		.4byte	.LASF2
 1057 002d 05       		.byte	0x5
 1058 002e D4       		.byte	0xd4
 1059 002f 33000000 		.4byte	0x33
 1060 0033 04       		.uleb128 0x4
 1061 0034 04       		.byte	0x4
 1062 0035 07       		.byte	0x7
 1063 0036 54020000 		.4byte	.LASF0
 1064 003a 04       		.uleb128 0x4
 1065 003b 01       		.byte	0x1
 1066 003c 06       		.byte	0x6
 1067 003d 2B010000 		.4byte	.LASF1
 1068 0041 03       		.uleb128 0x3
 1069 0042 49000000 		.4byte	.LASF3
 1070 0046 06       		.byte	0x6
ARM GAS  /tmp/ccAsEkjn.s 			page 20


 1071 0047 1D       		.byte	0x1d
 1072 0048 4C000000 		.4byte	0x4c
 1073 004c 04       		.uleb128 0x4
 1074 004d 01       		.byte	0x1
 1075 004e 08       		.byte	0x8
 1076 004f 15040000 		.4byte	.LASF4
 1077 0053 04       		.uleb128 0x4
 1078 0054 02       		.byte	0x2
 1079 0055 05       		.byte	0x5
 1080 0056 43040000 		.4byte	.LASF5
 1081 005a 04       		.uleb128 0x4
 1082 005b 02       		.byte	0x2
 1083 005c 07       		.byte	0x7
 1084 005d 94020000 		.4byte	.LASF6
 1085 0061 03       		.uleb128 0x3
 1086 0062 E5020000 		.4byte	.LASF7
 1087 0066 06       		.byte	0x6
 1088 0067 3F       		.byte	0x3f
 1089 0068 6C000000 		.4byte	0x6c
 1090 006c 04       		.uleb128 0x4
 1091 006d 04       		.byte	0x4
 1092 006e 05       		.byte	0x5
 1093 006f 83010000 		.4byte	.LASF8
 1094 0073 03       		.uleb128 0x3
 1095 0074 03060000 		.4byte	.LASF9
 1096 0078 06       		.byte	0x6
 1097 0079 41       		.byte	0x41
 1098 007a 7E000000 		.4byte	0x7e
 1099 007e 04       		.uleb128 0x4
 1100 007f 04       		.byte	0x4
 1101 0080 07       		.byte	0x7
 1102 0081 02050000 		.4byte	.LASF10
 1103 0085 04       		.uleb128 0x4
 1104 0086 08       		.byte	0x8
 1105 0087 05       		.byte	0x5
 1106 0088 1D010000 		.4byte	.LASF11
 1107 008c 03       		.uleb128 0x3
 1108 008d A7030000 		.4byte	.LASF12
 1109 0091 06       		.byte	0x6
 1110 0092 5B       		.byte	0x5b
 1111 0093 97000000 		.4byte	0x97
 1112 0097 04       		.uleb128 0x4
 1113 0098 08       		.byte	0x8
 1114 0099 07       		.byte	0x7
 1115 009a A2000000 		.4byte	.LASF13
 1116 009e 03       		.uleb128 0x3
 1117 009f 90060000 		.4byte	.LASF14
 1118 00a3 07       		.byte	0x7
 1119 00a4 15       		.byte	0x15
 1120 00a5 41000000 		.4byte	0x41
 1121 00a9 03       		.uleb128 0x3
 1122 00aa 0D040000 		.4byte	.LASF15
 1123 00ae 07       		.byte	0x7
 1124 00af 2C       		.byte	0x2c
 1125 00b0 61000000 		.4byte	0x61
 1126 00b4 03       		.uleb128 0x3
 1127 00b5 D1040000 		.4byte	.LASF16
ARM GAS  /tmp/ccAsEkjn.s 			page 21


 1128 00b9 07       		.byte	0x7
 1129 00ba 2D       		.byte	0x2d
 1130 00bb 73000000 		.4byte	0x73
 1131 00bf 03       		.uleb128 0x3
 1132 00c0 2F000000 		.4byte	.LASF17
 1133 00c4 07       		.byte	0x7
 1134 00c5 39       		.byte	0x39
 1135 00c6 8C000000 		.4byte	0x8c
 1136 00ca 03       		.uleb128 0x3
 1137 00cb 40060000 		.4byte	.LASF18
 1138 00cf 08       		.byte	0x8
 1139 00d0 39       		.byte	0x39
 1140 00d1 B4000000 		.4byte	0xb4
 1141 00d5 03       		.uleb128 0x3
 1142 00d6 C3020000 		.4byte	.LASF19
 1143 00da 08       		.byte	0x8
 1144 00db 3C       		.byte	0x3c
 1145 00dc 9E000000 		.4byte	0x9e
 1146 00e0 03       		.uleb128 0x3
 1147 00e1 8C010000 		.4byte	.LASF20
 1148 00e5 08       		.byte	0x8
 1149 00e6 3D       		.byte	0x3d
 1150 00e7 9E000000 		.4byte	0x9e
 1151 00eb 03       		.uleb128 0x3
 1152 00ec B2030000 		.4byte	.LASF21
 1153 00f0 08       		.byte	0x8
 1154 00f1 3E       		.byte	0x3e
 1155 00f2 9E000000 		.4byte	0x9e
 1156 00f6 03       		.uleb128 0x3
 1157 00f7 5A010000 		.4byte	.LASF22
 1158 00fb 08       		.byte	0x8
 1159 00fc 3F       		.byte	0x3f
 1160 00fd 9E000000 		.4byte	0x9e
 1161 0101 03       		.uleb128 0x3
 1162 0102 E7030000 		.4byte	.LASF23
 1163 0106 08       		.byte	0x8
 1164 0107 40       		.byte	0x40
 1165 0108 B4000000 		.4byte	0xb4
 1166 010c 03       		.uleb128 0x3
 1167 010d B1020000 		.4byte	.LASF24
 1168 0111 08       		.byte	0x8
 1169 0112 41       		.byte	0x41
 1170 0113 A9000000 		.4byte	0xa9
 1171 0117 03       		.uleb128 0x3
 1172 0118 D9020000 		.4byte	.LASF25
 1173 011c 08       		.byte	0x8
 1174 011d 43       		.byte	0x43
 1175 011e B4000000 		.4byte	0xb4
 1176 0122 03       		.uleb128 0x3
 1177 0123 1E020000 		.4byte	.LASF26
 1178 0127 08       		.byte	0x8
 1179 0128 45       		.byte	0x45
 1180 0129 A9000000 		.4byte	0xa9
 1181 012d 03       		.uleb128 0x3
 1182 012e E5050000 		.4byte	.LASF27
 1183 0132 09       		.byte	0x9
 1184 0133 33       		.byte	0x33
ARM GAS  /tmp/ccAsEkjn.s 			page 22


 1185 0134 B4000000 		.4byte	0xb4
 1186 0138 03       		.uleb128 0x3
 1187 0139 D5050000 		.4byte	.LASF28
 1188 013d 09       		.byte	0x9
 1189 013e 3F       		.byte	0x3f
 1190 013f 43010000 		.4byte	0x143
 1191 0143 05       		.uleb128 0x5
 1192 0144 A7020000 		.4byte	.LASF49
 1193 0148 44       		.byte	0x44
 1194 0149 02       		.byte	0x2
 1195 014a C2       		.byte	0xc2
 1196 014b 3C020000 		.4byte	0x23c
 1197 014f 06       		.uleb128 0x6
 1198 0150 65040000 		.4byte	.LASF29
 1199 0154 02       		.byte	0x2
 1200 0155 C3       		.byte	0xc3
 1201 0156 47020000 		.4byte	0x247
 1202 015a 00       		.byte	0
 1203 015b 06       		.uleb128 0x6
 1204 015c D4030000 		.4byte	.LASF30
 1205 0160 02       		.byte	0x2
 1206 0161 C5       		.byte	0xc5
 1207 0162 47020000 		.4byte	0x247
 1208 0166 04       		.byte	0x4
 1209 0167 06       		.uleb128 0x6
 1210 0168 0C010000 		.4byte	.LASF31
 1211 016c 02       		.byte	0x2
 1212 016d C7       		.byte	0xc7
 1213 016e 01010000 		.4byte	0x101
 1214 0172 08       		.byte	0x8
 1215 0173 06       		.uleb128 0x6
 1216 0174 E4060000 		.4byte	.LASF32
 1217 0178 02       		.byte	0x2
 1218 0179 C8       		.byte	0xc8
 1219 017a 77040000 		.4byte	0x477
 1220 017e 0C       		.byte	0xc
 1221 017f 06       		.uleb128 0x6
 1222 0180 C1010000 		.4byte	.LASF33
 1223 0184 02       		.byte	0x2
 1224 0185 CA       		.byte	0xca
 1225 0186 47020000 		.4byte	0x247
 1226 018a 10       		.byte	0x10
 1227 018b 06       		.uleb128 0x6
 1228 018c 76030000 		.4byte	.LASF34
 1229 0190 02       		.byte	0x2
 1230 0191 CB       		.byte	0xcb
 1231 0192 47020000 		.4byte	0x247
 1232 0196 14       		.byte	0x14
 1233 0197 06       		.uleb128 0x6
 1234 0198 9F060000 		.4byte	.LASF35
 1235 019c 02       		.byte	0x2
 1236 019d D2       		.byte	0xd2
 1237 019e F6050000 		.4byte	0x5f6
 1238 01a2 18       		.byte	0x18
 1239 01a3 06       		.uleb128 0x6
 1240 01a4 31040000 		.4byte	.LASF36
 1241 01a8 02       		.byte	0x2
ARM GAS  /tmp/ccAsEkjn.s 			page 23


 1242 01a9 DD       		.byte	0xdd
 1243 01aa E0000000 		.4byte	0xe0
 1244 01ae 1C       		.byte	0x1c
 1245 01af 06       		.uleb128 0x6
 1246 01b0 71040000 		.4byte	.LASF37
 1247 01b4 02       		.byte	0x2
 1248 01b5 E1       		.byte	0xe1
 1249 01b6 D5000000 		.4byte	0xd5
 1250 01ba 1D       		.byte	0x1d
 1251 01bb 06       		.uleb128 0x6
 1252 01bc 6D060000 		.4byte	.LASF38
 1253 01c0 02       		.byte	0x2
 1254 01c1 E6       		.byte	0xe6
 1255 01c2 EB000000 		.4byte	0xeb
 1256 01c6 1E       		.byte	0x1e
 1257 01c7 06       		.uleb128 0x6
 1258 01c8 4D040000 		.4byte	.LASF39
 1259 01cc 02       		.byte	0x2
 1260 01cd EC       		.byte	0xec
 1261 01ce F6000000 		.4byte	0xf6
 1262 01d2 1F       		.byte	0x1f
 1263 01d3 07       		.uleb128 0x7
 1264 01d4 705F7500 		.ascii	"p_u\000"
 1265 01d8 02       		.byte	0x2
 1266 01d9 3101     		.2byte	0x131
 1267 01db 31050000 		.4byte	0x531
 1268 01df 20       		.byte	0x20
 1269 01e0 08       		.uleb128 0x8
 1270 01e1 2F030000 		.4byte	.LASF40
 1271 01e5 02       		.byte	0x2
 1272 01e6 3601     		.2byte	0x136
 1273 01e8 4D020000 		.4byte	0x24d
 1274 01ec 24       		.byte	0x24
 1275 01ed 08       		.uleb128 0x8
 1276 01ee 7B020000 		.4byte	.LASF41
 1277 01f2 02       		.byte	0x2
 1278 01f3 3C01     		.2byte	0x13c
 1279 01f5 71020000 		.4byte	0x271
 1280 01f9 28       		.byte	0x28
 1281 01fa 08       		.uleb128 0x8
 1282 01fb CF060000 		.4byte	.LASF42
 1283 01ff 02       		.byte	0x2
 1284 0200 4001     		.2byte	0x140
 1285 0202 0C010000 		.4byte	0x10c
 1286 0206 30       		.byte	0x30
 1287 0207 08       		.uleb128 0x8
 1288 0208 BA040000 		.4byte	.LASF43
 1289 020c 02       		.byte	0x2
 1290 020d 4601     		.2byte	0x146
 1291 020f 17010000 		.4byte	0x117
 1292 0213 34       		.byte	0x34
 1293 0214 08       		.uleb128 0x8
 1294 0215 39040000 		.4byte	.LASF44
 1295 0219 02       		.byte	0x2
 1296 021a 4D01     		.2byte	0x14d
 1297 021c F0050000 		.4byte	0x5f0
 1298 0220 38       		.byte	0x38
ARM GAS  /tmp/ccAsEkjn.s 			page 24


 1299 0221 08       		.uleb128 0x8
 1300 0222 EF050000 		.4byte	.LASF45
 1301 0226 02       		.byte	0x2
 1302 0227 5101     		.2byte	0x151
 1303 0229 01010000 		.4byte	0x101
 1304 022d 3C       		.byte	0x3c
 1305 022e 08       		.uleb128 0x8
 1306 022f 37010000 		.4byte	.LASF46
 1307 0233 02       		.byte	0x2
 1308 0234 5801     		.2byte	0x158
 1309 0236 24030000 		.4byte	0x324
 1310 023a 40       		.byte	0x40
 1311 023b 00       		.byte	0
 1312 023c 03       		.uleb128 0x3
 1313 023d 42030000 		.4byte	.LASF47
 1314 0241 09       		.byte	0x9
 1315 0242 44       		.byte	0x44
 1316 0243 47020000 		.4byte	0x247
 1317 0247 09       		.uleb128 0x9
 1318 0248 04       		.byte	0x4
 1319 0249 38010000 		.4byte	0x138
 1320 024d 03       		.uleb128 0x3
 1321 024e 0B030000 		.4byte	.LASF48
 1322 0252 09       		.byte	0x9
 1323 0253 49       		.byte	0x49
 1324 0254 58020000 		.4byte	0x258
 1325 0258 05       		.uleb128 0x5
 1326 0259 F2040000 		.4byte	.LASF50
 1327 025d 04       		.byte	0x4
 1328 025e 02       		.byte	0x2
 1329 025f B0       		.byte	0xb0
 1330 0260 71020000 		.4byte	0x271
 1331 0264 06       		.uleb128 0x6
 1332 0265 65040000 		.4byte	.LASF29
 1333 0269 02       		.byte	0x2
 1334 026a B1       		.byte	0xb1
 1335 026b 47020000 		.4byte	0x247
 1336 026f 00       		.byte	0
 1337 0270 00       		.byte	0
 1338 0271 03       		.uleb128 0x3
 1339 0272 8C040000 		.4byte	.LASF51
 1340 0276 09       		.byte	0x9
 1341 0277 50       		.byte	0x50
 1342 0278 7C020000 		.4byte	0x27c
 1343 027c 05       		.uleb128 0x5
 1344 027d FB000000 		.4byte	.LASF52
 1345 0281 08       		.byte	0x8
 1346 0282 02       		.byte	0x2
 1347 0283 B7       		.byte	0xb7
 1348 0284 A1020000 		.4byte	0x2a1
 1349 0288 06       		.uleb128 0x6
 1350 0289 65040000 		.4byte	.LASF29
 1351 028d 02       		.byte	0x2
 1352 028e B8       		.byte	0xb8
 1353 028f 47020000 		.4byte	0x247
 1354 0293 00       		.byte	0
 1355 0294 06       		.uleb128 0x6
ARM GAS  /tmp/ccAsEkjn.s 			page 25


 1356 0295 D4030000 		.4byte	.LASF30
 1357 0299 02       		.byte	0x2
 1358 029a B9       		.byte	0xb9
 1359 029b 47020000 		.4byte	0x247
 1360 029f 04       		.byte	0x4
 1361 02a0 00       		.byte	0
 1362 02a1 03       		.uleb128 0x3
 1363 02a2 0F000000 		.4byte	.LASF53
 1364 02a6 09       		.byte	0x9
 1365 02a7 57       		.byte	0x57
 1366 02a8 AC020000 		.4byte	0x2ac
 1367 02ac 0A       		.uleb128 0xa
 1368 02ad CB020000 		.4byte	.LASF54
 1369 02b1 1C       		.byte	0x1c
 1370 02b2 02       		.byte	0x2
 1371 02b3 9001     		.2byte	0x190
 1372 02b5 08030000 		.4byte	0x308
 1373 02b9 08       		.uleb128 0x8
 1374 02ba E1040000 		.4byte	.LASF55
 1375 02be 02       		.byte	0x2
 1376 02bf 9101     		.2byte	0x191
 1377 02c1 71020000 		.4byte	0x271
 1378 02c5 00       		.byte	0
 1379 02c6 08       		.uleb128 0x8
 1380 02c7 57040000 		.4byte	.LASF56
 1381 02cb 02       		.byte	0x2
 1382 02cc 9201     		.2byte	0x192
 1383 02ce 01010000 		.4byte	0x101
 1384 02d2 08       		.byte	0x8
 1385 02d3 08       		.uleb128 0x8
 1386 02d4 7E030000 		.4byte	.LASF57
 1387 02d8 02       		.byte	0x2
 1388 02d9 9401     		.2byte	0x194
 1389 02db 77040000 		.4byte	0x477
 1390 02df 0C       		.byte	0xc
 1391 02e0 08       		.uleb128 0x8
 1392 02e1 D1010000 		.4byte	.LASF58
 1393 02e5 02       		.byte	0x2
 1394 02e6 9701     		.2byte	0x197
 1395 02e8 47020000 		.4byte	0x247
 1396 02ec 10       		.byte	0x10
 1397 02ed 08       		.uleb128 0x8
 1398 02ee 9F030000 		.4byte	.LASF59
 1399 02f2 02       		.byte	0x2
 1400 02f3 9801     		.2byte	0x198
 1401 02f5 47020000 		.4byte	0x247
 1402 02f9 14       		.byte	0x14
 1403 02fa 08       		.uleb128 0x8
 1404 02fb 95030000 		.4byte	.LASF60
 1405 02ff 02       		.byte	0x2
 1406 0300 9B01     		.2byte	0x19b
 1407 0302 47020000 		.4byte	0x247
 1408 0306 18       		.byte	0x18
 1409 0307 00       		.byte	0
 1410 0308 03       		.uleb128 0x3
 1411 0309 FA050000 		.4byte	.LASF61
 1412 030d 09       		.byte	0x9
ARM GAS  /tmp/ccAsEkjn.s 			page 26


 1413 030e 5C       		.byte	0x5c
 1414 030f 13030000 		.4byte	0x313
 1415 0313 09       		.uleb128 0x9
 1416 0314 04       		.byte	0x4
 1417 0315 19030000 		.4byte	0x319
 1418 0319 0B       		.uleb128 0xb
 1419 031a 24030000 		.4byte	0x324
 1420 031e 0C       		.uleb128 0xc
 1421 031f 24030000 		.4byte	0x324
 1422 0323 00       		.byte	0
 1423 0324 0D       		.uleb128 0xd
 1424 0325 04       		.byte	0x4
 1425 0326 03       		.uleb128 0x3
 1426 0327 C4030000 		.4byte	.LASF62
 1427 032b 09       		.byte	0x9
 1428 032c 61       		.byte	0x61
 1429 032d 31030000 		.4byte	0x331
 1430 0331 0A       		.uleb128 0xa
 1431 0332 9C040000 		.4byte	.LASF63
 1432 0336 14       		.byte	0x14
 1433 0337 02       		.byte	0x2
 1434 0338 6B01     		.2byte	0x16b
 1435 033a 80030000 		.4byte	0x380
 1436 033e 08       		.uleb128 0x8
 1437 033f 61020000 		.4byte	.LASF64
 1438 0343 02       		.byte	0x2
 1439 0344 6C01     		.2byte	0x16c
 1440 0346 08060000 		.4byte	0x608
 1441 034a 00       		.byte	0
 1442 034b 08       		.uleb128 0x8
 1443 034c E2010000 		.4byte	.LASF65
 1444 0350 02       		.byte	0x2
 1445 0351 6D01     		.2byte	0x16d
 1446 0353 08060000 		.4byte	0x608
 1447 0357 04       		.byte	0x4
 1448 0358 08       		.uleb128 0x8
 1449 0359 E9040000 		.4byte	.LASF66
 1450 035d 02       		.byte	0x2
 1451 035e 6E01     		.2byte	0x16e
 1452 0360 2D010000 		.4byte	0x12d
 1453 0364 08       		.byte	0x8
 1454 0365 08       		.uleb128 0x8
 1455 0366 EA060000 		.4byte	.LASF67
 1456 036a 02       		.byte	0x2
 1457 036b 6F01     		.2byte	0x16f
 1458 036d 08030000 		.4byte	0x308
 1459 0371 0C       		.byte	0xc
 1460 0372 08       		.uleb128 0x8
 1461 0373 48060000 		.4byte	.LASF68
 1462 0377 02       		.byte	0x2
 1463 0378 7101     		.2byte	0x171
 1464 037a 24030000 		.4byte	0x324
 1465 037e 10       		.byte	0x10
 1466 037f 00       		.byte	0
 1467 0380 03       		.uleb128 0x3
 1468 0381 CD000000 		.4byte	.LASF69
 1469 0385 09       		.byte	0x9
ARM GAS  /tmp/ccAsEkjn.s 			page 27


 1470 0386 66       		.byte	0x66
 1471 0387 8B030000 		.4byte	0x38b
 1472 038b 0A       		.uleb128 0xa
 1473 038c 55030000 		.4byte	.LASF70
 1474 0390 10       		.byte	0x10
 1475 0391 02       		.byte	0x2
 1476 0392 7B01     		.2byte	0x17b
 1477 0394 CD030000 		.4byte	0x3cd
 1478 0398 08       		.uleb128 0x8
 1479 0399 61020000 		.4byte	.LASF64
 1480 039d 02       		.byte	0x2
 1481 039e 7C01     		.2byte	0x17c
 1482 03a0 08060000 		.4byte	0x608
 1483 03a4 00       		.byte	0
 1484 03a5 08       		.uleb128 0x8
 1485 03a6 E2010000 		.4byte	.LASF65
 1486 03aa 02       		.byte	0x2
 1487 03ab 7E01     		.2byte	0x17e
 1488 03ad 08060000 		.4byte	0x608
 1489 03b1 04       		.byte	0x4
 1490 03b2 08       		.uleb128 0x8
 1491 03b3 E9040000 		.4byte	.LASF66
 1492 03b7 02       		.byte	0x2
 1493 03b8 8001     		.2byte	0x180
 1494 03ba 2D010000 		.4byte	0x12d
 1495 03be 08       		.byte	0x8
 1496 03bf 08       		.uleb128 0x8
 1497 03c0 B8060000 		.4byte	.LASF71
 1498 03c4 02       		.byte	0x2
 1499 03c5 8201     		.2byte	0x182
 1500 03c7 0E060000 		.4byte	0x60e
 1501 03cb 0C       		.byte	0xc
 1502 03cc 00       		.byte	0
 1503 03cd 03       		.uleb128 0x3
 1504 03ce 5F000000 		.4byte	.LASF72
 1505 03d2 09       		.byte	0x9
 1506 03d3 6B       		.byte	0x6b
 1507 03d4 D8030000 		.4byte	0x3d8
 1508 03d8 0A       		.uleb128 0xa
 1509 03d9 F7030000 		.4byte	.LASF73
 1510 03dd 04       		.byte	0x4
 1511 03de 02       		.byte	0x2
 1512 03df A201     		.2byte	0x1a2
 1513 03e1 F3030000 		.4byte	0x3f3
 1514 03e5 08       		.uleb128 0x8
 1515 03e6 1C060000 		.4byte	.LASF74
 1516 03ea 02       		.byte	0x2
 1517 03eb AA01     		.2byte	0x1aa
 1518 03ed 13060000 		.4byte	0x613
 1519 03f1 00       		.byte	0
 1520 03f2 00       		.byte	0
 1521 03f3 03       		.uleb128 0x3
 1522 03f4 B7020000 		.4byte	.LASF75
 1523 03f8 09       		.byte	0x9
 1524 03f9 70       		.byte	0x70
 1525 03fa FE030000 		.4byte	0x3fe
 1526 03fe 0E       		.uleb128 0xe
ARM GAS  /tmp/ccAsEkjn.s 			page 28


 1527 03ff 79010000 		.4byte	.LASF76
 1528 0403 5001     		.2byte	0x150
 1529 0405 02       		.byte	0x2
 1530 0406 C201     		.2byte	0x1c2
 1531 0408 5A040000 		.4byte	0x45a
 1532 040c 08       		.uleb128 0x8
 1533 040d 8A060000 		.4byte	.LASF77
 1534 0411 02       		.byte	0x2
 1535 0412 C601     		.2byte	0x1c6
 1536 0414 A1020000 		.4byte	0x2a1
 1537 0418 00       		.byte	0
 1538 0419 08       		.uleb128 0x8
 1539 041a 47010000 		.4byte	.LASF78
 1540 041e 02       		.byte	0x2
 1541 041f CA01     		.2byte	0x1ca
 1542 0421 80030000 		.4byte	0x380
 1543 0425 1C       		.byte	0x1c
 1544 0426 07       		.uleb128 0x7
 1545 0427 64626700 		.ascii	"dbg\000"
 1546 042b 02       		.byte	0x2
 1547 042c CE01     		.2byte	0x1ce
 1548 042e CD030000 		.4byte	0x3cd
 1549 0432 2C       		.byte	0x2c
 1550 0433 08       		.uleb128 0x8
 1551 0434 C2000000 		.4byte	.LASF79
 1552 0438 02       		.byte	0x2
 1553 0439 D201     		.2byte	0x1d2
 1554 043b 38010000 		.4byte	0x138
 1555 043f 30       		.byte	0x30
 1556 0440 07       		.uleb128 0x7
 1557 0441 746D00   		.ascii	"tm\000"
 1558 0444 02       		.byte	0x2
 1559 0445 D701     		.2byte	0x1d7
 1560 0447 26050000 		.4byte	0x526
 1561 044b 74       		.byte	0x74
 1562 044c 08       		.uleb128 0x8
 1563 044d 0F020000 		.4byte	.LASF80
 1564 0451 02       		.byte	0x2
 1565 0452 E301     		.2byte	0x1e3
 1566 0454 18060000 		.4byte	0x618
 1567 0458 78       		.byte	0x78
 1568 0459 00       		.byte	0
 1569 045a 04       		.uleb128 0x4
 1570 045b 04       		.byte	0x4
 1571 045c 07       		.byte	0x7
 1572 045d 39030000 		.4byte	.LASF81
 1573 0461 03       		.uleb128 0x3
 1574 0462 D9010000 		.4byte	.LASF82
 1575 0466 0A       		.byte	0xa
 1576 0467 65       		.byte	0x65
 1577 0468 24030000 		.4byte	0x324
 1578 046c 03       		.uleb128 0x3
 1579 046d EF020000 		.4byte	.LASF83
 1580 0471 0A       		.byte	0xa
 1581 0472 6D       		.byte	0x6d
 1582 0473 BF000000 		.4byte	0xbf
 1583 0477 05       		.uleb128 0x5
ARM GAS  /tmp/ccAsEkjn.s 			page 29


 1584 0478 38060000 		.4byte	.LASF84
 1585 047c 04       		.byte	0x4
 1586 047d 0A       		.byte	0xa
 1587 047e 89       		.byte	0x89
 1588 047f 90040000 		.4byte	0x490
 1589 0483 0F       		.uleb128 0xf
 1590 0484 72313300 		.ascii	"r13\000"
 1591 0488 0A       		.byte	0xa
 1592 0489 8A       		.byte	0x8a
 1593 048a 0B050000 		.4byte	0x50b
 1594 048e 00       		.byte	0
 1595 048f 00       		.byte	0
 1596 0490 05       		.uleb128 0x5
 1597 0491 53000000 		.4byte	.LASF85
 1598 0495 24       		.byte	0x24
 1599 0496 0B       		.byte	0xb
 1600 0497 FD       		.byte	0xfd
 1601 0498 0B050000 		.4byte	0x50b
 1602 049c 07       		.uleb128 0x7
 1603 049d 723400   		.ascii	"r4\000"
 1604 04a0 0B       		.byte	0xb
 1605 04a1 1001     		.2byte	0x110
 1606 04a3 61040000 		.4byte	0x461
 1607 04a7 00       		.byte	0
 1608 04a8 07       		.uleb128 0x7
 1609 04a9 723500   		.ascii	"r5\000"
 1610 04ac 0B       		.byte	0xb
 1611 04ad 1101     		.2byte	0x111
 1612 04af 61040000 		.4byte	0x461
 1613 04b3 04       		.byte	0x4
 1614 04b4 07       		.uleb128 0x7
 1615 04b5 723600   		.ascii	"r6\000"
 1616 04b8 0B       		.byte	0xb
 1617 04b9 1201     		.2byte	0x112
 1618 04bb 61040000 		.4byte	0x461
 1619 04bf 08       		.byte	0x8
 1620 04c0 07       		.uleb128 0x7
 1621 04c1 723700   		.ascii	"r7\000"
 1622 04c4 0B       		.byte	0xb
 1623 04c5 1301     		.2byte	0x113
 1624 04c7 61040000 		.4byte	0x461
 1625 04cb 0C       		.byte	0xc
 1626 04cc 07       		.uleb128 0x7
 1627 04cd 723800   		.ascii	"r8\000"
 1628 04d0 0B       		.byte	0xb
 1629 04d1 1401     		.2byte	0x114
 1630 04d3 61040000 		.4byte	0x461
 1631 04d7 10       		.byte	0x10
 1632 04d8 07       		.uleb128 0x7
 1633 04d9 723900   		.ascii	"r9\000"
 1634 04dc 0B       		.byte	0xb
 1635 04dd 1501     		.2byte	0x115
 1636 04df 61040000 		.4byte	0x461
 1637 04e3 14       		.byte	0x14
 1638 04e4 07       		.uleb128 0x7
 1639 04e5 72313000 		.ascii	"r10\000"
 1640 04e9 0B       		.byte	0xb
ARM GAS  /tmp/ccAsEkjn.s 			page 30


 1641 04ea 1601     		.2byte	0x116
 1642 04ec 61040000 		.4byte	0x461
 1643 04f0 18       		.byte	0x18
 1644 04f1 07       		.uleb128 0x7
 1645 04f2 72313100 		.ascii	"r11\000"
 1646 04f6 0B       		.byte	0xb
 1647 04f7 1701     		.2byte	0x117
 1648 04f9 61040000 		.4byte	0x461
 1649 04fd 1C       		.byte	0x1c
 1650 04fe 07       		.uleb128 0x7
 1651 04ff 6C7200   		.ascii	"lr\000"
 1652 0502 0B       		.byte	0xb
 1653 0503 1801     		.2byte	0x118
 1654 0505 61040000 		.4byte	0x461
 1655 0509 20       		.byte	0x20
 1656 050a 00       		.byte	0
 1657 050b 09       		.uleb128 0x9
 1658 050c 04       		.byte	0x4
 1659 050d 90040000 		.4byte	0x490
 1660 0511 10       		.uleb128 0x10
 1661 0512 04       		.byte	0x4
 1662 0513 0C       		.byte	0xc
 1663 0514 38       		.byte	0x38
 1664 0515 26050000 		.4byte	0x526
 1665 0519 06       		.uleb128 0x6
 1666 051a 26060000 		.4byte	.LASF86
 1667 051e 0C       		.byte	0xc
 1668 051f 3C       		.byte	0x3c
 1669 0520 CA000000 		.4byte	0xca
 1670 0524 00       		.byte	0
 1671 0525 00       		.byte	0
 1672 0526 03       		.uleb128 0x3
 1673 0527 84030000 		.4byte	.LASF87
 1674 052b 0C       		.byte	0xc
 1675 052c 3D       		.byte	0x3d
 1676 052d 11050000 		.4byte	0x511
 1677 0531 11       		.uleb128 0x11
 1678 0532 04       		.byte	0x4
 1679 0533 02       		.byte	0x2
 1680 0534 FA       		.byte	0xfa
 1681 0535 8E050000 		.4byte	0x58e
 1682 0539 12       		.uleb128 0x12
 1683 053a 28000000 		.4byte	.LASF88
 1684 053e 02       		.byte	0x2
 1685 053f 0101     		.2byte	0x101
 1686 0541 0C010000 		.4byte	0x10c
 1687 0545 12       		.uleb128 0x12
 1688 0546 B9000000 		.4byte	.LASF89
 1689 054a 02       		.byte	0x2
 1690 054b 0801     		.2byte	0x108
 1691 054d 0C010000 		.4byte	0x10c
 1692 0551 12       		.uleb128 0x12
 1693 0552 98060000 		.4byte	.LASF90
 1694 0556 02       		.byte	0x2
 1695 0557 0F01     		.2byte	0x10f
 1696 0559 24030000 		.4byte	0x324
 1697 055d 12       		.uleb128 0x12
ARM GAS  /tmp/ccAsEkjn.s 			page 31


 1698 055e 73010000 		.4byte	.LASF91
 1699 0562 02       		.byte	0x2
 1700 0563 1601     		.2byte	0x116
 1701 0565 8E050000 		.4byte	0x58e
 1702 0569 12       		.uleb128 0x12
 1703 056a 74020000 		.4byte	.LASF92
 1704 056e 02       		.byte	0x2
 1705 056f 1E01     		.2byte	0x11e
 1706 0571 B9050000 		.4byte	0x5b9
 1707 0575 12       		.uleb128 0x12
 1708 0576 DA040000 		.4byte	.LASF93
 1709 057a 02       		.byte	0x2
 1710 057b 2701     		.2byte	0x127
 1711 057d F0050000 		.4byte	0x5f0
 1712 0581 12       		.uleb128 0x12
 1713 0582 5E040000 		.4byte	.LASF94
 1714 0586 02       		.byte	0x2
 1715 0587 2F01     		.2byte	0x12f
 1716 0589 17010000 		.4byte	0x117
 1717 058d 00       		.byte	0
 1718 058e 09       		.uleb128 0x9
 1719 058f 04       		.byte	0x4
 1720 0590 3C020000 		.4byte	0x23c
 1721 0594 05       		.uleb128 0x5
 1722 0595 AD040000 		.4byte	.LASF95
 1723 0599 0C       		.byte	0xc
 1724 059a 0D       		.byte	0xd
 1725 059b 34       		.byte	0x34
 1726 059c B9050000 		.4byte	0x5b9
 1727 05a0 06       		.uleb128 0x6
 1728 05a1 C9010000 		.4byte	.LASF96
 1729 05a5 0D       		.byte	0xd
 1730 05a6 35       		.byte	0x35
 1731 05a7 71020000 		.4byte	0x271
 1732 05ab 00       		.byte	0
 1733 05ac 06       		.uleb128 0x6
 1734 05ad 8E020000 		.4byte	.LASF97
 1735 05b1 0D       		.byte	0xd
 1736 05b2 37       		.byte	0x37
 1737 05b3 22010000 		.4byte	0x122
 1738 05b7 08       		.byte	0x8
 1739 05b8 00       		.byte	0
 1740 05b9 09       		.uleb128 0x9
 1741 05ba 04       		.byte	0x4
 1742 05bb 94050000 		.4byte	0x594
 1743 05bf 05       		.uleb128 0x5
 1744 05c0 64060000 		.4byte	.LASF98
 1745 05c4 10       		.byte	0x10
 1746 05c5 0E       		.byte	0xe
 1747 05c6 39       		.byte	0x39
 1748 05c7 F0050000 		.4byte	0x5f0
 1749 05cb 06       		.uleb128 0x6
 1750 05cc 3F010000 		.4byte	.LASF99
 1751 05d0 0E       		.byte	0xe
 1752 05d1 3A       		.byte	0x3a
 1753 05d2 71020000 		.4byte	0x271
 1754 05d6 00       		.byte	0
ARM GAS  /tmp/ccAsEkjn.s 			page 32


 1755 05d7 06       		.uleb128 0x6
 1756 05d8 DC060000 		.4byte	.LASF100
 1757 05dc 0E       		.byte	0xe
 1758 05dd 3C       		.byte	0x3c
 1759 05de 47020000 		.4byte	0x247
 1760 05e2 08       		.byte	0x8
 1761 05e3 06       		.uleb128 0x6
 1762 05e4 DE050000 		.4byte	.LASF101
 1763 05e8 0E       		.byte	0xe
 1764 05e9 3E       		.byte	0x3e
 1765 05ea 33060000 		.4byte	0x633
 1766 05ee 0C       		.byte	0xc
 1767 05ef 00       		.byte	0
 1768 05f0 09       		.uleb128 0x9
 1769 05f1 04       		.byte	0x4
 1770 05f2 BF050000 		.4byte	0x5bf
 1771 05f6 09       		.uleb128 0x9
 1772 05f7 04       		.byte	0x4
 1773 05f8 FC050000 		.4byte	0x5fc
 1774 05fc 13       		.uleb128 0x13
 1775 05fd 01060000 		.4byte	0x601
 1776 0601 04       		.uleb128 0x4
 1777 0602 01       		.byte	0x1
 1778 0603 08       		.byte	0x8
 1779 0604 D0050000 		.4byte	.LASF102
 1780 0608 09       		.uleb128 0x9
 1781 0609 04       		.byte	0x4
 1782 060a 26030000 		.4byte	0x326
 1783 060e 14       		.uleb128 0x14
 1784 060f 2D010000 		.4byte	0x12d
 1785 0613 14       		.uleb128 0x14
 1786 0614 F6050000 		.4byte	0x5f6
 1787 0618 15       		.uleb128 0x15
 1788 0619 6C040000 		.4byte	0x46c
 1789 061d 28060000 		.4byte	0x628
 1790 0621 16       		.uleb128 0x16
 1791 0622 5A040000 		.4byte	0x45a
 1792 0626 1A       		.byte	0x1a
 1793 0627 00       		.byte	0
 1794 0628 03       		.uleb128 0x3
 1795 0629 F8010000 		.4byte	.LASF103
 1796 062d 0E       		.byte	0xe
 1797 062e 34       		.byte	0x34
 1798 062f BF050000 		.4byte	0x5bf
 1799 0633 09       		.uleb128 0x9
 1800 0634 04       		.byte	0x4
 1801 0635 28060000 		.4byte	0x628
 1802 0639 03       		.uleb128 0x3
 1803 063a F0000000 		.4byte	.LASF104
 1804 063e 03       		.byte	0x3
 1805 063f 3F       		.byte	0x3f
 1806 0640 44060000 		.4byte	0x644
 1807 0644 05       		.uleb128 0x5
 1808 0645 06020000 		.4byte	.LASF105
 1809 0649 24       		.byte	0x24
 1810 064a 03       		.byte	0x3
 1811 064b 4D       		.byte	0x4d
ARM GAS  /tmp/ccAsEkjn.s 			page 33


 1812 064c B1060000 		.4byte	0x6b1
 1813 0650 06       		.uleb128 0x6
 1814 0651 13010000 		.4byte	.LASF106
 1815 0655 03       		.byte	0x3
 1816 0656 4E       		.byte	0x4e
 1817 0657 71020000 		.4byte	0x271
 1818 065b 00       		.byte	0
 1819 065c 06       		.uleb128 0x6
 1820 065d 6C030000 		.4byte	.LASF107
 1821 0661 03       		.byte	0x3
 1822 0662 4F       		.byte	0x4f
 1823 0663 D3060000 		.4byte	0x6d3
 1824 0667 08       		.byte	0x8
 1825 0668 06       		.uleb128 0x6
 1826 0669 9E010000 		.4byte	.LASF108
 1827 066d 03       		.byte	0x3
 1828 066e 50       		.byte	0x50
 1829 066f D8060000 		.4byte	0x6d8
 1830 0673 0C       		.byte	0xc
 1831 0674 06       		.uleb128 0x6
 1832 0675 5E060000 		.4byte	.LASF109
 1833 0679 03       		.byte	0x3
 1834 067a 51       		.byte	0x51
 1835 067b D8060000 		.4byte	0x6d8
 1836 067f 10       		.byte	0x10
 1837 0680 06       		.uleb128 0x6
 1838 0681 A7010000 		.4byte	.LASF110
 1839 0685 03       		.byte	0x3
 1840 0686 53       		.byte	0x53
 1841 0687 D8060000 		.4byte	0x6d8
 1842 068b 14       		.byte	0x14
 1843 068c 06       		.uleb128 0x6
 1844 068d EF030000 		.4byte	.LASF111
 1845 0691 03       		.byte	0x3
 1846 0692 54       		.byte	0x54
 1847 0693 D8060000 		.4byte	0x6d8
 1848 0697 18       		.byte	0x18
 1849 0698 06       		.uleb128 0x6
 1850 0699 81060000 		.4byte	.LASF112
 1851 069d 03       		.byte	0x3
 1852 069e 55       		.byte	0x55
 1853 069f B1060000 		.4byte	0x6b1
 1854 06a3 1C       		.byte	0x1c
 1855 06a4 06       		.uleb128 0x6
 1856 06a5 D5060000 		.4byte	.LASF113
 1857 06a9 03       		.byte	0x3
 1858 06aa 56       		.byte	0x56
 1859 06ab 24030000 		.4byte	0x324
 1860 06af 20       		.byte	0x20
 1861 06b0 00       		.byte	0
 1862 06b1 03       		.uleb128 0x3
 1863 06b2 BA030000 		.4byte	.LASF114
 1864 06b6 03       		.byte	0x3
 1865 06b7 42       		.byte	0x42
 1866 06b8 BC060000 		.4byte	0x6bc
 1867 06bc 09       		.uleb128 0x9
 1868 06bd 04       		.byte	0x4
ARM GAS  /tmp/ccAsEkjn.s 			page 34


 1869 06be C2060000 		.4byte	0x6c2
 1870 06c2 0B       		.uleb128 0xb
 1871 06c3 CD060000 		.4byte	0x6cd
 1872 06c7 0C       		.uleb128 0xc
 1873 06c8 CD060000 		.4byte	0x6cd
 1874 06cc 00       		.byte	0
 1875 06cd 09       		.uleb128 0x9
 1876 06ce 04       		.byte	0x4
 1877 06cf 39060000 		.4byte	0x639
 1878 06d3 14       		.uleb128 0x14
 1879 06d4 28000000 		.4byte	0x28
 1880 06d8 09       		.uleb128 0x9
 1881 06d9 04       		.byte	0x4
 1882 06da 9E000000 		.4byte	0x9e
 1883 06de 03       		.uleb128 0x3
 1884 06df 23040000 		.4byte	.LASF115
 1885 06e3 03       		.byte	0x3
 1886 06e4 64       		.byte	0x64
 1887 06e5 39060000 		.4byte	0x639
 1888 06e9 03       		.uleb128 0x3
 1889 06ea 64010000 		.4byte	.LASF116
 1890 06ee 03       		.byte	0x3
 1891 06ef 71       		.byte	0x71
 1892 06f0 39060000 		.4byte	0x639
 1893 06f4 09       		.uleb128 0x9
 1894 06f5 04       		.byte	0x4
 1895 06f6 FA060000 		.4byte	0x6fa
 1896 06fa 13       		.uleb128 0x13
 1897 06fb 9E000000 		.4byte	0x9e
 1898 06ff 17       		.uleb128 0x17
 1899 0700 0E060000 		.4byte	.LASF119
 1900 0704 04       		.byte	0x4
 1901 0705 2202     		.2byte	0x222
 1902 0707 03       		.byte	0x3
 1903 0708 19070000 		.4byte	0x719
 1904 070c 18       		.uleb128 0x18
 1905 070d 00020000 		.4byte	.LASF121
 1906 0711 04       		.byte	0x4
 1907 0712 2202     		.2byte	0x222
 1908 0714 B4000000 		.4byte	0xb4
 1909 0718 00       		.byte	0
 1910 0719 19       		.uleb128 0x19
 1911 071a 89000000 		.4byte	.LASF117
 1912 071e 0B       		.byte	0xb
 1913 071f C801     		.2byte	0x1c8
 1914 0721 03       		.byte	0x3
 1915 0722 19       		.uleb128 0x19
 1916 0723 4E010000 		.4byte	.LASF118
 1917 0727 0B       		.byte	0xb
 1918 0728 E001     		.2byte	0x1e0
 1919 072a 03       		.byte	0x3
 1920 072b 17       		.uleb128 0x17
 1921 072c 7E000000 		.4byte	.LASF120
 1922 0730 02       		.byte	0x2
 1923 0731 5A02     		.2byte	0x25a
 1924 0733 03       		.byte	0x3
 1925 0734 45070000 		.4byte	0x745
ARM GAS  /tmp/ccAsEkjn.s 			page 35


 1926 0738 1A       		.uleb128 0x1a
 1927 0739 74717000 		.ascii	"tqp\000"
 1928 073d 02       		.byte	0x2
 1929 073e 5A02     		.2byte	0x25a
 1930 0740 45070000 		.4byte	0x745
 1931 0744 00       		.byte	0
 1932 0745 09       		.uleb128 0x9
 1933 0746 04       		.byte	0x4
 1934 0747 71020000 		.4byte	0x271
 1935 074b 17       		.uleb128 0x17
 1936 074c 1A030000 		.4byte	.LASF122
 1937 0750 0F       		.byte	0xf
 1938 0751 1601     		.2byte	0x116
 1939 0753 03       		.byte	0x3
 1940 0754 65070000 		.4byte	0x765
 1941 0758 1A       		.uleb128 0x1a
 1942 0759 74717000 		.ascii	"tqp\000"
 1943 075d 0F       		.byte	0xf
 1944 075e 1601     		.2byte	0x116
 1945 0760 45070000 		.4byte	0x745
 1946 0764 00       		.byte	0
 1947 0765 1B       		.uleb128 0x1b
 1948 0766 C5040000 		.4byte	.LASF126
 1949 076a 03       		.byte	0x3
 1950 076b 4001     		.2byte	0x140
 1951 076d 83070000 		.4byte	0x783
 1952 0771 03       		.byte	0x3
 1953 0772 83070000 		.4byte	0x783
 1954 0776 1A       		.uleb128 0x1a
 1955 0777 69717000 		.ascii	"iqp\000"
 1956 077b 03       		.byte	0x3
 1957 077c 4001     		.2byte	0x140
 1958 077e 8A070000 		.4byte	0x78a
 1959 0782 00       		.byte	0
 1960 0783 04       		.uleb128 0x4
 1961 0784 01       		.byte	0x1
 1962 0785 02       		.byte	0x2
 1963 0786 07040000 		.4byte	.LASF123
 1964 078a 09       		.uleb128 0x9
 1965 078b 04       		.byte	0x4
 1966 078c DE060000 		.4byte	0x6de
 1967 0790 19       		.uleb128 0x19
 1968 0791 82040000 		.4byte	.LASF124
 1969 0795 10       		.byte	0x10
 1970 0796 5A01     		.2byte	0x15a
 1971 0798 03       		.byte	0x3
 1972 0799 17       		.uleb128 0x17
 1973 079a C3060000 		.4byte	.LASF125
 1974 079e 10       		.byte	0x10
 1975 079f 6601     		.2byte	0x166
 1976 07a1 03       		.byte	0x3
 1977 07a2 B4070000 		.4byte	0x7b4
 1978 07a6 1C       		.uleb128 0x1c
 1979 07a7 79040000 		.4byte	.LASF145
 1980 07ab C4070000 		.4byte	0x7c4
 1981 07af C3060000 		.4byte	.LASF125
 1982 07b3 00       		.byte	0
ARM GAS  /tmp/ccAsEkjn.s 			page 36


 1983 07b4 15       		.uleb128 0x15
 1984 07b5 01060000 		.4byte	0x601
 1985 07b9 C4070000 		.4byte	0x7c4
 1986 07bd 16       		.uleb128 0x16
 1987 07be 5A040000 		.4byte	0x45a
 1988 07c2 0B       		.byte	0xb
 1989 07c3 00       		.byte	0
 1990 07c4 13       		.uleb128 0x13
 1991 07c5 B4070000 		.4byte	0x7b4
 1992 07c9 1B       		.uleb128 0x1b
 1993 07ca 74060000 		.4byte	.LASF127
 1994 07ce 03       		.byte	0x3
 1995 07cf 2F01     		.2byte	0x12f
 1996 07d1 83070000 		.4byte	0x783
 1997 07d5 03       		.byte	0x3
 1998 07d6 E7070000 		.4byte	0x7e7
 1999 07da 1A       		.uleb128 0x1a
 2000 07db 69717000 		.ascii	"iqp\000"
 2001 07df 03       		.byte	0x3
 2002 07e0 2F01     		.2byte	0x12f
 2003 07e2 8A070000 		.4byte	0x78a
 2004 07e6 00       		.byte	0
 2005 07e7 1B       		.uleb128 0x1b
 2006 07e8 DB030000 		.4byte	.LASF128
 2007 07ec 03       		.byte	0x3
 2008 07ed 9701     		.2byte	0x197
 2009 07ef 83070000 		.4byte	0x783
 2010 07f3 03       		.byte	0x3
 2011 07f4 05080000 		.4byte	0x805
 2012 07f8 1A       		.uleb128 0x1a
 2013 07f9 6F717000 		.ascii	"oqp\000"
 2014 07fd 03       		.byte	0x3
 2015 07fe 9701     		.2byte	0x197
 2016 0800 05080000 		.4byte	0x805
 2017 0804 00       		.byte	0
 2018 0805 09       		.uleb128 0x9
 2019 0806 04       		.byte	0x4
 2020 0807 E9060000 		.4byte	0x6e9
 2021 080b 1B       		.uleb128 0x1b
 2022 080c AB060000 		.4byte	.LASF129
 2023 0810 03       		.byte	0x3
 2024 0811 8401     		.2byte	0x184
 2025 0813 83070000 		.4byte	0x783
 2026 0817 03       		.byte	0x3
 2027 0818 29080000 		.4byte	0x829
 2028 081c 1A       		.uleb128 0x1a
 2029 081d 6F717000 		.ascii	"oqp\000"
 2030 0821 03       		.byte	0x3
 2031 0822 8401     		.2byte	0x184
 2032 0824 05080000 		.4byte	0x805
 2033 0828 00       		.byte	0
 2034 0829 1D       		.uleb128 0x1d
 2035 082a 93000000 		.4byte	.LASF133
 2036 082e 01       		.byte	0x1
 2037 082f 57       		.byte	0x57
 2038 0830 00000000 		.4byte	.LFB170
 2039 0834 1E000000 		.4byte	.LFE170-.LFB170
ARM GAS  /tmp/ccAsEkjn.s 			page 37


 2040 0838 01       		.uleb128 0x1
 2041 0839 9C       		.byte	0x9c
 2042 083a B2080000 		.4byte	0x8b2
 2043 083e 1E       		.uleb128 0x1e
 2044 083f 69717000 		.ascii	"iqp\000"
 2045 0843 01       		.byte	0x1
 2046 0844 57       		.byte	0x57
 2047 0845 8A070000 		.4byte	0x78a
 2048 0849 01       		.uleb128 0x1
 2049 084a 50       		.byte	0x50
 2050 084b 1E       		.uleb128 0x1e
 2051 084c 627000   		.ascii	"bp\000"
 2052 084f 01       		.byte	0x1
 2053 0850 57       		.byte	0x57
 2054 0851 D8060000 		.4byte	0x6d8
 2055 0855 01       		.uleb128 0x1
 2056 0856 51       		.byte	0x51
 2057 0857 1F       		.uleb128 0x1f
 2058 0858 A6060000 		.4byte	.LASF130
 2059 085c 01       		.byte	0x1
 2060 085d 57       		.byte	0x57
 2061 085e 28000000 		.4byte	0x28
 2062 0862 00000000 		.4byte	.LLST0
 2063 0866 20       		.uleb128 0x20
 2064 0867 6C040000 		.4byte	.LASF131
 2065 086b 01       		.byte	0x1
 2066 086c 58       		.byte	0x58
 2067 086d B1060000 		.4byte	0x6b1
 2068 0871 01       		.uleb128 0x1
 2069 0872 53       		.byte	0x53
 2070 0873 1F       		.uleb128 0x1f
 2071 0874 EA010000 		.4byte	.LASF132
 2072 0878 01       		.byte	0x1
 2073 0879 58       		.byte	0x58
 2074 087a 24030000 		.4byte	0x324
 2075 087e 21000000 		.4byte	.LLST1
 2076 0882 21       		.uleb128 0x21
 2077 0883 4B070000 		.4byte	0x74b
 2078 0887 0E000000 		.4byte	.LBB108
 2079 088b 04000000 		.4byte	.LBE108-.LBB108
 2080 088f 01       		.byte	0x1
 2081 0890 5A       		.byte	0x5a
 2082 0891 22       		.uleb128 0x22
 2083 0892 58070000 		.4byte	0x758
 2084 0896 01       		.uleb128 0x1
 2085 0897 50       		.byte	0x50
 2086 0898 23       		.uleb128 0x23
 2087 0899 2B070000 		.4byte	0x72b
 2088 089d 0E000000 		.4byte	.LBB109
 2089 08a1 04000000 		.4byte	.LBE109-.LBB109
 2090 08a5 0F       		.byte	0xf
 2091 08a6 1801     		.2byte	0x118
 2092 08a8 22       		.uleb128 0x22
 2093 08a9 38070000 		.4byte	0x738
 2094 08ad 01       		.uleb128 0x1
 2095 08ae 50       		.byte	0x50
 2096 08af 00       		.byte	0
ARM GAS  /tmp/ccAsEkjn.s 			page 38


 2097 08b0 00       		.byte	0
 2098 08b1 00       		.byte	0
 2099 08b2 1D       		.uleb128 0x1d
 2100 08b3 69020000 		.4byte	.LASF134
 2101 08b7 01       		.byte	0x1
 2102 08b8 6F       		.byte	0x6f
 2103 08b9 00000000 		.4byte	.LFB171
 2104 08bd 12000000 		.4byte	.LFE171-.LFB171
 2105 08c1 01       		.uleb128 0x1
 2106 08c2 9C       		.byte	0x9c
 2107 08c3 EE080000 		.4byte	0x8ee
 2108 08c7 24       		.uleb128 0x24
 2109 08c8 69717000 		.ascii	"iqp\000"
 2110 08cc 01       		.byte	0x1
 2111 08cd 6F       		.byte	0x6f
 2112 08ce 8A070000 		.4byte	0x78a
 2113 08d2 41000000 		.4byte	.LLST2
 2114 08d6 25       		.uleb128 0x25
 2115 08d7 12000000 		.4byte	.LVL4
 2116 08db 52110000 		.4byte	0x1152
 2117 08df 26       		.uleb128 0x26
 2118 08e0 01       		.uleb128 0x1
 2119 08e1 51       		.byte	0x51
 2120 08e2 02       		.uleb128 0x2
 2121 08e3 09       		.byte	0x9
 2122 08e4 FE       		.byte	0xfe
 2123 08e5 26       		.uleb128 0x26
 2124 08e6 01       		.uleb128 0x1
 2125 08e7 50       		.byte	0x50
 2126 08e8 03       		.uleb128 0x3
 2127 08e9 F3       		.byte	0xf3
 2128 08ea 01       		.uleb128 0x1
 2129 08eb 50       		.byte	0x50
 2130 08ec 00       		.byte	0
 2131 08ed 00       		.byte	0
 2132 08ee 27       		.uleb128 0x27
 2133 08ef EF010000 		.4byte	.LASF135
 2134 08f3 01       		.byte	0x1
 2135 08f4 86       		.byte	0x86
 2136 08f5 0C010000 		.4byte	0x10c
 2137 08f9 00000000 		.4byte	.LFB172
 2138 08fd 38000000 		.4byte	.LFE172-.LFB172
 2139 0901 01       		.uleb128 0x1
 2140 0902 9C       		.byte	0x9c
 2141 0903 50090000 		.4byte	0x950
 2142 0907 24       		.uleb128 0x24
 2143 0908 69717000 		.ascii	"iqp\000"
 2144 090c 01       		.byte	0x1
 2145 090d 86       		.byte	0x86
 2146 090e 8A070000 		.4byte	0x78a
 2147 0912 62000000 		.4byte	.LLST3
 2148 0916 24       		.uleb128 0x24
 2149 0917 6200     		.ascii	"b\000"
 2150 0919 01       		.byte	0x1
 2151 091a 86       		.byte	0x86
 2152 091b 9E000000 		.4byte	0x9e
 2153 091f 9C000000 		.4byte	.LLST4
ARM GAS  /tmp/ccAsEkjn.s 			page 39


 2154 0923 28       		.uleb128 0x28
 2155 0924 65070000 		.4byte	0x765
 2156 0928 00000000 		.4byte	.LBB111
 2157 092c 00000000 		.4byte	.Ldebug_ranges0+0
 2158 0930 01       		.byte	0x1
 2159 0931 8A       		.byte	0x8a
 2160 0932 40090000 		.4byte	0x940
 2161 0936 29       		.uleb128 0x29
 2162 0937 76070000 		.4byte	0x776
 2163 093b 62000000 		.4byte	.LLST3
 2164 093f 00       		.byte	0
 2165 0940 2A       		.uleb128 0x2a
 2166 0941 28000000 		.4byte	.LVL7
 2167 0945 68110000 		.4byte	0x1168
 2168 0949 26       		.uleb128 0x26
 2169 094a 01       		.uleb128 0x1
 2170 094b 51       		.byte	0x51
 2171 094c 01       		.uleb128 0x1
 2172 094d 30       		.byte	0x30
 2173 094e 00       		.byte	0
 2174 094f 00       		.byte	0
 2175 0950 27       		.uleb128 0x27
 2176 0951 F2060000 		.4byte	.LASF136
 2177 0955 01       		.byte	0x1
 2178 0956 AD       		.byte	0xad
 2179 0957 0C010000 		.4byte	0x10c
 2180 095b 00000000 		.4byte	.LFB173
 2181 095f 4E000000 		.4byte	.LFE173-.LFB173
 2182 0963 01       		.uleb128 0x1
 2183 0964 9C       		.byte	0x9c
 2184 0965 C00A0000 		.4byte	0xac0
 2185 0969 24       		.uleb128 0x24
 2186 096a 69717000 		.ascii	"iqp\000"
 2187 096e 01       		.byte	0x1
 2188 096f AD       		.byte	0xad
 2189 0970 8A070000 		.4byte	0x78a
 2190 0974 C8000000 		.4byte	.LLST6
 2191 0978 1F       		.uleb128 0x1f
 2192 0979 86020000 		.4byte	.LASF137
 2193 097d 01       		.byte	0x1
 2194 097e AD       		.byte	0xad
 2195 097f 2D010000 		.4byte	0x12d
 2196 0983 E6000000 		.4byte	.LLST7
 2197 0987 2B       		.uleb128 0x2b
 2198 0988 6200     		.ascii	"b\000"
 2199 098a 01       		.byte	0x1
 2200 098b AE       		.byte	0xae
 2201 098c 9E000000 		.4byte	0x9e
 2202 0990 04010000 		.4byte	.LLST8
 2203 0994 28       		.uleb128 0x28
 2204 0995 90070000 		.4byte	0x790
 2205 0999 02000000 		.4byte	.LBB117
 2206 099d 20000000 		.4byte	.Ldebug_ranges0+0x20
 2207 09a1 01       		.byte	0x1
 2208 09a2 B0       		.byte	0xb0
 2209 09a3 D0090000 		.4byte	0x9d0
 2210 09a7 2C       		.uleb128 0x2c
ARM GAS  /tmp/ccAsEkjn.s 			page 40


 2211 09a8 19070000 		.4byte	0x719
 2212 09ac 02000000 		.4byte	.LBB118
 2213 09b0 20000000 		.4byte	.Ldebug_ranges0+0x20
 2214 09b4 10       		.byte	0x10
 2215 09b5 5C01     		.2byte	0x15c
 2216 09b7 2C       		.uleb128 0x2c
 2217 09b8 FF060000 		.4byte	0x6ff
 2218 09bc 02000000 		.4byte	.LBB119
 2219 09c0 20000000 		.4byte	.Ldebug_ranges0+0x20
 2220 09c4 0B       		.byte	0xb
 2221 09c5 D001     		.2byte	0x1d0
 2222 09c7 2D       		.uleb128 0x2d
 2223 09c8 0C070000 		.4byte	0x70c
 2224 09cc 20       		.byte	0x20
 2225 09cd 00       		.byte	0
 2226 09ce 00       		.byte	0
 2227 09cf 00       		.byte	0
 2228 09d0 2E       		.uleb128 0x2e
 2229 09d1 38000000 		.4byte	.Ldebug_ranges0+0x38
 2230 09d5 4A0A0000 		.4byte	0xa4a
 2231 09d9 2B       		.uleb128 0x2b
 2232 09da 6D736700 		.ascii	"msg\000"
 2233 09de 01       		.byte	0x1
 2234 09df B6       		.byte	0xb6
 2235 09e0 0C010000 		.4byte	0x10c
 2236 09e4 17010000 		.4byte	.LLST9
 2237 09e8 2F       		.uleb128 0x2f
 2238 09e9 99070000 		.4byte	0x799
 2239 09ed 48000000 		.4byte	.LBB126
 2240 09f1 04000000 		.4byte	.LBE126-.LBB126
 2241 09f5 01       		.byte	0x1
 2242 09f6 B8       		.byte	0xb8
 2243 09f7 330A0000 		.4byte	0xa33
 2244 09fb 30       		.uleb128 0x30
 2245 09fc 48000000 		.4byte	.LBB127
 2246 0a00 04000000 		.4byte	.LBE127-.LBB127
 2247 0a04 31       		.uleb128 0x31
 2248 0a05 A6070000 		.4byte	0x7a6
 2249 0a09 23       		.uleb128 0x23
 2250 0a0a 22070000 		.4byte	0x722
 2251 0a0e 48000000 		.4byte	.LBB128
 2252 0a12 04000000 		.4byte	.LBE128-.LBB128
 2253 0a16 10       		.byte	0x10
 2254 0a17 7301     		.2byte	0x173
 2255 0a19 23       		.uleb128 0x23
 2256 0a1a FF060000 		.4byte	0x6ff
 2257 0a1e 48000000 		.4byte	.LBB129
 2258 0a22 04000000 		.4byte	.LBE129-.LBB129
 2259 0a26 0B       		.byte	0xb
 2260 0a27 E301     		.2byte	0x1e3
 2261 0a29 2D       		.uleb128 0x2d
 2262 0a2a 0C070000 		.4byte	0x70c
 2263 0a2e 00       		.byte	0
 2264 0a2f 00       		.byte	0
 2265 0a30 00       		.byte	0
 2266 0a31 00       		.byte	0
 2267 0a32 00       		.byte	0
ARM GAS  /tmp/ccAsEkjn.s 			page 41


 2268 0a33 2A       		.uleb128 0x2a
 2269 0a34 1C000000 		.4byte	.LVL13
 2270 0a38 7E110000 		.4byte	0x117e
 2271 0a3c 26       		.uleb128 0x26
 2272 0a3d 01       		.uleb128 0x1
 2273 0a3e 51       		.byte	0x51
 2274 0a3f 02       		.uleb128 0x2
 2275 0a40 76       		.byte	0x76
 2276 0a41 00       		.sleb128 0
 2277 0a42 26       		.uleb128 0x26
 2278 0a43 01       		.uleb128 0x1
 2279 0a44 50       		.byte	0x50
 2280 0a45 02       		.uleb128 0x2
 2281 0a46 74       		.byte	0x74
 2282 0a47 00       		.sleb128 0
 2283 0a48 00       		.byte	0
 2284 0a49 00       		.byte	0
 2285 0a4a 2F       		.uleb128 0x2f
 2286 0a4b C9070000 		.4byte	0x7c9
 2287 0a4f 20000000 		.4byte	.LBB131
 2288 0a53 02000000 		.4byte	.LBE131-.LBB131
 2289 0a57 01       		.byte	0x1
 2290 0a58 B5       		.byte	0xb5
 2291 0a59 650A0000 		.4byte	0xa65
 2292 0a5d 22       		.uleb128 0x22
 2293 0a5e DA070000 		.4byte	0x7da
 2294 0a62 01       		.uleb128 0x1
 2295 0a63 54       		.byte	0x54
 2296 0a64 00       		.byte	0
 2297 0a65 2F       		.uleb128 0x2f
 2298 0a66 99070000 		.4byte	0x799
 2299 0a6a 40000000 		.4byte	.LBB133
 2300 0a6e 06000000 		.4byte	.LBE133-.LBB133
 2301 0a72 01       		.byte	0x1
 2302 0a73 C2       		.byte	0xc2
 2303 0a74 B30A0000 		.4byte	0xab3
 2304 0a78 30       		.uleb128 0x30
 2305 0a79 40000000 		.4byte	.LBB134
 2306 0a7d 06000000 		.4byte	.LBE134-.LBB134
 2307 0a81 31       		.uleb128 0x31
 2308 0a82 A6070000 		.4byte	0x7a6
 2309 0a86 23       		.uleb128 0x23
 2310 0a87 22070000 		.4byte	0x722
 2311 0a8b 40000000 		.4byte	.LBB135
 2312 0a8f 06000000 		.4byte	.LBE135-.LBB135
 2313 0a93 10       		.byte	0x10
 2314 0a94 7301     		.2byte	0x173
 2315 0a96 23       		.uleb128 0x23
 2316 0a97 FF060000 		.4byte	0x6ff
 2317 0a9b 40000000 		.4byte	.LBB136
 2318 0a9f 06000000 		.4byte	.LBE136-.LBB136
 2319 0aa3 0B       		.byte	0xb
 2320 0aa4 E301     		.2byte	0x1e3
 2321 0aa6 29       		.uleb128 0x29
 2322 0aa7 0C070000 		.4byte	0x70c
 2323 0aab 35010000 		.4byte	.LLST10
 2324 0aaf 00       		.byte	0
ARM GAS  /tmp/ccAsEkjn.s 			page 42


 2325 0ab0 00       		.byte	0
 2326 0ab1 00       		.byte	0
 2327 0ab2 00       		.byte	0
 2328 0ab3 32       		.uleb128 0x32
 2329 0ab4 12000000 		.4byte	.LVL11
 2330 0ab8 26       		.uleb128 0x26
 2331 0ab9 01       		.uleb128 0x1
 2332 0aba 50       		.byte	0x50
 2333 0abb 02       		.uleb128 0x2
 2334 0abc 74       		.byte	0x74
 2335 0abd 00       		.sleb128 0
 2336 0abe 00       		.byte	0
 2337 0abf 00       		.byte	0
 2338 0ac0 27       		.uleb128 0x27
 2339 0ac1 6E000000 		.4byte	.LASF138
 2340 0ac5 01       		.byte	0x1
 2341 0ac6 DF       		.byte	0xdf
 2342 0ac7 28000000 		.4byte	0x28
 2343 0acb 00000000 		.4byte	.LFB174
 2344 0acf 76000000 		.4byte	.LFE174-.LFB174
 2345 0ad3 01       		.uleb128 0x1
 2346 0ad4 9C       		.byte	0x9c
 2347 0ad5 8A0C0000 		.4byte	0xc8a
 2348 0ad9 24       		.uleb128 0x24
 2349 0ada 69717000 		.ascii	"iqp\000"
 2350 0ade 01       		.byte	0x1
 2351 0adf DF       		.byte	0xdf
 2352 0ae0 8A070000 		.4byte	0x78a
 2353 0ae4 49010000 		.4byte	.LLST11
 2354 0ae8 24       		.uleb128 0x24
 2355 0ae9 627000   		.ascii	"bp\000"
 2356 0aec 01       		.byte	0x1
 2357 0aed DF       		.byte	0xdf
 2358 0aee D8060000 		.4byte	0x6d8
 2359 0af2 67010000 		.4byte	.LLST12
 2360 0af6 24       		.uleb128 0x24
 2361 0af7 6E00     		.ascii	"n\000"
 2362 0af9 01       		.byte	0x1
 2363 0afa E0       		.byte	0xe0
 2364 0afb 28000000 		.4byte	0x28
 2365 0aff 9D010000 		.4byte	.LLST13
 2366 0b03 1F       		.uleb128 0x1f
 2367 0b04 86020000 		.4byte	.LASF137
 2368 0b08 01       		.byte	0x1
 2369 0b09 E0       		.byte	0xe0
 2370 0b0a 2D010000 		.4byte	0x12d
 2371 0b0e C0010000 		.4byte	.LLST14
 2372 0b12 33       		.uleb128 0x33
 2373 0b13 6E667900 		.ascii	"nfy\000"
 2374 0b17 01       		.byte	0x1
 2375 0b18 E1       		.byte	0xe1
 2376 0b19 B1060000 		.4byte	0x6b1
 2377 0b1d 01       		.uleb128 0x1
 2378 0b1e 58       		.byte	0x58
 2379 0b1f 2B       		.uleb128 0x2b
 2380 0b20 7200     		.ascii	"r\000"
 2381 0b22 01       		.byte	0x1
ARM GAS  /tmp/ccAsEkjn.s 			page 43


 2382 0b23 E2       		.byte	0xe2
 2383 0b24 28000000 		.4byte	0x28
 2384 0b28 DE010000 		.4byte	.LLST15
 2385 0b2c 34       		.uleb128 0x34
 2386 0b2d 79040000 		.4byte	.LASF145
 2387 0b31 9A0C0000 		.4byte	0xc9a
 2388 0b35 2F       		.uleb128 0x2f
 2389 0b36 90070000 		.4byte	0x790
 2390 0b3a 12000000 		.4byte	.LBB139
 2391 0b3e 06000000 		.4byte	.LBE139-.LBB139
 2392 0b42 01       		.byte	0x1
 2393 0b43 E6       		.byte	0xe6
 2394 0b44 710B0000 		.4byte	0xb71
 2395 0b48 23       		.uleb128 0x23
 2396 0b49 19070000 		.4byte	0x719
 2397 0b4d 12000000 		.4byte	.LBB140
 2398 0b51 06000000 		.4byte	.LBE140-.LBB140
 2399 0b55 10       		.byte	0x10
 2400 0b56 5C01     		.2byte	0x15c
 2401 0b58 23       		.uleb128 0x23
 2402 0b59 FF060000 		.4byte	0x6ff
 2403 0b5d 12000000 		.4byte	.LBB141
 2404 0b61 06000000 		.4byte	.LBE141-.LBB141
 2405 0b65 0B       		.byte	0xb
 2406 0b66 D001     		.2byte	0x1d0
 2407 0b68 2D       		.uleb128 0x2d
 2408 0b69 0C070000 		.4byte	0x70c
 2409 0b6d 20       		.byte	0x20
 2410 0b6e 00       		.byte	0
 2411 0b6f 00       		.byte	0
 2412 0b70 00       		.byte	0
 2413 0b71 28       		.uleb128 0x28
 2414 0b72 99070000 		.4byte	0x799
 2415 0b76 1A000000 		.4byte	.LBB143
 2416 0b7a 50000000 		.4byte	.Ldebug_ranges0+0x50
 2417 0b7e 01       		.byte	0x1
 2418 0b7f F8       		.byte	0xf8
 2419 0b80 BB0B0000 		.4byte	0xbbb
 2420 0b84 35       		.uleb128 0x35
 2421 0b85 50000000 		.4byte	.Ldebug_ranges0+0x50
 2422 0b89 31       		.uleb128 0x31
 2423 0b8a A6070000 		.4byte	0x7a6
 2424 0b8e 2C       		.uleb128 0x2c
 2425 0b8f 22070000 		.4byte	0x722
 2426 0b93 1A000000 		.4byte	.LBB145
 2427 0b97 50000000 		.4byte	.Ldebug_ranges0+0x50
 2428 0b9b 10       		.byte	0x10
 2429 0b9c 7301     		.2byte	0x173
 2430 0b9e 2C       		.uleb128 0x2c
 2431 0b9f FF060000 		.4byte	0x6ff
 2432 0ba3 1A000000 		.4byte	.LBB146
 2433 0ba7 50000000 		.4byte	.Ldebug_ranges0+0x50
 2434 0bab 0B       		.byte	0xb
 2435 0bac E301     		.2byte	0x1e3
 2436 0bae 29       		.uleb128 0x29
 2437 0baf 0C070000 		.4byte	0x70c
 2438 0bb3 FD010000 		.4byte	.LLST16
ARM GAS  /tmp/ccAsEkjn.s 			page 44


 2439 0bb7 00       		.byte	0
 2440 0bb8 00       		.byte	0
 2441 0bb9 00       		.byte	0
 2442 0bba 00       		.byte	0
 2443 0bbb 28       		.uleb128 0x28
 2444 0bbc 90070000 		.4byte	0x790
 2445 0bc0 1C000000 		.4byte	.LBB152
 2446 0bc4 68000000 		.4byte	.Ldebug_ranges0+0x68
 2447 0bc8 01       		.byte	0x1
 2448 0bc9 FF       		.byte	0xff
 2449 0bca FA0B0000 		.4byte	0xbfa
 2450 0bce 2C       		.uleb128 0x2c
 2451 0bcf 19070000 		.4byte	0x719
 2452 0bd3 1C000000 		.4byte	.LBB153
 2453 0bd7 68000000 		.4byte	.Ldebug_ranges0+0x68
 2454 0bdb 10       		.byte	0x10
 2455 0bdc 5C01     		.2byte	0x15c
 2456 0bde 2C       		.uleb128 0x2c
 2457 0bdf FF060000 		.4byte	0x6ff
 2458 0be3 1C000000 		.4byte	.LBB154
 2459 0be7 68000000 		.4byte	.Ldebug_ranges0+0x68
 2460 0beb 0B       		.byte	0xb
 2461 0bec D001     		.2byte	0x1d0
 2462 0bee 29       		.uleb128 0x29
 2463 0bef 0C070000 		.4byte	0x70c
 2464 0bf3 11020000 		.4byte	.LLST17
 2465 0bf7 00       		.byte	0
 2466 0bf8 00       		.byte	0
 2467 0bf9 00       		.byte	0
 2468 0bfa 2F       		.uleb128 0x2f
 2469 0bfb C9070000 		.4byte	0x7c9
 2470 0bff 34000000 		.4byte	.LBB159
 2471 0c03 02000000 		.4byte	.LBE159-.LBB159
 2472 0c07 01       		.byte	0x1
 2473 0c08 EC       		.byte	0xec
 2474 0c09 150C0000 		.4byte	0xc15
 2475 0c0d 22       		.uleb128 0x22
 2476 0c0e DA070000 		.4byte	0x7da
 2477 0c12 01       		.uleb128 0x1
 2478 0c13 54       		.byte	0x54
 2479 0c14 00       		.byte	0
 2480 0c15 2F       		.uleb128 0x2f
 2481 0c16 99070000 		.4byte	0x799
 2482 0c1a 6A000000 		.4byte	.LBB163
 2483 0c1e 04000000 		.4byte	.LBE163-.LBB163
 2484 0c22 01       		.byte	0x1
 2485 0c23 EE       		.byte	0xee
 2486 0c24 630C0000 		.4byte	0xc63
 2487 0c28 30       		.uleb128 0x30
 2488 0c29 6A000000 		.4byte	.LBB164
 2489 0c2d 04000000 		.4byte	.LBE164-.LBB164
 2490 0c31 31       		.uleb128 0x31
 2491 0c32 A6070000 		.4byte	0x7a6
 2492 0c36 23       		.uleb128 0x23
 2493 0c37 22070000 		.4byte	0x722
 2494 0c3b 6A000000 		.4byte	.LBB165
 2495 0c3f 04000000 		.4byte	.LBE165-.LBB165
ARM GAS  /tmp/ccAsEkjn.s 			page 45


 2496 0c43 10       		.byte	0x10
 2497 0c44 7301     		.2byte	0x173
 2498 0c46 23       		.uleb128 0x23
 2499 0c47 FF060000 		.4byte	0x6ff
 2500 0c4b 6A000000 		.4byte	.LBB166
 2501 0c4f 04000000 		.4byte	.LBE166-.LBB166
 2502 0c53 0B       		.byte	0xb
 2503 0c54 E301     		.2byte	0x1e3
 2504 0c56 29       		.uleb128 0x29
 2505 0c57 0C070000 		.4byte	0x70c
 2506 0c5b 26020000 		.4byte	.LLST18
 2507 0c5f 00       		.byte	0
 2508 0c60 00       		.byte	0
 2509 0c61 00       		.byte	0
 2510 0c62 00       		.byte	0
 2511 0c63 36       		.uleb128 0x36
 2512 0c64 28000000 		.4byte	.LVL21
 2513 0c68 730C0000 		.4byte	0xc73
 2514 0c6c 26       		.uleb128 0x26
 2515 0c6d 01       		.uleb128 0x1
 2516 0c6e 50       		.byte	0x50
 2517 0c6f 02       		.uleb128 0x2
 2518 0c70 74       		.byte	0x74
 2519 0c71 00       		.sleb128 0
 2520 0c72 00       		.byte	0
 2521 0c73 2A       		.uleb128 0x2a
 2522 0c74 32000000 		.4byte	.LVL23
 2523 0c78 7E110000 		.4byte	0x117e
 2524 0c7c 26       		.uleb128 0x26
 2525 0c7d 01       		.uleb128 0x1
 2526 0c7e 51       		.byte	0x51
 2527 0c7f 02       		.uleb128 0x2
 2528 0c80 75       		.byte	0x75
 2529 0c81 00       		.sleb128 0
 2530 0c82 26       		.uleb128 0x26
 2531 0c83 01       		.uleb128 0x1
 2532 0c84 50       		.byte	0x50
 2533 0c85 02       		.uleb128 0x2
 2534 0c86 74       		.byte	0x74
 2535 0c87 00       		.sleb128 0
 2536 0c88 00       		.byte	0
 2537 0c89 00       		.byte	0
 2538 0c8a 15       		.uleb128 0x15
 2539 0c8b 01060000 		.4byte	0x601
 2540 0c8f 9A0C0000 		.4byte	0xc9a
 2541 0c93 16       		.uleb128 0x16
 2542 0c94 5A040000 		.4byte	0x45a
 2543 0c98 0F       		.byte	0xf
 2544 0c99 00       		.byte	0
 2545 0c9a 13       		.uleb128 0x13
 2546 0c9b 8A0C0000 		.4byte	0xc8a
 2547 0c9f 37       		.uleb128 0x37
 2548 0ca0 4F060000 		.4byte	.LASF139
 2549 0ca4 01       		.byte	0x1
 2550 0ca5 1301     		.2byte	0x113
 2551 0ca7 00000000 		.4byte	.LFB175
 2552 0cab 1C000000 		.4byte	.LFE175-.LFB175
ARM GAS  /tmp/ccAsEkjn.s 			page 46


 2553 0caf 01       		.uleb128 0x1
 2554 0cb0 9C       		.byte	0x9c
 2555 0cb1 2D0D0000 		.4byte	0xd2d
 2556 0cb5 38       		.uleb128 0x38
 2557 0cb6 6F717000 		.ascii	"oqp\000"
 2558 0cba 01       		.byte	0x1
 2559 0cbb 1301     		.2byte	0x113
 2560 0cbd 05080000 		.4byte	0x805
 2561 0cc1 01       		.uleb128 0x1
 2562 0cc2 50       		.byte	0x50
 2563 0cc3 38       		.uleb128 0x38
 2564 0cc4 627000   		.ascii	"bp\000"
 2565 0cc7 01       		.byte	0x1
 2566 0cc8 1301     		.2byte	0x113
 2567 0cca D8060000 		.4byte	0x6d8
 2568 0cce 01       		.uleb128 0x1
 2569 0ccf 51       		.byte	0x51
 2570 0cd0 39       		.uleb128 0x39
 2571 0cd1 A6060000 		.4byte	.LASF130
 2572 0cd5 01       		.byte	0x1
 2573 0cd6 1301     		.2byte	0x113
 2574 0cd8 28000000 		.4byte	0x28
 2575 0cdc 01       		.uleb128 0x1
 2576 0cdd 52       		.byte	0x52
 2577 0cde 39       		.uleb128 0x39
 2578 0cdf 1C000000 		.4byte	.LASF140
 2579 0ce3 01       		.byte	0x1
 2580 0ce4 1401     		.2byte	0x114
 2581 0ce6 B1060000 		.4byte	0x6b1
 2582 0cea 01       		.uleb128 0x1
 2583 0ceb 53       		.byte	0x53
 2584 0cec 3A       		.uleb128 0x3a
 2585 0ced EA010000 		.4byte	.LASF132
 2586 0cf1 01       		.byte	0x1
 2587 0cf2 1401     		.2byte	0x114
 2588 0cf4 24030000 		.4byte	0x324
 2589 0cf8 3A020000 		.4byte	.LLST19
 2590 0cfc 23       		.uleb128 0x23
 2591 0cfd 4B070000 		.4byte	0x74b
 2592 0d01 0A000000 		.4byte	.LBB168
 2593 0d05 04000000 		.4byte	.LBE168-.LBB168
 2594 0d09 01       		.byte	0x1
 2595 0d0a 1601     		.2byte	0x116
 2596 0d0c 22       		.uleb128 0x22
 2597 0d0d 58070000 		.4byte	0x758
 2598 0d11 01       		.uleb128 0x1
 2599 0d12 50       		.byte	0x50
 2600 0d13 23       		.uleb128 0x23
 2601 0d14 2B070000 		.4byte	0x72b
 2602 0d18 0A000000 		.4byte	.LBB169
 2603 0d1c 04000000 		.4byte	.LBE169-.LBB169
 2604 0d20 0F       		.byte	0xf
 2605 0d21 1801     		.2byte	0x118
 2606 0d23 22       		.uleb128 0x22
 2607 0d24 38070000 		.4byte	0x738
 2608 0d28 01       		.uleb128 0x1
 2609 0d29 50       		.byte	0x50
ARM GAS  /tmp/ccAsEkjn.s 			page 47


 2610 0d2a 00       		.byte	0
 2611 0d2b 00       		.byte	0
 2612 0d2c 00       		.byte	0
 2613 0d2d 37       		.uleb128 0x37
 2614 0d2e 2D060000 		.4byte	.LASF141
 2615 0d32 01       		.byte	0x1
 2616 0d33 2B01     		.2byte	0x12b
 2617 0d35 00000000 		.4byte	.LFB176
 2618 0d39 14000000 		.4byte	.LFE176-.LFB176
 2619 0d3d 01       		.uleb128 0x1
 2620 0d3e 9C       		.byte	0x9c
 2621 0d3f 6B0D0000 		.4byte	0xd6b
 2622 0d43 3B       		.uleb128 0x3b
 2623 0d44 6F717000 		.ascii	"oqp\000"
 2624 0d48 01       		.byte	0x1
 2625 0d49 2B01     		.2byte	0x12b
 2626 0d4b 05080000 		.4byte	0x805
 2627 0d4f 5A020000 		.4byte	.LLST20
 2628 0d53 25       		.uleb128 0x25
 2629 0d54 14000000 		.4byte	.LVL34
 2630 0d58 52110000 		.4byte	0x1152
 2631 0d5c 26       		.uleb128 0x26
 2632 0d5d 01       		.uleb128 0x1
 2633 0d5e 51       		.byte	0x51
 2634 0d5f 02       		.uleb128 0x2
 2635 0d60 09       		.byte	0x9
 2636 0d61 FE       		.byte	0xfe
 2637 0d62 26       		.uleb128 0x26
 2638 0d63 01       		.uleb128 0x1
 2639 0d64 50       		.byte	0x50
 2640 0d65 03       		.uleb128 0x3
 2641 0d66 F3       		.byte	0xf3
 2642 0d67 01       		.uleb128 0x1
 2643 0d68 50       		.byte	0x50
 2644 0d69 00       		.byte	0
 2645 0d6a 00       		.byte	0
 2646 0d6b 3C       		.uleb128 0x3c
 2647 0d6c 00000000 		.4byte	.LASF142
 2648 0d70 01       		.byte	0x1
 2649 0d71 4B01     		.2byte	0x14b
 2650 0d73 0C010000 		.4byte	0x10c
 2651 0d77 00000000 		.4byte	.LFB177
 2652 0d7b 52000000 		.4byte	.LFE177-.LFB177
 2653 0d7f 01       		.uleb128 0x1
 2654 0d80 9C       		.byte	0x9c
 2655 0d81 E40E0000 		.4byte	0xee4
 2656 0d85 3B       		.uleb128 0x3b
 2657 0d86 6F717000 		.ascii	"oqp\000"
 2658 0d8a 01       		.byte	0x1
 2659 0d8b 4B01     		.2byte	0x14b
 2660 0d8d 05080000 		.4byte	0x805
 2661 0d91 7B020000 		.4byte	.LLST21
 2662 0d95 3B       		.uleb128 0x3b
 2663 0d96 6200     		.ascii	"b\000"
 2664 0d98 01       		.byte	0x1
 2665 0d99 4B01     		.2byte	0x14b
 2666 0d9b 9E000000 		.4byte	0x9e
ARM GAS  /tmp/ccAsEkjn.s 			page 48


 2667 0d9f 99020000 		.4byte	.LLST22
 2668 0da3 3A       		.uleb128 0x3a
 2669 0da4 86020000 		.4byte	.LASF137
 2670 0da8 01       		.byte	0x1
 2671 0da9 4B01     		.2byte	0x14b
 2672 0dab 2D010000 		.4byte	0x12d
 2673 0daf BA020000 		.4byte	.LLST23
 2674 0db3 3D       		.uleb128 0x3d
 2675 0db4 90070000 		.4byte	0x790
 2676 0db8 08000000 		.4byte	.LBB171
 2677 0dbc 08000000 		.4byte	.LBE171-.LBB171
 2678 0dc0 01       		.byte	0x1
 2679 0dc1 4D01     		.2byte	0x14d
 2680 0dc3 F00D0000 		.4byte	0xdf0
 2681 0dc7 23       		.uleb128 0x23
 2682 0dc8 19070000 		.4byte	0x719
 2683 0dcc 08000000 		.4byte	.LBB172
 2684 0dd0 08000000 		.4byte	.LBE172-.LBB172
 2685 0dd4 10       		.byte	0x10
 2686 0dd5 5C01     		.2byte	0x15c
 2687 0dd7 23       		.uleb128 0x23
 2688 0dd8 FF060000 		.4byte	0x6ff
 2689 0ddc 08000000 		.4byte	.LBB173
 2690 0de0 08000000 		.4byte	.LBE173-.LBB173
 2691 0de4 0B       		.byte	0xb
 2692 0de5 D001     		.2byte	0x1d0
 2693 0de7 2D       		.uleb128 0x2d
 2694 0de8 0C070000 		.4byte	0x70c
 2695 0dec 20       		.byte	0x20
 2696 0ded 00       		.byte	0
 2697 0dee 00       		.byte	0
 2698 0def 00       		.byte	0
 2699 0df0 2E       		.uleb128 0x2e
 2700 0df1 80000000 		.4byte	.Ldebug_ranges0+0x80
 2701 0df5 6C0E0000 		.4byte	0xe6c
 2702 0df9 3E       		.uleb128 0x3e
 2703 0dfa 6D736700 		.ascii	"msg\000"
 2704 0dfe 01       		.byte	0x1
 2705 0dff 4F01     		.2byte	0x14f
 2706 0e01 0C010000 		.4byte	0x10c
 2707 0e05 D8020000 		.4byte	.LLST24
 2708 0e09 3D       		.uleb128 0x3d
 2709 0e0a 99070000 		.4byte	0x799
 2710 0e0e 4C000000 		.4byte	.LBB176
 2711 0e12 04000000 		.4byte	.LBE176-.LBB176
 2712 0e16 01       		.byte	0x1
 2713 0e17 5101     		.2byte	0x151
 2714 0e19 550E0000 		.4byte	0xe55
 2715 0e1d 30       		.uleb128 0x30
 2716 0e1e 4C000000 		.4byte	.LBB177
 2717 0e22 04000000 		.4byte	.LBE177-.LBB177
 2718 0e26 31       		.uleb128 0x31
 2719 0e27 A6070000 		.4byte	0x7a6
 2720 0e2b 23       		.uleb128 0x23
 2721 0e2c 22070000 		.4byte	0x722
 2722 0e30 4C000000 		.4byte	.LBB178
 2723 0e34 04000000 		.4byte	.LBE178-.LBB178
ARM GAS  /tmp/ccAsEkjn.s 			page 49


 2724 0e38 10       		.byte	0x10
 2725 0e39 7301     		.2byte	0x173
 2726 0e3b 23       		.uleb128 0x23
 2727 0e3c FF060000 		.4byte	0x6ff
 2728 0e40 4C000000 		.4byte	.LBB179
 2729 0e44 04000000 		.4byte	.LBE179-.LBB179
 2730 0e48 0B       		.byte	0xb
 2731 0e49 E301     		.2byte	0x1e3
 2732 0e4b 2D       		.uleb128 0x2d
 2733 0e4c 0C070000 		.4byte	0x70c
 2734 0e50 00       		.byte	0
 2735 0e51 00       		.byte	0
 2736 0e52 00       		.byte	0
 2737 0e53 00       		.byte	0
 2738 0e54 00       		.byte	0
 2739 0e55 2A       		.uleb128 0x2a
 2740 0e56 18000000 		.4byte	.LVL37
 2741 0e5a 7E110000 		.4byte	0x117e
 2742 0e5e 26       		.uleb128 0x26
 2743 0e5f 01       		.uleb128 0x1
 2744 0e60 51       		.byte	0x51
 2745 0e61 02       		.uleb128 0x2
 2746 0e62 76       		.byte	0x76
 2747 0e63 00       		.sleb128 0
 2748 0e64 26       		.uleb128 0x26
 2749 0e65 01       		.uleb128 0x1
 2750 0e66 50       		.byte	0x50
 2751 0e67 02       		.uleb128 0x2
 2752 0e68 74       		.byte	0x74
 2753 0e69 00       		.sleb128 0
 2754 0e6a 00       		.byte	0
 2755 0e6b 00       		.byte	0
 2756 0e6c 3D       		.uleb128 0x3d
 2757 0e6d E7070000 		.4byte	0x7e7
 2758 0e71 1C000000 		.4byte	.LBB181
 2759 0e75 02000000 		.4byte	.LBE181-.LBB181
 2760 0e79 01       		.byte	0x1
 2761 0e7a 4E01     		.2byte	0x14e
 2762 0e7c 880E0000 		.4byte	0xe88
 2763 0e80 22       		.uleb128 0x22
 2764 0e81 F8070000 		.4byte	0x7f8
 2765 0e85 01       		.uleb128 0x1
 2766 0e86 54       		.byte	0x54
 2767 0e87 00       		.byte	0
 2768 0e88 3D       		.uleb128 0x3d
 2769 0e89 99070000 		.4byte	0x799
 2770 0e8d 44000000 		.4byte	.LBB183
 2771 0e91 06000000 		.4byte	.LBE183-.LBB183
 2772 0e95 01       		.byte	0x1
 2773 0e96 5F01     		.2byte	0x15f
 2774 0e98 D70E0000 		.4byte	0xed7
 2775 0e9c 30       		.uleb128 0x30
 2776 0e9d 44000000 		.4byte	.LBB184
 2777 0ea1 06000000 		.4byte	.LBE184-.LBB184
 2778 0ea5 31       		.uleb128 0x31
 2779 0ea6 A6070000 		.4byte	0x7a6
 2780 0eaa 23       		.uleb128 0x23
ARM GAS  /tmp/ccAsEkjn.s 			page 50


 2781 0eab 22070000 		.4byte	0x722
 2782 0eaf 44000000 		.4byte	.LBB185
 2783 0eb3 06000000 		.4byte	.LBE185-.LBB185
 2784 0eb7 10       		.byte	0x10
 2785 0eb8 7301     		.2byte	0x173
 2786 0eba 23       		.uleb128 0x23
 2787 0ebb FF060000 		.4byte	0x6ff
 2788 0ebf 44000000 		.4byte	.LBB186
 2789 0ec3 06000000 		.4byte	.LBE186-.LBB186
 2790 0ec7 0B       		.byte	0xb
 2791 0ec8 E301     		.2byte	0x1e3
 2792 0eca 29       		.uleb128 0x29
 2793 0ecb 0C070000 		.4byte	0x70c
 2794 0ecf F6020000 		.4byte	.LLST25
 2795 0ed3 00       		.byte	0
 2796 0ed4 00       		.byte	0
 2797 0ed5 00       		.byte	0
 2798 0ed6 00       		.byte	0
 2799 0ed7 32       		.uleb128 0x32
 2800 0ed8 44000000 		.4byte	.LVL39
 2801 0edc 26       		.uleb128 0x26
 2802 0edd 01       		.uleb128 0x1
 2803 0ede 50       		.byte	0x50
 2804 0edf 02       		.uleb128 0x2
 2805 0ee0 74       		.byte	0x74
 2806 0ee1 00       		.sleb128 0
 2807 0ee2 00       		.byte	0
 2808 0ee3 00       		.byte	0
 2809 0ee4 3C       		.uleb128 0x3c
 2810 0ee5 95010000 		.4byte	.LASF143
 2811 0ee9 01       		.byte	0x1
 2812 0eea 6E01     		.2byte	0x16e
 2813 0eec 0C010000 		.4byte	0x10c
 2814 0ef0 00000000 		.4byte	.LFB178
 2815 0ef4 36000000 		.4byte	.LFE178-.LFB178
 2816 0ef8 01       		.uleb128 0x1
 2817 0ef9 9C       		.byte	0x9c
 2818 0efa 4A0F0000 		.4byte	0xf4a
 2819 0efe 3B       		.uleb128 0x3b
 2820 0eff 6F717000 		.ascii	"oqp\000"
 2821 0f03 01       		.byte	0x1
 2822 0f04 6E01     		.2byte	0x16e
 2823 0f06 05080000 		.4byte	0x805
 2824 0f0a 0A030000 		.4byte	.LLST26
 2825 0f0e 3E       		.uleb128 0x3e
 2826 0f0f 6200     		.ascii	"b\000"
 2827 0f11 01       		.byte	0x1
 2828 0f12 6F01     		.2byte	0x16f
 2829 0f14 9E000000 		.4byte	0x9e
 2830 0f18 44030000 		.4byte	.LLST27
 2831 0f1c 3F       		.uleb128 0x3f
 2832 0f1d 0B080000 		.4byte	0x80b
 2833 0f21 02000000 		.4byte	.LBB189
 2834 0f25 98000000 		.4byte	.Ldebug_ranges0+0x98
 2835 0f29 01       		.byte	0x1
 2836 0f2a 7301     		.2byte	0x173
 2837 0f2c 3A0F0000 		.4byte	0xf3a
ARM GAS  /tmp/ccAsEkjn.s 			page 51


 2838 0f30 29       		.uleb128 0x29
 2839 0f31 1C080000 		.4byte	0x81c
 2840 0f35 0A030000 		.4byte	.LLST26
 2841 0f39 00       		.byte	0
 2842 0f3a 2A       		.uleb128 0x2a
 2843 0f3b 26000000 		.4byte	.LVL43
 2844 0f3f 68110000 		.4byte	0x1168
 2845 0f43 26       		.uleb128 0x26
 2846 0f44 01       		.uleb128 0x1
 2847 0f45 51       		.byte	0x51
 2848 0f46 01       		.uleb128 0x1
 2849 0f47 30       		.byte	0x30
 2850 0f48 00       		.byte	0
 2851 0f49 00       		.byte	0
 2852 0f4a 3C       		.uleb128 0x3c
 2853 0f4b FA020000 		.4byte	.LASF144
 2854 0f4f 01       		.byte	0x1
 2855 0f50 9A01     		.2byte	0x19a
 2856 0f52 28000000 		.4byte	0x28
 2857 0f56 00000000 		.4byte	.LFB179
 2858 0f5a 80000000 		.4byte	.LFE179-.LFB179
 2859 0f5e 01       		.uleb128 0x1
 2860 0f5f 9C       		.byte	0x9c
 2861 0f60 21110000 		.4byte	0x1121
 2862 0f64 3B       		.uleb128 0x3b
 2863 0f65 6F717000 		.ascii	"oqp\000"
 2864 0f69 01       		.byte	0x1
 2865 0f6a 9A01     		.2byte	0x19a
 2866 0f6c 05080000 		.4byte	0x805
 2867 0f70 57030000 		.4byte	.LLST29
 2868 0f74 3B       		.uleb128 0x3b
 2869 0f75 627000   		.ascii	"bp\000"
 2870 0f78 01       		.byte	0x1
 2871 0f79 9A01     		.2byte	0x19a
 2872 0f7b F4060000 		.4byte	0x6f4
 2873 0f7f 75030000 		.4byte	.LLST30
 2874 0f83 3B       		.uleb128 0x3b
 2875 0f84 6E00     		.ascii	"n\000"
 2876 0f86 01       		.byte	0x1
 2877 0f87 9B01     		.2byte	0x19b
 2878 0f89 28000000 		.4byte	0x28
 2879 0f8d B4030000 		.4byte	.LLST31
 2880 0f91 3A       		.uleb128 0x3a
 2881 0f92 86020000 		.4byte	.LASF137
 2882 0f96 01       		.byte	0x1
 2883 0f97 9B01     		.2byte	0x19b
 2884 0f99 2D010000 		.4byte	0x12d
 2885 0f9d EA030000 		.4byte	.LLST32
 2886 0fa1 40       		.uleb128 0x40
 2887 0fa2 6E667900 		.ascii	"nfy\000"
 2888 0fa6 01       		.byte	0x1
 2889 0fa7 9C01     		.2byte	0x19c
 2890 0fa9 B1060000 		.4byte	0x6b1
 2891 0fad 01       		.uleb128 0x1
 2892 0fae 57       		.byte	0x57
 2893 0faf 3E       		.uleb128 0x3e
 2894 0fb0 7700     		.ascii	"w\000"
ARM GAS  /tmp/ccAsEkjn.s 			page 52


 2895 0fb2 01       		.byte	0x1
 2896 0fb3 9D01     		.2byte	0x19d
 2897 0fb5 28000000 		.4byte	0x28
 2898 0fb9 09040000 		.4byte	.LLST33
 2899 0fbd 34       		.uleb128 0x34
 2900 0fbe 79040000 		.4byte	.LASF145
 2901 0fc2 31110000 		.4byte	0x1131
 2902 0fc6 3D       		.uleb128 0x3d
 2903 0fc7 90070000 		.4byte	0x790
 2904 0fcb 10000000 		.4byte	.LBB193
 2905 0fcf 08000000 		.4byte	.LBE193-.LBB193
 2906 0fd3 01       		.byte	0x1
 2907 0fd4 A101     		.2byte	0x1a1
 2908 0fd6 03100000 		.4byte	0x1003
 2909 0fda 23       		.uleb128 0x23
 2910 0fdb 19070000 		.4byte	0x719
 2911 0fdf 10000000 		.4byte	.LBB194
 2912 0fe3 08000000 		.4byte	.LBE194-.LBB194
 2913 0fe7 10       		.byte	0x10
 2914 0fe8 5C01     		.2byte	0x15c
 2915 0fea 23       		.uleb128 0x23
 2916 0feb FF060000 		.4byte	0x6ff
 2917 0fef 10000000 		.4byte	.LBB195
 2918 0ff3 08000000 		.4byte	.LBE195-.LBB195
 2919 0ff7 0B       		.byte	0xb
 2920 0ff8 D001     		.2byte	0x1d0
 2921 0ffa 2D       		.uleb128 0x2d
 2922 0ffb 0C070000 		.4byte	0x70c
 2923 0fff 20       		.byte	0x20
 2924 1000 00       		.byte	0
 2925 1001 00       		.byte	0
 2926 1002 00       		.byte	0
 2927 1003 3F       		.uleb128 0x3f
 2928 1004 99070000 		.4byte	0x799
 2929 1008 1A000000 		.4byte	.LBB197
 2930 100c B0000000 		.4byte	.Ldebug_ranges0+0xb0
 2931 1010 01       		.byte	0x1
 2932 1011 B301     		.2byte	0x1b3
 2933 1013 4E100000 		.4byte	0x104e
 2934 1017 35       		.uleb128 0x35
 2935 1018 B0000000 		.4byte	.Ldebug_ranges0+0xb0
 2936 101c 31       		.uleb128 0x31
 2937 101d A6070000 		.4byte	0x7a6
 2938 1021 2C       		.uleb128 0x2c
 2939 1022 22070000 		.4byte	0x722
 2940 1026 1A000000 		.4byte	.LBB199
 2941 102a B0000000 		.4byte	.Ldebug_ranges0+0xb0
 2942 102e 10       		.byte	0x10
 2943 102f 7301     		.2byte	0x173
 2944 1031 2C       		.uleb128 0x2c
 2945 1032 FF060000 		.4byte	0x6ff
 2946 1036 1A000000 		.4byte	.LBB200
 2947 103a B0000000 		.4byte	.Ldebug_ranges0+0xb0
 2948 103e 0B       		.byte	0xb
 2949 103f E301     		.2byte	0x1e3
 2950 1041 29       		.uleb128 0x29
 2951 1042 0C070000 		.4byte	0x70c
ARM GAS  /tmp/ccAsEkjn.s 			page 53


 2952 1046 28040000 		.4byte	.LLST34
 2953 104a 00       		.byte	0
 2954 104b 00       		.byte	0
 2955 104c 00       		.byte	0
 2956 104d 00       		.byte	0
 2957 104e 3F       		.uleb128 0x3f
 2958 104f E7070000 		.4byte	0x7e7
 2959 1053 1C000000 		.4byte	.LBB206
 2960 1057 C8000000 		.4byte	.Ldebug_ranges0+0xc8
 2961 105b 01       		.byte	0x1
 2962 105c A301     		.2byte	0x1a3
 2963 105e 6A100000 		.4byte	0x106a
 2964 1062 22       		.uleb128 0x22
 2965 1063 F8070000 		.4byte	0x7f8
 2966 1067 01       		.uleb128 0x1
 2967 1068 54       		.byte	0x54
 2968 1069 00       		.byte	0
 2969 106a 3D       		.uleb128 0x3d
 2970 106b 90070000 		.4byte	0x790
 2971 106f 54000000 		.4byte	.LBB210
 2972 1073 04000000 		.4byte	.LBE210-.LBB210
 2973 1077 01       		.byte	0x1
 2974 1078 B901     		.2byte	0x1b9
 2975 107a AA100000 		.4byte	0x10aa
 2976 107e 23       		.uleb128 0x23
 2977 107f 19070000 		.4byte	0x719
 2978 1083 54000000 		.4byte	.LBB211
 2979 1087 04000000 		.4byte	.LBE211-.LBB211
 2980 108b 10       		.byte	0x10
 2981 108c 5C01     		.2byte	0x15c
 2982 108e 23       		.uleb128 0x23
 2983 108f FF060000 		.4byte	0x6ff
 2984 1093 54000000 		.4byte	.LBB212
 2985 1097 04000000 		.4byte	.LBE212-.LBB212
 2986 109b 0B       		.byte	0xb
 2987 109c D001     		.2byte	0x1d0
 2988 109e 29       		.uleb128 0x29
 2989 109f 0C070000 		.4byte	0x70c
 2990 10a3 3C040000 		.4byte	.LLST35
 2991 10a7 00       		.byte	0
 2992 10a8 00       		.byte	0
 2993 10a9 00       		.byte	0
 2994 10aa 3D       		.uleb128 0x3d
 2995 10ab 99070000 		.4byte	0x799
 2996 10af 74000000 		.4byte	.LBB215
 2997 10b3 04000000 		.4byte	.LBE215-.LBB215
 2998 10b7 01       		.byte	0x1
 2999 10b8 A501     		.2byte	0x1a5
 3000 10ba F9100000 		.4byte	0x10f9
 3001 10be 30       		.uleb128 0x30
 3002 10bf 74000000 		.4byte	.LBB216
 3003 10c3 04000000 		.4byte	.LBE216-.LBB216
 3004 10c7 31       		.uleb128 0x31
 3005 10c8 A6070000 		.4byte	0x7a6
 3006 10cc 23       		.uleb128 0x23
 3007 10cd 22070000 		.4byte	0x722
 3008 10d1 74000000 		.4byte	.LBB217
ARM GAS  /tmp/ccAsEkjn.s 			page 54


 3009 10d5 04000000 		.4byte	.LBE217-.LBB217
 3010 10d9 10       		.byte	0x10
 3011 10da 7301     		.2byte	0x173
 3012 10dc 23       		.uleb128 0x23
 3013 10dd FF060000 		.4byte	0x6ff
 3014 10e1 74000000 		.4byte	.LBB218
 3015 10e5 04000000 		.4byte	.LBE218-.LBB218
 3016 10e9 0B       		.byte	0xb
 3017 10ea E301     		.2byte	0x1e3
 3018 10ec 29       		.uleb128 0x29
 3019 10ed 0C070000 		.4byte	0x70c
 3020 10f1 51040000 		.4byte	.LLST36
 3021 10f5 00       		.byte	0
 3022 10f6 00       		.byte	0
 3023 10f7 00       		.byte	0
 3024 10f8 00       		.byte	0
 3025 10f9 36       		.uleb128 0x36
 3026 10fa 48000000 		.4byte	.LVL50
 3027 10fe 09110000 		.4byte	0x1109
 3028 1102 26       		.uleb128 0x26
 3029 1103 01       		.uleb128 0x1
 3030 1104 50       		.byte	0x50
 3031 1105 02       		.uleb128 0x2
 3032 1106 74       		.byte	0x74
 3033 1107 00       		.sleb128 0
 3034 1108 00       		.byte	0
 3035 1109 2A       		.uleb128 0x2a
 3036 110a 6E000000 		.4byte	.LVL57
 3037 110e 7E110000 		.4byte	0x117e
 3038 1112 26       		.uleb128 0x26
 3039 1113 01       		.uleb128 0x1
 3040 1114 51       		.byte	0x51
 3041 1115 03       		.uleb128 0x3
 3042 1116 91       		.byte	0x91
 3043 1117 54       		.sleb128 -44
 3044 1118 06       		.byte	0x6
 3045 1119 26       		.uleb128 0x26
 3046 111a 01       		.uleb128 0x1
 3047 111b 50       		.byte	0x50
 3048 111c 02       		.uleb128 0x2
 3049 111d 74       		.byte	0x74
 3050 111e 00       		.sleb128 0
 3051 111f 00       		.byte	0
 3052 1120 00       		.byte	0
 3053 1121 15       		.uleb128 0x15
 3054 1122 01060000 		.4byte	0x601
 3055 1126 31110000 		.4byte	0x1131
 3056 112a 16       		.uleb128 0x16
 3057 112b 5A040000 		.4byte	0x45a
 3058 112f 10       		.byte	0x10
 3059 1130 00       		.byte	0
 3060 1131 13       		.uleb128 0x13
 3061 1132 21110000 		.4byte	0x1121
 3062 1136 41       		.uleb128 0x41
 3063 1137 E3000000 		.4byte	.LASF146
 3064 113b 11       		.byte	0x11
 3065 113c 5506     		.2byte	0x655
ARM GAS  /tmp/ccAsEkjn.s 			page 55


 3066 113e 42110000 		.4byte	0x1142
 3067 1142 14       		.uleb128 0x14
 3068 1143 A9000000 		.4byte	0xa9
 3069 1147 42       		.uleb128 0x42
 3070 1148 636800   		.ascii	"ch\000"
 3071 114b 02       		.byte	0x2
 3072 114c 0902     		.2byte	0x209
 3073 114e F3030000 		.4byte	0x3f3
 3074 1152 43       		.uleb128 0x43
 3075 1153 38000000 		.4byte	.LASF147
 3076 1157 0F       		.byte	0xf
 3077 1158 94       		.byte	0x94
 3078 1159 68110000 		.4byte	0x1168
 3079 115d 0C       		.uleb128 0xc
 3080 115e 45070000 		.4byte	0x745
 3081 1162 0C       		.uleb128 0xc
 3082 1163 0C010000 		.4byte	0x10c
 3083 1167 00       		.byte	0
 3084 1168 43       		.uleb128 0x43
 3085 1169 AF010000 		.4byte	.LASF148
 3086 116d 0F       		.byte	0xf
 3087 116e 93       		.byte	0x93
 3088 116f 7E110000 		.4byte	0x117e
 3089 1173 0C       		.uleb128 0xc
 3090 1174 45070000 		.4byte	0x745
 3091 1178 0C       		.uleb128 0xc
 3092 1179 0C010000 		.4byte	0x10c
 3093 117d 00       		.byte	0
 3094 117e 44       		.uleb128 0x44
 3095 117f 01070000 		.4byte	.LASF149
 3096 1183 0F       		.byte	0xf
 3097 1184 92       		.byte	0x92
 3098 1185 0C010000 		.4byte	0x10c
 3099 1189 0C       		.uleb128 0xc
 3100 118a 45070000 		.4byte	0x745
 3101 118e 0C       		.uleb128 0xc
 3102 118f 2D010000 		.4byte	0x12d
 3103 1193 00       		.byte	0
 3104 1194 00       		.byte	0
 3105              		.section	.debug_abbrev,"",%progbits
 3106              	.Ldebug_abbrev0:
 3107 0000 01       		.uleb128 0x1
 3108 0001 11       		.uleb128 0x11
 3109 0002 01       		.byte	0x1
 3110 0003 25       		.uleb128 0x25
 3111 0004 0E       		.uleb128 0xe
 3112 0005 13       		.uleb128 0x13
 3113 0006 0B       		.uleb128 0xb
 3114 0007 03       		.uleb128 0x3
 3115 0008 0E       		.uleb128 0xe
 3116 0009 55       		.uleb128 0x55
 3117 000a 17       		.uleb128 0x17
 3118 000b 11       		.uleb128 0x11
 3119 000c 01       		.uleb128 0x1
 3120 000d 10       		.uleb128 0x10
 3121 000e 17       		.uleb128 0x17
 3122 000f 00       		.byte	0
ARM GAS  /tmp/ccAsEkjn.s 			page 56


 3123 0010 00       		.byte	0
 3124 0011 02       		.uleb128 0x2
 3125 0012 24       		.uleb128 0x24
 3126 0013 00       		.byte	0
 3127 0014 0B       		.uleb128 0xb
 3128 0015 0B       		.uleb128 0xb
 3129 0016 3E       		.uleb128 0x3e
 3130 0017 0B       		.uleb128 0xb
 3131 0018 03       		.uleb128 0x3
 3132 0019 08       		.uleb128 0x8
 3133 001a 00       		.byte	0
 3134 001b 00       		.byte	0
 3135 001c 03       		.uleb128 0x3
 3136 001d 16       		.uleb128 0x16
 3137 001e 00       		.byte	0
 3138 001f 03       		.uleb128 0x3
 3139 0020 0E       		.uleb128 0xe
 3140 0021 3A       		.uleb128 0x3a
 3141 0022 0B       		.uleb128 0xb
 3142 0023 3B       		.uleb128 0x3b
 3143 0024 0B       		.uleb128 0xb
 3144 0025 49       		.uleb128 0x49
 3145 0026 13       		.uleb128 0x13
 3146 0027 00       		.byte	0
 3147 0028 00       		.byte	0
 3148 0029 04       		.uleb128 0x4
 3149 002a 24       		.uleb128 0x24
 3150 002b 00       		.byte	0
 3151 002c 0B       		.uleb128 0xb
 3152 002d 0B       		.uleb128 0xb
 3153 002e 3E       		.uleb128 0x3e
 3154 002f 0B       		.uleb128 0xb
 3155 0030 03       		.uleb128 0x3
 3156 0031 0E       		.uleb128 0xe
 3157 0032 00       		.byte	0
 3158 0033 00       		.byte	0
 3159 0034 05       		.uleb128 0x5
 3160 0035 13       		.uleb128 0x13
 3161 0036 01       		.byte	0x1
 3162 0037 03       		.uleb128 0x3
 3163 0038 0E       		.uleb128 0xe
 3164 0039 0B       		.uleb128 0xb
 3165 003a 0B       		.uleb128 0xb
 3166 003b 3A       		.uleb128 0x3a
 3167 003c 0B       		.uleb128 0xb
 3168 003d 3B       		.uleb128 0x3b
 3169 003e 0B       		.uleb128 0xb
 3170 003f 01       		.uleb128 0x1
 3171 0040 13       		.uleb128 0x13
 3172 0041 00       		.byte	0
 3173 0042 00       		.byte	0
 3174 0043 06       		.uleb128 0x6
 3175 0044 0D       		.uleb128 0xd
 3176 0045 00       		.byte	0
 3177 0046 03       		.uleb128 0x3
 3178 0047 0E       		.uleb128 0xe
 3179 0048 3A       		.uleb128 0x3a
ARM GAS  /tmp/ccAsEkjn.s 			page 57


 3180 0049 0B       		.uleb128 0xb
 3181 004a 3B       		.uleb128 0x3b
 3182 004b 0B       		.uleb128 0xb
 3183 004c 49       		.uleb128 0x49
 3184 004d 13       		.uleb128 0x13
 3185 004e 38       		.uleb128 0x38
 3186 004f 0B       		.uleb128 0xb
 3187 0050 00       		.byte	0
 3188 0051 00       		.byte	0
 3189 0052 07       		.uleb128 0x7
 3190 0053 0D       		.uleb128 0xd
 3191 0054 00       		.byte	0
 3192 0055 03       		.uleb128 0x3
 3193 0056 08       		.uleb128 0x8
 3194 0057 3A       		.uleb128 0x3a
 3195 0058 0B       		.uleb128 0xb
 3196 0059 3B       		.uleb128 0x3b
 3197 005a 05       		.uleb128 0x5
 3198 005b 49       		.uleb128 0x49
 3199 005c 13       		.uleb128 0x13
 3200 005d 38       		.uleb128 0x38
 3201 005e 0B       		.uleb128 0xb
 3202 005f 00       		.byte	0
 3203 0060 00       		.byte	0
 3204 0061 08       		.uleb128 0x8
 3205 0062 0D       		.uleb128 0xd
 3206 0063 00       		.byte	0
 3207 0064 03       		.uleb128 0x3
 3208 0065 0E       		.uleb128 0xe
 3209 0066 3A       		.uleb128 0x3a
 3210 0067 0B       		.uleb128 0xb
 3211 0068 3B       		.uleb128 0x3b
 3212 0069 05       		.uleb128 0x5
 3213 006a 49       		.uleb128 0x49
 3214 006b 13       		.uleb128 0x13
 3215 006c 38       		.uleb128 0x38
 3216 006d 0B       		.uleb128 0xb
 3217 006e 00       		.byte	0
 3218 006f 00       		.byte	0
 3219 0070 09       		.uleb128 0x9
 3220 0071 0F       		.uleb128 0xf
 3221 0072 00       		.byte	0
 3222 0073 0B       		.uleb128 0xb
 3223 0074 0B       		.uleb128 0xb
 3224 0075 49       		.uleb128 0x49
 3225 0076 13       		.uleb128 0x13
 3226 0077 00       		.byte	0
 3227 0078 00       		.byte	0
 3228 0079 0A       		.uleb128 0xa
 3229 007a 13       		.uleb128 0x13
 3230 007b 01       		.byte	0x1
 3231 007c 03       		.uleb128 0x3
 3232 007d 0E       		.uleb128 0xe
 3233 007e 0B       		.uleb128 0xb
 3234 007f 0B       		.uleb128 0xb
 3235 0080 3A       		.uleb128 0x3a
 3236 0081 0B       		.uleb128 0xb
ARM GAS  /tmp/ccAsEkjn.s 			page 58


 3237 0082 3B       		.uleb128 0x3b
 3238 0083 05       		.uleb128 0x5
 3239 0084 01       		.uleb128 0x1
 3240 0085 13       		.uleb128 0x13
 3241 0086 00       		.byte	0
 3242 0087 00       		.byte	0
 3243 0088 0B       		.uleb128 0xb
 3244 0089 15       		.uleb128 0x15
 3245 008a 01       		.byte	0x1
 3246 008b 27       		.uleb128 0x27
 3247 008c 19       		.uleb128 0x19
 3248 008d 01       		.uleb128 0x1
 3249 008e 13       		.uleb128 0x13
 3250 008f 00       		.byte	0
 3251 0090 00       		.byte	0
 3252 0091 0C       		.uleb128 0xc
 3253 0092 05       		.uleb128 0x5
 3254 0093 00       		.byte	0
 3255 0094 49       		.uleb128 0x49
 3256 0095 13       		.uleb128 0x13
 3257 0096 00       		.byte	0
 3258 0097 00       		.byte	0
 3259 0098 0D       		.uleb128 0xd
 3260 0099 0F       		.uleb128 0xf
 3261 009a 00       		.byte	0
 3262 009b 0B       		.uleb128 0xb
 3263 009c 0B       		.uleb128 0xb
 3264 009d 00       		.byte	0
 3265 009e 00       		.byte	0
 3266 009f 0E       		.uleb128 0xe
 3267 00a0 13       		.uleb128 0x13
 3268 00a1 01       		.byte	0x1
 3269 00a2 03       		.uleb128 0x3
 3270 00a3 0E       		.uleb128 0xe
 3271 00a4 0B       		.uleb128 0xb
 3272 00a5 05       		.uleb128 0x5
 3273 00a6 3A       		.uleb128 0x3a
 3274 00a7 0B       		.uleb128 0xb
 3275 00a8 3B       		.uleb128 0x3b
 3276 00a9 05       		.uleb128 0x5
 3277 00aa 01       		.uleb128 0x1
 3278 00ab 13       		.uleb128 0x13
 3279 00ac 00       		.byte	0
 3280 00ad 00       		.byte	0
 3281 00ae 0F       		.uleb128 0xf
 3282 00af 0D       		.uleb128 0xd
 3283 00b0 00       		.byte	0
 3284 00b1 03       		.uleb128 0x3
 3285 00b2 08       		.uleb128 0x8
 3286 00b3 3A       		.uleb128 0x3a
 3287 00b4 0B       		.uleb128 0xb
 3288 00b5 3B       		.uleb128 0x3b
 3289 00b6 0B       		.uleb128 0xb
 3290 00b7 49       		.uleb128 0x49
 3291 00b8 13       		.uleb128 0x13
 3292 00b9 38       		.uleb128 0x38
 3293 00ba 0B       		.uleb128 0xb
ARM GAS  /tmp/ccAsEkjn.s 			page 59


 3294 00bb 00       		.byte	0
 3295 00bc 00       		.byte	0
 3296 00bd 10       		.uleb128 0x10
 3297 00be 13       		.uleb128 0x13
 3298 00bf 01       		.byte	0x1
 3299 00c0 0B       		.uleb128 0xb
 3300 00c1 0B       		.uleb128 0xb
 3301 00c2 3A       		.uleb128 0x3a
 3302 00c3 0B       		.uleb128 0xb
 3303 00c4 3B       		.uleb128 0x3b
 3304 00c5 0B       		.uleb128 0xb
 3305 00c6 01       		.uleb128 0x1
 3306 00c7 13       		.uleb128 0x13
 3307 00c8 00       		.byte	0
 3308 00c9 00       		.byte	0
 3309 00ca 11       		.uleb128 0x11
 3310 00cb 17       		.uleb128 0x17
 3311 00cc 01       		.byte	0x1
 3312 00cd 0B       		.uleb128 0xb
 3313 00ce 0B       		.uleb128 0xb
 3314 00cf 3A       		.uleb128 0x3a
 3315 00d0 0B       		.uleb128 0xb
 3316 00d1 3B       		.uleb128 0x3b
 3317 00d2 0B       		.uleb128 0xb
 3318 00d3 01       		.uleb128 0x1
 3319 00d4 13       		.uleb128 0x13
 3320 00d5 00       		.byte	0
 3321 00d6 00       		.byte	0
 3322 00d7 12       		.uleb128 0x12
 3323 00d8 0D       		.uleb128 0xd
 3324 00d9 00       		.byte	0
 3325 00da 03       		.uleb128 0x3
 3326 00db 0E       		.uleb128 0xe
 3327 00dc 3A       		.uleb128 0x3a
 3328 00dd 0B       		.uleb128 0xb
 3329 00de 3B       		.uleb128 0x3b
 3330 00df 05       		.uleb128 0x5
 3331 00e0 49       		.uleb128 0x49
 3332 00e1 13       		.uleb128 0x13
 3333 00e2 00       		.byte	0
 3334 00e3 00       		.byte	0
 3335 00e4 13       		.uleb128 0x13
 3336 00e5 26       		.uleb128 0x26
 3337 00e6 00       		.byte	0
 3338 00e7 49       		.uleb128 0x49
 3339 00e8 13       		.uleb128 0x13
 3340 00e9 00       		.byte	0
 3341 00ea 00       		.byte	0
 3342 00eb 14       		.uleb128 0x14
 3343 00ec 35       		.uleb128 0x35
 3344 00ed 00       		.byte	0
 3345 00ee 49       		.uleb128 0x49
 3346 00ef 13       		.uleb128 0x13
 3347 00f0 00       		.byte	0
 3348 00f1 00       		.byte	0
 3349 00f2 15       		.uleb128 0x15
 3350 00f3 01       		.uleb128 0x1
ARM GAS  /tmp/ccAsEkjn.s 			page 60


 3351 00f4 01       		.byte	0x1
 3352 00f5 49       		.uleb128 0x49
 3353 00f6 13       		.uleb128 0x13
 3354 00f7 01       		.uleb128 0x1
 3355 00f8 13       		.uleb128 0x13
 3356 00f9 00       		.byte	0
 3357 00fa 00       		.byte	0
 3358 00fb 16       		.uleb128 0x16
 3359 00fc 21       		.uleb128 0x21
 3360 00fd 00       		.byte	0
 3361 00fe 49       		.uleb128 0x49
 3362 00ff 13       		.uleb128 0x13
 3363 0100 2F       		.uleb128 0x2f
 3364 0101 0B       		.uleb128 0xb
 3365 0102 00       		.byte	0
 3366 0103 00       		.byte	0
 3367 0104 17       		.uleb128 0x17
 3368 0105 2E       		.uleb128 0x2e
 3369 0106 01       		.byte	0x1
 3370 0107 03       		.uleb128 0x3
 3371 0108 0E       		.uleb128 0xe
 3372 0109 3A       		.uleb128 0x3a
 3373 010a 0B       		.uleb128 0xb
 3374 010b 3B       		.uleb128 0x3b
 3375 010c 05       		.uleb128 0x5
 3376 010d 27       		.uleb128 0x27
 3377 010e 19       		.uleb128 0x19
 3378 010f 20       		.uleb128 0x20
 3379 0110 0B       		.uleb128 0xb
 3380 0111 01       		.uleb128 0x1
 3381 0112 13       		.uleb128 0x13
 3382 0113 00       		.byte	0
 3383 0114 00       		.byte	0
 3384 0115 18       		.uleb128 0x18
 3385 0116 05       		.uleb128 0x5
 3386 0117 00       		.byte	0
 3387 0118 03       		.uleb128 0x3
 3388 0119 0E       		.uleb128 0xe
 3389 011a 3A       		.uleb128 0x3a
 3390 011b 0B       		.uleb128 0xb
 3391 011c 3B       		.uleb128 0x3b
 3392 011d 05       		.uleb128 0x5
 3393 011e 49       		.uleb128 0x49
 3394 011f 13       		.uleb128 0x13
 3395 0120 00       		.byte	0
 3396 0121 00       		.byte	0
 3397 0122 19       		.uleb128 0x19
 3398 0123 2E       		.uleb128 0x2e
 3399 0124 00       		.byte	0
 3400 0125 03       		.uleb128 0x3
 3401 0126 0E       		.uleb128 0xe
 3402 0127 3A       		.uleb128 0x3a
 3403 0128 0B       		.uleb128 0xb
 3404 0129 3B       		.uleb128 0x3b
 3405 012a 05       		.uleb128 0x5
 3406 012b 27       		.uleb128 0x27
 3407 012c 19       		.uleb128 0x19
ARM GAS  /tmp/ccAsEkjn.s 			page 61


 3408 012d 20       		.uleb128 0x20
 3409 012e 0B       		.uleb128 0xb
 3410 012f 00       		.byte	0
 3411 0130 00       		.byte	0
 3412 0131 1A       		.uleb128 0x1a
 3413 0132 05       		.uleb128 0x5
 3414 0133 00       		.byte	0
 3415 0134 03       		.uleb128 0x3
 3416 0135 08       		.uleb128 0x8
 3417 0136 3A       		.uleb128 0x3a
 3418 0137 0B       		.uleb128 0xb
 3419 0138 3B       		.uleb128 0x3b
 3420 0139 05       		.uleb128 0x5
 3421 013a 49       		.uleb128 0x49
 3422 013b 13       		.uleb128 0x13
 3423 013c 00       		.byte	0
 3424 013d 00       		.byte	0
 3425 013e 1B       		.uleb128 0x1b
 3426 013f 2E       		.uleb128 0x2e
 3427 0140 01       		.byte	0x1
 3428 0141 03       		.uleb128 0x3
 3429 0142 0E       		.uleb128 0xe
 3430 0143 3A       		.uleb128 0x3a
 3431 0144 0B       		.uleb128 0xb
 3432 0145 3B       		.uleb128 0x3b
 3433 0146 05       		.uleb128 0x5
 3434 0147 27       		.uleb128 0x27
 3435 0148 19       		.uleb128 0x19
 3436 0149 49       		.uleb128 0x49
 3437 014a 13       		.uleb128 0x13
 3438 014b 20       		.uleb128 0x20
 3439 014c 0B       		.uleb128 0xb
 3440 014d 01       		.uleb128 0x1
 3441 014e 13       		.uleb128 0x13
 3442 014f 00       		.byte	0
 3443 0150 00       		.byte	0
 3444 0151 1C       		.uleb128 0x1c
 3445 0152 34       		.uleb128 0x34
 3446 0153 00       		.byte	0
 3447 0154 03       		.uleb128 0x3
 3448 0155 0E       		.uleb128 0xe
 3449 0156 49       		.uleb128 0x49
 3450 0157 13       		.uleb128 0x13
 3451 0158 34       		.uleb128 0x34
 3452 0159 19       		.uleb128 0x19
 3453 015a 1C       		.uleb128 0x1c
 3454 015b 0E       		.uleb128 0xe
 3455 015c 00       		.byte	0
 3456 015d 00       		.byte	0
 3457 015e 1D       		.uleb128 0x1d
 3458 015f 2E       		.uleb128 0x2e
 3459 0160 01       		.byte	0x1
 3460 0161 3F       		.uleb128 0x3f
 3461 0162 19       		.uleb128 0x19
 3462 0163 03       		.uleb128 0x3
 3463 0164 0E       		.uleb128 0xe
 3464 0165 3A       		.uleb128 0x3a
ARM GAS  /tmp/ccAsEkjn.s 			page 62


 3465 0166 0B       		.uleb128 0xb
 3466 0167 3B       		.uleb128 0x3b
 3467 0168 0B       		.uleb128 0xb
 3468 0169 27       		.uleb128 0x27
 3469 016a 19       		.uleb128 0x19
 3470 016b 11       		.uleb128 0x11
 3471 016c 01       		.uleb128 0x1
 3472 016d 12       		.uleb128 0x12
 3473 016e 06       		.uleb128 0x6
 3474 016f 40       		.uleb128 0x40
 3475 0170 18       		.uleb128 0x18
 3476 0171 9742     		.uleb128 0x2117
 3477 0173 19       		.uleb128 0x19
 3478 0174 01       		.uleb128 0x1
 3479 0175 13       		.uleb128 0x13
 3480 0176 00       		.byte	0
 3481 0177 00       		.byte	0
 3482 0178 1E       		.uleb128 0x1e
 3483 0179 05       		.uleb128 0x5
 3484 017a 00       		.byte	0
 3485 017b 03       		.uleb128 0x3
 3486 017c 08       		.uleb128 0x8
 3487 017d 3A       		.uleb128 0x3a
 3488 017e 0B       		.uleb128 0xb
 3489 017f 3B       		.uleb128 0x3b
 3490 0180 0B       		.uleb128 0xb
 3491 0181 49       		.uleb128 0x49
 3492 0182 13       		.uleb128 0x13
 3493 0183 02       		.uleb128 0x2
 3494 0184 18       		.uleb128 0x18
 3495 0185 00       		.byte	0
 3496 0186 00       		.byte	0
 3497 0187 1F       		.uleb128 0x1f
 3498 0188 05       		.uleb128 0x5
 3499 0189 00       		.byte	0
 3500 018a 03       		.uleb128 0x3
 3501 018b 0E       		.uleb128 0xe
 3502 018c 3A       		.uleb128 0x3a
 3503 018d 0B       		.uleb128 0xb
 3504 018e 3B       		.uleb128 0x3b
 3505 018f 0B       		.uleb128 0xb
 3506 0190 49       		.uleb128 0x49
 3507 0191 13       		.uleb128 0x13
 3508 0192 02       		.uleb128 0x2
 3509 0193 17       		.uleb128 0x17
 3510 0194 00       		.byte	0
 3511 0195 00       		.byte	0
 3512 0196 20       		.uleb128 0x20
 3513 0197 05       		.uleb128 0x5
 3514 0198 00       		.byte	0
 3515 0199 03       		.uleb128 0x3
 3516 019a 0E       		.uleb128 0xe
 3517 019b 3A       		.uleb128 0x3a
 3518 019c 0B       		.uleb128 0xb
 3519 019d 3B       		.uleb128 0x3b
 3520 019e 0B       		.uleb128 0xb
 3521 019f 49       		.uleb128 0x49
ARM GAS  /tmp/ccAsEkjn.s 			page 63


 3522 01a0 13       		.uleb128 0x13
 3523 01a1 02       		.uleb128 0x2
 3524 01a2 18       		.uleb128 0x18
 3525 01a3 00       		.byte	0
 3526 01a4 00       		.byte	0
 3527 01a5 21       		.uleb128 0x21
 3528 01a6 1D       		.uleb128 0x1d
 3529 01a7 01       		.byte	0x1
 3530 01a8 31       		.uleb128 0x31
 3531 01a9 13       		.uleb128 0x13
 3532 01aa 11       		.uleb128 0x11
 3533 01ab 01       		.uleb128 0x1
 3534 01ac 12       		.uleb128 0x12
 3535 01ad 06       		.uleb128 0x6
 3536 01ae 58       		.uleb128 0x58
 3537 01af 0B       		.uleb128 0xb
 3538 01b0 59       		.uleb128 0x59
 3539 01b1 0B       		.uleb128 0xb
 3540 01b2 00       		.byte	0
 3541 01b3 00       		.byte	0
 3542 01b4 22       		.uleb128 0x22
 3543 01b5 05       		.uleb128 0x5
 3544 01b6 00       		.byte	0
 3545 01b7 31       		.uleb128 0x31
 3546 01b8 13       		.uleb128 0x13
 3547 01b9 02       		.uleb128 0x2
 3548 01ba 18       		.uleb128 0x18
 3549 01bb 00       		.byte	0
 3550 01bc 00       		.byte	0
 3551 01bd 23       		.uleb128 0x23
 3552 01be 1D       		.uleb128 0x1d
 3553 01bf 01       		.byte	0x1
 3554 01c0 31       		.uleb128 0x31
 3555 01c1 13       		.uleb128 0x13
 3556 01c2 11       		.uleb128 0x11
 3557 01c3 01       		.uleb128 0x1
 3558 01c4 12       		.uleb128 0x12
 3559 01c5 06       		.uleb128 0x6
 3560 01c6 58       		.uleb128 0x58
 3561 01c7 0B       		.uleb128 0xb
 3562 01c8 59       		.uleb128 0x59
 3563 01c9 05       		.uleb128 0x5
 3564 01ca 00       		.byte	0
 3565 01cb 00       		.byte	0
 3566 01cc 24       		.uleb128 0x24
 3567 01cd 05       		.uleb128 0x5
 3568 01ce 00       		.byte	0
 3569 01cf 03       		.uleb128 0x3
 3570 01d0 08       		.uleb128 0x8
 3571 01d1 3A       		.uleb128 0x3a
 3572 01d2 0B       		.uleb128 0xb
 3573 01d3 3B       		.uleb128 0x3b
 3574 01d4 0B       		.uleb128 0xb
 3575 01d5 49       		.uleb128 0x49
 3576 01d6 13       		.uleb128 0x13
 3577 01d7 02       		.uleb128 0x2
 3578 01d8 17       		.uleb128 0x17
ARM GAS  /tmp/ccAsEkjn.s 			page 64


 3579 01d9 00       		.byte	0
 3580 01da 00       		.byte	0
 3581 01db 25       		.uleb128 0x25
 3582 01dc 898201   		.uleb128 0x4109
 3583 01df 01       		.byte	0x1
 3584 01e0 11       		.uleb128 0x11
 3585 01e1 01       		.uleb128 0x1
 3586 01e2 9542     		.uleb128 0x2115
 3587 01e4 19       		.uleb128 0x19
 3588 01e5 31       		.uleb128 0x31
 3589 01e6 13       		.uleb128 0x13
 3590 01e7 00       		.byte	0
 3591 01e8 00       		.byte	0
 3592 01e9 26       		.uleb128 0x26
 3593 01ea 8A8201   		.uleb128 0x410a
 3594 01ed 00       		.byte	0
 3595 01ee 02       		.uleb128 0x2
 3596 01ef 18       		.uleb128 0x18
 3597 01f0 9142     		.uleb128 0x2111
 3598 01f2 18       		.uleb128 0x18
 3599 01f3 00       		.byte	0
 3600 01f4 00       		.byte	0
 3601 01f5 27       		.uleb128 0x27
 3602 01f6 2E       		.uleb128 0x2e
 3603 01f7 01       		.byte	0x1
 3604 01f8 3F       		.uleb128 0x3f
 3605 01f9 19       		.uleb128 0x19
 3606 01fa 03       		.uleb128 0x3
 3607 01fb 0E       		.uleb128 0xe
 3608 01fc 3A       		.uleb128 0x3a
 3609 01fd 0B       		.uleb128 0xb
 3610 01fe 3B       		.uleb128 0x3b
 3611 01ff 0B       		.uleb128 0xb
 3612 0200 27       		.uleb128 0x27
 3613 0201 19       		.uleb128 0x19
 3614 0202 49       		.uleb128 0x49
 3615 0203 13       		.uleb128 0x13
 3616 0204 11       		.uleb128 0x11
 3617 0205 01       		.uleb128 0x1
 3618 0206 12       		.uleb128 0x12
 3619 0207 06       		.uleb128 0x6
 3620 0208 40       		.uleb128 0x40
 3621 0209 18       		.uleb128 0x18
 3622 020a 9742     		.uleb128 0x2117
 3623 020c 19       		.uleb128 0x19
 3624 020d 01       		.uleb128 0x1
 3625 020e 13       		.uleb128 0x13
 3626 020f 00       		.byte	0
 3627 0210 00       		.byte	0
 3628 0211 28       		.uleb128 0x28
 3629 0212 1D       		.uleb128 0x1d
 3630 0213 01       		.byte	0x1
 3631 0214 31       		.uleb128 0x31
 3632 0215 13       		.uleb128 0x13
 3633 0216 52       		.uleb128 0x52
 3634 0217 01       		.uleb128 0x1
 3635 0218 55       		.uleb128 0x55
ARM GAS  /tmp/ccAsEkjn.s 			page 65


 3636 0219 17       		.uleb128 0x17
 3637 021a 58       		.uleb128 0x58
 3638 021b 0B       		.uleb128 0xb
 3639 021c 59       		.uleb128 0x59
 3640 021d 0B       		.uleb128 0xb
 3641 021e 01       		.uleb128 0x1
 3642 021f 13       		.uleb128 0x13
 3643 0220 00       		.byte	0
 3644 0221 00       		.byte	0
 3645 0222 29       		.uleb128 0x29
 3646 0223 05       		.uleb128 0x5
 3647 0224 00       		.byte	0
 3648 0225 31       		.uleb128 0x31
 3649 0226 13       		.uleb128 0x13
 3650 0227 02       		.uleb128 0x2
 3651 0228 17       		.uleb128 0x17
 3652 0229 00       		.byte	0
 3653 022a 00       		.byte	0
 3654 022b 2A       		.uleb128 0x2a
 3655 022c 898201   		.uleb128 0x4109
 3656 022f 01       		.byte	0x1
 3657 0230 11       		.uleb128 0x11
 3658 0231 01       		.uleb128 0x1
 3659 0232 31       		.uleb128 0x31
 3660 0233 13       		.uleb128 0x13
 3661 0234 00       		.byte	0
 3662 0235 00       		.byte	0
 3663 0236 2B       		.uleb128 0x2b
 3664 0237 34       		.uleb128 0x34
 3665 0238 00       		.byte	0
 3666 0239 03       		.uleb128 0x3
 3667 023a 08       		.uleb128 0x8
 3668 023b 3A       		.uleb128 0x3a
 3669 023c 0B       		.uleb128 0xb
 3670 023d 3B       		.uleb128 0x3b
 3671 023e 0B       		.uleb128 0xb
 3672 023f 49       		.uleb128 0x49
 3673 0240 13       		.uleb128 0x13
 3674 0241 02       		.uleb128 0x2
 3675 0242 17       		.uleb128 0x17
 3676 0243 00       		.byte	0
 3677 0244 00       		.byte	0
 3678 0245 2C       		.uleb128 0x2c
 3679 0246 1D       		.uleb128 0x1d
 3680 0247 01       		.byte	0x1
 3681 0248 31       		.uleb128 0x31
 3682 0249 13       		.uleb128 0x13
 3683 024a 52       		.uleb128 0x52
 3684 024b 01       		.uleb128 0x1
 3685 024c 55       		.uleb128 0x55
 3686 024d 17       		.uleb128 0x17
 3687 024e 58       		.uleb128 0x58
 3688 024f 0B       		.uleb128 0xb
 3689 0250 59       		.uleb128 0x59
 3690 0251 05       		.uleb128 0x5
 3691 0252 00       		.byte	0
 3692 0253 00       		.byte	0
ARM GAS  /tmp/ccAsEkjn.s 			page 66


 3693 0254 2D       		.uleb128 0x2d
 3694 0255 05       		.uleb128 0x5
 3695 0256 00       		.byte	0
 3696 0257 31       		.uleb128 0x31
 3697 0258 13       		.uleb128 0x13
 3698 0259 1C       		.uleb128 0x1c
 3699 025a 0B       		.uleb128 0xb
 3700 025b 00       		.byte	0
 3701 025c 00       		.byte	0
 3702 025d 2E       		.uleb128 0x2e
 3703 025e 0B       		.uleb128 0xb
 3704 025f 01       		.byte	0x1
 3705 0260 55       		.uleb128 0x55
 3706 0261 17       		.uleb128 0x17
 3707 0262 01       		.uleb128 0x1
 3708 0263 13       		.uleb128 0x13
 3709 0264 00       		.byte	0
 3710 0265 00       		.byte	0
 3711 0266 2F       		.uleb128 0x2f
 3712 0267 1D       		.uleb128 0x1d
 3713 0268 01       		.byte	0x1
 3714 0269 31       		.uleb128 0x31
 3715 026a 13       		.uleb128 0x13
 3716 026b 11       		.uleb128 0x11
 3717 026c 01       		.uleb128 0x1
 3718 026d 12       		.uleb128 0x12
 3719 026e 06       		.uleb128 0x6
 3720 026f 58       		.uleb128 0x58
 3721 0270 0B       		.uleb128 0xb
 3722 0271 59       		.uleb128 0x59
 3723 0272 0B       		.uleb128 0xb
 3724 0273 01       		.uleb128 0x1
 3725 0274 13       		.uleb128 0x13
 3726 0275 00       		.byte	0
 3727 0276 00       		.byte	0
 3728 0277 30       		.uleb128 0x30
 3729 0278 0B       		.uleb128 0xb
 3730 0279 01       		.byte	0x1
 3731 027a 11       		.uleb128 0x11
 3732 027b 01       		.uleb128 0x1
 3733 027c 12       		.uleb128 0x12
 3734 027d 06       		.uleb128 0x6
 3735 027e 00       		.byte	0
 3736 027f 00       		.byte	0
 3737 0280 31       		.uleb128 0x31
 3738 0281 34       		.uleb128 0x34
 3739 0282 00       		.byte	0
 3740 0283 31       		.uleb128 0x31
 3741 0284 13       		.uleb128 0x13
 3742 0285 00       		.byte	0
 3743 0286 00       		.byte	0
 3744 0287 32       		.uleb128 0x32
 3745 0288 898201   		.uleb128 0x4109
 3746 028b 01       		.byte	0x1
 3747 028c 11       		.uleb128 0x11
 3748 028d 01       		.uleb128 0x1
 3749 028e 00       		.byte	0
ARM GAS  /tmp/ccAsEkjn.s 			page 67


 3750 028f 00       		.byte	0
 3751 0290 33       		.uleb128 0x33
 3752 0291 34       		.uleb128 0x34
 3753 0292 00       		.byte	0
 3754 0293 03       		.uleb128 0x3
 3755 0294 08       		.uleb128 0x8
 3756 0295 3A       		.uleb128 0x3a
 3757 0296 0B       		.uleb128 0xb
 3758 0297 3B       		.uleb128 0x3b
 3759 0298 0B       		.uleb128 0xb
 3760 0299 49       		.uleb128 0x49
 3761 029a 13       		.uleb128 0x13
 3762 029b 02       		.uleb128 0x2
 3763 029c 18       		.uleb128 0x18
 3764 029d 00       		.byte	0
 3765 029e 00       		.byte	0
 3766 029f 34       		.uleb128 0x34
 3767 02a0 34       		.uleb128 0x34
 3768 02a1 00       		.byte	0
 3769 02a2 03       		.uleb128 0x3
 3770 02a3 0E       		.uleb128 0xe
 3771 02a4 49       		.uleb128 0x49
 3772 02a5 13       		.uleb128 0x13
 3773 02a6 34       		.uleb128 0x34
 3774 02a7 19       		.uleb128 0x19
 3775 02a8 00       		.byte	0
 3776 02a9 00       		.byte	0
 3777 02aa 35       		.uleb128 0x35
 3778 02ab 0B       		.uleb128 0xb
 3779 02ac 01       		.byte	0x1
 3780 02ad 55       		.uleb128 0x55
 3781 02ae 17       		.uleb128 0x17
 3782 02af 00       		.byte	0
 3783 02b0 00       		.byte	0
 3784 02b1 36       		.uleb128 0x36
 3785 02b2 898201   		.uleb128 0x4109
 3786 02b5 01       		.byte	0x1
 3787 02b6 11       		.uleb128 0x11
 3788 02b7 01       		.uleb128 0x1
 3789 02b8 01       		.uleb128 0x1
 3790 02b9 13       		.uleb128 0x13
 3791 02ba 00       		.byte	0
 3792 02bb 00       		.byte	0
 3793 02bc 37       		.uleb128 0x37
 3794 02bd 2E       		.uleb128 0x2e
 3795 02be 01       		.byte	0x1
 3796 02bf 3F       		.uleb128 0x3f
 3797 02c0 19       		.uleb128 0x19
 3798 02c1 03       		.uleb128 0x3
 3799 02c2 0E       		.uleb128 0xe
 3800 02c3 3A       		.uleb128 0x3a
 3801 02c4 0B       		.uleb128 0xb
 3802 02c5 3B       		.uleb128 0x3b
 3803 02c6 05       		.uleb128 0x5
 3804 02c7 27       		.uleb128 0x27
 3805 02c8 19       		.uleb128 0x19
 3806 02c9 11       		.uleb128 0x11
ARM GAS  /tmp/ccAsEkjn.s 			page 68


 3807 02ca 01       		.uleb128 0x1
 3808 02cb 12       		.uleb128 0x12
 3809 02cc 06       		.uleb128 0x6
 3810 02cd 40       		.uleb128 0x40
 3811 02ce 18       		.uleb128 0x18
 3812 02cf 9742     		.uleb128 0x2117
 3813 02d1 19       		.uleb128 0x19
 3814 02d2 01       		.uleb128 0x1
 3815 02d3 13       		.uleb128 0x13
 3816 02d4 00       		.byte	0
 3817 02d5 00       		.byte	0
 3818 02d6 38       		.uleb128 0x38
 3819 02d7 05       		.uleb128 0x5
 3820 02d8 00       		.byte	0
 3821 02d9 03       		.uleb128 0x3
 3822 02da 08       		.uleb128 0x8
 3823 02db 3A       		.uleb128 0x3a
 3824 02dc 0B       		.uleb128 0xb
 3825 02dd 3B       		.uleb128 0x3b
 3826 02de 05       		.uleb128 0x5
 3827 02df 49       		.uleb128 0x49
 3828 02e0 13       		.uleb128 0x13
 3829 02e1 02       		.uleb128 0x2
 3830 02e2 18       		.uleb128 0x18
 3831 02e3 00       		.byte	0
 3832 02e4 00       		.byte	0
 3833 02e5 39       		.uleb128 0x39
 3834 02e6 05       		.uleb128 0x5
 3835 02e7 00       		.byte	0
 3836 02e8 03       		.uleb128 0x3
 3837 02e9 0E       		.uleb128 0xe
 3838 02ea 3A       		.uleb128 0x3a
 3839 02eb 0B       		.uleb128 0xb
 3840 02ec 3B       		.uleb128 0x3b
 3841 02ed 05       		.uleb128 0x5
 3842 02ee 49       		.uleb128 0x49
 3843 02ef 13       		.uleb128 0x13
 3844 02f0 02       		.uleb128 0x2
 3845 02f1 18       		.uleb128 0x18
 3846 02f2 00       		.byte	0
 3847 02f3 00       		.byte	0
 3848 02f4 3A       		.uleb128 0x3a
 3849 02f5 05       		.uleb128 0x5
 3850 02f6 00       		.byte	0
 3851 02f7 03       		.uleb128 0x3
 3852 02f8 0E       		.uleb128 0xe
 3853 02f9 3A       		.uleb128 0x3a
 3854 02fa 0B       		.uleb128 0xb
 3855 02fb 3B       		.uleb128 0x3b
 3856 02fc 05       		.uleb128 0x5
 3857 02fd 49       		.uleb128 0x49
 3858 02fe 13       		.uleb128 0x13
 3859 02ff 02       		.uleb128 0x2
 3860 0300 17       		.uleb128 0x17
 3861 0301 00       		.byte	0
 3862 0302 00       		.byte	0
 3863 0303 3B       		.uleb128 0x3b
ARM GAS  /tmp/ccAsEkjn.s 			page 69


 3864 0304 05       		.uleb128 0x5
 3865 0305 00       		.byte	0
 3866 0306 03       		.uleb128 0x3
 3867 0307 08       		.uleb128 0x8
 3868 0308 3A       		.uleb128 0x3a
 3869 0309 0B       		.uleb128 0xb
 3870 030a 3B       		.uleb128 0x3b
 3871 030b 05       		.uleb128 0x5
 3872 030c 49       		.uleb128 0x49
 3873 030d 13       		.uleb128 0x13
 3874 030e 02       		.uleb128 0x2
 3875 030f 17       		.uleb128 0x17
 3876 0310 00       		.byte	0
 3877 0311 00       		.byte	0
 3878 0312 3C       		.uleb128 0x3c
 3879 0313 2E       		.uleb128 0x2e
 3880 0314 01       		.byte	0x1
 3881 0315 3F       		.uleb128 0x3f
 3882 0316 19       		.uleb128 0x19
 3883 0317 03       		.uleb128 0x3
 3884 0318 0E       		.uleb128 0xe
 3885 0319 3A       		.uleb128 0x3a
 3886 031a 0B       		.uleb128 0xb
 3887 031b 3B       		.uleb128 0x3b
 3888 031c 05       		.uleb128 0x5
 3889 031d 27       		.uleb128 0x27
 3890 031e 19       		.uleb128 0x19
 3891 031f 49       		.uleb128 0x49
 3892 0320 13       		.uleb128 0x13
 3893 0321 11       		.uleb128 0x11
 3894 0322 01       		.uleb128 0x1
 3895 0323 12       		.uleb128 0x12
 3896 0324 06       		.uleb128 0x6
 3897 0325 40       		.uleb128 0x40
 3898 0326 18       		.uleb128 0x18
 3899 0327 9742     		.uleb128 0x2117
 3900 0329 19       		.uleb128 0x19
 3901 032a 01       		.uleb128 0x1
 3902 032b 13       		.uleb128 0x13
 3903 032c 00       		.byte	0
 3904 032d 00       		.byte	0
 3905 032e 3D       		.uleb128 0x3d
 3906 032f 1D       		.uleb128 0x1d
 3907 0330 01       		.byte	0x1
 3908 0331 31       		.uleb128 0x31
 3909 0332 13       		.uleb128 0x13
 3910 0333 11       		.uleb128 0x11
 3911 0334 01       		.uleb128 0x1
 3912 0335 12       		.uleb128 0x12
 3913 0336 06       		.uleb128 0x6
 3914 0337 58       		.uleb128 0x58
 3915 0338 0B       		.uleb128 0xb
 3916 0339 59       		.uleb128 0x59
 3917 033a 05       		.uleb128 0x5
 3918 033b 01       		.uleb128 0x1
 3919 033c 13       		.uleb128 0x13
 3920 033d 00       		.byte	0
ARM GAS  /tmp/ccAsEkjn.s 			page 70


 3921 033e 00       		.byte	0
 3922 033f 3E       		.uleb128 0x3e
 3923 0340 34       		.uleb128 0x34
 3924 0341 00       		.byte	0
 3925 0342 03       		.uleb128 0x3
 3926 0343 08       		.uleb128 0x8
 3927 0344 3A       		.uleb128 0x3a
 3928 0345 0B       		.uleb128 0xb
 3929 0346 3B       		.uleb128 0x3b
 3930 0347 05       		.uleb128 0x5
 3931 0348 49       		.uleb128 0x49
 3932 0349 13       		.uleb128 0x13
 3933 034a 02       		.uleb128 0x2
 3934 034b 17       		.uleb128 0x17
 3935 034c 00       		.byte	0
 3936 034d 00       		.byte	0
 3937 034e 3F       		.uleb128 0x3f
 3938 034f 1D       		.uleb128 0x1d
 3939 0350 01       		.byte	0x1
 3940 0351 31       		.uleb128 0x31
 3941 0352 13       		.uleb128 0x13
 3942 0353 52       		.uleb128 0x52
 3943 0354 01       		.uleb128 0x1
 3944 0355 55       		.uleb128 0x55
 3945 0356 17       		.uleb128 0x17
 3946 0357 58       		.uleb128 0x58
 3947 0358 0B       		.uleb128 0xb
 3948 0359 59       		.uleb128 0x59
 3949 035a 05       		.uleb128 0x5
 3950 035b 01       		.uleb128 0x1
 3951 035c 13       		.uleb128 0x13
 3952 035d 00       		.byte	0
 3953 035e 00       		.byte	0
 3954 035f 40       		.uleb128 0x40
 3955 0360 34       		.uleb128 0x34
 3956 0361 00       		.byte	0
 3957 0362 03       		.uleb128 0x3
 3958 0363 08       		.uleb128 0x8
 3959 0364 3A       		.uleb128 0x3a
 3960 0365 0B       		.uleb128 0xb
 3961 0366 3B       		.uleb128 0x3b
 3962 0367 05       		.uleb128 0x5
 3963 0368 49       		.uleb128 0x49
 3964 0369 13       		.uleb128 0x13
 3965 036a 02       		.uleb128 0x2
 3966 036b 18       		.uleb128 0x18
 3967 036c 00       		.byte	0
 3968 036d 00       		.byte	0
 3969 036e 41       		.uleb128 0x41
 3970 036f 34       		.uleb128 0x34
 3971 0370 00       		.byte	0
 3972 0371 03       		.uleb128 0x3
 3973 0372 0E       		.uleb128 0xe
 3974 0373 3A       		.uleb128 0x3a
 3975 0374 0B       		.uleb128 0xb
 3976 0375 3B       		.uleb128 0x3b
 3977 0376 05       		.uleb128 0x5
ARM GAS  /tmp/ccAsEkjn.s 			page 71


 3978 0377 49       		.uleb128 0x49
 3979 0378 13       		.uleb128 0x13
 3980 0379 3F       		.uleb128 0x3f
 3981 037a 19       		.uleb128 0x19
 3982 037b 3C       		.uleb128 0x3c
 3983 037c 19       		.uleb128 0x19
 3984 037d 00       		.byte	0
 3985 037e 00       		.byte	0
 3986 037f 42       		.uleb128 0x42
 3987 0380 34       		.uleb128 0x34
 3988 0381 00       		.byte	0
 3989 0382 03       		.uleb128 0x3
 3990 0383 08       		.uleb128 0x8
 3991 0384 3A       		.uleb128 0x3a
 3992 0385 0B       		.uleb128 0xb
 3993 0386 3B       		.uleb128 0x3b
 3994 0387 05       		.uleb128 0x5
 3995 0388 49       		.uleb128 0x49
 3996 0389 13       		.uleb128 0x13
 3997 038a 3F       		.uleb128 0x3f
 3998 038b 19       		.uleb128 0x19
 3999 038c 3C       		.uleb128 0x3c
 4000 038d 19       		.uleb128 0x19
 4001 038e 00       		.byte	0
 4002 038f 00       		.byte	0
 4003 0390 43       		.uleb128 0x43
 4004 0391 2E       		.uleb128 0x2e
 4005 0392 01       		.byte	0x1
 4006 0393 3F       		.uleb128 0x3f
 4007 0394 19       		.uleb128 0x19
 4008 0395 03       		.uleb128 0x3
 4009 0396 0E       		.uleb128 0xe
 4010 0397 3A       		.uleb128 0x3a
 4011 0398 0B       		.uleb128 0xb
 4012 0399 3B       		.uleb128 0x3b
 4013 039a 0B       		.uleb128 0xb
 4014 039b 27       		.uleb128 0x27
 4015 039c 19       		.uleb128 0x19
 4016 039d 3C       		.uleb128 0x3c
 4017 039e 19       		.uleb128 0x19
 4018 039f 01       		.uleb128 0x1
 4019 03a0 13       		.uleb128 0x13
 4020 03a1 00       		.byte	0
 4021 03a2 00       		.byte	0
 4022 03a3 44       		.uleb128 0x44
 4023 03a4 2E       		.uleb128 0x2e
 4024 03a5 01       		.byte	0x1
 4025 03a6 3F       		.uleb128 0x3f
 4026 03a7 19       		.uleb128 0x19
 4027 03a8 03       		.uleb128 0x3
 4028 03a9 0E       		.uleb128 0xe
 4029 03aa 3A       		.uleb128 0x3a
 4030 03ab 0B       		.uleb128 0xb
 4031 03ac 3B       		.uleb128 0x3b
 4032 03ad 0B       		.uleb128 0xb
 4033 03ae 27       		.uleb128 0x27
 4034 03af 19       		.uleb128 0x19
ARM GAS  /tmp/ccAsEkjn.s 			page 72


 4035 03b0 49       		.uleb128 0x49
 4036 03b1 13       		.uleb128 0x13
 4037 03b2 3C       		.uleb128 0x3c
 4038 03b3 19       		.uleb128 0x19
 4039 03b4 00       		.byte	0
 4040 03b5 00       		.byte	0
 4041 03b6 00       		.byte	0
 4042              		.section	.debug_loc,"",%progbits
 4043              	.Ldebug_loc0:
 4044              	.LLST0:
 4045 0000 00000000 		.4byte	.LVL0
 4046 0004 08000000 		.4byte	.LVL1
 4047 0008 0100     		.2byte	0x1
 4048 000a 52       		.byte	0x52
 4049 000b 08000000 		.4byte	.LVL1
 4050 000f 1E000000 		.4byte	.LFE170
 4051 0013 0400     		.2byte	0x4
 4052 0015 F3       		.byte	0xf3
 4053 0016 01       		.uleb128 0x1
 4054 0017 52       		.byte	0x52
 4055 0018 9F       		.byte	0x9f
 4056 0019 00000000 		.4byte	0
 4057 001d 00000000 		.4byte	0
 4058              	.LLST1:
 4059 0021 00000000 		.4byte	.LVL0
 4060 0025 1C000000 		.4byte	.LVL2
 4061 0029 0200     		.2byte	0x2
 4062 002b 91       		.byte	0x91
 4063 002c 00       		.sleb128 0
 4064 002d 1C000000 		.4byte	.LVL2
 4065 0031 1E000000 		.4byte	.LFE170
 4066 0035 0200     		.2byte	0x2
 4067 0037 7D       		.byte	0x7d
 4068 0038 00       		.sleb128 0
 4069 0039 00000000 		.4byte	0
 4070 003d 00000000 		.4byte	0
 4071              	.LLST2:
 4072 0041 00000000 		.4byte	.LVL3
 4073 0045 11000000 		.4byte	.LVL4-1
 4074 0049 0100     		.2byte	0x1
 4075 004b 50       		.byte	0x50
 4076 004c 11000000 		.4byte	.LVL4-1
 4077 0050 12000000 		.4byte	.LFE171
 4078 0054 0400     		.2byte	0x4
 4079 0056 F3       		.byte	0xf3
 4080 0057 01       		.uleb128 0x1
 4081 0058 50       		.byte	0x50
 4082 0059 9F       		.byte	0x9f
 4083 005a 00000000 		.4byte	0
 4084 005e 00000000 		.4byte	0
 4085              	.LLST3:
 4086 0062 00000000 		.4byte	.LVL5
 4087 0066 27000000 		.4byte	.LVL7-1
 4088 006a 0100     		.2byte	0x1
 4089 006c 50       		.byte	0x50
 4090 006d 27000000 		.4byte	.LVL7-1
 4091 0071 2C000000 		.4byte	.LVL8
ARM GAS  /tmp/ccAsEkjn.s 			page 73


 4092 0075 0400     		.2byte	0x4
 4093 0077 F3       		.byte	0xf3
 4094 0078 01       		.uleb128 0x1
 4095 0079 50       		.byte	0x50
 4096 007a 9F       		.byte	0x9f
 4097 007b 2C000000 		.4byte	.LVL8
 4098 007f 36000000 		.4byte	.LVL9
 4099 0083 0100     		.2byte	0x1
 4100 0085 50       		.byte	0x50
 4101 0086 36000000 		.4byte	.LVL9
 4102 008a 38000000 		.4byte	.LFE172
 4103 008e 0400     		.2byte	0x4
 4104 0090 F3       		.byte	0xf3
 4105 0091 01       		.uleb128 0x1
 4106 0092 50       		.byte	0x50
 4107 0093 9F       		.byte	0x9f
 4108 0094 00000000 		.4byte	0
 4109 0098 00000000 		.4byte	0
 4110              	.LLST4:
 4111 009c 00000000 		.4byte	.LVL5
 4112 00a0 24000000 		.4byte	.LVL6
 4113 00a4 0100     		.2byte	0x1
 4114 00a6 51       		.byte	0x51
 4115 00a7 24000000 		.4byte	.LVL6
 4116 00ab 2C000000 		.4byte	.LVL8
 4117 00af 0400     		.2byte	0x4
 4118 00b1 F3       		.byte	0xf3
 4119 00b2 01       		.uleb128 0x1
 4120 00b3 51       		.byte	0x51
 4121 00b4 9F       		.byte	0x9f
 4122 00b5 2C000000 		.4byte	.LVL8
 4123 00b9 38000000 		.4byte	.LFE172
 4124 00bd 0100     		.2byte	0x1
 4125 00bf 51       		.byte	0x51
 4126 00c0 00000000 		.4byte	0
 4127 00c4 00000000 		.4byte	0
 4128              	.LLST6:
 4129 00c8 00000000 		.4byte	.LVL10
 4130 00cc 11000000 		.4byte	.LVL11-1
 4131 00d0 0100     		.2byte	0x1
 4132 00d2 50       		.byte	0x50
 4133 00d3 11000000 		.4byte	.LVL11-1
 4134 00d7 4E000000 		.4byte	.LFE173
 4135 00db 0100     		.2byte	0x1
 4136 00dd 54       		.byte	0x54
 4137 00de 00000000 		.4byte	0
 4138 00e2 00000000 		.4byte	0
 4139              	.LLST7:
 4140 00e6 00000000 		.4byte	.LVL10
 4141 00ea 11000000 		.4byte	.LVL11-1
 4142 00ee 0100     		.2byte	0x1
 4143 00f0 51       		.byte	0x51
 4144 00f1 11000000 		.4byte	.LVL11-1
 4145 00f5 4E000000 		.4byte	.LFE173
 4146 00f9 0100     		.2byte	0x1
 4147 00fb 56       		.byte	0x56
 4148 00fc 00000000 		.4byte	0
ARM GAS  /tmp/ccAsEkjn.s 			page 74


 4149 0100 00000000 		.4byte	0
 4150              	.LLST8:
 4151 0104 3C000000 		.4byte	.LVL15
 4152 0108 48000000 		.4byte	.LVL17
 4153 010c 0100     		.2byte	0x1
 4154 010e 50       		.byte	0x50
 4155 010f 00000000 		.4byte	0
 4156 0113 00000000 		.4byte	0
 4157              	.LLST9:
 4158 0117 1C000000 		.4byte	.LVL13
 4159 011b 20000000 		.4byte	.LVL14
 4160 011f 0100     		.2byte	0x1
 4161 0121 50       		.byte	0x50
 4162 0122 48000000 		.4byte	.LVL17
 4163 0126 4E000000 		.4byte	.LFE173
 4164 012a 0100     		.2byte	0x1
 4165 012c 50       		.byte	0x50
 4166 012d 00000000 		.4byte	0
 4167 0131 00000000 		.4byte	0
 4168              	.LLST10:
 4169 0135 40000000 		.4byte	.LVL16
 4170 0139 48000000 		.4byte	.LVL17
 4171 013d 0200     		.2byte	0x2
 4172 013f 30       		.byte	0x30
 4173 0140 9F       		.byte	0x9f
 4174 0141 00000000 		.4byte	0
 4175 0145 00000000 		.4byte	0
 4176              	.LLST11:
 4177 0149 00000000 		.4byte	.LVL18
 4178 014d 1E000000 		.4byte	.LVL20
 4179 0151 0100     		.2byte	0x1
 4180 0153 50       		.byte	0x50
 4181 0154 1E000000 		.4byte	.LVL20
 4182 0158 76000000 		.4byte	.LFE174
 4183 015c 0100     		.2byte	0x1
 4184 015e 54       		.byte	0x54
 4185 015f 00000000 		.4byte	0
 4186 0163 00000000 		.4byte	0
 4187              	.LLST12:
 4188 0167 00000000 		.4byte	.LVL18
 4189 016b 1E000000 		.4byte	.LVL20
 4190 016f 0100     		.2byte	0x1
 4191 0171 51       		.byte	0x51
 4192 0172 1E000000 		.4byte	.LVL20
 4193 0176 4C000000 		.4byte	.LVL25
 4194 017a 0100     		.2byte	0x1
 4195 017c 59       		.byte	0x59
 4196 017d 4C000000 		.4byte	.LVL25
 4197 0181 6A000000 		.4byte	.LVL29
 4198 0185 0300     		.2byte	0x3
 4199 0187 79       		.byte	0x79
 4200 0188 7F       		.sleb128 -1
 4201 0189 9F       		.byte	0x9f
 4202 018a 6A000000 		.4byte	.LVL29
 4203 018e 6E000000 		.4byte	.LVL30
 4204 0192 0100     		.2byte	0x1
 4205 0194 59       		.byte	0x59
ARM GAS  /tmp/ccAsEkjn.s 			page 75


 4206 0195 00000000 		.4byte	0
 4207 0199 00000000 		.4byte	0
 4208              	.LLST13:
 4209 019d 00000000 		.4byte	.LVL18
 4210 01a1 1E000000 		.4byte	.LVL20
 4211 01a5 0100     		.2byte	0x1
 4212 01a7 52       		.byte	0x52
 4213 01a8 5E000000 		.4byte	.LVL27
 4214 01ac 6A000000 		.4byte	.LVL29
 4215 01b0 0600     		.2byte	0x6
 4216 01b2 7B       		.byte	0x7b
 4217 01b3 00       		.sleb128 0
 4218 01b4 76       		.byte	0x76
 4219 01b5 00       		.sleb128 0
 4220 01b6 1C       		.byte	0x1c
 4221 01b7 9F       		.byte	0x9f
 4222 01b8 00000000 		.4byte	0
 4223 01bc 00000000 		.4byte	0
 4224              	.LLST14:
 4225 01c0 00000000 		.4byte	.LVL18
 4226 01c4 1E000000 		.4byte	.LVL20
 4227 01c8 0100     		.2byte	0x1
 4228 01ca 53       		.byte	0x53
 4229 01cb 1E000000 		.4byte	.LVL20
 4230 01cf 76000000 		.4byte	.LFE174
 4231 01d3 0100     		.2byte	0x1
 4232 01d5 55       		.byte	0x55
 4233 01d6 00000000 		.4byte	0
 4234 01da 00000000 		.4byte	0
 4235              	.LLST15:
 4236 01de 12000000 		.4byte	.LVL19
 4237 01e2 1E000000 		.4byte	.LVL20
 4238 01e6 0200     		.2byte	0x2
 4239 01e8 30       		.byte	0x30
 4240 01e9 9F       		.byte	0x9f
 4241 01ea 1E000000 		.4byte	.LVL20
 4242 01ee 76000000 		.4byte	.LFE174
 4243 01f2 0100     		.2byte	0x1
 4244 01f4 56       		.byte	0x56
 4245 01f5 00000000 		.4byte	0
 4246 01f9 00000000 		.4byte	0
 4247              	.LLST16:
 4248 01fd 58000000 		.4byte	.LVL26
 4249 0201 6A000000 		.4byte	.LVL29
 4250 0205 0200     		.2byte	0x2
 4251 0207 30       		.byte	0x30
 4252 0208 9F       		.byte	0x9f
 4253 0209 00000000 		.4byte	0
 4254 020d 00000000 		.4byte	0
 4255              	.LLST17:
 4256 0211 62000000 		.4byte	.LVL28
 4257 0215 6A000000 		.4byte	.LVL29
 4258 0219 0300     		.2byte	0x3
 4259 021b 08       		.byte	0x8
 4260 021c 20       		.byte	0x20
 4261 021d 9F       		.byte	0x9f
 4262 021e 00000000 		.4byte	0
ARM GAS  /tmp/ccAsEkjn.s 			page 76


 4263 0222 00000000 		.4byte	0
 4264              	.LLST18:
 4265 0226 6A000000 		.4byte	.LVL29
 4266 022a 6E000000 		.4byte	.LVL30
 4267 022e 0200     		.2byte	0x2
 4268 0230 30       		.byte	0x30
 4269 0231 9F       		.byte	0x9f
 4270 0232 00000000 		.4byte	0
 4271 0236 00000000 		.4byte	0
 4272              	.LLST19:
 4273 023a 00000000 		.4byte	.LVL31
 4274 023e 1A000000 		.4byte	.LVL32
 4275 0242 0200     		.2byte	0x2
 4276 0244 91       		.byte	0x91
 4277 0245 00       		.sleb128 0
 4278 0246 1A000000 		.4byte	.LVL32
 4279 024a 1C000000 		.4byte	.LFE175
 4280 024e 0200     		.2byte	0x2
 4281 0250 7D       		.byte	0x7d
 4282 0251 00       		.sleb128 0
 4283 0252 00000000 		.4byte	0
 4284 0256 00000000 		.4byte	0
 4285              	.LLST20:
 4286 025a 00000000 		.4byte	.LVL33
 4287 025e 13000000 		.4byte	.LVL34-1
 4288 0262 0100     		.2byte	0x1
 4289 0264 50       		.byte	0x50
 4290 0265 13000000 		.4byte	.LVL34-1
 4291 0269 14000000 		.4byte	.LFE176
 4292 026d 0400     		.2byte	0x4
 4293 026f F3       		.byte	0xf3
 4294 0270 01       		.uleb128 0x1
 4295 0271 50       		.byte	0x50
 4296 0272 9F       		.byte	0x9f
 4297 0273 00000000 		.4byte	0
 4298 0277 00000000 		.4byte	0
 4299              	.LLST21:
 4300 027b 00000000 		.4byte	.LVL35
 4301 027f 10000000 		.4byte	.LVL36
 4302 0283 0100     		.2byte	0x1
 4303 0285 50       		.byte	0x50
 4304 0286 10000000 		.4byte	.LVL36
 4305 028a 52000000 		.4byte	.LFE177
 4306 028e 0100     		.2byte	0x1
 4307 0290 54       		.byte	0x54
 4308 0291 00000000 		.4byte	0
 4309 0295 00000000 		.4byte	0
 4310              	.LLST22:
 4311 0299 00000000 		.4byte	.LVL35
 4312 029d 10000000 		.4byte	.LVL36
 4313 02a1 0100     		.2byte	0x1
 4314 02a3 51       		.byte	0x51
 4315 02a4 10000000 		.4byte	.LVL36
 4316 02a8 52000000 		.4byte	.LFE177
 4317 02ac 0400     		.2byte	0x4
 4318 02ae F3       		.byte	0xf3
 4319 02af 01       		.uleb128 0x1
ARM GAS  /tmp/ccAsEkjn.s 			page 77


 4320 02b0 51       		.byte	0x51
 4321 02b1 9F       		.byte	0x9f
 4322 02b2 00000000 		.4byte	0
 4323 02b6 00000000 		.4byte	0
 4324              	.LLST23:
 4325 02ba 00000000 		.4byte	.LVL35
 4326 02be 10000000 		.4byte	.LVL36
 4327 02c2 0100     		.2byte	0x1
 4328 02c4 52       		.byte	0x52
 4329 02c5 10000000 		.4byte	.LVL36
 4330 02c9 52000000 		.4byte	.LFE177
 4331 02cd 0100     		.2byte	0x1
 4332 02cf 56       		.byte	0x56
 4333 02d0 00000000 		.4byte	0
 4334 02d4 00000000 		.4byte	0
 4335              	.LLST24:
 4336 02d8 18000000 		.4byte	.LVL37
 4337 02dc 1C000000 		.4byte	.LVL38
 4338 02e0 0100     		.2byte	0x1
 4339 02e2 50       		.byte	0x50
 4340 02e3 4C000000 		.4byte	.LVL40
 4341 02e7 52000000 		.4byte	.LFE177
 4342 02eb 0100     		.2byte	0x1
 4343 02ed 50       		.byte	0x50
 4344 02ee 00000000 		.4byte	0
 4345 02f2 00000000 		.4byte	0
 4346              	.LLST25:
 4347 02f6 44000000 		.4byte	.LVL39
 4348 02fa 4C000000 		.4byte	.LVL40
 4349 02fe 0200     		.2byte	0x2
 4350 0300 30       		.byte	0x30
 4351 0301 9F       		.byte	0x9f
 4352 0302 00000000 		.4byte	0
 4353 0306 00000000 		.4byte	0
 4354              	.LLST26:
 4355 030a 00000000 		.4byte	.LVL41
 4356 030e 25000000 		.4byte	.LVL43-1
 4357 0312 0100     		.2byte	0x1
 4358 0314 50       		.byte	0x50
 4359 0315 25000000 		.4byte	.LVL43-1
 4360 0319 2A000000 		.4byte	.LVL44
 4361 031d 0400     		.2byte	0x4
 4362 031f F3       		.byte	0xf3
 4363 0320 01       		.uleb128 0x1
 4364 0321 50       		.byte	0x50
 4365 0322 9F       		.byte	0x9f
 4366 0323 2A000000 		.4byte	.LVL44
 4367 0327 34000000 		.4byte	.LVL45
 4368 032b 0100     		.2byte	0x1
 4369 032d 50       		.byte	0x50
 4370 032e 34000000 		.4byte	.LVL45
 4371 0332 36000000 		.4byte	.LFE178
 4372 0336 0400     		.2byte	0x4
 4373 0338 F3       		.byte	0xf3
 4374 0339 01       		.uleb128 0x1
 4375 033a 50       		.byte	0x50
 4376 033b 9F       		.byte	0x9f
ARM GAS  /tmp/ccAsEkjn.s 			page 78


 4377 033c 00000000 		.4byte	0
 4378 0340 00000000 		.4byte	0
 4379              	.LLST27:
 4380 0344 1A000000 		.4byte	.LVL42
 4381 0348 2A000000 		.4byte	.LVL44
 4382 034c 0100     		.2byte	0x1
 4383 034e 54       		.byte	0x54
 4384 034f 00000000 		.4byte	0
 4385 0353 00000000 		.4byte	0
 4386              	.LLST29:
 4387 0357 00000000 		.4byte	.LVL46
 4388 035b 1C000000 		.4byte	.LVL48
 4389 035f 0100     		.2byte	0x1
 4390 0361 50       		.byte	0x50
 4391 0362 1C000000 		.4byte	.LVL48
 4392 0366 80000000 		.4byte	.LFE179
 4393 036a 0100     		.2byte	0x1
 4394 036c 54       		.byte	0x54
 4395 036d 00000000 		.4byte	0
 4396 0371 00000000 		.4byte	0
 4397              	.LLST30:
 4398 0375 00000000 		.4byte	.LVL46
 4399 0379 1C000000 		.4byte	.LVL48
 4400 037d 0100     		.2byte	0x1
 4401 037f 51       		.byte	0x51
 4402 0380 1C000000 		.4byte	.LVL48
 4403 0384 22000000 		.4byte	.LVL49
 4404 0388 0100     		.2byte	0x1
 4405 038a 5B       		.byte	0x5b
 4406 038b 22000000 		.4byte	.LVL49
 4407 038f 5A000000 		.4byte	.LVL54
 4408 0393 0100     		.2byte	0x1
 4409 0395 5A       		.byte	0x5a
 4410 0396 5A000000 		.4byte	.LVL54
 4411 039a 60000000 		.4byte	.LVL55
 4412 039e 0100     		.2byte	0x1
 4413 03a0 5B       		.byte	0x5b
 4414 03a1 60000000 		.4byte	.LVL55
 4415 03a5 80000000 		.4byte	.LFE179
 4416 03a9 0100     		.2byte	0x1
 4417 03ab 5A       		.byte	0x5a
 4418 03ac 00000000 		.4byte	0
 4419 03b0 00000000 		.4byte	0
 4420              	.LLST31:
 4421 03b4 00000000 		.4byte	.LVL46
 4422 03b8 1C000000 		.4byte	.LVL48
 4423 03bc 0100     		.2byte	0x1
 4424 03be 52       		.byte	0x52
 4425 03bf 1C000000 		.4byte	.LVL48
 4426 03c3 4E000000 		.4byte	.LVL52
 4427 03c7 0100     		.2byte	0x1
 4428 03c9 55       		.byte	0x55
 4429 03ca 4E000000 		.4byte	.LVL52
 4430 03ce 52000000 		.4byte	.LVL53
 4431 03d2 0300     		.2byte	0x3
 4432 03d4 75       		.byte	0x75
 4433 03d5 01       		.sleb128 1
ARM GAS  /tmp/ccAsEkjn.s 			page 79


 4434 03d6 9F       		.byte	0x9f
 4435 03d7 5A000000 		.4byte	.LVL54
 4436 03db 78000000 		.4byte	.LVL59
 4437 03df 0100     		.2byte	0x1
 4438 03e1 55       		.byte	0x55
 4439 03e2 00000000 		.4byte	0
 4440 03e6 00000000 		.4byte	0
 4441              	.LLST32:
 4442 03ea 00000000 		.4byte	.LVL46
 4443 03ee 1C000000 		.4byte	.LVL48
 4444 03f2 0100     		.2byte	0x1
 4445 03f4 53       		.byte	0x53
 4446 03f5 1C000000 		.4byte	.LVL48
 4447 03f9 80000000 		.4byte	.LFE179
 4448 03fd 0200     		.2byte	0x2
 4449 03ff 91       		.byte	0x91
 4450 0400 54       		.sleb128 -44
 4451 0401 00000000 		.4byte	0
 4452 0405 00000000 		.4byte	0
 4453              	.LLST33:
 4454 0409 10000000 		.4byte	.LVL47
 4455 040d 1C000000 		.4byte	.LVL48
 4456 0411 0200     		.2byte	0x2
 4457 0413 30       		.byte	0x30
 4458 0414 9F       		.byte	0x9f
 4459 0415 1C000000 		.4byte	.LVL48
 4460 0419 80000000 		.4byte	.LFE179
 4461 041d 0100     		.2byte	0x1
 4462 041f 56       		.byte	0x56
 4463 0420 00000000 		.4byte	0
 4464 0424 00000000 		.4byte	0
 4465              	.LLST34:
 4466 0428 48000000 		.4byte	.LVL50
 4467 042c 64000000 		.4byte	.LVL56
 4468 0430 0200     		.2byte	0x2
 4469 0432 30       		.byte	0x30
 4470 0433 9F       		.byte	0x9f
 4471 0434 00000000 		.4byte	0
 4472 0438 00000000 		.4byte	0
 4473              	.LLST35:
 4474 043c 4C000000 		.4byte	.LVL51
 4475 0440 64000000 		.4byte	.LVL56
 4476 0444 0300     		.2byte	0x3
 4477 0446 08       		.byte	0x8
 4478 0447 20       		.byte	0x20
 4479 0448 9F       		.byte	0x9f
 4480 0449 00000000 		.4byte	0
 4481 044d 00000000 		.4byte	0
 4482              	.LLST36:
 4483 0451 74000000 		.4byte	.LVL58
 4484 0455 78000000 		.4byte	.LVL59
 4485 0459 0200     		.2byte	0x2
 4486 045b 30       		.byte	0x30
 4487 045c 9F       		.byte	0x9f
 4488 045d 00000000 		.4byte	0
 4489 0461 00000000 		.4byte	0
 4490              		.section	.debug_aranges,"",%progbits
ARM GAS  /tmp/ccAsEkjn.s 			page 80


 4491 0000 64000000 		.4byte	0x64
 4492 0004 0200     		.2byte	0x2
 4493 0006 00000000 		.4byte	.Ldebug_info0
 4494 000a 04       		.byte	0x4
 4495 000b 00       		.byte	0
 4496 000c 0000     		.2byte	0
 4497 000e 0000     		.2byte	0
 4498 0010 00000000 		.4byte	.LFB170
 4499 0014 1E000000 		.4byte	.LFE170-.LFB170
 4500 0018 00000000 		.4byte	.LFB171
 4501 001c 12000000 		.4byte	.LFE171-.LFB171
 4502 0020 00000000 		.4byte	.LFB172
 4503 0024 38000000 		.4byte	.LFE172-.LFB172
 4504 0028 00000000 		.4byte	.LFB173
 4505 002c 4E000000 		.4byte	.LFE173-.LFB173
 4506 0030 00000000 		.4byte	.LFB174
 4507 0034 76000000 		.4byte	.LFE174-.LFB174
 4508 0038 00000000 		.4byte	.LFB175
 4509 003c 1C000000 		.4byte	.LFE175-.LFB175
 4510 0040 00000000 		.4byte	.LFB176
 4511 0044 14000000 		.4byte	.LFE176-.LFB176
 4512 0048 00000000 		.4byte	.LFB177
 4513 004c 52000000 		.4byte	.LFE177-.LFB177
 4514 0050 00000000 		.4byte	.LFB178
 4515 0054 36000000 		.4byte	.LFE178-.LFB178
 4516 0058 00000000 		.4byte	.LFB179
 4517 005c 80000000 		.4byte	.LFE179-.LFB179
 4518 0060 00000000 		.4byte	0
 4519 0064 00000000 		.4byte	0
 4520              		.section	.debug_ranges,"",%progbits
 4521              	.Ldebug_ranges0:
 4522 0000 00000000 		.4byte	.LBB111
 4523 0004 04000000 		.4byte	.LBE111
 4524 0008 06000000 		.4byte	.LBB115
 4525 000c 0A000000 		.4byte	.LBE115
 4526 0010 2C000000 		.4byte	.LBB116
 4527 0014 32000000 		.4byte	.LBE116
 4528 0018 00000000 		.4byte	0
 4529 001c 00000000 		.4byte	0
 4530 0020 02000000 		.4byte	.LBB117
 4531 0024 04000000 		.4byte	.LBE117
 4532 0028 08000000 		.4byte	.LBB124
 4533 002c 0C000000 		.4byte	.LBE124
 4534 0030 00000000 		.4byte	0
 4535 0034 00000000 		.4byte	0
 4536 0038 14000000 		.4byte	.LBB125
 4537 003c 20000000 		.4byte	.LBE125
 4538 0040 48000000 		.4byte	.LBB138
 4539 0044 4E000000 		.4byte	.LBE138
 4540 0048 00000000 		.4byte	0
 4541 004c 00000000 		.4byte	0
 4542 0050 1A000000 		.4byte	.LBB143
 4543 0054 1C000000 		.4byte	.LBE143
 4544 0058 58000000 		.4byte	.LBB161
 4545 005c 5C000000 		.4byte	.LBE161
 4546 0060 00000000 		.4byte	0
 4547 0064 00000000 		.4byte	0
ARM GAS  /tmp/ccAsEkjn.s 			page 81


 4548 0068 1C000000 		.4byte	.LBB152
 4549 006c 1E000000 		.4byte	.LBE152
 4550 0070 62000000 		.4byte	.LBB162
 4551 0074 6A000000 		.4byte	.LBE162
 4552 0078 00000000 		.4byte	0
 4553 007c 00000000 		.4byte	0
 4554 0080 10000000 		.4byte	.LBB175
 4555 0084 1C000000 		.4byte	.LBE175
 4556 0088 4C000000 		.4byte	.LBB188
 4557 008c 52000000 		.4byte	.LBE188
 4558 0090 00000000 		.4byte	0
 4559 0094 00000000 		.4byte	0
 4560 0098 02000000 		.4byte	.LBB189
 4561 009c 0A000000 		.4byte	.LBE189
 4562 00a0 2A000000 		.4byte	.LBB192
 4563 00a4 30000000 		.4byte	.LBE192
 4564 00a8 00000000 		.4byte	0
 4565 00ac 00000000 		.4byte	0
 4566 00b0 1A000000 		.4byte	.LBB197
 4567 00b4 1C000000 		.4byte	.LBE197
 4568 00b8 48000000 		.4byte	.LBB209
 4569 00bc 4C000000 		.4byte	.LBE209
 4570 00c0 00000000 		.4byte	0
 4571 00c4 00000000 		.4byte	0
 4572 00c8 1C000000 		.4byte	.LBB206
 4573 00cc 1E000000 		.4byte	.LBE206
 4574 00d0 5A000000 		.4byte	.LBB214
 4575 00d4 5C000000 		.4byte	.LBE214
 4576 00d8 00000000 		.4byte	0
 4577 00dc 00000000 		.4byte	0
 4578 00e0 00000000 		.4byte	.LFB170
 4579 00e4 1E000000 		.4byte	.LFE170
 4580 00e8 00000000 		.4byte	.LFB171
 4581 00ec 12000000 		.4byte	.LFE171
 4582 00f0 00000000 		.4byte	.LFB172
 4583 00f4 38000000 		.4byte	.LFE172
 4584 00f8 00000000 		.4byte	.LFB173
 4585 00fc 4E000000 		.4byte	.LFE173
 4586 0100 00000000 		.4byte	.LFB174
 4587 0104 76000000 		.4byte	.LFE174
 4588 0108 00000000 		.4byte	.LFB175
 4589 010c 1C000000 		.4byte	.LFE175
 4590 0110 00000000 		.4byte	.LFB176
 4591 0114 14000000 		.4byte	.LFE176
 4592 0118 00000000 		.4byte	.LFB177
 4593 011c 52000000 		.4byte	.LFE177
 4594 0120 00000000 		.4byte	.LFB178
 4595 0124 36000000 		.4byte	.LFE178
 4596 0128 00000000 		.4byte	.LFB179
 4597 012c 80000000 		.4byte	.LFE179
 4598 0130 00000000 		.4byte	0
 4599 0134 00000000 		.4byte	0
 4600              		.section	.debug_line,"",%progbits
 4601              	.Ldebug_line0:
 4602 0000 96040000 		.section	.debug_str,"MS",%progbits,1
 4602      02003A02 
 4602      00000201 
ARM GAS  /tmp/ccAsEkjn.s 			page 82


 4602      FB0E0D00 
 4602      01010101 
 4603              	.LASF142:
 4604 0000 63684F51 		.ascii	"chOQPutTimeout\000"
 4604      50757454 
 4604      696D656F 
 4604      757400
 4605              	.LASF53:
 4606 000f 72656164 		.ascii	"ready_list_t\000"
 4606      795F6C69 
 4606      73745F74 
 4606      00
 4607              	.LASF140:
 4608 001c 6F6E6679 		.ascii	"onfy\000"
 4608      00
 4609              	.LASF2:
 4610 0021 73697A65 		.ascii	"size_t\000"
 4610      5F7400
 4611              	.LASF88:
 4612 0028 7264796D 		.ascii	"rdymsg\000"
 4612      736700
 4613              	.LASF17:
 4614 002f 75696E74 		.ascii	"uint64_t\000"
 4614      36345F74 
 4614      00
 4615              	.LASF147:
 4616 0038 63685468 		.ascii	"chThdDequeueAllI\000"
 4616      64446571 
 4616      75657565 
 4616      416C6C49 
 4616      00
 4617              	.LASF3:
 4618 0049 5F5F7569 		.ascii	"__uint8_t\000"
 4618      6E74385F 
 4618      7400
 4619              	.LASF85:
 4620 0053 706F7274 		.ascii	"port_intctx\000"
 4620      5F696E74 
 4620      63747800 
 4621              	.LASF72:
 4622 005f 73797374 		.ascii	"system_debug_t\000"
 4622      656D5F64 
 4622      65627567 
 4622      5F7400
 4623              	.LASF138:
 4624 006e 63684951 		.ascii	"chIQReadTimeout\000"
 4624      52656164 
 4624      54696D65 
 4624      6F757400 
 4625              	.LASF120:
 4626 007e 71756575 		.ascii	"queue_init\000"
 4626      655F696E 
 4626      697400
 4627              	.LASF117:
 4628 0089 706F7274 		.ascii	"port_lock\000"
 4628      5F6C6F63 
 4628      6B00
ARM GAS  /tmp/ccAsEkjn.s 			page 83


 4629              	.LASF133:
 4630 0093 63684951 		.ascii	"chIQObjectInit\000"
 4630      4F626A65 
 4630      6374496E 
 4630      697400
 4631              	.LASF13:
 4632 00a2 6C6F6E67 		.ascii	"long long unsigned int\000"
 4632      206C6F6E 
 4632      6720756E 
 4632      7369676E 
 4632      65642069 
 4633              	.LASF89:
 4634 00b9 65786974 		.ascii	"exitcode\000"
 4634      636F6465 
 4634      00
 4635              	.LASF79:
 4636 00c2 6D61696E 		.ascii	"mainthread\000"
 4636      74687265 
 4636      616400
 4637              	.LASF69:
 4638 00cd 76697274 		.ascii	"virtual_timers_list_t\000"
 4638      75616C5F 
 4638      74696D65 
 4638      72735F6C 
 4638      6973745F 
 4639              	.LASF146:
 4640 00e3 49544D5F 		.ascii	"ITM_RxBuffer\000"
 4640      52784275 
 4640      66666572 
 4640      00
 4641              	.LASF104:
 4642 00f0 696F5F71 		.ascii	"io_queue_t\000"
 4642      75657565 
 4642      5F7400
 4643              	.LASF52:
 4644 00fb 63685F74 		.ascii	"ch_threads_queue\000"
 4644      68726561 
 4644      64735F71 
 4644      75657565 
 4644      00
 4645              	.LASF31:
 4646 010c 705F7072 		.ascii	"p_prio\000"
 4646      696F00
 4647              	.LASF106:
 4648 0113 715F7761 		.ascii	"q_waiting\000"
 4648      6974696E 
 4648      6700
 4649              	.LASF11:
 4650 011d 6C6F6E67 		.ascii	"long long int\000"
 4650      206C6F6E 
 4650      6720696E 
 4650      7400
 4651              	.LASF1:
 4652 012b 7369676E 		.ascii	"signed char\000"
 4652      65642063 
 4652      68617200 
 4653              	.LASF46:
ARM GAS  /tmp/ccAsEkjn.s 			page 84


 4654 0137 705F6D70 		.ascii	"p_mpool\000"
 4654      6F6F6C00 
 4655              	.LASF99:
 4656 013f 6D5F7175 		.ascii	"m_queue\000"
 4656      65756500 
 4657              	.LASF78:
 4658 0147 76746C69 		.ascii	"vtlist\000"
 4658      737400
 4659              	.LASF118:
 4660 014e 706F7274 		.ascii	"port_unlock\000"
 4660      5F756E6C 
 4660      6F636B00 
 4661              	.LASF22:
 4662 015a 74736C69 		.ascii	"tslices_t\000"
 4662      6365735F 
 4662      7400
 4663              	.LASF116:
 4664 0164 6F757470 		.ascii	"output_queue_t\000"
 4664      75745F71 
 4664      75657565 
 4664      5F7400
 4665              	.LASF91:
 4666 0173 77747472 		.ascii	"wttrp\000"
 4666      7000
 4667              	.LASF76:
 4668 0179 63685F73 		.ascii	"ch_system\000"
 4668      79737465 
 4668      6D00
 4669              	.LASF8:
 4670 0183 6C6F6E67 		.ascii	"long int\000"
 4670      20696E74 
 4670      00
 4671              	.LASF20:
 4672 018c 74737461 		.ascii	"tstate_t\000"
 4672      74655F74 
 4672      00
 4673              	.LASF143:
 4674 0195 63684F51 		.ascii	"chOQGetI\000"
 4674      47657449 
 4674      00
 4675              	.LASF108:
 4676 019e 715F6275 		.ascii	"q_buffer\000"
 4676      66666572 
 4676      00
 4677              	.LASF110:
 4678 01a7 715F7772 		.ascii	"q_wrptr\000"
 4678      70747200 
 4679              	.LASF148:
 4680 01af 63685468 		.ascii	"chThdDequeueNextI\000"
 4680      64446571 
 4680      75657565 
 4680      4E657874 
 4680      4900
 4681              	.LASF33:
 4682 01c1 705F6E65 		.ascii	"p_newer\000"
 4682      77657200 
 4683              	.LASF96:
ARM GAS  /tmp/ccAsEkjn.s 			page 85


 4684 01c9 735F7175 		.ascii	"s_queue\000"
 4684      65756500 
 4685              	.LASF58:
 4686 01d1 725F6E65 		.ascii	"r_newer\000"
 4686      77657200 
 4687              	.LASF82:
 4688 01d9 72656761 		.ascii	"regarm_t\000"
 4688      726D5F74 
 4688      00
 4689              	.LASF65:
 4690 01e2 76745F70 		.ascii	"vt_prev\000"
 4690      72657600 
 4691              	.LASF132:
 4692 01ea 6C696E6B 		.ascii	"link\000"
 4692      00
 4693              	.LASF135:
 4694 01ef 63684951 		.ascii	"chIQPutI\000"
 4694      50757449 
 4694      00
 4695              	.LASF103:
 4696 01f8 6D757465 		.ascii	"mutex_t\000"
 4696      785F7400 
 4697              	.LASF121:
 4698 0200 76616C75 		.ascii	"value\000"
 4698      6500
 4699              	.LASF105:
 4700 0206 696F5F71 		.ascii	"io_queue\000"
 4700      75657565 
 4700      00
 4701              	.LASF80:
 4702 020f 69646C65 		.ascii	"idle_thread_wa\000"
 4702      5F746872 
 4702      6561645F 
 4702      776100
 4703              	.LASF26:
 4704 021e 636E745F 		.ascii	"cnt_t\000"
 4704      7400
 4705              	.LASF151:
 4706 0224 2F686F6D 		.ascii	"/home/peter/ChibiOS_16.1.4/os/rt/src/chqueues.c\000"
 4706      652F7065 
 4706      7465722F 
 4706      43686962 
 4706      694F535F 
 4707              	.LASF0:
 4708 0254 756E7369 		.ascii	"unsigned int\000"
 4708      676E6564 
 4708      20696E74 
 4708      00
 4709              	.LASF64:
 4710 0261 76745F6E 		.ascii	"vt_next\000"
 4710      65787400 
 4711              	.LASF134:
 4712 0269 63684951 		.ascii	"chIQResetI\000"
 4712      52657365 
 4712      744900
 4713              	.LASF92:
 4714 0274 77747365 		.ascii	"wtsemp\000"
ARM GAS  /tmp/ccAsEkjn.s 			page 86


 4714      6D7000
 4715              	.LASF41:
 4716 027b 705F6D73 		.ascii	"p_msgqueue\000"
 4716      67717565 
 4716      756500
 4717              	.LASF137:
 4718 0286 74696D65 		.ascii	"timeout\000"
 4718      6F757400 
 4719              	.LASF97:
 4720 028e 735F636E 		.ascii	"s_cnt\000"
 4720      7400
 4721              	.LASF6:
 4722 0294 73686F72 		.ascii	"short unsigned int\000"
 4722      7420756E 
 4722      7369676E 
 4722      65642069 
 4722      6E7400
 4723              	.LASF49:
 4724 02a7 63685F74 		.ascii	"ch_thread\000"
 4724      68726561 
 4724      6400
 4725              	.LASF24:
 4726 02b1 6D73675F 		.ascii	"msg_t\000"
 4726      7400
 4727              	.LASF75:
 4728 02b7 63685F73 		.ascii	"ch_system_t\000"
 4728      79737465 
 4728      6D5F7400 
 4729              	.LASF19:
 4730 02c3 746D6F64 		.ascii	"tmode_t\000"
 4730      655F7400 
 4731              	.LASF54:
 4732 02cb 63685F72 		.ascii	"ch_ready_list\000"
 4732      65616479 
 4732      5F6C6973 
 4732      7400
 4733              	.LASF25:
 4734 02d9 6576656E 		.ascii	"eventmask_t\000"
 4734      746D6173 
 4734      6B5F7400 
 4735              	.LASF7:
 4736 02e5 5F5F696E 		.ascii	"__int32_t\000"
 4736      7433325F 
 4736      7400
 4737              	.LASF83:
 4738 02ef 73746B61 		.ascii	"stkalign_t\000"
 4738      6C69676E 
 4738      5F7400
 4739              	.LASF144:
 4740 02fa 63684F51 		.ascii	"chOQWriteTimeout\000"
 4740      57726974 
 4740      6554696D 
 4740      656F7574 
 4740      00
 4741              	.LASF48:
 4742 030b 74687265 		.ascii	"threads_list_t\000"
 4742      6164735F 
ARM GAS  /tmp/ccAsEkjn.s 			page 87


 4742      6C697374 
 4742      5F7400
 4743              	.LASF122:
 4744 031a 63685468 		.ascii	"chThdQueueObjectInit\000"
 4744      64517565 
 4744      75654F62 
 4744      6A656374 
 4744      496E6974 
 4745              	.LASF40:
 4746 032f 705F7761 		.ascii	"p_waiting\000"
 4746      6974696E 
 4746      6700
 4747              	.LASF81:
 4748 0339 73697A65 		.ascii	"sizetype\000"
 4748      74797065 
 4748      00
 4749              	.LASF47:
 4750 0342 74687265 		.ascii	"thread_reference_t\000"
 4750      61645F72 
 4750      65666572 
 4750      656E6365 
 4750      5F7400
 4751              	.LASF70:
 4752 0355 63685F76 		.ascii	"ch_virtual_timers_list\000"
 4752      69727475 
 4752      616C5F74 
 4752      696D6572 
 4752      735F6C69 
 4753              	.LASF107:
 4754 036c 715F636F 		.ascii	"q_counter\000"
 4754      756E7465 
 4754      7200
 4755              	.LASF34:
 4756 0376 705F6F6C 		.ascii	"p_older\000"
 4756      64657200 
 4757              	.LASF57:
 4758 037e 725F6374 		.ascii	"r_ctx\000"
 4758      7800
 4759              	.LASF87:
 4760 0384 746D5F63 		.ascii	"tm_calibration_t\000"
 4760      616C6962 
 4760      72617469 
 4760      6F6E5F74 
 4760      00
 4761              	.LASF60:
 4762 0395 725F6375 		.ascii	"r_current\000"
 4762      7272656E 
 4762      7400
 4763              	.LASF59:
 4764 039f 725F6F6C 		.ascii	"r_older\000"
 4764      64657200 
 4765              	.LASF12:
 4766 03a7 5F5F7569 		.ascii	"__uint64_t\000"
 4766      6E743634 
 4766      5F7400
 4767              	.LASF21:
 4768 03b2 74726566 		.ascii	"trefs_t\000"
ARM GAS  /tmp/ccAsEkjn.s 			page 88


 4768      735F7400 
 4769              	.LASF114:
 4770 03ba 716E6F74 		.ascii	"qnotify_t\000"
 4770      6966795F 
 4770      7400
 4771              	.LASF62:
 4772 03c4 76697274 		.ascii	"virtual_timer_t\000"
 4772      75616C5F 
 4772      74696D65 
 4772      725F7400 
 4773              	.LASF30:
 4774 03d4 705F7072 		.ascii	"p_prev\000"
 4774      657600
 4775              	.LASF128:
 4776 03db 63684F51 		.ascii	"chOQIsFullI\000"
 4776      49734675 
 4776      6C6C4900 
 4777              	.LASF23:
 4778 03e7 74707269 		.ascii	"tprio_t\000"
 4778      6F5F7400 
 4779              	.LASF111:
 4780 03ef 715F7264 		.ascii	"q_rdptr\000"
 4780      70747200 
 4781              	.LASF73:
 4782 03f7 63685F73 		.ascii	"ch_system_debug\000"
 4782      79737465 
 4782      6D5F6465 
 4782      62756700 
 4783              	.LASF123:
 4784 0407 5F426F6F 		.ascii	"_Bool\000"
 4784      6C00
 4785              	.LASF15:
 4786 040d 696E7433 		.ascii	"int32_t\000"
 4786      325F7400 
 4787              	.LASF4:
 4788 0415 756E7369 		.ascii	"unsigned char\000"
 4788      676E6564 
 4788      20636861 
 4788      7200
 4789              	.LASF115:
 4790 0423 696E7075 		.ascii	"input_queue_t\000"
 4790      745F7175 
 4790      6575655F 
 4790      7400
 4791              	.LASF36:
 4792 0431 705F7374 		.ascii	"p_state\000"
 4792      61746500 
 4793              	.LASF44:
 4794 0439 705F6D74 		.ascii	"p_mtxlist\000"
 4794      786C6973 
 4794      7400
 4795              	.LASF5:
 4796 0443 73686F72 		.ascii	"short int\000"
 4796      7420696E 
 4796      7400
 4797              	.LASF39:
 4798 044d 705F7072 		.ascii	"p_preempt\000"
ARM GAS  /tmp/ccAsEkjn.s 			page 89


 4798      65656D70 
 4798      7400
 4799              	.LASF56:
 4800 0457 725F7072 		.ascii	"r_prio\000"
 4800      696F00
 4801              	.LASF94:
 4802 045e 65776D61 		.ascii	"ewmask\000"
 4802      736B00
 4803              	.LASF29:
 4804 0465 705F6E65 		.ascii	"p_next\000"
 4804      787400
 4805              	.LASF131:
 4806 046c 696E6679 		.ascii	"infy\000"
 4806      00
 4807              	.LASF37:
 4808 0471 705F666C 		.ascii	"p_flags\000"
 4808      61677300 
 4809              	.LASF145:
 4810 0479 5F5F6675 		.ascii	"__func__\000"
 4810      6E635F5F 
 4810      00
 4811              	.LASF124:
 4812 0482 63685379 		.ascii	"chSysLock\000"
 4812      734C6F63 
 4812      6B00
 4813              	.LASF51:
 4814 048c 74687265 		.ascii	"threads_queue_t\000"
 4814      6164735F 
 4814      71756575 
 4814      655F7400 
 4815              	.LASF63:
 4816 049c 63685F76 		.ascii	"ch_virtual_timer\000"
 4816      69727475 
 4816      616C5F74 
 4816      696D6572 
 4816      00
 4817              	.LASF95:
 4818 04ad 63685F73 		.ascii	"ch_semaphore\000"
 4818      656D6170 
 4818      686F7265 
 4818      00
 4819              	.LASF43:
 4820 04ba 705F6570 		.ascii	"p_epending\000"
 4820      656E6469 
 4820      6E6700
 4821              	.LASF126:
 4822 04c5 63684951 		.ascii	"chIQIsFullI\000"
 4822      49734675 
 4822      6C6C4900 
 4823              	.LASF16:
 4824 04d1 75696E74 		.ascii	"uint32_t\000"
 4824      33325F74 
 4824      00
 4825              	.LASF93:
 4826 04da 77746D74 		.ascii	"wtmtxp\000"
 4826      787000
 4827              	.LASF55:
ARM GAS  /tmp/ccAsEkjn.s 			page 90


 4828 04e1 725F7175 		.ascii	"r_queue\000"
 4828      65756500 
 4829              	.LASF66:
 4830 04e9 76745F64 		.ascii	"vt_delta\000"
 4830      656C7461 
 4830      00
 4831              	.LASF50:
 4832 04f2 63685F74 		.ascii	"ch_threads_list\000"
 4832      68726561 
 4832      64735F6C 
 4832      69737400 
 4833              	.LASF10:
 4834 0502 6C6F6E67 		.ascii	"long unsigned int\000"
 4834      20756E73 
 4834      69676E65 
 4834      6420696E 
 4834      7400
 4835              	.LASF150:
 4836 0514 474E5520 		.ascii	"GNU C 4.9.3 20150529 (prerelease) -mcpu=cortex-m3 -"
 4836      4320342E 
 4836      392E3320 
 4836      32303135 
 4836      30353239 
 4837 0547 6D6E6F2D 		.ascii	"mno-thumb-interwork -mthumb -ggdb -O2 -std=c99 -fom"
 4837      7468756D 
 4837      622D696E 
 4837      74657277 
 4837      6F726B20 
 4838 057a 69742D66 		.ascii	"it-frame-pointer -falign-functions=16 -ffunction-se"
 4838      72616D65 
 4838      2D706F69 
 4838      6E746572 
 4838      202D6661 
 4839 05ad 6374696F 		.ascii	"ctions -fdata-sections -fno-common\000"
 4839      6E73202D 
 4839      66646174 
 4839      612D7365 
 4839      6374696F 
 4840              	.LASF102:
 4841 05d0 63686172 		.ascii	"char\000"
 4841      00
 4842              	.LASF28:
 4843 05d5 74687265 		.ascii	"thread_t\000"
 4843      61645F74 
 4843      00
 4844              	.LASF101:
 4845 05de 6D5F6E65 		.ascii	"m_next\000"
 4845      787400
 4846              	.LASF27:
 4847 05e5 73797374 		.ascii	"systime_t\000"
 4847      696D655F 
 4847      7400
 4848              	.LASF45:
 4849 05ef 705F7265 		.ascii	"p_realprio\000"
 4849      616C7072 
 4849      696F00
 4850              	.LASF61:
ARM GAS  /tmp/ccAsEkjn.s 			page 91


 4851 05fa 76746675 		.ascii	"vtfunc_t\000"
 4851      6E635F74 
 4851      00
 4852              	.LASF9:
 4853 0603 5F5F7569 		.ascii	"__uint32_t\000"
 4853      6E743332 
 4853      5F7400
 4854              	.LASF119:
 4855 060e 5F5F7365 		.ascii	"__set_BASEPRI\000"
 4855      745F4241 
 4855      53455052 
 4855      4900
 4856              	.LASF74:
 4857 061c 70616E69 		.ascii	"panic_msg\000"
 4857      635F6D73 
 4857      6700
 4858              	.LASF86:
 4859 0626 6F666673 		.ascii	"offset\000"
 4859      657400
 4860              	.LASF141:
 4861 062d 63684F51 		.ascii	"chOQResetI\000"
 4861      52657365 
 4861      744900
 4862              	.LASF84:
 4863 0638 636F6E74 		.ascii	"context\000"
 4863      65787400 
 4864              	.LASF18:
 4865 0640 7274636E 		.ascii	"rtcnt_t\000"
 4865      745F7400 
 4866              	.LASF68:
 4867 0648 76745F70 		.ascii	"vt_par\000"
 4867      617200
 4868              	.LASF139:
 4869 064f 63684F51 		.ascii	"chOQObjectInit\000"
 4869      4F626A65 
 4869      6374496E 
 4869      697400
 4870              	.LASF109:
 4871 065e 715F746F 		.ascii	"q_top\000"
 4871      7000
 4872              	.LASF98:
 4873 0664 63685F6D 		.ascii	"ch_mutex\000"
 4873      75746578 
 4873      00
 4874              	.LASF38:
 4875 066d 705F7265 		.ascii	"p_refs\000"
 4875      667300
 4876              	.LASF127:
 4877 0674 63684951 		.ascii	"chIQIsEmptyI\000"
 4877      4973456D 
 4877      70747949 
 4877      00
 4878              	.LASF112:
 4879 0681 715F6E6F 		.ascii	"q_notify\000"
 4879      74696679 
 4879      00
 4880              	.LASF77:
ARM GAS  /tmp/ccAsEkjn.s 			page 92


 4881 068a 726C6973 		.ascii	"rlist\000"
 4881      7400
 4882              	.LASF14:
 4883 0690 75696E74 		.ascii	"uint8_t\000"
 4883      385F7400 
 4884              	.LASF90:
 4885 0698 77746F62 		.ascii	"wtobjp\000"
 4885      6A7000
 4886              	.LASF35:
 4887 069f 705F6E61 		.ascii	"p_name\000"
 4887      6D6500
 4888              	.LASF130:
 4889 06a6 73697A65 		.ascii	"size\000"
 4889      00
 4890              	.LASF129:
 4891 06ab 63684F51 		.ascii	"chOQIsEmptyI\000"
 4891      4973456D 
 4891      70747949 
 4891      00
 4892              	.LASF71:
 4893 06b8 76745F73 		.ascii	"vt_systime\000"
 4893      79737469 
 4893      6D6500
 4894              	.LASF125:
 4895 06c3 63685379 		.ascii	"chSysUnlock\000"
 4895      73556E6C 
 4895      6F636B00 
 4896              	.LASF42:
 4897 06cf 705F6D73 		.ascii	"p_msg\000"
 4897      6700
 4898              	.LASF113:
 4899 06d5 715F6C69 		.ascii	"q_link\000"
 4899      6E6B00
 4900              	.LASF100:
 4901 06dc 6D5F6F77 		.ascii	"m_owner\000"
 4901      6E657200 
 4902              	.LASF32:
 4903 06e4 705F6374 		.ascii	"p_ctx\000"
 4903      7800
 4904              	.LASF67:
 4905 06ea 76745F66 		.ascii	"vt_func\000"
 4905      756E6300 
 4906              	.LASF136:
 4907 06f2 63684951 		.ascii	"chIQGetTimeout\000"
 4907      47657454 
 4907      696D656F 
 4907      757400
 4908              	.LASF149:
 4909 0701 63685468 		.ascii	"chThdEnqueueTimeoutS\000"
 4909      64456E71 
 4909      75657565 
 4909      54696D65 
 4909      6F757453 
 4910              		.ident	"GCC: (15:4.9.3+svn227297-1) 4.9.3 20150529 (prerelease)"
ARM GAS  /tmp/ccAsEkjn.s 			page 93


DEFINED SYMBOLS
                            *ABS*:00000000 chqueues.c
     /tmp/ccAsEkjn.s:19     .text.chIQObjectInit:00000000 $t
     /tmp/ccAsEkjn.s:25     .text.chIQObjectInit:00000000 chIQObjectInit
     /tmp/ccAsEkjn.s:81     .text.chIQResetI:00000000 $t
     /tmp/ccAsEkjn.s:87     .text.chIQResetI:00000000 chIQResetI
     /tmp/ccAsEkjn.s:112    .text.chIQPutI:00000000 $t
     /tmp/ccAsEkjn.s:118    .text.chIQPutI:00000000 chIQPutI
     /tmp/ccAsEkjn.s:191    .text.chIQGetTimeout:00000000 $t
     /tmp/ccAsEkjn.s:197    .text.chIQGetTimeout:00000000 chIQGetTimeout
     /tmp/ccAsEkjn.s:335    .text.chIQReadTimeout:00000000 $t
     /tmp/ccAsEkjn.s:341    .text.chIQReadTimeout:00000000 chIQReadTimeout
     /tmp/ccAsEkjn.s:525    .text.chOQObjectInit:00000000 $t
     /tmp/ccAsEkjn.s:531    .text.chOQObjectInit:00000000 chOQObjectInit
     /tmp/ccAsEkjn.s:581    .text.chOQResetI:00000000 $t
     /tmp/ccAsEkjn.s:587    .text.chOQResetI:00000000 chOQResetI
     /tmp/ccAsEkjn.s:615    .text.chOQPutTimeout:00000000 $t
     /tmp/ccAsEkjn.s:621    .text.chOQPutTimeout:00000000 chOQPutTimeout
     /tmp/ccAsEkjn.s:751    .text.chOQGetI:00000000 $t
     /tmp/ccAsEkjn.s:757    .text.chOQGetI:00000000 chOQGetI
     /tmp/ccAsEkjn.s:827    .text.chOQWriteTimeout:00000000 $t
     /tmp/ccAsEkjn.s:833    .text.chOQWriteTimeout:00000000 chOQWriteTimeout
                     .debug_frame:00000010 $d

UNDEFINED SYMBOLS
chThdDequeueAllI
chThdDequeueNextI
chThdEnqueueTimeoutS
