ARM GAS  /tmp/ccAsEkjn.s 			page 1


   1              		.syntax unified
   2              		.cpu cortex-m3
   3              		.fpu softvfp
   4              		.eabi_attribute 20, 1
   5              		.eabi_attribute 21, 1
   6              		.eabi_attribute 23, 3
   7              		.eabi_attribute 24, 1
   8              		.eabi_attribute 25, 1
   9              		.eabi_attribute 26, 1
  10              		.eabi_attribute 30, 2
  11              		.eabi_attribute 34, 1
  12              		.eabi_attribute 18, 4
  13              		.thumb
  14              		.file	"chqueues.c"
  15              		.text
  16              	.Ltext0:
  17              		.cfi_sections	.debug_frame
  18              		.section	.text.chIQObjectInit,"ax",%progbits
  19              		.align	2
  20              		.p2align 4,,15
  21              		.global	chIQObjectInit
  22              		.thumb
  23              		.thumb_func
  24              		.type	chIQObjectInit, %function
  25              	chIQObjectInit:
  26              	.LFB170:
  27              		.file 1 "/home/peter/ChibiOS_16.1.4/os/rt/src/chqueues.c"
  28              		.loc 1 88 0
  29              		.cfi_startproc
  30              		@ args = 4, pretend = 0, frame = 0
  31              		@ frame_needed = 0, uses_anonymous_args = 0
  32              		@ link register save eliminated.
  33              	.LVL0:
  34 0000 30B4     		push	{r4, r5}
  35              		.cfi_def_cfa_offset 8
  36              		.cfi_offset 4, -8
  37              		.cfi_offset 5, -4
  38              		.loc 1 88 0
  39 0002 029C     		ldr	r4, [sp, #8]
  40              		.loc 1 91 0
  41 0004 0025     		movs	r5, #0
  42              		.loc 1 95 0
  43 0006 0A44     		add	r2, r2, r1
  44              	.LVL1:
  45              		.loc 1 91 0
  46 0008 8560     		str	r5, [r0, #8]
  47              		.loc 1 97 0
  48 000a 0462     		str	r4, [r0, #32]
  49              		.loc 1 95 0
  50 000c 0261     		str	r2, [r0, #16]
  51              	.LBB108:
  52              	.LBB109:
  53              	.LBB110:
  54              		.file 2 "/home/peter/ChibiOS_16.1.4/os/rt/include/chschd.h"
  55              		.loc 2 604 0
  56 000e 0060     		str	r0, [r0]
  57              		.loc 2 605 0
ARM GAS  /tmp/ccAsEkjn.s 			page 2


  58 0010 4060     		str	r0, [r0, #4]
  59              	.LBE110:
  60              	.LBE109:
  61              	.LBE108:
  62              		.loc 1 92 0
  63 0012 C160     		str	r1, [r0, #12]
  64              		.loc 1 93 0
  65 0014 8161     		str	r1, [r0, #24]
  66              		.loc 1 94 0
  67 0016 4161     		str	r1, [r0, #20]
  68              		.loc 1 96 0
  69 0018 C361     		str	r3, [r0, #28]
  70              		.loc 1 98 0
  71 001a 30BC     		pop	{r4, r5}
  72              		.cfi_restore 5
  73              		.cfi_restore 4
  74              		.cfi_def_cfa_offset 0
  75              	.LVL2:
  76 001c 7047     		bx	lr
  77              		.cfi_endproc
  78              	.LFE170:
  79              		.size	chIQObjectInit, .-chIQObjectInit
  80 001e 00BF     		.section	.text.chIQResetI,"ax",%progbits
  81              		.align	2
  82              		.p2align 4,,15
  83              		.global	chIQResetI
  84              		.thumb
  85              		.thumb_func
  86              		.type	chIQResetI, %function
  87              	chIQResetI:
  88              	.LFB171:
  89              		.loc 1 111 0
  90              		.cfi_startproc
  91              		@ args = 0, pretend = 0, frame = 0
  92              		@ frame_needed = 0, uses_anonymous_args = 0
  93              		@ link register save eliminated.
  94              	.LVL3:
  95              		.loc 1 115 0
  96 0000 C268     		ldr	r2, [r0, #12]
  97              		.loc 1 117 0
  98 0002 0021     		movs	r1, #0
  99 0004 8160     		str	r1, [r0, #8]
 100              		.loc 1 115 0
 101 0006 8261     		str	r2, [r0, #24]
 102              		.loc 1 116 0
 103 0008 4261     		str	r2, [r0, #20]
 104              		.loc 1 118 0
 105 000a 6FF00101 		mvn	r1, #1
 106 000e FFF7FEBF 		b	chThdDequeueAllI
 107              	.LVL4:
 108              		.cfi_endproc
 109              	.LFE171:
 110              		.size	chIQResetI, .-chIQResetI
 111 0012 00BFAFF3 		.section	.text.chIQPutI,"ax",%progbits
 111      0080AFF3 
 111      0080AFF3 
 111      0080
ARM GAS  /tmp/ccAsEkjn.s 			page 3


 112              		.align	2
 113              		.p2align 4,,15
 114              		.global	chIQPutI
 115              		.thumb
 116              		.thumb_func
 117              		.type	chIQPutI, %function
 118              	chIQPutI:
 119              	.LFB172:
 120              		.loc 1 134 0
 121              		.cfi_startproc
 122              		@ args = 0, pretend = 0, frame = 0
 123              		@ frame_needed = 0, uses_anonymous_args = 0
 124              	.LVL5:
 125              	.LBB111:
 126              	.LBB112:
 127              		.file 3 "/home/peter/ChibiOS_16.1.4/os/rt/include/chqueues.h"
 128              		.loc 3 325 0
 129 0000 4369     		ldr	r3, [r0, #20]
 130 0002 8269     		ldr	r2, [r0, #24]
 131              	.LBE112:
 132              	.LBE111:
 133              		.loc 1 134 0
 134 0004 10B5     		push	{r4, lr}
 135              		.cfi_def_cfa_offset 8
 136              		.cfi_offset 4, -8
 137              		.cfi_offset 14, -4
 138              	.LBB115:
 139              	.LBB113:
 140              		.loc 3 325 0
 141 0006 9342     		cmp	r3, r2
 142 0008 10D0     		beq	.L13
 143              	.L5:
 144              	.LBE113:
 145              	.LBE115:
 146              		.loc 1 142 0
 147 000a 8268     		ldr	r2, [r0, #8]
 148              		.loc 1 143 0
 149 000c 5C1C     		adds	r4, r3, #1
 150              		.loc 1 142 0
 151 000e 0132     		adds	r2, r2, #1
 152 0010 8260     		str	r2, [r0, #8]
 153              		.loc 1 143 0
 154 0012 4461     		str	r4, [r0, #20]
 155 0014 1970     		strb	r1, [r3]
 156              		.loc 1 144 0
 157 0016 4269     		ldr	r2, [r0, #20]
 158 0018 0369     		ldr	r3, [r0, #16]
 159 001a 9A42     		cmp	r2, r3
 160 001c 01D3     		bcc	.L8
 161              		.loc 1 145 0
 162 001e C368     		ldr	r3, [r0, #12]
 163 0020 4361     		str	r3, [r0, #20]
 164              	.L8:
 165              		.loc 1 148 0
 166 0022 0021     		movs	r1, #0
 167              	.LVL6:
 168 0024 FFF7FEFF 		bl	chThdDequeueNextI
ARM GAS  /tmp/ccAsEkjn.s 			page 4


 169              	.LVL7:
 170              		.loc 1 150 0
 171 0028 0020     		movs	r0, #0
 172 002a 10BD     		pop	{r4, pc}
 173              	.LVL8:
 174              	.L13:
 175              	.LBB116:
 176              	.LBB114:
 177              		.loc 3 325 0
 178 002c 8268     		ldr	r2, [r0, #8]
 179 002e 002A     		cmp	r2, #0
 180 0030 EBD0     		beq	.L5
 181              	.LBE114:
 182              	.LBE116:
 183              		.loc 1 139 0
 184 0032 6FF00300 		mvn	r0, #3
 185              	.LVL9:
 186 0036 10BD     		pop	{r4, pc}
 187              		.cfi_endproc
 188              	.LFE172:
 189              		.size	chIQPutI, .-chIQPutI
 190 0038 AFF30080 		.section	.text.chIQGetTimeout,"ax",%progbits
 190      AFF30080 
 191              		.align	2
 192              		.p2align 4,,15
 193              		.global	chIQGetTimeout
 194              		.thumb
 195              		.thumb_func
 196              		.type	chIQGetTimeout, %function
 197              	chIQGetTimeout:
 198              	.LFB173:
 199              		.loc 1 173 0
 200              		.cfi_startproc
 201              		@ args = 0, pretend = 0, frame = 0
 202              		@ frame_needed = 0, uses_anonymous_args = 0
 203              	.LVL10:
 204 0000 70B5     		push	{r4, r5, r6, lr}
 205              		.cfi_def_cfa_offset 16
 206              		.cfi_offset 4, -16
 207              		.cfi_offset 5, -12
 208              		.cfi_offset 6, -8
 209              		.cfi_offset 14, -4
 210              	.LBB117:
 211              	.LBB118:
 212              	.LBB119:
 213              	.LBB120:
 214              		.file 4 "/home/peter/ChibiOS_16.1.4/os/ext/CMSIS/include/core_cmFunc.h"
 215              		.loc 4 548 0
 216 0002 2023     		movs	r3, #32
 217              	.LBE120:
 218              	.LBE119:
 219              	.LBE118:
 220              	.LBE117:
 221              		.loc 1 173 0
 222 0004 0E46     		mov	r6, r1
 223 0006 0446     		mov	r4, r0
 224              	.LBB124:
ARM GAS  /tmp/ccAsEkjn.s 			page 5


 225              	.LBB123:
 226              	.LBB122:
 227              	.LBB121:
 228              		.loc 4 548 0
 229              	@ 548 "/home/peter/ChibiOS_16.1.4/os/ext/CMSIS/include/core_cmFunc.h" 1
 230 0008 83F31188 		MSR basepri, r3
 231              	@ 0 "" 2
 232              		.thumb
 233              	.LBE121:
 234              	.LBE122:
 235              	.LBE123:
 236              	.LBE124:
 237              		.loc 1 177 0
 238 000c C369     		ldr	r3, [r0, #28]
 239 000e 3BB1     		cbz	r3, .L16
 240              		.loc 1 178 0
 241 0010 9847     		blx	r3
 242              	.LVL11:
 243 0012 05E0     		b	.L16
 244              	.LVL12:
 245              	.L18:
 246              	.LBB125:
 247              		.loc 1 182 0
 248 0014 2046     		mov	r0, r4
 249 0016 3146     		mov	r1, r6
 250 0018 FFF7FEFF 		bl	chThdEnqueueTimeoutS
 251              	.LVL13:
 252              		.loc 1 183 0
 253 001c 0028     		cmp	r0, #0
 254 001e 13DB     		blt	.L25
 255              	.LVL14:
 256              	.L16:
 257              	.LBE125:
 258              	.LBB131:
 259              	.LBB132:
 260              		.loc 3 307 0
 261 0020 A568     		ldr	r5, [r4, #8]
 262              	.LBE132:
 263              	.LBE131:
 264              		.loc 1 181 0
 265 0022 002D     		cmp	r5, #0
 266 0024 F6D0     		beq	.L18
 267              		.loc 1 190 0
 268 0026 A169     		ldr	r1, [r4, #24]
 269              		.loc 1 189 0
 270 0028 A368     		ldr	r3, [r4, #8]
 271              		.loc 1 191 0
 272 002a 2569     		ldr	r5, [r4, #16]
 273              		.loc 1 190 0
 274 002c 4A1C     		adds	r2, r1, #1
 275              		.loc 1 189 0
 276 002e 013B     		subs	r3, r3, #1
 277              		.loc 1 191 0
 278 0030 AA42     		cmp	r2, r5
 279              		.loc 1 189 0
 280 0032 A360     		str	r3, [r4, #8]
 281              		.loc 1 192 0
ARM GAS  /tmp/ccAsEkjn.s 			page 6


 282 0034 28BF     		it	cs
 283 0036 E368     		ldrcs	r3, [r4, #12]
 284              		.loc 1 190 0
 285 0038 A261     		str	r2, [r4, #24]
 286 003a 0878     		ldrb	r0, [r1]	@ zero_extendqisi2
 287              	.LVL15:
 288              		.loc 1 192 0
 289 003c 28BF     		it	cs
 290 003e A361     		strcs	r3, [r4, #24]
 291              	.LVL16:
 292              	.LBB133:
 293              	.LBB134:
 294              	.LBB135:
 295              	.LBB136:
 296              	.LBB137:
 297              		.loc 4 548 0
 298 0040 0023     		movs	r3, #0
 299              	@ 548 "/home/peter/ChibiOS_16.1.4/os/ext/CMSIS/include/core_cmFunc.h" 1
 300 0042 83F31188 		MSR basepri, r3
 301              	@ 0 "" 2
 302              		.thumb
 303              	.LBE137:
 304              	.LBE136:
 305              	.LBE135:
 306              	.LBE134:
 307              	.LBE133:
 308              		.loc 1 197 0
 309 0046 70BD     		pop	{r4, r5, r6, pc}
 310              	.LVL17:
 311              	.L25:
 312              	.LBB138:
 313              	.LBB126:
 314              	.LBB127:
 315              	.LBB128:
 316              	.LBB129:
 317              	.LBB130:
 318              		.loc 4 548 0
 319              	@ 548 "/home/peter/ChibiOS_16.1.4/os/ext/CMSIS/include/core_cmFunc.h" 1
 320 0048 85F31188 		MSR basepri, r5
 321              	@ 0 "" 2
 322              		.thumb
 323              	.LBE130:
 324              	.LBE129:
 325              	.LBE128:
 326              	.LBE127:
 327              	.LBE126:
 328              		.loc 1 185 0
 329 004c 70BD     		pop	{r4, r5, r6, pc}
 330              	.LBE138:
 331              		.cfi_endproc
 332              	.LFE173:
 333              		.size	chIQGetTimeout, .-chIQGetTimeout
 334 004e 00BF     		.section	.text.chIQReadTimeout,"ax",%progbits
 335              		.align	2
 336              		.p2align 4,,15
 337              		.global	chIQReadTimeout
 338              		.thumb
ARM GAS  /tmp/ccAsEkjn.s 			page 7


 339              		.thumb_func
 340              		.type	chIQReadTimeout, %function
 341              	chIQReadTimeout:
 342              	.LFB174:
 343              		.loc 1 224 0
 344              		.cfi_startproc
 345              		@ args = 0, pretend = 0, frame = 8
 346              		@ frame_needed = 0, uses_anonymous_args = 0
 347              	.LVL18:
 348 0000 2DE9F04F 		push	{r4, r5, r6, r7, r8, r9, r10, fp, lr}
 349              		.cfi_def_cfa_offset 36
 350              		.cfi_offset 4, -36
 351              		.cfi_offset 5, -32
 352              		.cfi_offset 6, -28
 353              		.cfi_offset 7, -24
 354              		.cfi_offset 8, -20
 355              		.cfi_offset 9, -16
 356              		.cfi_offset 10, -12
 357              		.cfi_offset 11, -8
 358              		.cfi_offset 14, -4
 359 0004 0446     		mov	r4, r0
 360 0006 83B0     		sub	sp, sp, #12
 361              		.cfi_def_cfa_offset 48
 362              		.loc 1 224 0
 363 0008 8946     		mov	r9, r1
 364 000a 9346     		mov	fp, r2
 365 000c 1D46     		mov	r5, r3
 366              		.loc 1 225 0
 367 000e D0F81C80 		ldr	r8, [r0, #28]
 368              	.LVL19:
 369              	.LBB139:
 370              	.LBB140:
 371              	.LBB141:
 372              	.LBB142:
 373              		.loc 4 548 0
 374 0012 2027     		movs	r7, #32
 375              	@ 548 "/home/peter/ChibiOS_16.1.4/os/ext/CMSIS/include/core_cmFunc.h" 1
 376 0014 87F31188 		MSR basepri, r7
 377              	@ 0 "" 2
 378              		.thumb
 379              	.LBE142:
 380              	.LBE141:
 381              	.LBE140:
 382              	.LBE139:
 383              		.loc 1 226 0
 384 0018 0026     		movs	r6, #0
 385              	.LBB143:
 386              	.LBB144:
 387              	.LBB145:
 388              	.LBB146:
 389              	.LBB147:
 390              		.loc 4 548 0
 391 001a B246     		mov	r10, r6
 392              	.LBE147:
 393              	.LBE146:
 394              	.LBE145:
 395              	.LBE144:
ARM GAS  /tmp/ccAsEkjn.s 			page 8


 396              	.LBE143:
 397              	.LBB152:
 398              	.LBB153:
 399              	.LBB154:
 400              	.LBB155:
 401 001c 0197     		str	r7, [sp, #4]
 402              	.LVL20:
 403              	.L32:
 404              	.LBE155:
 405              	.LBE154:
 406              	.LBE153:
 407              	.LBE152:
 408              		.loc 1 232 0
 409 001e B8F1000F 		cmp	r8, #0
 410 0022 07D0     		beq	.L28
 411              		.loc 1 233 0
 412 0024 2046     		mov	r0, r4
 413 0026 C047     		blx	r8
 414              	.LVL21:
 415 0028 04E0     		b	.L28
 416              	.LVL22:
 417              	.L30:
 418              		.loc 1 237 0
 419 002a 2046     		mov	r0, r4
 420 002c 2946     		mov	r1, r5
 421 002e FFF7FEFF 		bl	chThdEnqueueTimeoutS
 422              	.LVL23:
 423 0032 D0B9     		cbnz	r0, .L39
 424              	.LVL24:
 425              	.L28:
 426              	.LBB159:
 427              	.LBB160:
 428              		.loc 3 307 0
 429 0034 A768     		ldr	r7, [r4, #8]
 430              	.LBE160:
 431              	.LBE159:
 432              		.loc 1 236 0
 433 0036 002F     		cmp	r7, #0
 434 0038 F7D0     		beq	.L30
 435              		.loc 1 244 0
 436 003a A269     		ldr	r2, [r4, #24]
 437              		.loc 1 243 0
 438 003c A368     		ldr	r3, [r4, #8]
 439              		.loc 1 244 0
 440 003e 511C     		adds	r1, r2, #1
 441              		.loc 1 243 0
 442 0040 013B     		subs	r3, r3, #1
 443              		.loc 1 244 0
 444 0042 A161     		str	r1, [r4, #24]
 445              		.loc 1 243 0
 446 0044 A360     		str	r3, [r4, #8]
 447              		.loc 1 244 0
 448 0046 1378     		ldrb	r3, [r2]	@ zero_extendqisi2
 449 0048 09F8013B 		strb	r3, [r9], #1
 450              	.LVL25:
 451              		.loc 1 245 0
 452 004c 2369     		ldr	r3, [r4, #16]
ARM GAS  /tmp/ccAsEkjn.s 			page 9


 453 004e A269     		ldr	r2, [r4, #24]
 454 0050 9A42     		cmp	r2, r3
 455              		.loc 1 246 0
 456 0052 24BF     		itt	cs
 457 0054 E368     		ldrcs	r3, [r4, #12]
 458 0056 A361     		strcs	r3, [r4, #24]
 459              	.LVL26:
 460              	.LBB161:
 461              	.LBB151:
 462              	.LBB150:
 463              	.LBB149:
 464              	.LBB148:
 465              		.loc 4 548 0
 466              	@ 548 "/home/peter/ChibiOS_16.1.4/os/ext/CMSIS/include/core_cmFunc.h" 1
 467 0058 8AF31188 		MSR basepri, r10
 468              	@ 0 "" 2
 469              		.thumb
 470              	.LBE148:
 471              	.LBE149:
 472              	.LBE150:
 473              	.LBE151:
 474              	.LBE161:
 475              		.loc 1 250 0
 476 005c 0136     		adds	r6, r6, #1
 477              	.LVL27:
 478              		.loc 1 251 0
 479 005e B345     		cmp	fp, r6
 480 0060 05D0     		beq	.L29
 481              	.LVL28:
 482              	.LBB162:
 483              	.LBB158:
 484              	.LBB157:
 485              	.LBB156:
 486              		.loc 4 548 0
 487 0062 019B     		ldr	r3, [sp, #4]
 488              	@ 548 "/home/peter/ChibiOS_16.1.4/os/ext/CMSIS/include/core_cmFunc.h" 1
 489 0064 83F31188 		MSR basepri, r3
 490              	@ 0 "" 2
 491              		.thumb
 492 0068 D9E7     		b	.L32
 493              	.LVL29:
 494              	.L39:
 495              	.LBE156:
 496              	.LBE157:
 497              	.LBE158:
 498              	.LBE162:
 499              	.LBB163:
 500              	.LBB164:
 501              	.LBB165:
 502              	.LBB166:
 503              	.LBB167:
 504              	@ 548 "/home/peter/ChibiOS_16.1.4/os/ext/CMSIS/include/core_cmFunc.h" 1
 505 006a 87F31188 		MSR basepri, r7
 506              	@ 0 "" 2
 507              	.LVL30:
 508              		.thumb
 509              	.L29:
ARM GAS  /tmp/ccAsEkjn.s 			page 10


 510              	.LBE167:
 511              	.LBE166:
 512              	.LBE165:
 513              	.LBE164:
 514              	.LBE163:
 515              		.loc 1 257 0
 516 006e 3046     		mov	r0, r6
 517 0070 03B0     		add	sp, sp, #12
 518              		.cfi_def_cfa_offset 36
 519              		@ sp needed
 520 0072 BDE8F08F 		pop	{r4, r5, r6, r7, r8, r9, r10, fp, pc}
 521              		.cfi_endproc
 522              	.LFE174:
 523              		.size	chIQReadTimeout, .-chIQReadTimeout
 524 0076 00BFAFF3 		.section	.text.chOQObjectInit,"ax",%progbits
 524      0080AFF3 
 524      0080
 525              		.align	2
 526              		.p2align 4,,15
 527              		.global	chOQObjectInit
 528              		.thumb
 529              		.thumb_func
 530              		.type	chOQObjectInit, %function
 531              	chOQObjectInit:
 532              	.LFB175:
 533              		.loc 1 276 0
 534              		.cfi_startproc
 535              		@ args = 4, pretend = 0, frame = 0
 536              		@ frame_needed = 0, uses_anonymous_args = 0
 537              		@ link register save eliminated.
 538              	.LVL31:
 539 0000 30B4     		push	{r4, r5}
 540              		.cfi_def_cfa_offset 8
 541              		.cfi_offset 4, -8
 542              		.cfi_offset 5, -4
 543              		.loc 1 276 0
 544 0002 029C     		ldr	r4, [sp, #8]
 545              		.loc 1 283 0
 546 0004 8D18     		adds	r5, r1, r2
 547 0006 0561     		str	r5, [r0, #16]
 548              		.loc 1 285 0
 549 0008 0462     		str	r4, [r0, #32]
 550              	.LBB168:
 551              	.LBB169:
 552              	.LBB170:
 553              		.loc 2 604 0
 554 000a 0060     		str	r0, [r0]
 555              		.loc 2 605 0
 556 000c 4060     		str	r0, [r0, #4]
 557              	.LBE170:
 558              	.LBE169:
 559              	.LBE168:
 560              		.loc 1 279 0
 561 000e 8260     		str	r2, [r0, #8]
 562              		.loc 1 280 0
 563 0010 C160     		str	r1, [r0, #12]
 564              		.loc 1 281 0
ARM GAS  /tmp/ccAsEkjn.s 			page 11


 565 0012 8161     		str	r1, [r0, #24]
 566              		.loc 1 282 0
 567 0014 4161     		str	r1, [r0, #20]
 568              		.loc 1 284 0
 569 0016 C361     		str	r3, [r0, #28]
 570              		.loc 1 286 0
 571 0018 30BC     		pop	{r4, r5}
 572              		.cfi_restore 5
 573              		.cfi_restore 4
 574              		.cfi_def_cfa_offset 0
 575              	.LVL32:
 576 001a 7047     		bx	lr
 577              		.cfi_endproc
 578              	.LFE175:
 579              		.size	chOQObjectInit, .-chOQObjectInit
 580 001c AFF30080 		.section	.text.chOQResetI,"ax",%progbits
 581              		.align	2
 582              		.p2align 4,,15
 583              		.global	chOQResetI
 584              		.thumb
 585              		.thumb_func
 586              		.type	chOQResetI, %function
 587              	chOQResetI:
 588              	.LFB176:
 589              		.loc 1 299 0
 590              		.cfi_startproc
 591              		@ args = 0, pretend = 0, frame = 0
 592              		@ frame_needed = 0, uses_anonymous_args = 0
 593              		@ link register save eliminated.
 594              	.LVL33:
 595              		.loc 1 303 0
 596 0000 C168     		ldr	r1, [r0, #12]
 597              		.loc 1 305 0
 598 0002 0269     		ldr	r2, [r0, #16]
 599              		.loc 1 303 0
 600 0004 8161     		str	r1, [r0, #24]
 601              		.loc 1 305 0
 602 0006 521A     		subs	r2, r2, r1
 603              		.loc 1 304 0
 604 0008 4161     		str	r1, [r0, #20]
 605              		.loc 1 305 0
 606 000a 8260     		str	r2, [r0, #8]
 607              		.loc 1 306 0
 608 000c 6FF00101 		mvn	r1, #1
 609 0010 FFF7FEBF 		b	chThdDequeueAllI
 610              	.LVL34:
 611              		.cfi_endproc
 612              	.LFE176:
 613              		.size	chOQResetI, .-chOQResetI
 614 0014 AFF30080 		.section	.text.chOQPutTimeout,"ax",%progbits
 614      AFF30080 
 614      AFF30080 
 615              		.align	2
 616              		.p2align 4,,15
 617              		.global	chOQPutTimeout
 618              		.thumb
 619              		.thumb_func
ARM GAS  /tmp/ccAsEkjn.s 			page 12


 620              		.type	chOQPutTimeout, %function
 621              	chOQPutTimeout:
 622              	.LFB177:
 623              		.loc 1 331 0
 624              		.cfi_startproc
 625              		@ args = 0, pretend = 0, frame = 0
 626              		@ frame_needed = 0, uses_anonymous_args = 0
 627              	.LVL35:
 628 0000 F8B5     		push	{r3, r4, r5, r6, r7, lr}
 629              		.cfi_def_cfa_offset 24
 630              		.cfi_offset 3, -24
 631              		.cfi_offset 4, -20
 632              		.cfi_offset 5, -16
 633              		.cfi_offset 6, -12
 634              		.cfi_offset 7, -8
 635              		.cfi_offset 14, -4
 636              		.loc 1 331 0
 637 0002 0446     		mov	r4, r0
 638 0004 0F46     		mov	r7, r1
 639 0006 1646     		mov	r6, r2
 640              	.LBB171:
 641              	.LBB172:
 642              	.LBB173:
 643              	.LBB174:
 644              		.loc 4 548 0
 645 0008 2023     		movs	r3, #32
 646              	@ 548 "/home/peter/ChibiOS_16.1.4/os/ext/CMSIS/include/core_cmFunc.h" 1
 647 000a 83F31188 		MSR basepri, r3
 648              	@ 0 "" 2
 649              		.thumb
 650 000e 05E0     		b	.L44
 651              	.LVL36:
 652              	.L46:
 653              	.LBE174:
 654              	.LBE173:
 655              	.LBE172:
 656              	.LBE171:
 657              	.LBB175:
 658              		.loc 1 335 0
 659 0010 2046     		mov	r0, r4
 660 0012 3146     		mov	r1, r6
 661 0014 FFF7FEFF 		bl	chThdEnqueueTimeoutS
 662              	.LVL37:
 663              		.loc 1 336 0
 664 0018 0028     		cmp	r0, #0
 665 001a 17DB     		blt	.L54
 666              	.LVL38:
 667              	.L44:
 668              	.LBE175:
 669              	.LBB181:
 670              	.LBB182:
 671              		.loc 3 411 0
 672 001c A568     		ldr	r5, [r4, #8]
 673              	.LBE182:
 674              	.LBE181:
 675              		.loc 1 334 0
 676 001e 002D     		cmp	r5, #0
ARM GAS  /tmp/ccAsEkjn.s 			page 13


 677 0020 F6D0     		beq	.L46
 678              		.loc 1 343 0
 679 0022 6269     		ldr	r2, [r4, #20]
 680              		.loc 1 342 0
 681 0024 A368     		ldr	r3, [r4, #8]
 682              		.loc 1 343 0
 683 0026 511C     		adds	r1, r2, #1
 684              		.loc 1 342 0
 685 0028 013B     		subs	r3, r3, #1
 686              		.loc 1 343 0
 687 002a 6161     		str	r1, [r4, #20]
 688              		.loc 1 342 0
 689 002c A360     		str	r3, [r4, #8]
 690              		.loc 1 343 0
 691 002e 1770     		strb	r7, [r2]
 692              		.loc 1 344 0
 693 0030 2369     		ldr	r3, [r4, #16]
 694 0032 6269     		ldr	r2, [r4, #20]
 695 0034 9A42     		cmp	r2, r3
 696              		.loc 1 345 0
 697 0036 24BF     		itt	cs
 698 0038 E368     		ldrcs	r3, [r4, #12]
 699 003a 6361     		strcs	r3, [r4, #20]
 700              		.loc 1 348 0
 701 003c E369     		ldr	r3, [r4, #28]
 702 003e 0BB1     		cbz	r3, .L48
 703              		.loc 1 349 0
 704 0040 2046     		mov	r0, r4
 705 0042 9847     		blx	r3
 706              	.LVL39:
 707              	.L48:
 708              	.LBB183:
 709              	.LBB184:
 710              	.LBB185:
 711              	.LBB186:
 712              	.LBB187:
 713              		.loc 4 548 0
 714 0044 0020     		movs	r0, #0
 715              	@ 548 "/home/peter/ChibiOS_16.1.4/os/ext/CMSIS/include/core_cmFunc.h" 1
 716 0046 80F31188 		MSR basepri, r0
 717              	@ 0 "" 2
 718              		.thumb
 719              	.LBE187:
 720              	.LBE186:
 721              	.LBE185:
 722              	.LBE184:
 723              	.LBE183:
 724              		.loc 1 354 0
 725 004a F8BD     		pop	{r3, r4, r5, r6, r7, pc}
 726              	.LVL40:
 727              	.L54:
 728              	.LBB188:
 729              	.LBB176:
 730              	.LBB177:
 731              	.LBB178:
 732              	.LBB179:
 733              	.LBB180:
ARM GAS  /tmp/ccAsEkjn.s 			page 14


 734              		.loc 4 548 0
 735              	@ 548 "/home/peter/ChibiOS_16.1.4/os/ext/CMSIS/include/core_cmFunc.h" 1
 736 004c 85F31188 		MSR basepri, r5
 737              	@ 0 "" 2
 738              		.thumb
 739              	.LBE180:
 740              	.LBE179:
 741              	.LBE178:
 742              	.LBE177:
 743              	.LBE176:
 744              		.loc 1 338 0
 745 0050 F8BD     		pop	{r3, r4, r5, r6, r7, pc}
 746              	.LBE188:
 747              		.cfi_endproc
 748              	.LFE177:
 749              		.size	chOQPutTimeout, .-chOQPutTimeout
 750 0052 00BFAFF3 		.section	.text.chOQGetI,"ax",%progbits
 750      0080AFF3 
 750      0080AFF3 
 750      0080
 751              		.align	2
 752              		.p2align 4,,15
 753              		.global	chOQGetI
 754              		.thumb
 755              		.thumb_func
 756              		.type	chOQGetI, %function
 757              	chOQGetI:
 758              	.LFB178:
 759              		.loc 1 366 0
 760              		.cfi_startproc
 761              		@ args = 0, pretend = 0, frame = 0
 762              		@ frame_needed = 0, uses_anonymous_args = 0
 763              	.LVL41:
 764 0000 38B5     		push	{r3, r4, r5, lr}
 765              		.cfi_def_cfa_offset 16
 766              		.cfi_offset 3, -16
 767              		.cfi_offset 4, -12
 768              		.cfi_offset 5, -8
 769              		.cfi_offset 14, -4
 770              	.LBB189:
 771              	.LBB190:
 772              		.loc 3 393 0
 773 0002 4269     		ldr	r2, [r0, #20]
 774 0004 8369     		ldr	r3, [r0, #24]
 775 0006 9A42     		cmp	r2, r3
 776 0008 0FD0     		beq	.L63
 777              	.L56:
 778              	.LBE190:
 779              	.LBE189:
 780              		.loc 1 375 0
 781 000a 8268     		ldr	r2, [r0, #8]
 782              		.loc 1 377 0
 783 000c 0569     		ldr	r5, [r0, #16]
 784              		.loc 1 376 0
 785 000e 591C     		adds	r1, r3, #1
 786              		.loc 1 375 0
 787 0010 0132     		adds	r2, r2, #1
ARM GAS  /tmp/ccAsEkjn.s 			page 15


 788 0012 8260     		str	r2, [r0, #8]
 789              		.loc 1 376 0
 790 0014 8161     		str	r1, [r0, #24]
 791              		.loc 1 377 0
 792 0016 A942     		cmp	r1, r5
 793              		.loc 1 376 0
 794 0018 1C78     		ldrb	r4, [r3]	@ zero_extendqisi2
 795              	.LVL42:
 796              		.loc 1 377 0
 797 001a 01D3     		bcc	.L59
 798              		.loc 1 378 0
 799 001c C368     		ldr	r3, [r0, #12]
 800 001e 8361     		str	r3, [r0, #24]
 801              	.L59:
 802              		.loc 1 381 0
 803 0020 0021     		movs	r1, #0
 804 0022 FFF7FEFF 		bl	chThdDequeueNextI
 805              	.LVL43:
 806              		.loc 1 383 0
 807 0026 2046     		mov	r0, r4
 808 0028 38BD     		pop	{r3, r4, r5, pc}
 809              	.LVL44:
 810              	.L63:
 811              	.LBB192:
 812              	.LBB191:
 813              		.loc 3 393 0
 814 002a 8268     		ldr	r2, [r0, #8]
 815 002c 002A     		cmp	r2, #0
 816 002e ECD0     		beq	.L56
 817              	.LBE191:
 818              	.LBE192:
 819              		.loc 1 372 0
 820 0030 6FF00200 		mvn	r0, #2
 821              	.LVL45:
 822 0034 38BD     		pop	{r3, r4, r5, pc}
 823              		.cfi_endproc
 824              	.LFE178:
 825              		.size	chOQGetI, .-chOQGetI
 826 0036 00BFAFF3 		.section	.text.chOQWriteTimeout,"ax",%progbits
 826      0080AFF3 
 826      0080
 827              		.align	2
 828              		.p2align 4,,15
 829              		.global	chOQWriteTimeout
 830              		.thumb
 831              		.thumb_func
 832              		.type	chOQWriteTimeout, %function
 833              	chOQWriteTimeout:
 834              	.LFB179:
 835              		.loc 1 411 0
 836              		.cfi_startproc
 837              		@ args = 0, pretend = 0, frame = 8
 838              		@ frame_needed = 0, uses_anonymous_args = 0
 839              	.LVL46:
 840 0000 2DE9F04F 		push	{r4, r5, r6, r7, r8, r9, r10, fp, lr}
 841              		.cfi_def_cfa_offset 36
 842              		.cfi_offset 4, -36
ARM GAS  /tmp/ccAsEkjn.s 			page 16


 843              		.cfi_offset 5, -32
 844              		.cfi_offset 6, -28
 845              		.cfi_offset 7, -24
 846              		.cfi_offset 8, -20
 847              		.cfi_offset 9, -16
 848              		.cfi_offset 10, -12
 849              		.cfi_offset 11, -8
 850              		.cfi_offset 14, -4
 851 0004 83B0     		sub	sp, sp, #12
 852              		.cfi_def_cfa_offset 48
 853              		.loc 1 411 0
 854 0006 0446     		mov	r4, r0
 855 0008 8B46     		mov	fp, r1
 856 000a 1546     		mov	r5, r2
 857 000c 0193     		str	r3, [sp, #4]
 858              		.loc 1 412 0
 859 000e C769     		ldr	r7, [r0, #28]
 860              	.LVL47:
 861              	.LBB193:
 862              	.LBB194:
 863              	.LBB195:
 864              	.LBB196:
 865              		.loc 4 548 0
 866 0010 4FF02008 		mov	r8, #32
 867              	@ 548 "/home/peter/ChibiOS_16.1.4/os/ext/CMSIS/include/core_cmFunc.h" 1
 868 0014 88F31188 		MSR basepri, r8
 869              	@ 0 "" 2
 870              		.thumb
 871              	.LBE196:
 872              	.LBE195:
 873              	.LBE194:
 874              	.LBE193:
 875              		.loc 1 413 0
 876 0018 0026     		movs	r6, #0
 877              	.LBB197:
 878              	.LBB198:
 879              	.LBB199:
 880              	.LBB200:
 881              	.LBB201:
 882              		.loc 4 548 0
 883 001a B146     		mov	r9, r6
 884              	.LVL48:
 885              	.L65:
 886              	.LBE201:
 887              	.LBE200:
 888              	.LBE199:
 889              	.LBE198:
 890              	.LBE197:
 891              	.LBB206:
 892              	.LBB207:
 893              		.loc 3 411 0
 894 001c A368     		ldr	r3, [r4, #8]
 895              	.LBE207:
 896              	.LBE206:
 897              		.loc 1 427 0
 898 001e 0BF1010A 		add	r10, fp, #1
 899              	.LVL49:
ARM GAS  /tmp/ccAsEkjn.s 			page 17


 900              		.loc 1 419 0
 901 0022 FBB1     		cbz	r3, .L68
 902              	.L81:
 903              		.loc 1 427 0
 904 0024 6269     		ldr	r2, [r4, #20]
 905              		.loc 1 426 0
 906 0026 A368     		ldr	r3, [r4, #8]
 907              		.loc 1 427 0
 908 0028 501C     		adds	r0, r2, #1
 909              		.loc 1 426 0
 910 002a 013B     		subs	r3, r3, #1
 911              		.loc 1 427 0
 912 002c 6061     		str	r0, [r4, #20]
 913              		.loc 1 426 0
 914 002e A360     		str	r3, [r4, #8]
 915              		.loc 1 427 0
 916 0030 9BF80030 		ldrb	r3, [fp]	@ zero_extendqisi2
 917 0034 1370     		strb	r3, [r2]
 918              		.loc 1 428 0
 919 0036 2369     		ldr	r3, [r4, #16]
 920 0038 6269     		ldr	r2, [r4, #20]
 921 003a 9A42     		cmp	r2, r3
 922              		.loc 1 429 0
 923 003c 24BF     		itt	cs
 924 003e E368     		ldrcs	r3, [r4, #12]
 925 0040 6361     		strcs	r3, [r4, #20]
 926              		.loc 1 432 0
 927 0042 0FB1     		cbz	r7, .L70
 928              		.loc 1 433 0
 929 0044 2046     		mov	r0, r4
 930 0046 B847     		blx	r7
 931              	.LVL50:
 932              	.L70:
 933              	.LBB209:
 934              	.LBB205:
 935              	.LBB204:
 936              	.LBB203:
 937              	.LBB202:
 938              		.loc 4 548 0
 939              	@ 548 "/home/peter/ChibiOS_16.1.4/os/ext/CMSIS/include/core_cmFunc.h" 1
 940 0048 89F31188 		MSR basepri, r9
 941              	@ 0 "" 2
 942              	.LVL51:
 943              		.thumb
 944              	.LBE202:
 945              	.LBE203:
 946              	.LBE204:
 947              	.LBE205:
 948              	.LBE209:
 949              		.loc 1 438 0
 950 004c 013D     		subs	r5, r5, #1
 951              	.LVL52:
 952              		.loc 1 437 0
 953 004e 06F10106 		add	r6, r6, #1
 954              	.LVL53:
 955              		.loc 1 438 0
 956 0052 11D0     		beq	.L67
ARM GAS  /tmp/ccAsEkjn.s 			page 18


 957              	.LBB210:
 958              	.LBB211:
 959              	.LBB212:
 960              	.LBB213:
 961              		.loc 4 548 0
 962              	@ 548 "/home/peter/ChibiOS_16.1.4/os/ext/CMSIS/include/core_cmFunc.h" 1
 963 0054 88F31188 		MSR basepri, r8
 964              	@ 0 "" 2
 965              		.thumb
 966              	.LBE213:
 967              	.LBE212:
 968              	.LBE211:
 969              	.LBE210:
 970              		.loc 1 427 0
 971 0058 D346     		mov	fp, r10
 972              	.LVL54:
 973              	.LBB214:
 974              	.LBB208:
 975              		.loc 3 411 0
 976 005a A368     		ldr	r3, [r4, #8]
 977              	.LBE208:
 978              	.LBE214:
 979              		.loc 1 427 0
 980 005c 0BF1010A 		add	r10, fp, #1
 981              	.LVL55:
 982              		.loc 1 419 0
 983 0060 002B     		cmp	r3, #0
 984 0062 DFD1     		bne	.L81
 985              	.LVL56:
 986              	.L68:
 987              		.loc 1 420 0
 988 0064 2046     		mov	r0, r4
 989 0066 0199     		ldr	r1, [sp, #4]
 990 0068 0093     		str	r3, [sp]
 991 006a FFF7FEFF 		bl	chThdEnqueueTimeoutS
 992              	.LVL57:
 993 006e 009B     		ldr	r3, [sp]
 994 0070 0028     		cmp	r0, #0
 995 0072 D3D0     		beq	.L65
 996              	.LVL58:
 997              	.LBB215:
 998              	.LBB216:
 999              	.LBB217:
 1000              	.LBB218:
 1001              	.LBB219:
 1002              		.loc 4 548 0
 1003              	@ 548 "/home/peter/ChibiOS_16.1.4/os/ext/CMSIS/include/core_cmFunc.h" 1
 1004 0074 83F31188 		MSR basepri, r3
 1005              	@ 0 "" 2
 1006              	.LVL59:
 1007              		.thumb
 1008              	.L67:
 1009              	.LBE219:
 1010              	.LBE218:
 1011              	.LBE217:
 1012              	.LBE216:
 1013              	.LBE215:
ARM GAS  /tmp/ccAsEkjn.s 			page 19


 1014              		.loc 1 443 0
 1015 0078 3046     		mov	r0, r6
 1016 007a 03B0     		add	sp, sp, #12
 1017              		.cfi_def_cfa_offset 36
 1018              		@ sp needed
 1019 007c BDE8F08F 		pop	{r4, r5, r6, r7, r8, r9, r10, fp, pc}
 1020              		.cfi_endproc
 1021              	.LFE179:
 1022              		.size	chOQWriteTimeout, .-chOQWriteTimeout
 1023              		.text
 1024              	.Letext0:
 1025              		.file 5 "/usr/lib/gcc/arm-none-eabi/4.9.3/include/stddef.h"
 1026              		.file 6 "/usr/include/newlib/machine/_default_types.h"
 1027              		.file 7 "/usr/include/newlib/stdint.h"
 1028              		.file 8 "/home/peter/ChibiOS_16.1.4/os/rt/ports/ARMCMx/compilers/GCC/chtypes.h"
 1029              		.file 9 "/home/peter/ChibiOS_16.1.4/os/rt/include/chsystypes.h"
 1030              		.file 10 "/home/peter/ChibiOS_16.1.4/os/rt/ports/ARMCMx/chcore.h"
 1031              		.file 11 "/home/peter/ChibiOS_16.1.4/os/rt/ports/ARMCMx/chcore_v7m.h"
 1032              		.file 12 "/home/peter/ChibiOS_16.1.4/os/rt/include/chtm.h"
 1033              		.file 13 "/home/peter/ChibiOS_16.1.4/os/rt/include/chsem.h"
 1034              		.file 14 "/home/peter/ChibiOS_16.1.4/os/rt/include/chmtx.h"
 1035              		.file 15 "/home/peter/ChibiOS_16.1.4/os/rt/include/chthreads.h"
 1036              		.file 16 "/home/peter/ChibiOS_16.1.4/os/rt/include/chsys.h"
 1037              		.file 17 "/home/peter/ChibiOS_16.1.4/os/ext/CMSIS/include/core_cm3.h"