ARM GAS  /tmp/ccfmpFj0.s 			page 1


   1              		.syntax unified
   2              		.cpu cortex-m3
   3              		.fpu softvfp
   4              		.eabi_attribute 20, 1
   5              		.eabi_attribute 21, 1
   6              		.eabi_attribute 23, 3
   7              		.eabi_attribute 24, 1
   8              		.eabi_attribute 25, 1
   9              		.eabi_attribute 26, 1
  10              		.eabi_attribute 30, 2
  11              		.eabi_attribute 34, 1
  12              		.eabi_attribute 18, 4
  13              		.thumb
  14              		.file	"chthreads.c"
  15              		.text
  16              	.Ltext0:
  17              		.cfi_sections	.debug_frame
  18              		.section	.text._thread_init,"ax",%progbits
  19              		.align	2
  20              		.p2align 4,,15
  21              		.global	_thread_init
  22              		.thumb
  23              		.thumb_func
  24              		.type	_thread_init, %function
  25              	_thread_init:
  26              	.LFB170:
  27              		.file 1 "/home/peter/ChibiOS_16.1.4/os/rt/src/chthreads.c"
  28              		.loc 1 91 0
  29              		.cfi_startproc
  30              		@ args = 0, pretend = 0, frame = 0
  31              		@ frame_needed = 0, uses_anonymous_args = 0
  32              	.LVL0:
  33 0000 2DE9F041 		push	{r4, r5, r6, r7, r8, lr}
  34              		.cfi_def_cfa_offset 24
  35              		.cfi_offset 4, -24
  36              		.cfi_offset 5, -20
  37              		.cfi_offset 6, -16
  38              		.cfi_offset 7, -12
  39              		.cfi_offset 8, -8
  40              		.cfi_offset 14, -4
  41              		.loc 1 114 0
  42 0004 104C     		ldr	r4, .L3
  43              		.loc 1 95 0
  44 0006 0022     		movs	r2, #0
  45              		.loc 1 114 0
  46 0008 6669     		ldr	r6, [r4, #20]
  47              		.loc 1 120 0
  48 000a 00F12805 		add	r5, r0, #40
  49              		.loc 1 94 0
  50 000e 4FF00208 		mov	r8, #2
  51              		.loc 1 97 0
  52 0012 4FF00A0C 		mov	ip, #10
  53              		.loc 1 110 0
  54 0016 4FF0010E 		mov	lr, #1
  55              		.loc 1 117 0
  56 001a 00F12407 		add	r7, r0, #36
  57              		.loc 1 114 0
ARM GAS  /tmp/ccfmpFj0.s 			page 2


  58 001e 4661     		str	r6, [r0, #20]
  59              		.loc 1 93 0
  60 0020 8160     		str	r1, [r0, #8]
  61              		.loc 1 114 0
  62 0022 0461     		str	r4, [r0, #16]
  63              		.loc 1 100 0
  64 0024 C163     		str	r1, [r0, #60]
  65              		.loc 1 94 0
  66 0026 80F81C80 		strb	r8, [r0, #28]
  67              		.loc 1 97 0
  68 002a 80F81FC0 		strb	ip, [r0, #31]
  69              		.loc 1 110 0
  70 002e 80F81EE0 		strb	lr, [r0, #30]
  71              		.loc 1 95 0
  72 0032 4277     		strb	r2, [r0, #29]
  73              		.loc 1 101 0
  74 0034 8263     		str	r2, [r0, #56]
  75              		.loc 1 104 0
  76 0036 4263     		str	r2, [r0, #52]
  77              		.loc 1 113 0
  78 0038 8261     		str	r2, [r0, #24]
  79              		.loc 1 114 0
  80 003a 3061     		str	r0, [r6, #16]
  81 003c 6061     		str	r0, [r4, #20]
  82              	.LVL1:
  83              	.LBB184:
  84              	.LBB185:
  85              		.file 2 "/home/peter/ChibiOS_16.1.4/os/rt/include/chschd.h"
  86              		.loc 2 566 0
  87 003e 4762     		str	r7, [r0, #36]
  88              	.LBE185:
  89              	.LBE184:
  90              	.LBB186:
  91              	.LBB187:
  92              		.loc 2 604 0
  93 0040 8562     		str	r5, [r0, #40]
  94              		.loc 2 605 0
  95 0042 C562     		str	r5, [r0, #44]
  96              	.LBE187:
  97              	.LBE186:
  98              		.loc 1 132 0
  99 0044 BDE8F081 		pop	{r4, r5, r6, r7, r8, pc}
 100              	.LVL2:
 101              	.L4:
 102              		.align	2
 103              	.L3:
 104 0048 00000000 		.word	ch
 105              		.cfi_endproc
 106              	.LFE170:
 107              		.size	_thread_init, .-_thread_init
 108 004c AFF30080 		.section	.text.chThdCreateI,"ax",%progbits
 109              		.align	2
 110              		.p2align 4,,15
 111              		.global	chThdCreateI
 112              		.thumb
 113              		.thumb_func
 114              		.type	chThdCreateI, %function
ARM GAS  /tmp/ccfmpFj0.s 			page 3


 115              	chThdCreateI:
 116              	.LFB171:
 117              		.loc 1 177 0
 118              		.cfi_startproc
 119              		@ args = 4, pretend = 0, frame = 0
 120              		@ frame_needed = 0, uses_anonymous_args = 0
 121              	.LVL3:
 122 0000 2DE9F04F 		push	{r4, r5, r6, r7, r8, r9, r10, fp, lr}
 123              		.cfi_def_cfa_offset 36
 124              		.cfi_offset 4, -36
 125              		.cfi_offset 5, -32
 126              		.cfi_offset 6, -28
 127              		.cfi_offset 7, -24
 128              		.cfi_offset 8, -20
 129              		.cfi_offset 9, -16
 130              		.cfi_offset 10, -12
 131              		.cfi_offset 11, -8
 132              		.cfi_offset 14, -4
 133              	.LBB188:
 134              	.LBB189:
 135              		.loc 1 114 0
 136 0004 184D     		ldr	r5, .L7
 137              	.LBE189:
 138              	.LBE188:
 139              		.loc 1 186 0
 140 0006 A1F1240A 		sub	r10, r1, #36
 141              	.LBB198:
 142              	.LBB194:
 143              		.loc 1 114 0
 144 000a 6F69     		ldr	r7, [r5, #20]
 145              	.LBE194:
 146              	.LBE198:
 147              		.loc 1 186 0
 148 000c 00EB0A06 		add	r6, r0, r10
 149 0010 DFF85890 		ldr	r9, .L7+4
 150 0014 0999     		ldr	r1, [sp, #36]
 151              	.LVL4:
 152 0016 C660     		str	r6, [r0, #12]
 153              	.LBB199:
 154              	.LBB195:
 155              		.loc 1 94 0
 156 0018 4FF00208 		mov	r8, #2
 157              	.LBE195:
 158              	.LBE199:
 159              		.loc 1 186 0
 160 001c 40F80A30 		str	r3, [r0, r10]
 161              	.LBB200:
 162              	.LBB196:
 163              		.loc 1 97 0
 164 0020 4FF00A0C 		mov	ip, #10
 165              		.loc 1 95 0
 166 0024 0023     		movs	r3, #0
 167              	.LVL5:
 168              		.loc 1 120 0
 169 0026 00F1280A 		add	r10, r0, #40
 170              	.LVL6:
 171              		.loc 1 110 0
ARM GAS  /tmp/ccfmpFj0.s 			page 4


 172 002a 4FF0010E 		mov	lr, #1
 173              		.loc 1 117 0
 174 002e 00F1240B 		add	fp, r0, #36
 175              	.LBE196:
 176              	.LBE200:
 177              		.loc 1 186 0
 178 0032 7160     		str	r1, [r6, #4]
 179 0034 C6F82090 		str	r9, [r6, #32]
 180              	.LVL7:
 181              	.LBB201:
 182              	.LBB197:
 183              		.loc 1 93 0
 184 0038 8260     		str	r2, [r0, #8]
 185              		.loc 1 114 0
 186 003a 0561     		str	r5, [r0, #16]
 187 003c 4761     		str	r7, [r0, #20]
 188              		.loc 1 100 0
 189 003e C263     		str	r2, [r0, #60]
 190              		.loc 1 94 0
 191 0040 80F81C80 		strb	r8, [r0, #28]
 192              	.LVL8:
 193              		.loc 1 97 0
 194 0044 80F81FC0 		strb	ip, [r0, #31]
 195              		.loc 1 110 0
 196 0048 80F81EE0 		strb	lr, [r0, #30]
 197              		.loc 1 95 0
 198 004c 4377     		strb	r3, [r0, #29]
 199              		.loc 1 101 0
 200 004e 8363     		str	r3, [r0, #56]
 201              		.loc 1 104 0
 202 0050 4363     		str	r3, [r0, #52]
 203              		.loc 1 113 0
 204 0052 8361     		str	r3, [r0, #24]
 205              		.loc 1 114 0
 206 0054 3861     		str	r0, [r7, #16]
 207              	.LBB190:
 208              	.LBB191:
 209              		.loc 2 566 0
 210 0056 C0F824B0 		str	fp, [r0, #36]
 211              	.LBE191:
 212              	.LBE190:
 213              		.loc 1 114 0
 214 005a 6861     		str	r0, [r5, #20]
 215              	.LVL9:
 216              	.LBB192:
 217              	.LBB193:
 218              		.loc 2 604 0
 219 005c C0F828A0 		str	r10, [r0, #40]
 220              		.loc 2 605 0
 221 0060 C0F82CA0 		str	r10, [r0, #44]
 222              	.LBE193:
 223              	.LBE192:
 224              	.LBE197:
 225              	.LBE201:
 226              		.loc 1 189 0
 227 0064 BDE8F08F 		pop	{r4, r5, r6, r7, r8, r9, r10, fp, pc}
 228              	.LVL10:
ARM GAS  /tmp/ccfmpFj0.s 			page 5


 229              	.L8:
 230              		.align	2
 231              	.L7:
 232 0068 00000000 		.word	ch
 233 006c 00000000 		.word	_port_thread_start
 234              		.cfi_endproc
 235              	.LFE171:
 236              		.size	chThdCreateI, .-chThdCreateI
 237              		.section	.text.chThdCreateStatic,"ax",%progbits
 238              		.align	2
 239              		.p2align 4,,15
 240              		.global	chThdCreateStatic
 241              		.thumb
 242              		.thumb_func
 243              		.type	chThdCreateStatic, %function
 244              	chThdCreateStatic:
 245              	.LFB172:
 246              		.loc 1 208 0
 247              		.cfi_startproc
 248              		@ args = 4, pretend = 0, frame = 0
 249              		@ frame_needed = 0, uses_anonymous_args = 0
 250              	.LVL11:
 251 0000 2DE9F84F 		push	{r3, r4, r5, r6, r7, r8, r9, r10, fp, lr}
 252              		.cfi_def_cfa_offset 40
 253              		.cfi_offset 3, -40
 254              		.cfi_offset 4, -36
 255              		.cfi_offset 5, -32
 256              		.cfi_offset 6, -28
 257              		.cfi_offset 7, -24
 258              		.cfi_offset 8, -20
 259              		.cfi_offset 9, -16
 260              		.cfi_offset 10, -12
 261              		.cfi_offset 11, -8
 262              		.cfi_offset 14, -4
 263              		.loc 1 208 0
 264 0004 9646     		mov	lr, r2
 265 0006 0446     		mov	r4, r0
 266              	.LBB202:
 267              	.LBB203:
 268              	.LBB204:
 269              	.LBB205:
 270              		.file 3 "/home/peter/ChibiOS_16.1.4/os/ext/CMSIS/include/core_cmFunc.h"
 271              		.loc 3 548 0
 272 0008 2022     		movs	r2, #32
 273              	.LVL12:
 274              	@ 548 "/home/peter/ChibiOS_16.1.4/os/ext/CMSIS/include/core_cmFunc.h" 1
 275 000a 82F31188 		MSR basepri, r2
 276              	@ 0 "" 2
 277              	.LVL13:
 278              		.thumb
 279              	.LBE205:
 280              	.LBE204:
 281              	.LBE203:
 282              	.LBE202:
 283              	.LBB206:
 284              	.LBB207:
 285              	.LBB208:
ARM GAS  /tmp/ccfmpFj0.s 			page 6


 286              	.LBB209:
 287              		.loc 1 114 0
 288 000e 1B4E     		ldr	r6, .L11
 289              	.LBE209:
 290              	.LBE208:
 291              		.loc 1 186 0
 292 0010 A1F12405 		sub	r5, r1, #36
 293              	.LBB218:
 294              	.LBB214:
 295              		.loc 1 114 0
 296 0014 7269     		ldr	r2, [r6, #20]
 297              	.LBE214:
 298              	.LBE218:
 299              		.loc 1 186 0
 300 0016 4719     		adds	r7, r0, r5
 301 0018 0A99     		ldr	r1, [sp, #40]
 302              	.LVL14:
 303 001a DFF864B0 		ldr	fp, .L11+4
 304 001e C760     		str	r7, [r0, #12]
 305              	.LBB219:
 306              	.LBB215:
 307              		.loc 1 117 0
 308 0020 00F1240C 		add	ip, r0, #36
 309              	.LBE215:
 310              	.LBE219:
 311              		.loc 1 186 0
 312 0024 4351     		str	r3, [r0, r5]
 313              	.LBB220:
 314              	.LBB216:
 315              		.loc 1 94 0
 316 0026 4FF0020A 		mov	r10, #2
 317              		.loc 1 95 0
 318 002a 0025     		movs	r5, #0
 319              	.LVL15:
 320              		.loc 1 120 0
 321 002c 00F12803 		add	r3, r0, #40
 322              	.LVL16:
 323              		.loc 1 97 0
 324 0030 4FF00A09 		mov	r9, #10
 325              		.loc 1 110 0
 326 0034 4FF00108 		mov	r8, #1
 327              	.LBE216:
 328              	.LBE220:
 329              		.loc 1 186 0
 330 0038 7960     		str	r1, [r7, #4]
 331 003a C7F820B0 		str	fp, [r7, #32]
 332              	.LVL17:
 333              	.LBE207:
 334              	.LBE206:
 335              		.loc 1 222 0
 336 003e 2946     		mov	r1, r5
 337              	.LBB223:
 338              	.LBB222:
 339              	.LBB221:
 340              	.LBB217:
 341              		.loc 1 93 0
 342 0040 C0F808E0 		str	lr, [r0, #8]
ARM GAS  /tmp/ccfmpFj0.s 			page 7


 343              		.loc 1 114 0
 344 0044 0661     		str	r6, [r0, #16]
 345 0046 4261     		str	r2, [r0, #20]
 346              		.loc 1 100 0
 347 0048 C0F83CE0 		str	lr, [r0, #60]
 348              		.loc 1 94 0
 349 004c 80F81CA0 		strb	r10, [r0, #28]
 350              	.LVL18:
 351              		.loc 1 97 0
 352 0050 80F81F90 		strb	r9, [r0, #31]
 353              		.loc 1 110 0
 354 0054 80F81E80 		strb	r8, [r0, #30]
 355              		.loc 1 95 0
 356 0058 4577     		strb	r5, [r0, #29]
 357              		.loc 1 101 0
 358 005a 8563     		str	r5, [r0, #56]
 359              		.loc 1 104 0
 360 005c 4563     		str	r5, [r0, #52]
 361              		.loc 1 113 0
 362 005e 8561     		str	r5, [r0, #24]
 363              		.loc 1 114 0
 364 0060 1061     		str	r0, [r2, #16]
 365              	.LBB210:
 366              	.LBB211:
 367              		.loc 2 566 0
 368 0062 C0F824C0 		str	ip, [r0, #36]
 369              	.LBE211:
 370              	.LBE210:
 371              	.LBB212:
 372              	.LBB213:
 373              		.loc 2 604 0
 374 0066 8362     		str	r3, [r0, #40]
 375              		.loc 2 605 0
 376 0068 C362     		str	r3, [r0, #44]
 377              	.LBE213:
 378              	.LBE212:
 379              		.loc 1 114 0
 380 006a 7061     		str	r0, [r6, #20]
 381              	.LVL19:
 382              	.LBE217:
 383              	.LBE221:
 384              	.LBE222:
 385              	.LBE223:
 386              		.loc 1 222 0
 387 006c FFF7FEFF 		bl	chSchWakeupS
 388              	.LVL20:
 389              	.LBB224:
 390              	.LBB225:
 391              	.LBB226:
 392              	.LBB227:
 393              	.LBB228:
 394              		.loc 3 548 0
 395              	@ 548 "/home/peter/ChibiOS_16.1.4/os/ext/CMSIS/include/core_cmFunc.h" 1
 396 0070 85F31188 		MSR basepri, r5
 397              	@ 0 "" 2
 398              		.thumb
 399              	.LBE228:
ARM GAS  /tmp/ccfmpFj0.s 			page 8


 400              	.LBE227:
 401              	.LBE226:
 402              	.LBE225:
 403              	.LBE224:
 404              		.loc 1 226 0
 405 0074 2046     		mov	r0, r4
 406 0076 BDE8F88F 		pop	{r3, r4, r5, r6, r7, r8, r9, r10, fp, pc}
 407              	.LVL21:
 408              	.L12:
 409 007a 00BF     		.align	2
 410              	.L11:
 411 007c 00000000 		.word	ch
 412 0080 00000000 		.word	_port_thread_start
 413              		.cfi_endproc
 414              	.LFE172:
 415              		.size	chThdCreateStatic, .-chThdCreateStatic
 416 0084 AFF30080 		.section	.text.chThdStart,"ax",%progbits
 416      AFF30080 
 416      AFF30080 
 417              		.align	2
 418              		.p2align 4,,15
 419              		.global	chThdStart
 420              		.thumb
 421              		.thumb_func
 422              		.type	chThdStart, %function
 423              	chThdStart:
 424              	.LFB173:
 425              		.loc 1 237 0
 426              		.cfi_startproc
 427              		@ args = 0, pretend = 0, frame = 0
 428              		@ frame_needed = 0, uses_anonymous_args = 0
 429              	.LVL22:
 430 0000 08B5     		push	{r3, lr}
 431              		.cfi_def_cfa_offset 8
 432              		.cfi_offset 3, -8
 433              		.cfi_offset 14, -4
 434              	.LBB229:
 435              	.LBB230:
 436              	.LBB231:
 437              	.LBB232:
 438              		.loc 3 548 0
 439 0002 2023     		movs	r3, #32
 440              	@ 548 "/home/peter/ChibiOS_16.1.4/os/ext/CMSIS/include/core_cmFunc.h" 1
 441 0004 83F31188 		MSR basepri, r3
 442              	@ 0 "" 2
 443              	.LVL23:
 444              		.thumb
 445              	.LBE232:
 446              	.LBE231:
 447              	.LBE230:
 448              	.LBE229:
 449              	.LBB233:
 450              	.LBB234:
 451              		.file 4 "/home/peter/ChibiOS_16.1.4/os/rt/include/chthreads.h"
 452              		.loc 4 249 0
 453 0008 FFF7FEFF 		bl	chSchReadyI
 454              	.LVL24:
ARM GAS  /tmp/ccfmpFj0.s 			page 9


 455              	.LBE234:
 456              	.LBE233:
 457              	.LBB235:
 458              	.LBB236:
 459              	.LBB237:
 460              	.LBB238:
 461              	.LBB239:
 462              		.loc 3 548 0
 463 000c 0023     		movs	r3, #0
 464              	@ 548 "/home/peter/ChibiOS_16.1.4/os/ext/CMSIS/include/core_cmFunc.h" 1
 465 000e 83F31188 		MSR basepri, r3
 466              	@ 0 "" 2
 467              		.thumb
 468              	.LBE239:
 469              	.LBE238:
 470              	.LBE237:
 471              	.LBE236:
 472              	.LBE235:
 473              		.loc 1 244 0
 474 0012 08BD     		pop	{r3, pc}
 475              		.cfi_endproc
 476              	.LFE173:
 477              		.size	chThdStart, .-chThdStart
 478 0014 AFF30080 		.section	.text.chThdSetPriority,"ax",%progbits
 478      AFF30080 
 478      AFF30080 
 479              		.align	2
 480              		.p2align 4,,15
 481              		.global	chThdSetPriority
 482              		.thumb
 483              		.thumb_func
 484              		.type	chThdSetPriority, %function
 485              	chThdSetPriority:
 486              	.LFB174:
 487              		.loc 1 258 0
 488              		.cfi_startproc
 489              		@ args = 0, pretend = 0, frame = 0
 490              		@ frame_needed = 0, uses_anonymous_args = 0
 491              	.LVL25:
 492 0000 10B5     		push	{r4, lr}
 493              		.cfi_def_cfa_offset 8
 494              		.cfi_offset 4, -8
 495              		.cfi_offset 14, -4
 496              	.LBB240:
 497              	.LBB241:
 498              	.LBB242:
 499              	.LBB243:
 500              		.loc 3 548 0
 501 0002 2023     		movs	r3, #32
 502              	@ 548 "/home/peter/ChibiOS_16.1.4/os/ext/CMSIS/include/core_cmFunc.h" 1
 503 0004 83F31188 		MSR basepri, r3
 504              	@ 0 "" 2
 505              		.thumb
 506              	.LBE243:
 507              	.LBE242:
 508              	.LBE241:
 509              	.LBE240:
ARM GAS  /tmp/ccfmpFj0.s 			page 10


 510              		.loc 1 265 0
 511 0008 084B     		ldr	r3, .L20
 512 000a 9B69     		ldr	r3, [r3, #24]
 513 000c DC6B     		ldr	r4, [r3, #60]
 514              	.LVL26:
 515              		.loc 1 266 0
 516 000e 9968     		ldr	r1, [r3, #8]
 517 0010 8C42     		cmp	r4, r1
 518 0012 01D0     		beq	.L16
 519              		.loc 1 266 0 is_stmt 0 discriminator 1
 520 0014 8142     		cmp	r1, r0
 521 0016 00D2     		bcs	.L17
 522              	.L16:
 523              		.loc 1 267 0 is_stmt 1
 524 0018 9860     		str	r0, [r3, #8]
 525              	.L17:
 526              		.loc 1 269 0
 527 001a D863     		str	r0, [r3, #60]
 528              		.loc 1 274 0
 529 001c FFF7FEFF 		bl	chSchRescheduleS
 530              	.LVL27:
 531              	.LBB244:
 532              	.LBB245:
 533              	.LBB246:
 534              	.LBB247:
 535              	.LBB248:
 536              		.loc 3 548 0
 537 0020 0023     		movs	r3, #0
 538              	@ 548 "/home/peter/ChibiOS_16.1.4/os/ext/CMSIS/include/core_cmFunc.h" 1
 539 0022 83F31188 		MSR basepri, r3
 540              	@ 0 "" 2
 541              		.thumb
 542              	.LBE248:
 543              	.LBE247:
 544              	.LBE246:
 545              	.LBE245:
 546              	.LBE244:
 547              		.loc 1 278 0
 548 0026 2046     		mov	r0, r4
 549 0028 10BD     		pop	{r4, pc}
 550              	.LVL28:
 551              	.L21:
 552 002a 00BF     		.align	2
 553              	.L20:
 554 002c 00000000 		.word	ch
 555              		.cfi_endproc
 556              	.LFE174:
 557              		.size	chThdSetPriority, .-chThdSetPriority
 558              		.section	.text.chThdTerminate,"ax",%progbits
 559              		.align	2
 560              		.p2align 4,,15
 561              		.global	chThdTerminate
 562              		.thumb
 563              		.thumb_func
 564              		.type	chThdTerminate, %function
 565              	chThdTerminate:
 566              	.LFB175:
ARM GAS  /tmp/ccfmpFj0.s 			page 11


 567              		.loc 1 292 0
 568              		.cfi_startproc
 569              		@ args = 0, pretend = 0, frame = 0
 570              		@ frame_needed = 0, uses_anonymous_args = 0
 571              		@ link register save eliminated.
 572              	.LVL29:
 573              	.LBB249:
 574              	.LBB250:
 575              	.LBB251:
 576              	.LBB252:
 577              		.loc 3 548 0
 578 0000 2023     		movs	r3, #32
 579              	@ 548 "/home/peter/ChibiOS_16.1.4/os/ext/CMSIS/include/core_cmFunc.h" 1
 580 0002 83F31188 		MSR basepri, r3
 581              	@ 0 "" 2
 582              		.thumb
 583              	.LBE252:
 584              	.LBE251:
 585              	.LBE250:
 586              	.LBE249:
 587              		.loc 1 295 0
 588 0006 437F     		ldrb	r3, [r0, #29]	@ zero_extendqisi2
 589              	.LBB253:
 590              	.LBB254:
 591              	.LBB255:
 592              	.LBB256:
 593              	.LBB257:
 594              		.loc 3 548 0
 595 0008 0022     		movs	r2, #0
 596              	.LBE257:
 597              	.LBE256:
 598              	.LBE255:
 599              	.LBE254:
 600              	.LBE253:
 601              		.loc 1 295 0
 602 000a 43F00403 		orr	r3, r3, #4
 603 000e 4377     		strb	r3, [r0, #29]
 604              	.LVL30:
 605              	.LBB262:
 606              	.LBB261:
 607              	.LBB260:
 608              	.LBB259:
 609              	.LBB258:
 610              		.loc 3 548 0
 611              	@ 548 "/home/peter/ChibiOS_16.1.4/os/ext/CMSIS/include/core_cmFunc.h" 1
 612 0010 82F31188 		MSR basepri, r2
 613              	@ 0 "" 2
 614              		.thumb
 615 0014 7047     		bx	lr
 616              	.LBE258:
 617              	.LBE259:
 618              	.LBE260:
 619              	.LBE261:
 620              	.LBE262:
 621              		.cfi_endproc
 622              	.LFE175:
 623              		.size	chThdTerminate, .-chThdTerminate
ARM GAS  /tmp/ccfmpFj0.s 			page 12


 624 0016 00BFAFF3 		.section	.text.chThdSleep,"ax",%progbits
 624      0080AFF3 
 624      0080
 625              		.align	2
 626              		.p2align 4,,15
 627              		.global	chThdSleep
 628              		.thumb
 629              		.thumb_func
 630              		.type	chThdSleep, %function
 631              	chThdSleep:
 632              	.LFB176:
 633              		.loc 1 311 0
 634              		.cfi_startproc
 635              		@ args = 0, pretend = 0, frame = 0
 636              		@ frame_needed = 0, uses_anonymous_args = 0
 637              	.LVL31:
 638 0000 08B5     		push	{r3, lr}
 639              		.cfi_def_cfa_offset 8
 640              		.cfi_offset 3, -8
 641              		.cfi_offset 14, -4
 642              		.loc 1 311 0
 643 0002 0146     		mov	r1, r0
 644              	.LBB263:
 645              	.LBB264:
 646              	.LBB265:
 647              	.LBB266:
 648              		.loc 3 548 0
 649 0004 2023     		movs	r3, #32
 650              	@ 548 "/home/peter/ChibiOS_16.1.4/os/ext/CMSIS/include/core_cmFunc.h" 1
 651 0006 83F31188 		MSR basepri, r3
 652              	@ 0 "" 2
 653              	.LVL32:
 654              		.thumb
 655              	.LBE266:
 656              	.LBE265:
 657              	.LBE264:
 658              	.LBE263:
 659              	.LBB267:
 660              	.LBB268:
 661              		.loc 4 268 0
 662 000a 0820     		movs	r0, #8
 663              	.LVL33:
 664 000c FFF7FEFF 		bl	chSchGoSleepTimeoutS
 665              	.LVL34:
 666              	.LBE268:
 667              	.LBE267:
 668              	.LBB269:
 669              	.LBB270:
 670              	.LBB271:
 671              	.LBB272:
 672              	.LBB273:
 673              		.loc 3 548 0
 674 0010 0023     		movs	r3, #0
 675              	@ 548 "/home/peter/ChibiOS_16.1.4/os/ext/CMSIS/include/core_cmFunc.h" 1
 676 0012 83F31188 		MSR basepri, r3
 677              	@ 0 "" 2
 678              		.thumb
ARM GAS  /tmp/ccfmpFj0.s 			page 13


 679 0016 08BD     		pop	{r3, pc}
 680              	.LBE273:
 681              	.LBE272:
 682              	.LBE271:
 683              	.LBE270:
 684              	.LBE269:
 685              		.cfi_endproc
 686              	.LFE176:
 687              		.size	chThdSleep, .-chThdSleep
 688 0018 AFF30080 		.section	.text.chThdSleepUntil,"ax",%progbits
 688      AFF30080 
 689              		.align	2
 690              		.p2align 4,,15
 691              		.global	chThdSleepUntil
 692              		.thumb
 693              		.thumb_func
 694              		.type	chThdSleepUntil, %function
 695              	chThdSleepUntil:
 696              	.LFB177:
 697              		.loc 1 331 0
 698              		.cfi_startproc
 699              		@ args = 0, pretend = 0, frame = 0
 700              		@ frame_needed = 0, uses_anonymous_args = 0
 701              	.LVL35:
 702 0000 08B5     		push	{r3, lr}
 703              		.cfi_def_cfa_offset 8
 704              		.cfi_offset 3, -8
 705              		.cfi_offset 14, -4
 706              	.LBB274:
 707              	.LBB275:
 708              	.LBB276:
 709              	.LBB277:
 710              		.loc 3 548 0
 711 0002 2023     		movs	r3, #32
 712              	@ 548 "/home/peter/ChibiOS_16.1.4/os/ext/CMSIS/include/core_cmFunc.h" 1
 713 0004 83F31188 		MSR basepri, r3
 714              	@ 0 "" 2
 715              		.thumb
 716              	.LBE277:
 717              	.LBE276:
 718              	.LBE275:
 719              	.LBE274:
 720              	.LBB278:
 721              	.LBB279:
 722              		.file 5 "/home/peter/ChibiOS_16.1.4/os/rt/include/chvt.h"
 723              		.loc 5 231 0
 724 0008 054B     		ldr	r3, .L31
 725 000a 996A     		ldr	r1, [r3, #40]
 726              	.LVL36:
 727              	.LBE279:
 728              	.LBE278:
 729              		.loc 1 335 0
 730 000c 411A     		subs	r1, r0, r1
 731              	.LVL37:
 732 000e 02D0     		beq	.L26
 733              	.LVL38:
 734              	.LBB280:
ARM GAS  /tmp/ccfmpFj0.s 			page 14


 735              	.LBB281:
 736              		.loc 4 268 0
 737 0010 0820     		movs	r0, #8
 738 0012 FFF7FEFF 		bl	chSchGoSleepTimeoutS
 739              	.LVL39:
 740              	.L26:
 741              	.LBE281:
 742              	.LBE280:
 743              	.LBB282:
 744              	.LBB283:
 745              	.LBB284:
 746              	.LBB285:
 747              	.LBB286:
 748              		.loc 3 548 0
 749 0016 0023     		movs	r3, #0
 750              	@ 548 "/home/peter/ChibiOS_16.1.4/os/ext/CMSIS/include/core_cmFunc.h" 1
 751 0018 83F31188 		MSR basepri, r3
 752              	@ 0 "" 2
 753              		.thumb
 754 001c 08BD     		pop	{r3, pc}
 755              	.L32:
 756 001e 00BF     		.align	2
 757              	.L31:
 758 0020 00000000 		.word	ch
 759              	.LBE286:
 760              	.LBE285:
 761              	.LBE284:
 762              	.LBE283:
 763              	.LBE282:
 764              		.cfi_endproc
 765              	.LFE177:
 766              		.size	chThdSleepUntil, .-chThdSleepUntil
 767 0024 AFF30080 		.section	.text.chThdSleepUntilWindowed,"ax",%progbits
 767      AFF30080 
 767      AFF30080 
 768              		.align	2
 769              		.p2align 4,,15
 770              		.global	chThdSleepUntilWindowed
 771              		.thumb
 772              		.thumb_func
 773              		.type	chThdSleepUntilWindowed, %function
 774              	chThdSleepUntilWindowed:
 775              	.LFB178:
 776              		.loc 1 355 0
 777              		.cfi_startproc
 778              		@ args = 0, pretend = 0, frame = 0
 779              		@ frame_needed = 0, uses_anonymous_args = 0
 780              	.LVL40:
 781 0000 10B5     		push	{r4, lr}
 782              		.cfi_def_cfa_offset 8
 783              		.cfi_offset 4, -8
 784              		.cfi_offset 14, -4
 785              	.LBB287:
 786              	.LBB288:
 787              	.LBB289:
 788              	.LBB290:
 789              		.loc 3 548 0
ARM GAS  /tmp/ccfmpFj0.s 			page 15


 790 0002 2023     		movs	r3, #32
 791              	.LBE290:
 792              	.LBE289:
 793              	.LBE288:
 794              	.LBE287:
 795              		.loc 1 355 0
 796 0004 0C46     		mov	r4, r1
 797              	.LBB294:
 798              	.LBB293:
 799              	.LBB292:
 800              	.LBB291:
 801              		.loc 3 548 0
 802              	@ 548 "/home/peter/ChibiOS_16.1.4/os/ext/CMSIS/include/core_cmFunc.h" 1
 803 0006 83F31188 		MSR basepri, r3
 804              	@ 0 "" 2
 805              		.thumb
 806              	.LBE291:
 807              	.LBE292:
 808              	.LBE293:
 809              	.LBE294:
 810              	.LBB295:
 811              	.LBB296:
 812              		.loc 5 231 0
 813 000a 074A     		ldr	r2, .L36
 814              	.LBE296:
 815              	.LBE295:
 816              	.LBB298:
 817              	.LBB299:
 818              		.loc 5 288 0
 819 000c 0B1A     		subs	r3, r1, r0
 820              	.LBE299:
 821              	.LBE298:
 822              	.LBB301:
 823              	.LBB297:
 824              		.loc 5 231 0
 825 000e 916A     		ldr	r1, [r2, #40]
 826              	.LVL41:
 827              	.LBE297:
 828              	.LBE301:
 829              	.LBB302:
 830              	.LBB300:
 831              		.loc 5 288 0
 832 0010 081A     		subs	r0, r1, r0
 833              	.LVL42:
 834              	.LBE300:
 835              	.LBE302:
 836              		.loc 1 360 0
 837 0012 9842     		cmp	r0, r3
 838 0014 03D2     		bcs	.L34
 839              	.LVL43:
 840              	.LBB303:
 841              	.LBB304:
 842              		.loc 4 268 0
 843 0016 611A     		subs	r1, r4, r1
 844              	.LVL44:
 845 0018 0820     		movs	r0, #8
 846 001a FFF7FEFF 		bl	chSchGoSleepTimeoutS
ARM GAS  /tmp/ccfmpFj0.s 			page 16


 847              	.LVL45:
 848              	.L34:
 849              	.LBE304:
 850              	.LBE303:
 851              	.LBB305:
 852              	.LBB306:
 853              	.LBB307:
 854              	.LBB308:
 855              	.LBB309:
 856              		.loc 3 548 0
 857 001e 0023     		movs	r3, #0
 858              	@ 548 "/home/peter/ChibiOS_16.1.4/os/ext/CMSIS/include/core_cmFunc.h" 1
 859 0020 83F31188 		MSR basepri, r3
 860              	@ 0 "" 2
 861              		.thumb
 862              	.LBE309:
 863              	.LBE308:
 864              	.LBE307:
 865              	.LBE306:
 866              	.LBE305:
 867              		.loc 1 366 0
 868 0024 2046     		mov	r0, r4
 869 0026 10BD     		pop	{r4, pc}
 870              	.LVL46:
 871              	.L37:
 872              		.align	2
 873              	.L36:
 874 0028 00000000 		.word	ch
 875              		.cfi_endproc
 876              	.LFE178:
 877              		.size	chThdSleepUntilWindowed, .-chThdSleepUntilWindowed
 878 002c AFF30080 		.section	.text.chThdYield,"ax",%progbits
 879              		.align	2
 880              		.p2align 4,,15
 881              		.global	chThdYield
 882              		.thumb
 883              		.thumb_func
 884              		.type	chThdYield, %function
 885              	chThdYield:
 886              	.LFB179:
 887              		.loc 1 375 0
 888              		.cfi_startproc
 889              		@ args = 0, pretend = 0, frame = 0
 890              		@ frame_needed = 0, uses_anonymous_args = 0
 891              	.LVL47:
 892 0000 08B5     		push	{r3, lr}
 893              		.cfi_def_cfa_offset 8
 894              		.cfi_offset 3, -8
 895              		.cfi_offset 14, -4
 896              	.LBB323:
 897              	.LBB324:
 898              	.LBB325:
 899              	.LBB326:
 900              		.loc 3 548 0
 901 0002 2023     		movs	r3, #32
 902              	@ 548 "/home/peter/ChibiOS_16.1.4/os/ext/CMSIS/include/core_cmFunc.h" 1
 903 0004 83F31188 		MSR basepri, r3
ARM GAS  /tmp/ccfmpFj0.s 			page 17


 904              	@ 0 "" 2
 905              		.thumb
 906              	.LBE326:
 907              	.LBE325:
 908              	.LBE324:
 909              	.LBE323:
 910              	.LBB327:
 911              	.LBB328:
 912              	.LBB329:
 913              	.LBB330:
 914              		.loc 2 731 0
 915 0008 064B     		ldr	r3, .L41
 916 000a 1A68     		ldr	r2, [r3]
 917 000c 9B69     		ldr	r3, [r3, #24]
 918              	.LBE330:
 919              	.LBE329:
 920              		.loc 2 745 0
 921 000e 9268     		ldr	r2, [r2, #8]
 922 0010 9B68     		ldr	r3, [r3, #8]
 923 0012 9A42     		cmp	r2, r3
 924 0014 01D3     		bcc	.L39
 925              		.loc 2 746 0
 926 0016 FFF7FEFF 		bl	chSchDoRescheduleBehind
 927              	.LVL48:
 928              	.L39:
 929              	.LBE328:
 930              	.LBE327:
 931              	.LBB331:
 932              	.LBB332:
 933              	.LBB333:
 934              	.LBB334:
 935              	.LBB335:
 936              		.loc 3 548 0
 937 001a 0023     		movs	r3, #0
 938              	@ 548 "/home/peter/ChibiOS_16.1.4/os/ext/CMSIS/include/core_cmFunc.h" 1
 939 001c 83F31188 		MSR basepri, r3
 940              	@ 0 "" 2
 941              		.thumb
 942 0020 08BD     		pop	{r3, pc}
 943              	.L42:
 944 0022 00BF     		.align	2
 945              	.L41:
 946 0024 00000000 		.word	ch
 947              	.LBE335:
 948              	.LBE334:
 949              	.LBE333:
 950              	.LBE332:
 951              	.LBE331:
 952              		.cfi_endproc
 953              	.LFE179:
 954              		.size	chThdYield, .-chThdYield
 955 0028 AFF30080 		.section	.text.chThdExitS,"ax",%progbits
 955      AFF30080 
 956              		.align	2
 957              		.p2align 4,,15
 958              		.global	chThdExitS
 959              		.thumb
ARM GAS  /tmp/ccfmpFj0.s 			page 18


 960              		.thumb_func
 961              		.type	chThdExitS, %function
 962              	chThdExitS:
 963              	.LFB181:
 964              		.loc 1 417 0
 965              		.cfi_startproc
 966              		@ args = 0, pretend = 0, frame = 0
 967              		@ frame_needed = 0, uses_anonymous_args = 0
 968              	.LVL49:
 969 0000 38B5     		push	{r3, r4, r5, lr}
 970              		.cfi_def_cfa_offset 16
 971              		.cfi_offset 3, -16
 972              		.cfi_offset 4, -12
 973              		.cfi_offset 5, -8
 974              		.cfi_offset 14, -4
 975              		.loc 1 418 0
 976 0002 0E4B     		ldr	r3, .L51
 977 0004 9C69     		ldr	r4, [r3, #24]
 978              	.LVL50:
 979              	.LBB336:
 980              	.LBB337:
 981              		.loc 2 592 0
 982 0006 636A     		ldr	r3, [r4, #36]
 983              	.LBE337:
 984              	.LBE336:
 985              		.loc 1 425 0
 986 0008 04F12405 		add	r5, r4, #36
 987              	.LVL51:
 988 000c 9D42     		cmp	r5, r3
 989              		.loc 1 420 0
 990 000e 2062     		str	r0, [r4, #32]
 991              		.loc 1 425 0
 992 0010 07D0     		beq	.L48
 993              	.LVL52:
 994              	.L47:
 995              	.LBB339:
 996              	.LBB340:
 997              		.loc 2 646 0
 998 0012 1A68     		ldr	r2, [r3]
 999              	.LBE340:
 1000              	.LBE339:
 1001              		.loc 1 426 0
 1002 0014 1846     		mov	r0, r3
 1003              	.LBB342:
 1004              	.LBB341:
 1005              		.loc 2 646 0
 1006 0016 6262     		str	r2, [r4, #36]
 1007              	.LBE341:
 1008              	.LBE342:
 1009              		.loc 1 426 0
 1010 0018 FFF7FEFF 		bl	chSchReadyI
 1011              	.LVL53:
 1012              	.LBB343:
 1013              	.LBB338:
 1014              		.loc 2 592 0
 1015 001c 636A     		ldr	r3, [r4, #36]
 1016              	.LBE338:
ARM GAS  /tmp/ccfmpFj0.s 			page 19


 1017              	.LBE343:
 1018              		.loc 1 425 0
 1019 001e AB42     		cmp	r3, r5
 1020 0020 F7D1     		bne	.L47
 1021              	.LVL54:
 1022              	.L48:
 1023              		.loc 1 432 0
 1024 0022 637F     		ldrb	r3, [r4, #29]	@ zero_extendqisi2
 1025 0024 9B07     		lsls	r3, r3, #30
 1026 0026 04D1     		bne	.L46
 1027              		.loc 1 433 0
 1028 0028 2269     		ldr	r2, [r4, #16]
 1029 002a 6369     		ldr	r3, [r4, #20]
 1030 002c 1A61     		str	r2, [r3, #16]
 1031 002e 2269     		ldr	r2, [r4, #16]
 1032 0030 5361     		str	r3, [r2, #20]
 1033              	.L46:
 1034              		.loc 1 436 0
 1035 0032 0F20     		movs	r0, #15
 1036              		.loc 1 440 0
 1037 0034 BDE83840 		pop	{r3, r4, r5, lr}
 1038              		.cfi_restore 14
 1039              		.cfi_restore 5
 1040              		.cfi_restore 4
 1041              		.cfi_restore 3
 1042              		.cfi_def_cfa_offset 0
 1043              	.LVL55:
 1044              		.loc 1 436 0
 1045 0038 FFF7FEBF 		b	chSchGoSleepS
 1046              	.LVL56:
 1047              	.L52:
 1048              		.align	2
 1049              	.L51:
 1050 003c 00000000 		.word	ch
 1051              		.cfi_endproc
 1052              	.LFE181:
 1053              		.size	chThdExitS, .-chThdExitS
 1054              		.section	.text.chThdExit,"ax",%progbits
 1055              		.align	2
 1056              		.p2align 4,,15
 1057              		.global	chThdExit
 1058              		.thumb
 1059              		.thumb_func
 1060              		.type	chThdExit, %function
 1061              	chThdExit:
 1062              	.LFB180:
 1063              		.loc 1 396 0
 1064              		.cfi_startproc
 1065              		@ args = 0, pretend = 0, frame = 0
 1066              		@ frame_needed = 0, uses_anonymous_args = 0
 1067              		@ link register save eliminated.
 1068              	.LVL57:
 1069              	.LBB344:
 1070              	.LBB345:
 1071              	.LBB346:
 1072              	.LBB347:
 1073              		.loc 3 548 0
ARM GAS  /tmp/ccfmpFj0.s 			page 20


 1074 0000 2023     		movs	r3, #32
 1075              	@ 548 "/home/peter/ChibiOS_16.1.4/os/ext/CMSIS/include/core_cmFunc.h" 1
 1076 0002 83F31188 		MSR basepri, r3
 1077              	@ 0 "" 2
 1078              		.thumb
 1079              	.LBE347:
 1080              	.LBE346:
 1081              	.LBE345:
 1082              	.LBE344:
 1083              		.loc 1 399 0
 1084 0006 FFF7FEBF 		b	chThdExitS
 1085              	.LVL58:
 1086              		.cfi_endproc
 1087              	.LFE180:
 1088              		.size	chThdExit, .-chThdExit
 1089 000a 00BFAFF3 		.section	.text.chThdWait,"ax",%progbits
 1089      0080
 1090              		.align	2
 1091              		.p2align 4,,15
 1092              		.global	chThdWait
 1093              		.thumb
 1094              		.thumb_func
 1095              		.type	chThdWait, %function
 1096              	chThdWait:
 1097              	.LFB182:
 1098              		.loc 1 474 0
 1099              		.cfi_startproc
 1100              		@ args = 0, pretend = 0, frame = 0
 1101              		@ frame_needed = 0, uses_anonymous_args = 0
 1102              	.LVL59:
 1103 0000 38B5     		push	{r3, r4, r5, lr}
 1104              		.cfi_def_cfa_offset 16
 1105              		.cfi_offset 3, -16
 1106              		.cfi_offset 4, -12
 1107              		.cfi_offset 5, -8
 1108              		.cfi_offset 14, -4
 1109              		.loc 1 474 0
 1110 0002 0446     		mov	r4, r0
 1111              	.LBB348:
 1112              	.LBB349:
 1113              	.LBB350:
 1114              	.LBB351:
 1115              		.loc 3 548 0
 1116 0004 2023     		movs	r3, #32
 1117              	@ 548 "/home/peter/ChibiOS_16.1.4/os/ext/CMSIS/include/core_cmFunc.h" 1
 1118 0006 83F31188 		MSR basepri, r3
 1119              	@ 0 "" 2
 1120              		.thumb
 1121              	.LBE351:
 1122              	.LBE350:
 1123              	.LBE349:
 1124              	.LBE348:
 1125              		.loc 1 484 0
 1126 000a 037F     		ldrb	r3, [r0, #28]	@ zero_extendqisi2
 1127 000c 0F2B     		cmp	r3, #15
 1128 000e 07D0     		beq	.L55
 1129              		.loc 1 485 0
ARM GAS  /tmp/ccfmpFj0.s 			page 21


 1130 0010 084B     		ldr	r3, .L60
 1131              	.LBB352:
 1132              	.LBB353:
 1133              		.loc 2 639 0
 1134 0012 426A     		ldr	r2, [r0, #36]
 1135              	.LBE353:
 1136              	.LBE352:
 1137              		.loc 1 485 0
 1138 0014 9B69     		ldr	r3, [r3, #24]
 1139              	.LVL60:
 1140              		.loc 1 486 0
 1141 0016 0920     		movs	r0, #9
 1142              	.LVL61:
 1143              	.LBB355:
 1144              	.LBB354:
 1145              		.loc 2 639 0
 1146 0018 1A60     		str	r2, [r3]
 1147              		.loc 2 640 0
 1148 001a 6362     		str	r3, [r4, #36]
 1149              	.LBE354:
 1150              	.LBE355:
 1151              		.loc 1 486 0
 1152 001c FFF7FEFF 		bl	chSchGoSleepS
 1153              	.LVL62:
 1154              	.L55:
 1155              		.loc 1 488 0
 1156 0020 256A     		ldr	r5, [r4, #32]
 1157              	.LVL63:
 1158              	.LBB356:
 1159              	.LBB357:
 1160              	.LBB358:
 1161              	.LBB359:
 1162              	.LBB360:
 1163              		.loc 3 548 0
 1164 0022 0023     		movs	r3, #0
 1165              	@ 548 "/home/peter/ChibiOS_16.1.4/os/ext/CMSIS/include/core_cmFunc.h" 1
 1166 0024 83F31188 		MSR basepri, r3
 1167              	@ 0 "" 2
 1168              		.thumb
 1169              	.LBE360:
 1170              	.LBE359:
 1171              	.LBE358:
 1172              	.LBE357:
 1173              	.LBE356:
 1174              		.loc 1 493 0
 1175 0028 2046     		mov	r0, r4
 1176 002a FFF7FEFF 		bl	chThdRelease
 1177              	.LVL64:
 1178              		.loc 1 497 0
 1179 002e 2846     		mov	r0, r5
 1180 0030 38BD     		pop	{r3, r4, r5, pc}
 1181              	.LVL65:
 1182              	.L61:
 1183 0032 00BF     		.align	2
 1184              	.L60:
 1185 0034 00000000 		.word	ch
 1186              		.cfi_endproc
ARM GAS  /tmp/ccfmpFj0.s 			page 22


 1187              	.LFE182:
 1188              		.size	chThdWait, .-chThdWait
 1189 0038 AFF30080 		.section	.text.chThdSuspendS,"ax",%progbits
 1189      AFF30080 
 1190              		.align	2
 1191              		.p2align 4,,15
 1192              		.global	chThdSuspendS
 1193              		.thumb
 1194              		.thumb_func
 1195              		.type	chThdSuspendS, %function
 1196              	chThdSuspendS:
 1197              	.LFB183:
 1198              		.loc 1 510 0
 1199              		.cfi_startproc
 1200              		@ args = 0, pretend = 0, frame = 0
 1201              		@ frame_needed = 0, uses_anonymous_args = 0
 1202              	.LVL66:
 1203 0000 0246     		mov	r2, r0
 1204 0002 10B5     		push	{r4, lr}
 1205              		.cfi_def_cfa_offset 8
 1206              		.cfi_offset 4, -8
 1207              		.cfi_offset 14, -4
 1208              	.LBB361:
 1209              	.LBB362:
 1210              		.loc 4 176 0
 1211 0004 044C     		ldr	r4, .L64
 1212              	.LBE362:
 1213              	.LBE361:
 1214              		.loc 1 517 0
 1215 0006 0320     		movs	r0, #3
 1216              	.LVL67:
 1217              	.LBB364:
 1218              	.LBB363:
 1219              		.loc 4 176 0
 1220 0008 A369     		ldr	r3, [r4, #24]
 1221              	.LBE363:
 1222              	.LBE364:
 1223              		.loc 1 515 0
 1224 000a 1360     		str	r3, [r2]
 1225              		.loc 1 516 0
 1226 000c 1A62     		str	r2, [r3, #32]
 1227              		.loc 1 517 0
 1228 000e FFF7FEFF 		bl	chSchGoSleepS
 1229              	.LVL68:
 1230              		.loc 1 519 0
 1231 0012 A369     		ldr	r3, [r4, #24]
 1232              		.loc 1 520 0
 1233 0014 186A     		ldr	r0, [r3, #32]
 1234 0016 10BD     		pop	{r4, pc}
 1235              	.L65:
 1236              		.align	2
 1237              	.L64:
 1238 0018 00000000 		.word	ch
 1239              		.cfi_endproc
 1240              	.LFE183:
 1241              		.size	chThdSuspendS, .-chThdSuspendS
 1242 001c AFF30080 		.section	.text.chThdSuspendTimeoutS,"ax",%progbits
ARM GAS  /tmp/ccfmpFj0.s 			page 23


 1243              		.align	2
 1244              		.p2align 4,,15
 1245              		.global	chThdSuspendTimeoutS
 1246              		.thumb
 1247              		.thumb_func
 1248              		.type	chThdSuspendTimeoutS, %function
 1249              	chThdSuspendTimeoutS:
 1250              	.LFB184:
 1251              		.loc 1 541 0
 1252              		.cfi_startproc
 1253              		@ args = 0, pretend = 0, frame = 0
 1254              		@ frame_needed = 0, uses_anonymous_args = 0
 1255              		@ link register save eliminated.
 1256              	.LVL69:
 1257              	.LBB365:
 1258              	.LBB366:
 1259              		.loc 4 176 0
 1260 0000 054B     		ldr	r3, .L68
 1261              	.LBE366:
 1262              	.LBE365:
 1263              		.loc 1 541 0
 1264 0002 0246     		mov	r2, r0
 1265              	.LBB368:
 1266              	.LBB367:
 1267              		.loc 4 176 0
 1268 0004 9B69     		ldr	r3, [r3, #24]
 1269              	.LBE367:
 1270              	.LBE368:
 1271              		.loc 1 546 0
 1272 0006 21B1     		cbz	r1, .L67
 1273              		.loc 1 550 0
 1274 0008 0360     		str	r3, [r0]
 1275              		.loc 1 553 0
 1276 000a 0320     		movs	r0, #3
 1277              	.LVL70:
 1278              		.loc 1 551 0
 1279 000c 1A62     		str	r2, [r3, #32]
 1280              		.loc 1 553 0
 1281 000e FFF7FEBF 		b	chSchGoSleepTimeoutS
 1282              	.LVL71:
 1283              	.L67:
 1284              		.loc 1 554 0
 1285 0012 4FF0FF30 		mov	r0, #-1
 1286              	.LVL72:
 1287 0016 7047     		bx	lr
 1288              	.L69:
 1289              		.align	2
 1290              	.L68:
 1291 0018 00000000 		.word	ch
 1292              		.cfi_endproc
 1293              	.LFE184:
 1294              		.size	chThdSuspendTimeoutS, .-chThdSuspendTimeoutS
 1295 001c AFF30080 		.section	.text.chThdResumeI,"ax",%progbits
 1296              		.align	2
 1297              		.p2align 4,,15
 1298              		.global	chThdResumeI
 1299              		.thumb
ARM GAS  /tmp/ccfmpFj0.s 			page 24


 1300              		.thumb_func
 1301              		.type	chThdResumeI, %function
 1302              	chThdResumeI:
 1303              	.LFB185:
 1304              		.loc 1 566 0
 1305              		.cfi_startproc
 1306              		@ args = 0, pretend = 0, frame = 0
 1307              		@ frame_needed = 0, uses_anonymous_args = 0
 1308              		@ link register save eliminated.
 1309              	.LVL73:
 1310              		.loc 1 568 0
 1311 0000 0368     		ldr	r3, [r0]
 1312 0002 2BB1     		cbz	r3, .L70
 1313              	.LVL74:
 1314              	.LBB369:
 1315              		.loc 1 574 0
 1316 0004 0022     		movs	r2, #0
 1317 0006 0260     		str	r2, [r0]
 1318              		.loc 1 576 0
 1319 0008 1846     		mov	r0, r3
 1320              	.LVL75:
 1321              		.loc 1 575 0
 1322 000a 1962     		str	r1, [r3, #32]
 1323              		.loc 1 576 0
 1324 000c FFF7FEBF 		b	chSchReadyI
 1325              	.LVL76:
 1326              	.L70:
 1327 0010 7047     		bx	lr
 1328              	.LBE369:
 1329              		.cfi_endproc
 1330              	.LFE185:
 1331              		.size	chThdResumeI, .-chThdResumeI
 1332 0012 00BFAFF3 		.section	.text.chThdResumeS,"ax",%progbits
 1332      0080AFF3 
 1332      0080AFF3 
 1332      0080
 1333              		.align	2
 1334              		.p2align 4,,15
 1335              		.global	chThdResumeS
 1336              		.thumb
 1337              		.thumb_func
 1338              		.type	chThdResumeS, %function
 1339              	chThdResumeS:
 1340              	.LFB186:
 1341              		.loc 1 590 0
 1342              		.cfi_startproc
 1343              		@ args = 0, pretend = 0, frame = 0
 1344              		@ frame_needed = 0, uses_anonymous_args = 0
 1345              		@ link register save eliminated.
 1346              	.LVL77:
 1347              		.loc 1 590 0
 1348 0000 0346     		mov	r3, r0
 1349              		.loc 1 592 0
 1350 0002 0068     		ldr	r0, [r0]
 1351              	.LVL78:
 1352 0004 18B1     		cbz	r0, .L72
 1353              	.LVL79:
ARM GAS  /tmp/ccfmpFj0.s 			page 25


 1354              	.LBB370:
 1355              		.loc 1 598 0
 1356 0006 0022     		movs	r2, #0
 1357 0008 1A60     		str	r2, [r3]
 1358              		.loc 1 599 0
 1359 000a FFF7FEBF 		b	chSchWakeupS
 1360              	.LVL80:
 1361              	.L72:
 1362 000e 7047     		bx	lr
 1363              	.LBE370:
 1364              		.cfi_endproc
 1365              	.LFE186:
 1366              		.size	chThdResumeS, .-chThdResumeS
 1367              		.section	.text.chThdResume,"ax",%progbits
 1368              		.align	2
 1369              		.p2align 4,,15
 1370              		.global	chThdResume
 1371              		.thumb
 1372              		.thumb_func
 1373              		.type	chThdResume, %function
 1374              	chThdResume:
 1375              	.LFB187:
 1376              		.loc 1 613 0
 1377              		.cfi_startproc
 1378              		@ args = 0, pretend = 0, frame = 0
 1379              		@ frame_needed = 0, uses_anonymous_args = 0
 1380              	.LVL81:
 1381              	.LBB371:
 1382              	.LBB372:
 1383              	.LBB373:
 1384              	.LBB374:
 1385              		.loc 3 548 0
 1386 0000 2023     		movs	r3, #32
 1387              	@ 548 "/home/peter/ChibiOS_16.1.4/os/ext/CMSIS/include/core_cmFunc.h" 1
 1388 0002 83F31188 		MSR basepri, r3
 1389              	@ 0 "" 2
 1390              	.LVL82:
 1391              		.thumb
 1392              	.LBE374:
 1393              	.LBE373:
 1394              	.LBE372:
 1395              	.LBE371:
 1396              	.LBB375:
 1397              	.LBB376:
 1398              		.loc 1 592 0
 1399 0006 0268     		ldr	r2, [r0]
 1400 0008 52B1     		cbz	r2, .L80
 1401 000a 0346     		mov	r3, r0
 1402              	.LVL83:
 1403              	.LBE376:
 1404              	.LBE375:
 1405              		.loc 1 613 0
 1406 000c 10B5     		push	{r4, lr}
 1407              		.cfi_def_cfa_offset 8
 1408              		.cfi_offset 4, -8
 1409              		.cfi_offset 14, -4
 1410              	.LBB379:
ARM GAS  /tmp/ccfmpFj0.s 			page 26


 1411              	.LBB378:
 1412              	.LBB377:
 1413              		.loc 1 598 0
 1414 000e 0024     		movs	r4, #0
 1415 0010 1C60     		str	r4, [r3]
 1416              		.loc 1 599 0
 1417 0012 1046     		mov	r0, r2
 1418              	.LVL84:
 1419 0014 FFF7FEFF 		bl	chSchWakeupS
 1420              	.LVL85:
 1421              	.LBE377:
 1422              	.LBE378:
 1423              	.LBE379:
 1424              	.LBB380:
 1425              	.LBB381:
 1426              	.LBB382:
 1427              	.LBB383:
 1428              	.LBB384:
 1429              		.loc 3 548 0
 1430 0018 0023     		movs	r3, #0
 1431              	@ 548 "/home/peter/ChibiOS_16.1.4/os/ext/CMSIS/include/core_cmFunc.h" 1
 1432 001a 83F31188 		MSR basepri, r3
 1433              	@ 0 "" 2
 1434              		.thumb
 1435 001e 10BD     		pop	{r4, pc}
 1436              	.LVL86:
 1437              	.L80:
 1438              		.cfi_def_cfa_offset 0
 1439              		.cfi_restore 4
 1440              		.cfi_restore 14
 1441 0020 0023     		movs	r3, #0
 1442              	@ 548 "/home/peter/ChibiOS_16.1.4/os/ext/CMSIS/include/core_cmFunc.h" 1
 1443 0022 83F31188 		MSR basepri, r3
 1444              	@ 0 "" 2
 1445              		.thumb
 1446 0026 7047     		bx	lr
 1447              	.LBE384:
 1448              	.LBE383:
 1449              	.LBE382:
 1450              	.LBE381:
 1451              	.LBE380:
 1452              		.cfi_endproc
 1453              	.LFE187:
 1454              		.size	chThdResume, .-chThdResume
 1455 0028 AFF30080 		.section	.text.chThdEnqueueTimeoutS,"ax",%progbits
 1455      AFF30080 
 1456              		.align	2
 1457              		.p2align 4,,15
 1458              		.global	chThdEnqueueTimeoutS
 1459              		.thumb
 1460              		.thumb_func
 1461              		.type	chThdEnqueueTimeoutS, %function
 1462              	chThdEnqueueTimeoutS:
 1463              	.LFB188:
 1464              		.loc 1 643 0
 1465              		.cfi_startproc
 1466              		@ args = 0, pretend = 0, frame = 0
ARM GAS  /tmp/ccfmpFj0.s 			page 27


 1467              		@ frame_needed = 0, uses_anonymous_args = 0
 1468              		@ link register save eliminated.
 1469              	.LVL87:
 1470              		.loc 1 645 0
 1471 0000 69B1     		cbz	r1, .L82
 1472 0002 0246     		mov	r2, r0
 1473              		.loc 1 649 0
 1474 0004 074B     		ldr	r3, .L84
 1475              		.loc 1 643 0
 1476 0006 10B4     		push	{r4}
 1477              		.cfi_def_cfa_offset 4
 1478              		.cfi_offset 4, -4
 1479              		.loc 1 649 0
 1480 0008 9B69     		ldr	r3, [r3, #24]
 1481              	.LVL88:
 1482              	.LBB385:
 1483              	.LBB386:
 1484              		.loc 2 666 0
 1485 000a 4468     		ldr	r4, [r0, #4]
 1486              	.LBE386:
 1487              	.LBE385:
 1488              		.loc 1 651 0
 1489 000c 0420     		movs	r0, #4
 1490              	.LVL89:
 1491              	.LBB388:
 1492              	.LBB387:
 1493              		.loc 2 666 0
 1494 000e 83E81400 		stmia	r3, {r2, r4}
 1495              		.loc 2 667 0
 1496 0012 2360     		str	r3, [r4]
 1497              		.loc 2 668 0
 1498 0014 5360     		str	r3, [r2, #4]
 1499              	.LBE387:
 1500              	.LBE388:
 1501              		.loc 1 652 0
 1502 0016 5DF8044B 		ldr	r4, [sp], #4
 1503              		.cfi_restore 4
 1504              		.cfi_def_cfa_offset 0
 1505              		.loc 1 651 0
 1506 001a FFF7FEBF 		b	chSchGoSleepTimeoutS
 1507              	.LVL90:
 1508              	.L82:
 1509              		.loc 1 652 0
 1510 001e 4FF0FF30 		mov	r0, #-1
 1511              	.LVL91:
 1512 0022 7047     		bx	lr
 1513              	.L85:
 1514              		.align	2
 1515              	.L84:
 1516 0024 00000000 		.word	ch
 1517              		.cfi_endproc
 1518              	.LFE188:
 1519              		.size	chThdEnqueueTimeoutS, .-chThdEnqueueTimeoutS
 1520 0028 AFF30080 		.section	.text.chThdDequeueNextI,"ax",%progbits
 1520      AFF30080 
 1521              		.align	2
 1522              		.p2align 4,,15
ARM GAS  /tmp/ccfmpFj0.s 			page 28


 1523              		.global	chThdDequeueNextI
 1524              		.thumb
 1525              		.thumb_func
 1526              		.type	chThdDequeueNextI, %function
 1527              	chThdDequeueNextI:
 1528              	.LFB189:
 1529              		.loc 1 663 0
 1530              		.cfi_startproc
 1531              		@ args = 0, pretend = 0, frame = 0
 1532              		@ frame_needed = 0, uses_anonymous_args = 0
 1533              		@ link register save eliminated.
 1534              	.LVL92:
 1535              	.LBB389:
 1536              	.LBB390:
 1537              		.loc 2 631 0
 1538 0000 0268     		ldr	r2, [r0]
 1539              	.LBE390:
 1540              	.LBE389:
 1541              		.loc 1 663 0
 1542 0002 0346     		mov	r3, r0
 1543              	.LVL93:
 1544              		.loc 1 665 0
 1545 0004 9042     		cmp	r0, r2
 1546 0006 09D0     		beq	.L89
 1547              	.LVL94:
 1548              		.loc 1 663 0
 1549 0008 10B4     		push	{r4}
 1550              		.cfi_def_cfa_offset 4
 1551              		.cfi_offset 4, -4
 1552              	.LBB391:
 1553              	.LBB392:
 1554              	.LBB393:
 1555              	.LBB394:
 1556              		.loc 2 674 0
 1557 000a 1468     		ldr	r4, [r2]
 1558              	.LBE394:
 1559              	.LBE393:
 1560              		.loc 4 322 0
 1561 000c 1046     		mov	r0, r2
 1562              	.LVL95:
 1563              	.LBB396:
 1564              	.LBB395:
 1565              		.loc 2 674 0
 1566 000e 1C60     		str	r4, [r3]
 1567              		.loc 2 675 0
 1568 0010 6360     		str	r3, [r4, #4]
 1569              	.LBE395:
 1570              	.LBE396:
 1571              		.loc 4 321 0
 1572 0012 1162     		str	r1, [r2, #32]
 1573              	.LBE392:
 1574              	.LBE391:
 1575              		.loc 1 668 0
 1576 0014 5DF8044B 		ldr	r4, [sp], #4
 1577              		.cfi_restore 4
 1578              		.cfi_def_cfa_offset 0
 1579              	.LBB398:
ARM GAS  /tmp/ccfmpFj0.s 			page 29


 1580              	.LBB397:
 1581              		.loc 4 322 0
 1582 0018 FFF7FEBF 		b	chSchReadyI
 1583              	.LVL96:
 1584              	.L89:
 1585 001c 7047     		bx	lr
 1586              	.LBE397:
 1587              	.LBE398:
 1588              		.cfi_endproc
 1589              	.LFE189:
 1590              		.size	chThdDequeueNextI, .-chThdDequeueNextI
 1591 001e 00BF     		.section	.text.chThdDequeueAllI,"ax",%progbits
 1592              		.align	2
 1593              		.p2align 4,,15
 1594              		.global	chThdDequeueAllI
 1595              		.thumb
 1596              		.thumb_func
 1597              		.type	chThdDequeueAllI, %function
 1598              	chThdDequeueAllI:
 1599              	.LFB190:
 1600              		.loc 1 678 0
 1601              		.cfi_startproc
 1602              		@ args = 0, pretend = 0, frame = 0
 1603              		@ frame_needed = 0, uses_anonymous_args = 0
 1604              	.LVL97:
 1605 0000 38B5     		push	{r3, r4, r5, lr}
 1606              		.cfi_def_cfa_offset 16
 1607              		.cfi_offset 3, -16
 1608              		.cfi_offset 4, -12
 1609              		.cfi_offset 5, -8
 1610              		.cfi_offset 14, -4
 1611              	.LBB399:
 1612              	.LBB400:
 1613              		.loc 2 631 0
 1614 0002 0368     		ldr	r3, [r0]
 1615              	.LBE400:
 1616              	.LBE399:
 1617              		.loc 1 678 0
 1618 0004 0446     		mov	r4, r0
 1619              	.LVL98:
 1620              		.loc 1 680 0
 1621 0006 9842     		cmp	r0, r3
 1622              		.loc 1 678 0
 1623 0008 0D46     		mov	r5, r1
 1624              		.loc 1 680 0
 1625 000a 09D0     		beq	.L90
 1626              	.LVL99:
 1627              	.L92:
 1628              	.LBB402:
 1629              	.LBB403:
 1630              	.LBB404:
 1631              	.LBB405:
 1632              		.loc 2 674 0
 1633 000c 1A68     		ldr	r2, [r3]
 1634              	.LBE405:
 1635              	.LBE404:
 1636              		.loc 4 322 0
ARM GAS  /tmp/ccfmpFj0.s 			page 30


 1637 000e 1846     		mov	r0, r3
 1638              	.LBB407:
 1639              	.LBB406:
 1640              		.loc 2 674 0
 1641 0010 2260     		str	r2, [r4]
 1642              		.loc 2 675 0
 1643 0012 5460     		str	r4, [r2, #4]
 1644              	.LBE406:
 1645              	.LBE407:
 1646              		.loc 4 321 0
 1647 0014 1D62     		str	r5, [r3, #32]
 1648              		.loc 4 322 0
 1649 0016 FFF7FEFF 		bl	chSchReadyI
 1650              	.LVL100:
 1651              	.LBE403:
 1652              	.LBE402:
 1653              	.LBB408:
 1654              	.LBB401:
 1655              		.loc 2 631 0
 1656 001a 2368     		ldr	r3, [r4]
 1657              	.LBE401:
 1658              	.LBE408:
 1659              		.loc 1 680 0
 1660 001c 9C42     		cmp	r4, r3
 1661 001e F5D1     		bne	.L92
 1662              	.LVL101:
 1663              	.L90:
 1664 0020 38BD     		pop	{r3, r4, r5, pc}
 1665              		.cfi_endproc
 1666              	.LFE190:
 1667              		.size	chThdDequeueAllI, .-chThdDequeueAllI
 1668 0022 00BFAFF3 		.text
 1668      0080AFF3 
 1668      0080AFF3 
 1668      0080
 1669              	.Letext0:
 1670              		.file 6 "/usr/lib/gcc/arm-none-eabi/4.9.3/include/stddef.h"
 1671              		.file 7 "/usr/include/newlib/machine/_default_types.h"
 1672              		.file 8 "/usr/include/newlib/stdint.h"
 1673              		.file 9 "/home/peter/ChibiOS_16.1.4/os/rt/ports/ARMCMx/compilers/GCC/chtypes.h"
 1674              		.file 10 "/home/peter/ChibiOS_16.1.4/os/rt/include/chsystypes.h"
 1675              		.file 11 "/home/peter/ChibiOS_16.1.4/os/rt/ports/ARMCMx/chcore.h"
 1676              		.file 12 "/home/peter/ChibiOS_16.1.4/os/rt/ports/ARMCMx/chcore_v7m.h"
 1677              		.file 13 "/home/peter/ChibiOS_16.1.4/os/rt/include/chtm.h"
 1678              		.file 14 "/home/peter/ChibiOS_16.1.4/os/rt/include/chsem.h"
 1679              		.file 15 "/home/peter/ChibiOS_16.1.4/os/rt/include/chmtx.h"
 1680              		.file 16 "/home/peter/ChibiOS_16.1.4/os/rt/include/chsys.h"
 1681              		.file 17 "/home/peter/ChibiOS_16.1.4/os/ext/CMSIS/include/core_cm3.h"
 1682              		.file 18 "/home/peter/ChibiOS_16.1.4/os/rt/include/chdynamic.h"