ARM GAS  /tmp/cc7fmVqe.s 			page 1


   1              		.syntax unified
   2              		.cpu cortex-m3
   3              		.fpu softvfp
   4              		.eabi_attribute 20, 1
   5              		.eabi_attribute 21, 1
   6              		.eabi_attribute 23, 3
   7              		.eabi_attribute 24, 1
   8              		.eabi_attribute 25, 1
   9              		.eabi_attribute 26, 1
  10              		.eabi_attribute 30, 2
  11              		.eabi_attribute 34, 1
  12              		.eabi_attribute 18, 4
  13              		.thumb
  14              		.file	"chtm.c"
  15              		.text
  16              	.Ltext0:
  17              		.cfi_sections	.debug_frame
  18              		.section	.text.chTMObjectInit,"ax",%progbits
  19              		.align	2
  20              		.p2align 4,,15
  21              		.global	chTMObjectInit
  22              		.thumb
  23              		.thumb_func
  24              		.type	chTMObjectInit, %function
  25              	chTMObjectInit:
  26              	.LFB172:
  27              		.file 1 "/home/peter/ChibiOS_16.1.4/os/rt/src/chtm.c"
  28              		.loc 1 97 0
  29              		.cfi_startproc
  30              		@ args = 0, pretend = 0, frame = 0
  31              		@ frame_needed = 0, uses_anonymous_args = 0
  32              		@ link register save eliminated.
  33              	.LVL0:
  34              		.loc 1 103 0
  35 0000 0022     		movs	r2, #0
  36 0002 0023     		movs	r3, #0
  37 0004 C0E90423 		strd	r2, [r0, #16]
  38              		.loc 1 100 0
  39 0008 0023     		movs	r3, #0
  40 000a 4FF0FF32 		mov	r2, #-1
  41 000e 80E80C00 		stmia	r0, {r2, r3}
  42              		.loc 1 101 0
  43 0012 8360     		str	r3, [r0, #8]
  44              		.loc 1 102 0
  45 0014 C360     		str	r3, [r0, #12]
  46 0016 7047     		bx	lr
  47              		.cfi_endproc
  48              	.LFE172:
  49              		.size	chTMObjectInit, .-chTMObjectInit
  50 0018 AFF30080 		.section	.text.chTMStartMeasurementX,"ax",%progbits
  50      AFF30080 
  51              		.align	2
  52              		.p2align 4,,15
  53              		.global	chTMStartMeasurementX
  54              		.thumb
  55              		.thumb_func
  56              		.type	chTMStartMeasurementX, %function
ARM GAS  /tmp/cc7fmVqe.s 			page 2


  57              	chTMStartMeasurementX:
  58              	.LFB173:
  59              		.loc 1 114 0
  60              		.cfi_startproc
  61              		@ args = 0, pretend = 0, frame = 0
  62              		@ frame_needed = 0, uses_anonymous_args = 0
  63              		@ link register save eliminated.
  64              	.LVL1:
  65              	.LBB14:
  66              	.LBB15:
  67              		.file 2 "/home/peter/ChibiOS_16.1.4/os/rt/ports/ARMCMx/chcore_v7m.h"
  68              		.loc 2 570 0
  69 0000 014B     		ldr	r3, .L3
  70 0002 5B68     		ldr	r3, [r3, #4]
  71              	.LBE15:
  72              	.LBE14:
  73              		.loc 1 116 0
  74 0004 8360     		str	r3, [r0, #8]
  75 0006 7047     		bx	lr
  76              	.L4:
  77              		.align	2
  78              	.L3:
  79 0008 001000E0 		.word	-536866816
  80              		.cfi_endproc
  81              	.LFE173:
  82              		.size	chTMStartMeasurementX, .-chTMStartMeasurementX
  83 000c AFF30080 		.section	.text.chTMStopMeasurementX,"ax",%progbits
  84              		.align	2
  85              		.p2align 4,,15
  86              		.global	chTMStopMeasurementX
  87              		.thumb
  88              		.thumb_func
  89              		.type	chTMStopMeasurementX, %function
  90              	chTMStopMeasurementX:
  91              	.LFB174:
  92              		.loc 1 127 0
  93              		.cfi_startproc
  94              		@ args = 0, pretend = 0, frame = 0
  95              		@ frame_needed = 0, uses_anonymous_args = 0
  96              		@ link register save eliminated.
  97              	.LVL2:
  98              	.LBB16:
  99              	.LBB17:
 100              		.loc 2 570 0
 101 0000 0E4B     		ldr	r3, .L9
 102              	.LBE17:
 103              	.LBE16:
 104              		.loc 1 129 0
 105 0002 0F49     		ldr	r1, .L9+4
 106              	.LBB19:
 107              	.LBB18:
 108              		.loc 2 570 0
 109 0004 5A68     		ldr	r2, [r3, #4]
 110              	.LBE18:
 111              	.LBE19:
 112              	.LBB20:
 113              	.LBB21:
ARM GAS  /tmp/cc7fmVqe.s 			page 3


 114              		.loc 1 58 0
 115 0006 8368     		ldr	r3, [r0, #8]
 116              	.LBE21:
 117              	.LBE20:
 118              		.loc 1 129 0
 119 0008 496F     		ldr	r1, [r1, #116]
 120              	.LVL3:
 121              	.LBB25:
 122              	.LBB22:
 123              		.loc 1 58 0
 124 000a D31A     		subs	r3, r2, r3
 125              		.loc 1 57 0
 126 000c C268     		ldr	r2, [r0, #12]
 127              	.LVL4:
 128              	.LBE22:
 129              	.LBE25:
 130              		.loc 1 127 0
 131 000e 30B4     		push	{r4, r5}
 132              		.cfi_def_cfa_offset 8
 133              		.cfi_offset 4, -8
 134              		.cfi_offset 5, -4
 135              	.LBB26:
 136              	.LBB23:
 137              		.loc 1 59 0
 138 0010 D0E90445 		ldrd	r4, [r0, #16]
 139              		.loc 1 58 0
 140 0014 5B1A     		subs	r3, r3, r1
 141              		.loc 1 57 0
 142 0016 0132     		adds	r2, r2, #1
 143              		.loc 1 60 0
 144 0018 4168     		ldr	r1, [r0, #4]
 145              	.LVL5:
 146              		.loc 1 59 0
 147 001a E418     		adds	r4, r4, r3
 148              		.loc 1 57 0
 149 001c C260     		str	r2, [r0, #12]
 150              		.loc 1 63 0
 151 001e 0268     		ldr	r2, [r0]
 152              		.loc 1 59 0
 153 0020 45F10005 		adc	r5, r5, #0
 154              		.loc 1 60 0
 155 0024 8B42     		cmp	r3, r1
 156              		.loc 1 61 0
 157 0026 88BF     		it	hi
 158 0028 4360     		strhi	r3, [r0, #4]
 159              		.loc 1 63 0
 160 002a 9342     		cmp	r3, r2
 161              		.loc 1 59 0
 162 002c C0E90445 		strd	r4, [r0, #16]
 163              	.LBE23:
 164              	.LBE26:
 165              		.loc 1 130 0
 166 0030 30BC     		pop	{r4, r5}
 167              		.cfi_restore 5
 168              		.cfi_restore 4
 169              		.cfi_def_cfa_offset 0
 170              	.LBB27:
ARM GAS  /tmp/cc7fmVqe.s 			page 4


 171              	.LBB24:
 172              		.loc 1 58 0
 173 0032 8360     		str	r3, [r0, #8]
 174              		.loc 1 64 0
 175 0034 38BF     		it	cc
 176 0036 0360     		strcc	r3, [r0]
 177              	.LBE24:
 178              	.LBE27:
 179              		.loc 1 130 0
 180 0038 7047     		bx	lr
 181              	.L10:
 182 003a 00BF     		.align	2
 183              	.L9:
 184 003c 001000E0 		.word	-536866816
 185 0040 00000000 		.word	ch
 186              		.cfi_endproc
 187              	.LFE174:
 188              		.size	chTMStopMeasurementX, .-chTMStopMeasurementX
 189 0044 AFF30080 		.section	.text._tm_init,"ax",%progbits
 189      AFF30080 
 189      AFF30080 
 190              		.align	2
 191              		.p2align 4,,15
 192              		.global	_tm_init
 193              		.thumb
 194              		.thumb_func
 195              		.type	_tm_init, %function
 196              	_tm_init:
 197              	.LFB171:
 198              		.loc 1 77 0
 199              		.cfi_startproc
 200              		@ args = 0, pretend = 0, frame = 24
 201              		@ frame_needed = 0, uses_anonymous_args = 0
 202 0000 D0B5     		push	{r4, r6, r7, lr}
 203              		.cfi_def_cfa_offset 16
 204              		.cfi_offset 4, -16
 205              		.cfi_offset 6, -12
 206              		.cfi_offset 7, -8
 207              		.cfi_offset 14, -4
 208              		.loc 1 83 0
 209 0002 0C4C     		ldr	r4, .L13
 210              		.loc 1 77 0
 211 0004 86B0     		sub	sp, sp, #24
 212              		.cfi_def_cfa_offset 40
 213              		.loc 1 83 0
 214 0006 0023     		movs	r3, #0
 215              	.LBB28:
 216              	.LBB29:
 217              		.loc 1 99 0
 218 0008 4FF0FF32 		mov	r2, #-1
 219              	.LBE29:
 220              	.LBE28:
 221              		.loc 1 85 0
 222 000c 6846     		mov	r0, sp
 223              	.LBB32:
 224              	.LBB30:
 225              		.loc 1 103 0
ARM GAS  /tmp/cc7fmVqe.s 			page 5


 226 000e 0026     		movs	r6, #0
 227 0010 0027     		movs	r7, #0
 228              	.LBE30:
 229              	.LBE32:
 230              		.loc 1 83 0
 231 0012 6367     		str	r3, [r4, #116]
 232              	.LVL6:
 233              	.LBB33:
 234              	.LBB31:
 235              		.loc 1 100 0
 236 0014 0193     		str	r3, [sp, #4]
 237              		.loc 1 101 0
 238 0016 0293     		str	r3, [sp, #8]
 239              		.loc 1 102 0
 240 0018 0393     		str	r3, [sp, #12]
 241              		.loc 1 99 0
 242 001a 0092     		str	r2, [sp]
 243              		.loc 1 103 0
 244 001c CDE90467 		strd	r6, [sp, #16]
 245              	.LBE31:
 246              	.LBE33:
 247              		.loc 1 85 0
 248 0020 FFF7FEFF 		bl	chTMStartMeasurementX
 249              	.LVL7:
 250              		.loc 1 86 0
 251 0024 6846     		mov	r0, sp
 252 0026 FFF7FEFF 		bl	chTMStopMeasurementX
 253              	.LVL8:
 254              		.loc 1 87 0
 255 002a 029B     		ldr	r3, [sp, #8]
 256 002c 6367     		str	r3, [r4, #116]
 257              		.loc 1 88 0
 258 002e 06B0     		add	sp, sp, #24
 259              		.cfi_def_cfa_offset 16
 260              	.LVL9:
 261              		@ sp needed
 262 0030 D0BD     		pop	{r4, r6, r7, pc}
 263              	.LVL10:
 264              	.L14:
 265 0032 00BF     		.align	2
 266              	.L13:
 267 0034 00000000 		.word	ch
 268              		.cfi_endproc
 269              	.LFE171:
 270              		.size	_tm_init, .-_tm_init
 271 0038 AFF30080 		.section	.text.chTMChainMeasurementToX,"ax",%progbits
 271      AFF30080 
 272              		.align	2
 273              		.p2align 4,,15
 274              		.global	chTMChainMeasurementToX
 275              		.thumb
 276              		.thumb_func
 277              		.type	chTMChainMeasurementToX, %function
 278              	chTMChainMeasurementToX:
 279              	.LFB175:
 280              		.loc 1 145 0
 281              		.cfi_startproc
ARM GAS  /tmp/cc7fmVqe.s 			page 6


 282              		@ args = 0, pretend = 0, frame = 0
 283              		@ frame_needed = 0, uses_anonymous_args = 0
 284              		@ link register save eliminated.
 285              	.LVL11:
 286              	.LBB34:
 287              	.LBB35:
 288              		.loc 2 570 0
 289 0000 0D4B     		ldr	r3, .L19
 290              	.LBE35:
 291              	.LBE34:
 292              		.loc 1 145 0
 293 0002 70B4     		push	{r4, r5, r6}
 294              		.cfi_def_cfa_offset 12
 295              		.cfi_offset 4, -12
 296              		.cfi_offset 5, -8
 297              		.cfi_offset 6, -4
 298              	.LBB37:
 299              	.LBB38:
 300              		.loc 1 59 0
 301 0004 D0E90445 		ldrd	r4, [r0, #16]
 302              	.LBE38:
 303              	.LBE37:
 304              	.LBB42:
 305              	.LBB36:
 306              		.loc 2 570 0
 307 0008 5B68     		ldr	r3, [r3, #4]
 308              	.LBE36:
 309              	.LBE42:
 310              	.LBB43:
 311              	.LBB39:
 312              		.loc 1 57 0
 313 000a C668     		ldr	r6, [r0, #12]
 314              	.LBE39:
 315              	.LBE43:
 316              		.loc 1 148 0
 317 000c 8B60     		str	r3, [r1, #8]
 318              	.LVL12:
 319              	.LBB44:
 320              	.LBB40:
 321              		.loc 1 58 0
 322 000e 8168     		ldr	r1, [r0, #8]
 323              	.LVL13:
 324              		.loc 1 60 0
 325 0010 4268     		ldr	r2, [r0, #4]
 326              		.loc 1 58 0
 327 0012 5B1A     		subs	r3, r3, r1
 328              	.LVL14:
 329              		.loc 1 59 0
 330 0014 E418     		adds	r4, r4, r3
 331 0016 45F10005 		adc	r5, r5, #0
 332              		.loc 1 60 0
 333 001a 9342     		cmp	r3, r2
 334              		.loc 1 63 0
 335 001c 0268     		ldr	r2, [r0]
 336              		.loc 1 57 0
 337 001e 06F10106 		add	r6, r6, #1
 338              		.loc 1 61 0
ARM GAS  /tmp/cc7fmVqe.s 			page 7


 339 0022 88BF     		it	hi
 340 0024 4360     		strhi	r3, [r0, #4]
 341              		.loc 1 63 0
 342 0026 9342     		cmp	r3, r2
 343              		.loc 1 57 0
 344 0028 C660     		str	r6, [r0, #12]
 345              		.loc 1 59 0
 346 002a C0E90445 		strd	r4, [r0, #16]
 347              	.LBE40:
 348              	.LBE44:
 349              		.loc 1 152 0
 350 002e 70BC     		pop	{r4, r5, r6}
 351              		.cfi_restore 6
 352              		.cfi_restore 5
 353              		.cfi_restore 4
 354              		.cfi_def_cfa_offset 0
 355              	.LBB45:
 356              	.LBB41:
 357              		.loc 1 58 0
 358 0030 8360     		str	r3, [r0, #8]
 359              	.LVL15:
 360              		.loc 1 64 0
 361 0032 38BF     		it	cc
 362 0034 0360     		strcc	r3, [r0]
 363              	.LBE41:
 364              	.LBE45:
 365              		.loc 1 152 0
 366 0036 7047     		bx	lr
 367              	.L20:
 368              		.align	2
 369              	.L19:
 370 0038 001000E0 		.word	-536866816
 371              		.cfi_endproc
 372              	.LFE175:
 373              		.size	chTMChainMeasurementToX, .-chTMChainMeasurementToX
 374 003c AFF30080 		.text
 375              	.Letext0:
 376              		.file 3 "/usr/include/newlib/machine/_default_types.h"
 377              		.file 4 "/usr/include/newlib/stdint.h"
 378              		.file 5 "/home/peter/ChibiOS_16.1.4/os/rt/ports/ARMCMx/compilers/GCC/chtypes.h"
 379              		.file 6 "/home/peter/ChibiOS_16.1.4/os/rt/include/chsystypes.h"
 380              		.file 7 "/home/peter/ChibiOS_16.1.4/os/rt/include/chschd.h"
 381              		.file 8 "/home/peter/ChibiOS_16.1.4/os/ext/CMSIS/include/core_cm3.h"
 382              		.file 9 "/home/peter/ChibiOS_16.1.4/os/rt/ports/ARMCMx/chcore.h"
 383              		.file 10 "/home/peter/ChibiOS_16.1.4/os/rt/include/chtm.h"
 384              		.file 11 "/home/peter/ChibiOS_16.1.4/os/rt/include/chsem.h"
 385              		.file 12 "/home/peter/ChibiOS_16.1.4/os/rt/include/chmtx.h"