ARM GAS  /tmp/ccExQ8eS.s 			page 1


   1              		.syntax unified
   2              		.cpu cortex-m3
   3              		.fpu softvfp
   4              		.eabi_attribute 20, 1
   5              		.eabi_attribute 21, 1
   6              		.eabi_attribute 23, 3
   7              		.eabi_attribute 24, 1
   8              		.eabi_attribute 25, 1
   9              		.eabi_attribute 26, 1
  10              		.eabi_attribute 30, 2
  11              		.eabi_attribute 34, 1
  12              		.eabi_attribute 18, 4
  13              		.thumb
  14              		.file	"chvt.c"
  15              		.text
  16              	.Ltext0:
  17              		.cfi_sections	.debug_frame
  18              		.section	.text._vt_init,"ax",%progbits
  19              		.align	2
  20              		.p2align 4,,15
  21              		.global	_vt_init
  22              		.thumb
  23              		.thumb_func
  24              		.type	_vt_init, %function
  25              	_vt_init:
  26              	.LFB170:
  27              		.file 1 "/home/peter/ChibiOS_16.1.4/os/rt/src/chvt.c"
  28              		.loc 1 61 0
  29              		.cfi_startproc
  30              		@ args = 0, pretend = 0, frame = 0
  31              		@ frame_needed = 0, uses_anonymous_args = 0
  32              		@ link register save eliminated.
  33              		.loc 1 63 0
  34 0000 054B     		ldr	r3, .L2
  35              		.loc 1 65 0
  36 0002 4FF0FF30 		mov	r0, #-1
  37              		.loc 1 63 0
  38 0006 03F11C02 		add	r2, r3, #28
  39              		.loc 1 67 0
  40 000a 0021     		movs	r1, #0
  41              		.loc 1 65 0
  42 000c 5862     		str	r0, [r3, #36]
  43              		.loc 1 67 0
  44 000e 9962     		str	r1, [r3, #40]
  45              		.loc 1 63 0
  46 0010 DA61     		str	r2, [r3, #28]
  47              		.loc 1 64 0
  48 0012 1A62     		str	r2, [r3, #32]
  49 0014 7047     		bx	lr
  50              	.L3:
  51 0016 00BF     		.align	2
  52              	.L2:
  53 0018 00000000 		.word	ch
  54              		.cfi_endproc
  55              	.LFE170:
  56              		.size	_vt_init, .-_vt_init
  57 001c AFF30080 		.section	.text.chVTDoSetI,"ax",%progbits
ARM GAS  /tmp/ccExQ8eS.s 			page 2


  58              		.align	2
  59              		.p2align 4,,15
  60              		.global	chVTDoSetI
  61              		.thumb
  62              		.thumb_func
  63              		.type	chVTDoSetI, %function
  64              	chVTDoSetI:
  65              	.LFB171:
  66              		.loc 1 96 0
  67              		.cfi_startproc
  68              		@ args = 0, pretend = 0, frame = 0
  69              		@ frame_needed = 0, uses_anonymous_args = 0
  70              		@ link register save eliminated.
  71              	.LVL0:
  72 0000 10B4     		push	{r4}
  73              		.cfi_def_cfa_offset 4
  74              		.cfi_offset 4, -4
  75              		.loc 1 150 0
  76 0002 0D4C     		ldr	r4, .L10
  77              		.loc 1 103 0
  78 0004 0361     		str	r3, [r0, #16]
  79              		.loc 1 150 0
  80 0006 E369     		ldr	r3, [r4, #28]
  81              	.LVL1:
  82              		.loc 1 104 0
  83 0008 C260     		str	r2, [r0, #12]
  84              	.LVL2:
  85              		.loc 1 151 0
  86 000a 9A68     		ldr	r2, [r3, #8]
  87              	.LVL3:
  88 000c 9142     		cmp	r1, r2
  89 000e 04D9     		bls	.L5
  90              	.LVL4:
  91              	.L6:
  92              		.loc 1 153 0
  93 0010 1B68     		ldr	r3, [r3]
  94              	.LVL5:
  95              		.loc 1 152 0
  96 0012 891A     		subs	r1, r1, r2
  97              	.LVL6:
  98              		.loc 1 151 0
  99 0014 9A68     		ldr	r2, [r3, #8]
 100 0016 8A42     		cmp	r2, r1
 101 0018 FAD3     		bcc	.L6
 102              	.L5:
 103              		.loc 1 158 0
 104 001a 5A68     		ldr	r2, [r3, #4]
 105              		.loc 1 157 0
 106 001c 0360     		str	r3, [r0]
 107              		.loc 1 158 0
 108 001e 4260     		str	r2, [r0, #4]
 109              		.loc 1 159 0
 110 0020 1060     		str	r0, [r2]
 111              		.loc 1 160 0
 112 0022 5860     		str	r0, [r3, #4]
 113              		.loc 1 161 0
 114 0024 8160     		str	r1, [r0, #8]
ARM GAS  /tmp/ccExQ8eS.s 			page 3


 115              		.loc 1 165 0
 116 0026 9A68     		ldr	r2, [r3, #8]
 117              		.loc 1 166 0
 118 0028 4FF0FF30 		mov	r0, #-1
 119              	.LVL7:
 120              		.loc 1 165 0
 121 002c 511A     		subs	r1, r2, r1
 122              	.LVL8:
 123 002e 9960     		str	r1, [r3, #8]
 124              	.LVL9:
 125              		.loc 1 166 0
 126 0030 6062     		str	r0, [r4, #36]
 127              		.loc 1 167 0
 128 0032 5DF8044B 		ldr	r4, [sp], #4
 129              		.cfi_restore 4
 130              		.cfi_def_cfa_offset 0
 131 0036 7047     		bx	lr
 132              	.L11:
 133              		.align	2
 134              	.L10:
 135 0038 00000000 		.word	ch
 136              		.cfi_endproc
 137              	.LFE171:
 138              		.size	chVTDoSetI, .-chVTDoSetI
 139 003c AFF30080 		.section	.text.chVTDoResetI,"ax",%progbits
 140              		.align	2
 141              		.p2align 4,,15
 142              		.global	chVTDoResetI
 143              		.thumb
 144              		.thumb_func
 145              		.type	chVTDoResetI, %function
 146              	chVTDoResetI:
 147              	.LFB172:
 148              		.loc 1 177 0
 149              		.cfi_startproc
 150              		@ args = 0, pretend = 0, frame = 0
 151              		@ frame_needed = 0, uses_anonymous_args = 0
 152              		@ link register save eliminated.
 153              	.LVL10:
 154              		.loc 1 186 0
 155 0000 0368     		ldr	r3, [r0]
 156              		.loc 1 177 0
 157 0002 30B4     		push	{r4, r5}
 158              		.cfi_def_cfa_offset 8
 159              		.cfi_offset 4, -8
 160              		.cfi_offset 5, -4
 161              		.loc 1 186 0
 162 0004 8268     		ldr	r2, [r0, #8]
 163 0006 9C68     		ldr	r4, [r3, #8]
 164              		.loc 1 189 0
 165 0008 4168     		ldr	r1, [r0, #4]
 166              		.loc 1 186 0
 167 000a 2244     		add	r2, r2, r4
 168 000c 9A60     		str	r2, [r3, #8]
 169              		.loc 1 189 0
 170 000e 0B60     		str	r3, [r1]
 171              		.loc 1 190 0
ARM GAS  /tmp/ccExQ8eS.s 			page 4


 172 0010 0568     		ldr	r5, [r0]
 173              		.loc 1 195 0
 174 0012 044B     		ldr	r3, .L14
 175              		.loc 1 191 0
 176 0014 0024     		movs	r4, #0
 177              		.loc 1 195 0
 178 0016 4FF0FF32 		mov	r2, #-1
 179              		.loc 1 190 0
 180 001a 6960     		str	r1, [r5, #4]
 181              		.loc 1 191 0
 182 001c C460     		str	r4, [r0, #12]
 183              		.loc 1 195 0
 184 001e 5A62     		str	r2, [r3, #36]
 185              		.loc 1 255 0
 186 0020 30BC     		pop	{r4, r5}
 187              		.cfi_restore 5
 188              		.cfi_restore 4
 189              		.cfi_def_cfa_offset 0
 190 0022 7047     		bx	lr
 191              	.L15:
 192              		.align	2
 193              	.L14:
 194 0024 00000000 		.word	ch
 195              		.cfi_endproc
 196              	.LFE172:
 197              		.size	chVTDoResetI, .-chVTDoResetI
 198 0028 AFF30080 		.text
 198      AFF30080 
 199              	.Letext0:
 200              		.file 2 "/usr/include/newlib/machine/_default_types.h"
 201              		.file 3 "/usr/include/newlib/stdint.h"
 202              		.file 4 "/home/peter/ChibiOS_16.1.4/os/rt/ports/ARMCMx/compilers/GCC/chtypes.h"
 203              		.file 5 "/home/peter/ChibiOS_16.1.4/os/rt/include/chsystypes.h"
 204              		.file 6 "/home/peter/ChibiOS_16.1.4/os/rt/include/chschd.h"
 205              		.file 7 "/home/peter/ChibiOS_16.1.4/os/rt/ports/ARMCMx/chcore.h"
 206              		.file 8 "/home/peter/ChibiOS_16.1.4/os/rt/ports/ARMCMx/chcore_v7m.h"
 207              		.file 9 "/home/peter/ChibiOS_16.1.4/os/rt/include/chtm.h"
 208              		.file 10 "/home/peter/ChibiOS_16.1.4/os/rt/include/chsem.h"
 209              		.file 11 "/home/peter/ChibiOS_16.1.4/os/rt/include/chmtx.h"
 210              		.file 12 "/home/peter/ChibiOS_16.1.4/os/ext/CMSIS/include/core_cm3.h"