ARM GAS  /tmp/ccrAgNC8.s 			page 1


   1              		.syntax unified
   2              		.cpu cortex-m3
   3              		.fpu softvfp
   4              		.eabi_attribute 20, 1
   5              		.eabi_attribute 21, 1
   6              		.eabi_attribute 23, 3
   7              		.eabi_attribute 24, 1
   8              		.eabi_attribute 25, 1
   9              		.eabi_attribute 26, 1
  10              		.eabi_attribute 30, 2
  11              		.eabi_attribute 34, 1
  12              		.eabi_attribute 18, 4
  13              		.thumb
  14              		.file	"config.c"
  15              		.text
  16              	.Ltext0:
  17              		.cfi_sections	.debug_frame
  18              		.section	.text.set_pins,"ax",%progbits
  19              		.align	2
  20              		.p2align 4,,15
  21              		.global	set_pins
  22              		.thumb
  23              		.thumb_func
  24              		.type	set_pins, %function
  25              	set_pins:
  26              	.LFB207:
  27              		.file 1 "config.c"
  28              		.loc 1 4 0
  29              		.cfi_startproc
  30              		@ args = 0, pretend = 0, frame = 0
  31              		@ frame_needed = 0, uses_anonymous_args = 0
  32 0000 2DE9F84F 		push	{r3, r4, r5, r6, r7, r8, r9, r10, fp, lr}
  33              		.cfi_def_cfa_offset 40
  34              		.cfi_offset 3, -40
  35              		.cfi_offset 4, -36
  36              		.cfi_offset 5, -32
  37              		.cfi_offset 6, -28
  38              		.cfi_offset 7, -24
  39              		.cfi_offset 8, -20
  40              		.cfi_offset 9, -16
  41              		.cfi_offset 10, -12
  42              		.cfi_offset 11, -8
  43              		.cfi_offset 14, -4
  44              		.loc 1 6 0
  45 0004 844C     		ldr	r4, .L3
  46 0006 0421     		movs	r1, #4
  47 0008 2046     		mov	r0, r4
  48 000a 4022     		movs	r2, #64
  49 000c FFF7FEFF 		bl	_pal_lld_setgroupmode
  50              	.LVL0:
  51              		.loc 1 7 0
  52 0010 2046     		mov	r0, r4
  53 0012 0821     		movs	r1, #8
  54 0014 4022     		movs	r2, #64
  55 0016 FFF7FEFF 		bl	_pal_lld_setgroupmode
  56              	.LVL1:
  57              		.loc 1 8 0
ARM GAS  /tmp/ccrAgNC8.s 			page 2


  58 001a 2046     		mov	r0, r4
  59 001c 1021     		movs	r1, #16
  60 001e 4022     		movs	r2, #64
  61 0020 FFF7FEFF 		bl	_pal_lld_setgroupmode
  62              	.LVL2:
  63              		.loc 1 9 0
  64 0024 2046     		mov	r0, r4
  65 0026 2021     		movs	r1, #32
  66 0028 4022     		movs	r2, #64
  67 002a FFF7FEFF 		bl	_pal_lld_setgroupmode
  68              	.LVL3:
  69              		.loc 1 10 0
  70 002e 4021     		movs	r1, #64
  71 0030 2046     		mov	r0, r4
  72 0032 0A46     		mov	r2, r1
  73 0034 FFF7FEFF 		bl	_pal_lld_setgroupmode
  74              	.LVL4:
  75              		.loc 1 13 0
  76 0038 0121     		movs	r1, #1
  77              		.loc 1 15 0
  78 003a 784F     		ldr	r7, .L3+4
  79              		.loc 1 13 0
  80 003c 2046     		mov	r0, r4
  81 003e 0A46     		mov	r2, r1
  82 0040 FFF7FEFF 		bl	_pal_lld_setgroupmode
  83              	.LVL5:
  84              		.loc 1 14 0
  85 0044 2046     		mov	r0, r4
  86 0046 0221     		movs	r1, #2
  87 0048 0122     		movs	r2, #1
  88 004a FFF7FEFF 		bl	_pal_lld_setgroupmode
  89              	.LVL6:
  90              		.loc 1 15 0
  91 004e 3846     		mov	r0, r7
  92 0050 4FF48071 		mov	r1, #256
  93 0054 0122     		movs	r2, #1
  94 0056 FFF7FEFF 		bl	_pal_lld_setgroupmode
  95              	.LVL7:
  96              		.loc 1 16 0
  97 005a 3846     		mov	r0, r7
  98 005c 4FF40071 		mov	r1, #512
  99 0060 0122     		movs	r2, #1
 100              		.loc 1 18 0
 101 0062 9146     		mov	r9, r2
 102              		.loc 1 21 0
 103 0064 8A46     		mov	r10, r1
 104              		.loc 1 16 0
 105 0066 FFF7FEFF 		bl	_pal_lld_setgroupmode
 106              	.LVL8:
 107              		.loc 1 20 0
 108 006a 4FF48073 		mov	r3, #256	@ movhi
 109              		.loc 1 24 0
 110 006e DFF8B881 		ldr	r8, .L3+16
 111              		.loc 1 19 0
 112 0072 4FF0020B 		mov	fp, #2
 113              		.loc 1 27 0
 114 0076 6A4E     		ldr	r6, .L3+8
ARM GAS  /tmp/ccrAgNC8.s 			page 3


 115              		.loc 1 18 0
 116 0078 A4F81A90 		strh	r9, [r4, #26]	@ movhi
 117              		.loc 1 24 0
 118 007c 5146     		mov	r1, r10
 119              		.loc 1 19 0
 120 007e A4F81AB0 		strh	fp, [r4, #26]	@ movhi
 121              		.loc 1 24 0
 122 0082 4046     		mov	r0, r8
 123              		.loc 1 20 0
 124 0084 7B83     		strh	r3, [r7, #26]	@ movhi
 125              		.loc 1 24 0
 126 0086 40F28232 		movw	r2, #898
 127              		.loc 1 21 0
 128 008a A7F81AA0 		strh	r10, [r7, #26]	@ movhi
 129              		.loc 1 24 0
 130 008e FFF7FEFF 		bl	_pal_lld_setgroupmode
 131              	.LVL9:
 132              		.loc 1 25 0
 133 0092 4046     		mov	r0, r8
 134 0094 4FF48061 		mov	r1, #1024
 135 0098 40F28232 		movw	r2, #898
 136 009c FFF7FEFF 		bl	_pal_lld_setgroupmode
 137              	.LVL10:
 138              		.loc 1 27 0
 139 00a0 3046     		mov	r0, r6
 140 00a2 2021     		movs	r1, #32
 141 00a4 40F28232 		movw	r2, #898
 142 00a8 FFF7FEFF 		bl	_pal_lld_setgroupmode
 143              	.LVL11:
 144              		.loc 1 28 0
 145 00ac 3046     		mov	r0, r6
 146 00ae 4021     		movs	r1, #64
 147 00b0 40F28232 		movw	r2, #898
 148              		.loc 1 33 0
 149 00b4 5B4D     		ldr	r5, .L3+12
 150              		.loc 1 28 0
 151 00b6 FFF7FEFF 		bl	_pal_lld_setgroupmode
 152              	.LVL12:
 153              		.loc 1 30 0
 154 00ba 3046     		mov	r0, r6
 155 00bc 4FF48071 		mov	r1, #256
 156 00c0 4022     		movs	r2, #64
 157 00c2 FFF7FEFF 		bl	_pal_lld_setgroupmode
 158              	.LVL13:
 159              		.loc 1 31 0
 160 00c6 3046     		mov	r0, r6
 161 00c8 5146     		mov	r1, r10
 162 00ca 4A46     		mov	r2, r9
 163 00cc FFF7FEFF 		bl	_pal_lld_setgroupmode
 164              	.LVL14:
 165              		.loc 1 33 0
 166 00d0 2846     		mov	r0, r5
 167 00d2 4FF48061 		mov	r1, #1024
 168 00d6 40F20242 		movw	r2, #1026
 169 00da FFF7FEFF 		bl	_pal_lld_setgroupmode
 170              	.LVL15:
 171              		.loc 1 34 0
ARM GAS  /tmp/ccrAgNC8.s 			page 4


 172 00de 2846     		mov	r0, r5
 173 00e0 4FF40061 		mov	r1, #2048
 174 00e4 40F20242 		movw	r2, #1026
 175 00e8 FFF7FEFF 		bl	_pal_lld_setgroupmode
 176              	.LVL16:
 177              		.loc 1 36 0
 178 00ec 2846     		mov	r0, r5
 179 00ee 4021     		movs	r1, #64
 180 00f0 40F20242 		movw	r2, #1026
 181 00f4 FFF7FEFF 		bl	_pal_lld_setgroupmode
 182              	.LVL17:
 183              		.loc 1 37 0
 184 00f8 2846     		mov	r0, r5
 185 00fa 8021     		movs	r1, #128
 186 00fc 40F20242 		movw	r2, #1026
 187 0100 FFF7FEFF 		bl	_pal_lld_setgroupmode
 188              	.LVL18:
 189              		.loc 1 40 0
 190 0104 2846     		mov	r0, r5
 191 0106 4A46     		mov	r2, r9
 192 0108 4FF48051 		mov	r1, #4096
 193 010c FFF7FEFF 		bl	_pal_lld_setgroupmode
 194              	.LVL19:
 195              		.loc 1 41 0
 196 0110 3046     		mov	r0, r6
 197 0112 0421     		movs	r1, #4
 198 0114 4022     		movs	r2, #64
 199 0116 FFF7FEFF 		bl	_pal_lld_setgroupmode
 200              	.LVL20:
 201              		.loc 1 44 0
 202 011a 3046     		mov	r0, r6
 203 011c 4FF40041 		mov	r1, #32768
 204 0120 4022     		movs	r2, #64
 205 0122 FFF7FEFF 		bl	_pal_lld_setgroupmode
 206              	.LVL21:
 207              		.loc 1 47 0
 208 0126 4046     		mov	r0, r8
 209 0128 4946     		mov	r1, r9
 210 012a 0322     		movs	r2, #3
 211 012c FFF7FEFF 		bl	_pal_lld_setgroupmode
 212              	.LVL22:
 213              		.loc 1 48 0
 214 0130 4046     		mov	r0, r8
 215 0132 5946     		mov	r1, fp
 216 0134 0322     		movs	r2, #3
 217 0136 FFF7FEFF 		bl	_pal_lld_setgroupmode
 218              	.LVL23:
 219              		.loc 1 49 0
 220 013a 4046     		mov	r0, r8
 221 013c 0421     		movs	r1, #4
 222 013e 0322     		movs	r2, #3
 223 0140 FFF7FEFF 		bl	_pal_lld_setgroupmode
 224              	.LVL24:
 225              		.loc 1 50 0
 226 0144 4046     		mov	r0, r8
 227 0146 0821     		movs	r1, #8
 228 0148 0322     		movs	r2, #3
ARM GAS  /tmp/ccrAgNC8.s 			page 5


 229 014a FFF7FEFF 		bl	_pal_lld_setgroupmode
 230              	.LVL25:
 231              		.loc 1 51 0
 232 014e 3846     		mov	r0, r7
 233 0150 4946     		mov	r1, r9
 234 0152 0322     		movs	r2, #3
 235 0154 FFF7FEFF 		bl	_pal_lld_setgroupmode
 236              	.LVL26:
 237              		.loc 1 52 0
 238 0158 3846     		mov	r0, r7
 239 015a 5946     		mov	r1, fp
 240 015c 0322     		movs	r2, #3
 241 015e FFF7FEFF 		bl	_pal_lld_setgroupmode
 242              	.LVL27:
 243              		.loc 1 53 0
 244 0162 2846     		mov	r0, r5
 245 0164 4946     		mov	r1, r9
 246 0166 4022     		movs	r2, #64
 247 0168 FFF7FEFF 		bl	_pal_lld_setgroupmode
 248              	.LVL28:
 249              		.loc 1 54 0
 250 016c 2846     		mov	r0, r5
 251 016e 5946     		mov	r1, fp
 252 0170 0322     		movs	r2, #3
 253 0172 FFF7FEFF 		bl	_pal_lld_setgroupmode
 254              	.LVL29:
 255              		.loc 1 55 0
 256 0176 2846     		mov	r0, r5
 257 0178 1021     		movs	r1, #16
 258 017a 0322     		movs	r2, #3
 259 017c FFF7FEFF 		bl	_pal_lld_setgroupmode
 260              	.LVL30:
 261              		.loc 1 56 0
 262 0180 2846     		mov	r0, r5
 263 0182 2021     		movs	r1, #32
 264 0184 0322     		movs	r2, #3
 265 0186 FFF7FEFF 		bl	_pal_lld_setgroupmode
 266              	.LVL31:
 267              		.loc 1 59 0
 268 018a 3046     		mov	r0, r6
 269 018c 4A46     		mov	r2, r9
 270 018e 4FF48051 		mov	r1, #4096
 271 0192 FFF7FEFF 		bl	_pal_lld_setgroupmode
 272              	.LVL32:
 273              		.loc 1 60 0
 274 0196 3046     		mov	r0, r6
 275 0198 4FF40051 		mov	r1, #8192
 276 019c 4FF48172 		mov	r2, #258
 277 01a0 FFF7FEFF 		bl	_pal_lld_setgroupmode
 278              	.LVL33:
 279              		.loc 1 61 0
 280 01a4 3046     		mov	r0, r6
 281 01a6 4FF48041 		mov	r1, #16384
 282 01aa 4FF48172 		mov	r2, #258
 283 01ae FFF7FEFF 		bl	_pal_lld_setgroupmode
 284              	.LVL34:
 285              		.loc 1 63 0
ARM GAS  /tmp/ccrAgNC8.s 			page 6


 286 01b2 2046     		mov	r0, r4
 287 01b4 5146     		mov	r1, r10
 288 01b6 4022     		movs	r2, #64
 289 01b8 FFF7FEFF 		bl	_pal_lld_setgroupmode
 290              	.LVL35:
 291              		.loc 1 65 0
 292 01bc 2046     		mov	r0, r4
 293 01be 4FF40061 		mov	r1, #2048
 294 01c2 8222     		movs	r2, #130
 295 01c4 FFF7FEFF 		bl	_pal_lld_setgroupmode
 296              	.LVL36:
 297              		.loc 1 66 0
 298 01c8 2046     		mov	r0, r4
 299 01ca 4FF40051 		mov	r1, #8192
 300 01ce 8222     		movs	r2, #130
 301 01d0 FFF7FEFF 		bl	_pal_lld_setgroupmode
 302              	.LVL37:
 303              		.loc 1 67 0
 304 01d4 2046     		mov	r0, r4
 305 01d6 4FF48041 		mov	r1, #16384
 306 01da 8222     		movs	r2, #130
 307 01dc FFF7FEFF 		bl	_pal_lld_setgroupmode
 308              	.LVL38:
 309              		.loc 1 70 0
 310 01e0 3846     		mov	r0, r7
 311 01e2 4021     		movs	r1, #64
 312 01e4 40F20222 		movw	r2, #514
 313 01e8 FFF7FEFF 		bl	_pal_lld_setgroupmode
 314              	.LVL39:
 315              		.loc 1 71 0
 316 01ec 3846     		mov	r0, r7
 317 01ee 8021     		movs	r1, #128
 318 01f0 40F20222 		movw	r2, #514
 319 01f4 FFF7FEFF 		bl	_pal_lld_setgroupmode
 320              	.LVL40:
 321              		.loc 1 73 0
 322 01f8 4046     		mov	r0, r8
 323 01fa 4FF48071 		mov	r1, #256
 324 01fe 40F20222 		movw	r2, #514
 325 0202 FFF7FEFF 		bl	_pal_lld_setgroupmode
 326              	.LVL41:
 327              		.loc 1 74 0
 328 0206 2846     		mov	r0, r5
 329 0208 5146     		mov	r1, r10
 330              		.loc 1 75 0
 331 020a BDE8F84F 		pop	{r3, r4, r5, r6, r7, r8, r9, r10, fp, lr}
 332              		.cfi_restore 14
 333              		.cfi_restore 11
 334              		.cfi_restore 10
 335              		.cfi_restore 9
 336              		.cfi_restore 8
 337              		.cfi_restore 7
 338              		.cfi_restore 6
 339              		.cfi_restore 5
 340              		.cfi_restore 4
 341              		.cfi_restore 3
 342              		.cfi_def_cfa_offset 0
ARM GAS  /tmp/ccrAgNC8.s 			page 7


 343              		.loc 1 74 0
 344 020e 40F20222 		movw	r2, #514
 345 0212 FFF7FEBF 		b	_pal_lld_setgroupmode
 346              	.LVL42:
 347              	.L4:
 348 0216 00BF     		.align	2
 349              	.L3:
 350 0218 00100240 		.word	1073876992
 351 021c 00040240 		.word	1073873920
 352 0220 000C0240 		.word	1073875968
 353 0224 00080240 		.word	1073874944
 354 0228 00000240 		.word	1073872896
 355              		.cfi_endproc
 356              	.LFE207:
 357              		.size	set_pins, .-set_pins
 358 022c AFF30080 		.section	.text.init_drivers,"ax",%progbits
 359              		.align	2
 360              		.p2align 4,,15
 361              		.global	init_drivers
 362              		.thumb
 363              		.thumb_func
 364              		.type	init_drivers, %function
 365              	init_drivers:
 366              	.LFB208:
 367              		.loc 1 119 0
 368              		.cfi_startproc
 369              		@ args = 0, pretend = 0, frame = 0
 370              		@ frame_needed = 0, uses_anonymous_args = 0
 371 0000 10B5     		push	{r4, lr}
 372              		.cfi_def_cfa_offset 8
 373              		.cfi_offset 4, -8
 374              		.cfi_offset 14, -4
 375              		.loc 1 120 0
 376 0002 FFF7FEFF 		bl	sdInit
 377              	.LVL43:
 378              		.loc 1 122 0
 379 0006 1348     		ldr	r0, .L7
 380 0008 1349     		ldr	r1, .L7+4
 381 000a FFF7FEFF 		bl	sdStart
 382              	.LVL44:
 383              		.loc 1 123 0
 384 000e 1348     		ldr	r0, .L7+8
 385 0010 1349     		ldr	r1, .L7+12
 386 0012 FFF7FEFF 		bl	sdStart
 387              	.LVL45:
 388              		.loc 1 124 0
 389 0016 1348     		ldr	r0, .L7+16
 390 0018 1349     		ldr	r1, .L7+20
 391 001a FFF7FEFF 		bl	sdStart
 392              	.LVL46:
 393              		.loc 1 130 0
 394 001e 134C     		ldr	r4, .L7+24
 395              		.loc 1 125 0
 396 0020 1348     		ldr	r0, .L7+28
 397 0022 1449     		ldr	r1, .L7+32
 398 0024 FFF7FEFF 		bl	sdStart
 399              	.LVL47:
ARM GAS  /tmp/ccrAgNC8.s 			page 8


 400              		.loc 1 126 0
 401 0028 1349     		ldr	r1, .L7+36
 402 002a 1448     		ldr	r0, .L7+40
 403 002c FFF7FEFF 		bl	sdStart
 404              	.LVL48:
 405              		.loc 1 128 0
 406 0030 FFF7FEFF 		bl	i2cInit
 407              	.LVL49:
 408              		.loc 1 130 0
 409 0034 2046     		mov	r0, r4
 410 0036 FFF7FEFF 		bl	i2cObjectInit
 411              	.LVL50:
 412              		.loc 1 131 0
 413 003a 2046     		mov	r0, r4
 414 003c 1049     		ldr	r1, .L7+44
 415 003e FFF7FEFF 		bl	i2cStart
 416              	.LVL51:
 417              		.loc 1 133 0
 418 0042 1048     		ldr	r0, .L7+48
 419 0044 0021     		movs	r1, #0
 420 0046 FFF7FEFF 		bl	adcStart
 421              	.LVL52:
 422              		.loc 1 136 0
 423 004a BDE81040 		pop	{r4, lr}
 424              		.cfi_restore 14
 425              		.cfi_restore 4
 426              		.cfi_def_cfa_offset 0
 427              		.loc 1 134 0
 428 004e FFF7FEBF 		b	pwmInit
 429              	.LVL53:
 430              	.L8:
 431 0052 00BF     		.align	2
 432              	.L7:
 433 0054 00000000 		.word	SD1
 434 0058 00000000 		.word	.LANCHOR0
 435 005c 00000000 		.word	SD2
 436 0060 00000000 		.word	.LANCHOR1
 437 0064 00000000 		.word	SD3
 438 0068 00000000 		.word	.LANCHOR2
 439 006c 00000000 		.word	I2CD1
 440 0070 00000000 		.word	SD4
 441 0074 00000000 		.word	.LANCHOR3
 442 0078 00000000 		.word	.LANCHOR4
 443 007c 00000000 		.word	SD6
 444 0080 00000000 		.word	.LANCHOR5
 445 0084 00000000 		.word	ADCD1
 446              		.cfi_endproc
 447              	.LFE208:
 448              		.size	init_drivers, .-init_drivers
 449 0088 AFF30080 		.section	.text.board_init,"ax",%progbits
 449      AFF30080 
 450              		.align	2
 451              		.p2align 4,,15
 452              		.global	board_init
 453              		.thumb
 454              		.thumb_func
 455              		.type	board_init, %function
ARM GAS  /tmp/ccrAgNC8.s 			page 9


 456              	board_init:
 457              	.LFB209:
 458              		.loc 1 138 0
 459              		.cfi_startproc
 460              		@ args = 0, pretend = 0, frame = 0
 461              		@ frame_needed = 0, uses_anonymous_args = 0
 462 0000 08B5     		push	{r3, lr}
 463              		.cfi_def_cfa_offset 8
 464              		.cfi_offset 3, -8
 465              		.cfi_offset 14, -4
 466              		.loc 1 139 0
 467 0002 FFF7FEFF 		bl	set_pins
 468              	.LVL54:
 469              		.loc 1 141 0
 470 0006 BDE80840 		pop	{r3, lr}
 471              		.cfi_restore 14
 472              		.cfi_restore 3
 473              		.cfi_def_cfa_offset 0
 474              		.loc 1 140 0
 475 000a FFF7FEBF 		b	init_drivers
 476              	.LVL55:
 477              		.cfi_endproc
 478              	.LFE209:
 479              		.size	board_init, .-board_init
 480 000e 00BF     		.section	.rodata.usart_4_cfg,"a",%progbits
 481              		.align	2
 482              		.set	.LANCHOR3,. + 0
 483              		.type	usart_4_cfg, %object
 484              		.size	usart_4_cfg, 12
 485              	usart_4_cfg:
 486 0000 00E10000 		.word	57600
 487 0004 0000     		.short	0
 488 0006 0000     		.short	0
 489 0008 0000     		.short	0
 490 000a 0000     		.space	2
 491              		.section	.rodata.compass_i2c_cfg,"a",%progbits
 492              		.align	2
 493              		.set	.LANCHOR5,. + 0
 494              		.type	compass_i2c_cfg, %object
 495              		.size	compass_i2c_cfg, 12
 496              	compass_i2c_cfg:
 497 0000 01       		.byte	1
 498 0001 000000   		.space	3
 499 0004 10270000 		.word	10000
 500 0008 03       		.byte	3
 501 0009 000000   		.space	3
 502              		.section	.rodata.usart_6_cfg,"a",%progbits
 503              		.align	2
 504              		.set	.LANCHOR4,. + 0
 505              		.type	usart_6_cfg, %object
 506              		.size	usart_6_cfg, 12
 507              	usart_6_cfg:
 508 0000 00C20100 		.word	115200
 509 0004 0000     		.short	0
 510 0006 0000     		.short	0
 511 0008 0000     		.short	0
 512 000a 0000     		.space	2
ARM GAS  /tmp/ccrAgNC8.s 			page 10


 513              		.section	.rodata.usart_1_cfg,"a",%progbits
 514              		.align	2
 515              		.set	.LANCHOR0,. + 0
 516              		.type	usart_1_cfg, %object
 517              		.size	usart_1_cfg, 12
 518              	usart_1_cfg:
 519 0000 00C20100 		.word	115200
 520 0004 0000     		.short	0
 521 0006 0000     		.short	0
 522 0008 0000     		.short	0
 523 000a 0000     		.space	2
 524              		.section	.rodata.usart_2_cfg,"a",%progbits
 525              		.align	2
 526              		.set	.LANCHOR1,. + 0
 527              		.type	usart_2_cfg, %object
 528              		.size	usart_2_cfg, 12
 529              	usart_2_cfg:
 530 0000 00C20100 		.word	115200
 531 0004 0000     		.short	0
 532 0006 0000     		.short	0
 533 0008 0000     		.short	0
 534 000a 0000     		.space	2
 535              		.section	.rodata.usart_3_cfg,"a",%progbits
 536              		.align	2
 537              		.set	.LANCHOR2,. + 0
 538              		.type	usart_3_cfg, %object
 539              		.size	usart_3_cfg, 12
 540              	usart_3_cfg:
 541 0000 80250000 		.word	9600
 542 0004 0000     		.short	0
 543 0006 0000     		.short	0
 544 0008 0000     		.short	0
 545 000a 0000     		.space	2
 546              		.text
 547              	.Letext0:
 548              		.file 2 "/usr/lib/gcc/arm-none-eabi/4.9.3/include/stddef.h"
 549              		.file 3 "/usr/include/newlib/machine/_default_types.h"
 550              		.file 4 "/usr/include/newlib/stdint.h"
 551              		.file 5 "/home/peter/ChibiOS_16.1.4/os/rt/ports/ARMCMx/compilers/GCC/chtypes.h"
 552              		.file 6 "/home/peter/ChibiOS_16.1.4/os/rt/include/chsystypes.h"
 553              		.file 7 "/home/peter/ChibiOS_16.1.4/os/rt/include/chschd.h"
 554              		.file 8 "/home/peter/ChibiOS_16.1.4/os/ext/CMSIS/ST/STM32F2xx/stm32f205xx.h"
 555              		.file 9 "/home/peter/ChibiOS_16.1.4/os/rt/ports/ARMCMx/chcore.h"
 556              		.file 10 "/home/peter/ChibiOS_16.1.4/os/rt/ports/ARMCMx/chcore_v7m.h"
 557              		.file 11 "/home/peter/ChibiOS_16.1.4/os/rt/include/chtm.h"
 558              		.file 12 "/home/peter/ChibiOS_16.1.4/os/rt/include/chsem.h"
 559              		.file 13 "/home/peter/ChibiOS_16.1.4/os/rt/include/chmtx.h"
 560              		.file 14 "/home/peter/ChibiOS_16.1.4/os/rt/include/chevents.h"
 561              		.file 15 "/home/peter/ChibiOS_16.1.4/os/rt/include/chqueues.h"
 562              		.file 16 "/home/peter/ChibiOS_16.1.4/os/hal/ports/STM32/LLD/DMAv2/stm32_dma.h"
 563              		.file 17 "/home/peter/ChibiOS_16.1.4/os/hal/ports/STM32/LLD/GPIOv2/pal_lld.h"
 564              		.file 18 "/home/peter/ChibiOS_16.1.4/os/hal/include/adc.h"
 565              		.file 19 "/home/peter/ChibiOS_16.1.4/os/hal/ports/STM32/LLD/ADCv2/adc_lld.h"
 566              		.file 20 "/home/peter/ChibiOS_16.1.4/os/hal/include/i2c.h"
 567              		.file 21 "/home/peter/ChibiOS_16.1.4/os/hal/ports/STM32/LLD/I2Cv1/i2c_lld.h"
 568              		.file 22 "/home/peter/ChibiOS_16.1.4/os/hal/include/serial.h"
 569              		.file 23 "/home/peter/ChibiOS_16.1.4/os/hal/ports/STM32/LLD/USARTv1/serial_lld.h"
ARM GAS  /tmp/ccrAgNC8.s 			page 11


 570              		.file 24 "/home/peter/ChibiOS_16.1.4/os/ext/CMSIS/include/core_cm3.h"
 571              		.file 25 "/home/peter/ChibiOS_16.1.4/os/hal/include/pwm.h"
 572              		.section	.debug_info,"",%progbits
 573              	.Ldebug_info0:
 574 0000 C8190000 		.4byte	0x19c8
 575 0004 0400     		.2byte	0x4
 576 0006 00000000 		.4byte	.Ldebug_abbrev0
 577 000a 04       		.byte	0x4
 578 000b 01       		.uleb128 0x1
 579 000c 6B050000 		.4byte	.LASF278
 580 0010 01       		.byte	0x1
 581 0011 5C070000 		.4byte	.LASF279
 582 0015 FE0A0000 		.4byte	.LASF280
 583 0019 00000000 		.4byte	.Ldebug_ranges0+0
 584 001d 00000000 		.4byte	0
 585 0021 00000000 		.4byte	.Ldebug_line0
 586 0025 02       		.uleb128 0x2
 587 0026 04       		.byte	0x4
 588 0027 05       		.byte	0x5
 589 0028 696E7400 		.ascii	"int\000"
 590 002c 03       		.uleb128 0x3
 591 002d 18000000 		.4byte	.LASF2
 592 0031 02       		.byte	0x2
 593 0032 D4       		.byte	0xd4
 594 0033 37000000 		.4byte	0x37
 595 0037 04       		.uleb128 0x4
 596 0038 04       		.byte	0x4
 597 0039 07       		.byte	0x7
 598 003a F4060000 		.4byte	.LASF0
 599 003e 04       		.uleb128 0x4
 600 003f 01       		.byte	0x1
 601 0040 06       		.byte	0x6
 602 0041 28020000 		.4byte	.LASF1
 603 0045 03       		.uleb128 0x3
 604 0046 51010000 		.4byte	.LASF3
 605 004a 03       		.byte	0x3
 606 004b 1D       		.byte	0x1d
 607 004c 50000000 		.4byte	0x50
 608 0050 04       		.uleb128 0x4
 609 0051 01       		.byte	0x1
 610 0052 08       		.byte	0x8
 611 0053 67020000 		.4byte	.LASF4
 612 0057 04       		.uleb128 0x4
 613 0058 02       		.byte	0x2
 614 0059 05       		.byte	0x5
 615 005a 80090000 		.4byte	.LASF5
 616 005e 03       		.uleb128 0x3
 617 005f 0B030000 		.4byte	.LASF6
 618 0063 03       		.byte	0x3
 619 0064 2B       		.byte	0x2b
 620 0065 69000000 		.4byte	0x69
 621 0069 04       		.uleb128 0x4
 622 006a 02       		.byte	0x2
 623 006b 07       		.byte	0x7
 624 006c 910A0000 		.4byte	.LASF7
 625 0070 03       		.uleb128 0x3
 626 0071 DF0A0000 		.4byte	.LASF8
ARM GAS  /tmp/ccrAgNC8.s 			page 12


 627 0075 03       		.byte	0x3
 628 0076 3F       		.byte	0x3f
 629 0077 7B000000 		.4byte	0x7b
 630 007b 04       		.uleb128 0x4
 631 007c 04       		.byte	0x4
 632 007d 05       		.byte	0x5
 633 007e A7010000 		.4byte	.LASF9
 634 0082 03       		.uleb128 0x3
 635 0083 37050000 		.4byte	.LASF10
 636 0087 03       		.byte	0x3
 637 0088 41       		.byte	0x41
 638 0089 8D000000 		.4byte	0x8d
 639 008d 04       		.uleb128 0x4
 640 008e 04       		.byte	0x4
 641 008f 07       		.byte	0x7
 642 0090 3C040000 		.4byte	.LASF11
 643 0094 04       		.uleb128 0x4
 644 0095 08       		.byte	0x8
 645 0096 05       		.byte	0x5
 646 0097 42050000 		.4byte	.LASF12
 647 009b 03       		.uleb128 0x3
 648 009c 31040000 		.4byte	.LASF13
 649 00a0 03       		.byte	0x3
 650 00a1 5B       		.byte	0x5b
 651 00a2 A6000000 		.4byte	0xa6
 652 00a6 04       		.uleb128 0x4
 653 00a7 08       		.byte	0x8
 654 00a8 07       		.byte	0x7
 655 00a9 0F080000 		.4byte	.LASF14
 656 00ad 03       		.uleb128 0x3
 657 00ae 3E020000 		.4byte	.LASF15
 658 00b2 04       		.byte	0x4
 659 00b3 15       		.byte	0x15
 660 00b4 45000000 		.4byte	0x45
 661 00b8 03       		.uleb128 0x3
 662 00b9 3A080000 		.4byte	.LASF16
 663 00bd 04       		.byte	0x4
 664 00be 21       		.byte	0x21
 665 00bf 5E000000 		.4byte	0x5e
 666 00c3 03       		.uleb128 0x3
 667 00c4 8F000000 		.4byte	.LASF17
 668 00c8 04       		.byte	0x4
 669 00c9 2C       		.byte	0x2c
 670 00ca 70000000 		.4byte	0x70
 671 00ce 03       		.uleb128 0x3
 672 00cf 590A0000 		.4byte	.LASF18
 673 00d3 04       		.byte	0x4
 674 00d4 2D       		.byte	0x2d
 675 00d5 82000000 		.4byte	0x82
 676 00d9 03       		.uleb128 0x3
 677 00da 97090000 		.4byte	.LASF19
 678 00de 04       		.byte	0x4
 679 00df 39       		.byte	0x39
 680 00e0 9B000000 		.4byte	0x9b
 681 00e4 03       		.uleb128 0x3
 682 00e5 01070000 		.4byte	.LASF20
 683 00e9 05       		.byte	0x5
ARM GAS  /tmp/ccrAgNC8.s 			page 13


 684 00ea 39       		.byte	0x39
 685 00eb CE000000 		.4byte	0xce
 686 00ef 03       		.uleb128 0x3
 687 00f0 19090000 		.4byte	.LASF21
 688 00f4 05       		.byte	0x5
 689 00f5 3C       		.byte	0x3c
 690 00f6 AD000000 		.4byte	0xad
 691 00fa 03       		.uleb128 0x3
 692 00fb DF010000 		.4byte	.LASF22
 693 00ff 05       		.byte	0x5
 694 0100 3D       		.byte	0x3d
 695 0101 AD000000 		.4byte	0xad
 696 0105 03       		.uleb128 0x3
 697 0106 220A0000 		.4byte	.LASF23
 698 010a 05       		.byte	0x5
 699 010b 3E       		.byte	0x3e
 700 010c AD000000 		.4byte	0xad
 701 0110 03       		.uleb128 0x3
 702 0111 7B080000 		.4byte	.LASF24
 703 0115 05       		.byte	0x5
 704 0116 3F       		.byte	0x3f
 705 0117 AD000000 		.4byte	0xad
 706 011b 03       		.uleb128 0x3
 707 011c 49000000 		.4byte	.LASF25
 708 0120 05       		.byte	0x5
 709 0121 40       		.byte	0x40
 710 0122 CE000000 		.4byte	0xce
 711 0126 03       		.uleb128 0x3
 712 0127 43080000 		.4byte	.LASF26
 713 012b 05       		.byte	0x5
 714 012c 41       		.byte	0x41
 715 012d C3000000 		.4byte	0xc3
 716 0131 03       		.uleb128 0x3
 717 0132 4D020000 		.4byte	.LASF27
 718 0136 05       		.byte	0x5
 719 0137 43       		.byte	0x43
 720 0138 CE000000 		.4byte	0xce
 721 013c 03       		.uleb128 0x3
 722 013d 5A080000 		.4byte	.LASF28
 723 0141 05       		.byte	0x5
 724 0142 44       		.byte	0x44
 725 0143 CE000000 		.4byte	0xce
 726 0147 03       		.uleb128 0x3
 727 0148 AE030000 		.4byte	.LASF29
 728 014c 05       		.byte	0x5
 729 014d 45       		.byte	0x45
 730 014e C3000000 		.4byte	0xc3
 731 0152 03       		.uleb128 0x3
 732 0153 39000000 		.4byte	.LASF30
 733 0157 06       		.byte	0x6
 734 0158 33       		.byte	0x33
 735 0159 CE000000 		.4byte	0xce
 736 015d 03       		.uleb128 0x3
 737 015e 78070000 		.4byte	.LASF31
 738 0162 06       		.byte	0x6
 739 0163 3F       		.byte	0x3f
 740 0164 68010000 		.4byte	0x168
ARM GAS  /tmp/ccrAgNC8.s 			page 14


 741 0168 05       		.uleb128 0x5
 742 0169 62040000 		.4byte	.LASF52
 743 016d 44       		.byte	0x44
 744 016e 07       		.byte	0x7
 745 016f C2       		.byte	0xc2
 746 0170 61020000 		.4byte	0x261
 747 0174 06       		.uleb128 0x6
 748 0175 B0010000 		.4byte	.LASF32
 749 0179 07       		.byte	0x7
 750 017a C3       		.byte	0xc3
 751 017b 6C020000 		.4byte	0x26c
 752 017f 00       		.byte	0
 753 0180 06       		.uleb128 0x6
 754 0181 BF010000 		.4byte	.LASF33
 755 0185 07       		.byte	0x7
 756 0186 C5       		.byte	0xc5
 757 0187 6C020000 		.4byte	0x26c
 758 018b 04       		.byte	0x4
 759 018c 06       		.uleb128 0x6
 760 018d 04030000 		.4byte	.LASF34
 761 0191 07       		.byte	0x7
 762 0192 C7       		.byte	0xc7
 763 0193 1B010000 		.4byte	0x11b
 764 0197 08       		.byte	0x8
 765 0198 06       		.uleb128 0x6
 766 0199 43000000 		.4byte	.LASF35
 767 019d 07       		.byte	0x7
 768 019e C8       		.byte	0xc8
 769 019f 0C070000 		.4byte	0x70c
 770 01a3 0C       		.byte	0xc
 771 01a4 06       		.uleb128 0x6
 772 01a5 9F010000 		.4byte	.LASF36
 773 01a9 07       		.byte	0x7
 774 01aa CA       		.byte	0xca
 775 01ab 6C020000 		.4byte	0x26c
 776 01af 10       		.byte	0x10
 777 01b0 06       		.uleb128 0x6
 778 01b1 26080000 		.4byte	.LASF37
 779 01b5 07       		.byte	0x7
 780 01b6 CB       		.byte	0xcb
 781 01b7 6C020000 		.4byte	0x26c
 782 01bb 14       		.byte	0x14
 783 01bc 06       		.uleb128 0x6
 784 01bd 670B0000 		.4byte	.LASF38
 785 01c1 07       		.byte	0x7
 786 01c2 D2       		.byte	0xd2
 787 01c3 8B080000 		.4byte	0x88b
 788 01c7 18       		.byte	0x18
 789 01c8 06       		.uleb128 0x6
 790 01c9 9B0B0000 		.4byte	.LASF39
 791 01cd 07       		.byte	0x7
 792 01ce DD       		.byte	0xdd
 793 01cf FA000000 		.4byte	0xfa
 794 01d3 1C       		.byte	0x1c
 795 01d4 06       		.uleb128 0x6
 796 01d5 CE060000 		.4byte	.LASF40
 797 01d9 07       		.byte	0x7
ARM GAS  /tmp/ccrAgNC8.s 			page 15


 798 01da E1       		.byte	0xe1
 799 01db EF000000 		.4byte	0xef
 800 01df 1D       		.byte	0x1d
 801 01e0 06       		.uleb128 0x6
 802 01e1 11070000 		.4byte	.LASF41
 803 01e5 07       		.byte	0x7
 804 01e6 E6       		.byte	0xe6
 805 01e7 05010000 		.4byte	0x105
 806 01eb 1E       		.byte	0x1e
 807 01ec 06       		.uleb128 0x6
 808 01ed 34020000 		.4byte	.LASF42
 809 01f1 07       		.byte	0x7
 810 01f2 EC       		.byte	0xec
 811 01f3 10010000 		.4byte	0x110
 812 01f7 1F       		.byte	0x1f
 813 01f8 07       		.uleb128 0x7
 814 01f9 705F7500 		.ascii	"p_u\000"
 815 01fd 07       		.byte	0x7
 816 01fe 3101     		.2byte	0x131
 817 0200 C6070000 		.4byte	0x7c6
 818 0204 20       		.byte	0x20
 819 0205 08       		.uleb128 0x8
 820 0206 AD060000 		.4byte	.LASF43
 821 020a 07       		.byte	0x7
 822 020b 3601     		.2byte	0x136
 823 020d 72020000 		.4byte	0x272
 824 0211 24       		.byte	0x24
 825 0212 08       		.uleb128 0x8
 826 0213 7E000000 		.4byte	.LASF44
 827 0217 07       		.byte	0x7
 828 0218 3C01     		.2byte	0x13c
 829 021a 96020000 		.4byte	0x296
 830 021e 28       		.byte	0x28
 831 021f 08       		.uleb128 0x8
 832 0220 7F0B0000 		.4byte	.LASF45
 833 0224 07       		.byte	0x7
 834 0225 4001     		.2byte	0x140
 835 0227 26010000 		.4byte	0x126
 836 022b 30       		.byte	0x30
 837 022c 08       		.uleb128 0x8
 838 022d CE030000 		.4byte	.LASF46
 839 0231 07       		.byte	0x7
 840 0232 4601     		.2byte	0x146
 841 0234 31010000 		.4byte	0x131
 842 0238 34       		.byte	0x34
 843 0239 08       		.uleb128 0x8
 844 023a F8010000 		.4byte	.LASF47
 845 023e 07       		.byte	0x7
 846 023f 4D01     		.2byte	0x14d
 847 0241 85080000 		.4byte	0x885
 848 0245 38       		.byte	0x38
 849 0246 08       		.uleb128 0x8
 850 0247 A9070000 		.4byte	.LASF48
 851 024b 07       		.byte	0x7
 852 024c 5101     		.2byte	0x151
 853 024e 1B010000 		.4byte	0x11b
 854 0252 3C       		.byte	0x3c
ARM GAS  /tmp/ccrAgNC8.s 			page 16


 855 0253 08       		.uleb128 0x8
 856 0254 09070000 		.4byte	.LASF49
 857 0258 07       		.byte	0x7
 858 0259 5801     		.2byte	0x158
 859 025b 49030000 		.4byte	0x349
 860 025f 40       		.byte	0x40
 861 0260 00       		.byte	0
 862 0261 03       		.uleb128 0x3
 863 0262 96070000 		.4byte	.LASF50
 864 0266 06       		.byte	0x6
 865 0267 44       		.byte	0x44
 866 0268 6C020000 		.4byte	0x26c
 867 026c 09       		.uleb128 0x9
 868 026d 04       		.byte	0x4
 869 026e 5D010000 		.4byte	0x15d
 870 0272 03       		.uleb128 0x3
 871 0273 330A0000 		.4byte	.LASF51
 872 0277 06       		.byte	0x6
 873 0278 49       		.byte	0x49
 874 0279 7D020000 		.4byte	0x27d
 875 027d 05       		.uleb128 0x5
 876 027e FA040000 		.4byte	.LASF53
 877 0282 04       		.byte	0x4
 878 0283 07       		.byte	0x7
 879 0284 B0       		.byte	0xb0
 880 0285 96020000 		.4byte	0x296
 881 0289 06       		.uleb128 0x6
 882 028a B0010000 		.4byte	.LASF32
 883 028e 07       		.byte	0x7
 884 028f B1       		.byte	0xb1
 885 0290 6C020000 		.4byte	0x26c
 886 0294 00       		.byte	0
 887 0295 00       		.byte	0
 888 0296 03       		.uleb128 0x3
 889 0297 E8010000 		.4byte	.LASF54
 890 029b 06       		.byte	0x6
 891 029c 50       		.byte	0x50
 892 029d A1020000 		.4byte	0x2a1
 893 02a1 05       		.uleb128 0x5
 894 02a2 49080000 		.4byte	.LASF55
 895 02a6 08       		.byte	0x8
 896 02a7 07       		.byte	0x7
 897 02a8 B7       		.byte	0xb7
 898 02a9 C6020000 		.4byte	0x2c6
 899 02ad 06       		.uleb128 0x6
 900 02ae B0010000 		.4byte	.LASF32
 901 02b2 07       		.byte	0x7
 902 02b3 B8       		.byte	0xb8
 903 02b4 6C020000 		.4byte	0x26c
 904 02b8 00       		.byte	0
 905 02b9 06       		.uleb128 0x6
 906 02ba BF010000 		.4byte	.LASF33
 907 02be 07       		.byte	0x7
 908 02bf B9       		.byte	0xb9
 909 02c0 6C020000 		.4byte	0x26c
 910 02c4 04       		.byte	0x4
 911 02c5 00       		.byte	0
ARM GAS  /tmp/ccrAgNC8.s 			page 17


 912 02c6 03       		.uleb128 0x3
 913 02c7 B8040000 		.4byte	.LASF56
 914 02cb 06       		.byte	0x6
 915 02cc 57       		.byte	0x57
 916 02cd D1020000 		.4byte	0x2d1
 917 02d1 0A       		.uleb128 0xa
 918 02d2 E0030000 		.4byte	.LASF57
 919 02d6 1C       		.byte	0x1c
 920 02d7 07       		.byte	0x7
 921 02d8 9001     		.2byte	0x190
 922 02da 2D030000 		.4byte	0x32d
 923 02de 08       		.uleb128 0x8
 924 02df ED080000 		.4byte	.LASF58
 925 02e3 07       		.byte	0x7
 926 02e4 9101     		.2byte	0x191
 927 02e6 96020000 		.4byte	0x296
 928 02ea 00       		.byte	0
 929 02eb 08       		.uleb128 0x8
 930 02ec C1090000 		.4byte	.LASF59
 931 02f0 07       		.byte	0x7
 932 02f1 9201     		.2byte	0x192
 933 02f3 1B010000 		.4byte	0x11b
 934 02f7 08       		.byte	0x8
 935 02f8 08       		.uleb128 0x8
 936 02f9 89000000 		.4byte	.LASF60
 937 02fd 07       		.byte	0x7
 938 02fe 9401     		.2byte	0x194
 939 0300 0C070000 		.4byte	0x70c
 940 0304 0C       		.byte	0xc
 941 0305 08       		.uleb128 0x8
 942 0306 9E020000 		.4byte	.LASF61
 943 030a 07       		.byte	0x7
 944 030b 9701     		.2byte	0x197
 945 030d 6C020000 		.4byte	0x26c
 946 0311 10       		.byte	0x10
 947 0312 08       		.uleb128 0x8
 948 0313 53090000 		.4byte	.LASF62
 949 0317 07       		.byte	0x7
 950 0318 9801     		.2byte	0x198
 951 031a 6C020000 		.4byte	0x26c
 952 031e 14       		.byte	0x14
 953 031f 08       		.uleb128 0x8
 954 0320 85080000 		.4byte	.LASF63
 955 0324 07       		.byte	0x7
 956 0325 9B01     		.2byte	0x19b
 957 0327 6C020000 		.4byte	0x26c
 958 032b 18       		.byte	0x18
 959 032c 00       		.byte	0
 960 032d 03       		.uleb128 0x3
 961 032e AF000000 		.4byte	.LASF64
 962 0332 06       		.byte	0x6
 963 0333 5C       		.byte	0x5c
 964 0334 38030000 		.4byte	0x338
 965 0338 09       		.uleb128 0x9
 966 0339 04       		.byte	0x4
 967 033a 3E030000 		.4byte	0x33e
 968 033e 0B       		.uleb128 0xb
ARM GAS  /tmp/ccrAgNC8.s 			page 18


 969 033f 49030000 		.4byte	0x349
 970 0343 0C       		.uleb128 0xc
 971 0344 49030000 		.4byte	0x349
 972 0348 00       		.byte	0
 973 0349 0D       		.uleb128 0xd
 974 034a 04       		.byte	0x4
 975 034b 03       		.uleb128 0x3
 976 034c A8040000 		.4byte	.LASF65
 977 0350 06       		.byte	0x6
 978 0351 61       		.byte	0x61
 979 0352 56030000 		.4byte	0x356
 980 0356 0A       		.uleb128 0xa
 981 0357 EE070000 		.4byte	.LASF66
 982 035b 14       		.byte	0x14
 983 035c 07       		.byte	0x7
 984 035d 6B01     		.2byte	0x16b
 985 035f A5030000 		.4byte	0x3a5
 986 0363 08       		.uleb128 0x8
 987 0364 63050000 		.4byte	.LASF67
 988 0368 07       		.byte	0x7
 989 0369 6C01     		.2byte	0x16c
 990 036b 9D080000 		.4byte	0x89d
 991 036f 00       		.byte	0
 992 0370 08       		.uleb128 0x8
 993 0371 27060000 		.4byte	.LASF68
 994 0375 07       		.byte	0x7
 995 0376 6D01     		.2byte	0x16d
 996 0378 9D080000 		.4byte	0x89d
 997 037c 04       		.byte	0x4
 998 037d 08       		.uleb128 0x8
 999 037e CB070000 		.4byte	.LASF69
 1000 0382 07       		.byte	0x7
 1001 0383 6E01     		.2byte	0x16e
 1002 0385 52010000 		.4byte	0x152
 1003 0389 08       		.byte	0x8
 1004 038a 08       		.uleb128 0x8
 1005 038b B4030000 		.4byte	.LASF70
 1006 038f 07       		.byte	0x7
 1007 0390 6F01     		.2byte	0x16f
 1008 0392 2D030000 		.4byte	0x32d
 1009 0396 0C       		.byte	0xc
 1010 0397 08       		.uleb128 0x8
 1011 0398 3A010000 		.4byte	.LASF71
 1012 039c 07       		.byte	0x7
 1013 039d 7101     		.2byte	0x171
 1014 039f 49030000 		.4byte	0x349
 1015 03a3 10       		.byte	0x10
 1016 03a4 00       		.byte	0
 1017 03a5 03       		.uleb128 0x3
 1018 03a6 78040000 		.4byte	.LASF72
 1019 03aa 06       		.byte	0x6
 1020 03ab 66       		.byte	0x66
 1021 03ac B0030000 		.4byte	0x3b0
 1022 03b0 0A       		.uleb128 0xa
 1023 03b1 B8000000 		.4byte	.LASF73
 1024 03b5 10       		.byte	0x10
 1025 03b6 07       		.byte	0x7
ARM GAS  /tmp/ccrAgNC8.s 			page 19


 1026 03b7 7B01     		.2byte	0x17b
 1027 03b9 F2030000 		.4byte	0x3f2
 1028 03bd 08       		.uleb128 0x8
 1029 03be 63050000 		.4byte	.LASF67
 1030 03c2 07       		.byte	0x7
 1031 03c3 7C01     		.2byte	0x17c
 1032 03c5 9D080000 		.4byte	0x89d
 1033 03c9 00       		.byte	0
 1034 03ca 08       		.uleb128 0x8
 1035 03cb 27060000 		.4byte	.LASF68
 1036 03cf 07       		.byte	0x7
 1037 03d0 7E01     		.2byte	0x17e
 1038 03d2 9D080000 		.4byte	0x89d
 1039 03d6 04       		.byte	0x4
 1040 03d7 08       		.uleb128 0x8
 1041 03d8 CB070000 		.4byte	.LASF69
 1042 03dc 07       		.byte	0x7
 1043 03dd 8001     		.2byte	0x180
 1044 03df 52010000 		.4byte	0x152
 1045 03e3 08       		.byte	0x8
 1046 03e4 08       		.uleb128 0x8
 1047 03e5 3A090000 		.4byte	.LASF74
 1048 03e9 07       		.byte	0x7
 1049 03ea 8201     		.2byte	0x182
 1050 03ec A3080000 		.4byte	0x8a3
 1051 03f0 0C       		.byte	0xc
 1052 03f1 00       		.byte	0
 1053 03f2 03       		.uleb128 0x3
 1054 03f3 A6020000 		.4byte	.LASF75
 1055 03f7 06       		.byte	0x6
 1056 03f8 6B       		.byte	0x6b
 1057 03f9 FD030000 		.4byte	0x3fd
 1058 03fd 0A       		.uleb128 0xa
 1059 03fe DA090000 		.4byte	.LASF76
 1060 0402 04       		.byte	0x4
 1061 0403 07       		.byte	0x7
 1062 0404 A201     		.2byte	0x1a2
 1063 0406 18040000 		.4byte	0x418
 1064 040a 08       		.uleb128 0x8
 1065 040b 89020000 		.4byte	.LASF77
 1066 040f 07       		.byte	0x7
 1067 0410 AA01     		.2byte	0x1aa
 1068 0412 A8080000 		.4byte	0x8a8
 1069 0416 00       		.byte	0
 1070 0417 00       		.byte	0
 1071 0418 03       		.uleb128 0x3
 1072 0419 BB0A0000 		.4byte	.LASF78
 1073 041d 06       		.byte	0x6
 1074 041e 70       		.byte	0x70
 1075 041f 23040000 		.4byte	0x423
 1076 0423 0E       		.uleb128 0xe
 1077 0424 420A0000 		.4byte	.LASF79
 1078 0428 5001     		.2byte	0x150
 1079 042a 07       		.byte	0x7
 1080 042b C201     		.2byte	0x1c2
 1081 042d 7F040000 		.4byte	0x47f
 1082 0431 08       		.uleb128 0x8
ARM GAS  /tmp/ccrAgNC8.s 			page 20


 1083 0432 13090000 		.4byte	.LASF80
 1084 0436 07       		.byte	0x7
 1085 0437 C601     		.2byte	0x1c6
 1086 0439 C6020000 		.4byte	0x2c6
 1087 043d 00       		.byte	0
 1088 043e 08       		.uleb128 0x8
 1089 043f 130A0000 		.4byte	.LASF81
 1090 0443 07       		.byte	0x7
 1091 0444 CA01     		.2byte	0x1ca
 1092 0446 A5030000 		.4byte	0x3a5
 1093 044a 1C       		.byte	0x1c
 1094 044b 07       		.uleb128 0x7
 1095 044c 64626700 		.ascii	"dbg\000"
 1096 0450 07       		.byte	0x7
 1097 0451 CE01     		.2byte	0x1ce
 1098 0453 F2030000 		.4byte	0x3f2
 1099 0457 2C       		.byte	0x2c
 1100 0458 08       		.uleb128 0x8
 1101 0459 D6080000 		.4byte	.LASF82
 1102 045d 07       		.byte	0x7
 1103 045e D201     		.2byte	0x1d2
 1104 0460 5D010000 		.4byte	0x15d
 1105 0464 30       		.byte	0x30
 1106 0465 07       		.uleb128 0x7
 1107 0466 746D00   		.ascii	"tm\000"
 1108 0469 07       		.byte	0x7
 1109 046a D701     		.2byte	0x1d7
 1110 046c BB070000 		.4byte	0x7bb
 1111 0470 74       		.byte	0x74
 1112 0471 08       		.uleb128 0x8
 1113 0472 E5060000 		.4byte	.LASF83
 1114 0476 07       		.byte	0x7
 1115 0477 E301     		.2byte	0x1e3
 1116 0479 AD080000 		.4byte	0x8ad
 1117 047d 78       		.byte	0x78
 1118 047e 00       		.byte	0
 1119 047f 04       		.uleb128 0x4
 1120 0480 04       		.byte	0x4
 1121 0481 07       		.byte	0x7
 1122 0482 29000000 		.4byte	.LASF84
 1123 0486 0F       		.uleb128 0xf
 1124 0487 CE000000 		.4byte	0xce
 1125 048b 10       		.uleb128 0x10
 1126 048c 50       		.byte	0x50
 1127 048d 08       		.byte	0x8
 1128 048e BE       		.byte	0xbe
 1129 048f 82050000 		.4byte	0x582
 1130 0493 11       		.uleb128 0x11
 1131 0494 535200   		.ascii	"SR\000"
 1132 0497 08       		.byte	0x8
 1133 0498 C0       		.byte	0xc0
 1134 0499 86040000 		.4byte	0x486
 1135 049d 00       		.byte	0
 1136 049e 11       		.uleb128 0x11
 1137 049f 43523100 		.ascii	"CR1\000"
 1138 04a3 08       		.byte	0x8
 1139 04a4 C1       		.byte	0xc1
ARM GAS  /tmp/ccrAgNC8.s 			page 21


 1140 04a5 86040000 		.4byte	0x486
 1141 04a9 04       		.byte	0x4
 1142 04aa 11       		.uleb128 0x11
 1143 04ab 43523200 		.ascii	"CR2\000"
 1144 04af 08       		.byte	0x8
 1145 04b0 C2       		.byte	0xc2
 1146 04b1 86040000 		.4byte	0x486
 1147 04b5 08       		.byte	0x8
 1148 04b6 06       		.uleb128 0x6
 1149 04b7 96040000 		.4byte	.LASF85
 1150 04bb 08       		.byte	0x8
 1151 04bc C3       		.byte	0xc3
 1152 04bd 86040000 		.4byte	0x486
 1153 04c1 0C       		.byte	0xc
 1154 04c2 06       		.uleb128 0x6
 1155 04c3 9C040000 		.4byte	.LASF86
 1156 04c7 08       		.byte	0x8
 1157 04c8 C4       		.byte	0xc4
 1158 04c9 86040000 		.4byte	0x486
 1159 04cd 10       		.byte	0x10
 1160 04ce 06       		.uleb128 0x6
 1161 04cf A9090000 		.4byte	.LASF87
 1162 04d3 08       		.byte	0x8
 1163 04d4 C5       		.byte	0xc5
 1164 04d5 86040000 		.4byte	0x486
 1165 04d9 14       		.byte	0x14
 1166 04da 06       		.uleb128 0x6
 1167 04db AF090000 		.4byte	.LASF88
 1168 04df 08       		.byte	0x8
 1169 04e0 C6       		.byte	0xc6
 1170 04e1 86040000 		.4byte	0x486
 1171 04e5 18       		.byte	0x18
 1172 04e6 06       		.uleb128 0x6
 1173 04e7 B5090000 		.4byte	.LASF89
 1174 04eb 08       		.byte	0x8
 1175 04ec C7       		.byte	0xc7
 1176 04ed 86040000 		.4byte	0x486
 1177 04f1 1C       		.byte	0x1c
 1178 04f2 06       		.uleb128 0x6
 1179 04f3 BB090000 		.4byte	.LASF90
 1180 04f7 08       		.byte	0x8
 1181 04f8 C8       		.byte	0xc8
 1182 04f9 86040000 		.4byte	0x486
 1183 04fd 20       		.byte	0x20
 1184 04fe 11       		.uleb128 0x11
 1185 04ff 48545200 		.ascii	"HTR\000"
 1186 0503 08       		.byte	0x8
 1187 0504 C9       		.byte	0xc9
 1188 0505 86040000 		.4byte	0x486
 1189 0509 24       		.byte	0x24
 1190 050a 11       		.uleb128 0x11
 1191 050b 4C545200 		.ascii	"LTR\000"
 1192 050f 08       		.byte	0x8
 1193 0510 CA       		.byte	0xca
 1194 0511 86040000 		.4byte	0x486
 1195 0515 28       		.byte	0x28
 1196 0516 06       		.uleb128 0x6
ARM GAS  /tmp/ccrAgNC8.s 			page 22


 1197 0517 5F000000 		.4byte	.LASF91
 1198 051b 08       		.byte	0x8
 1199 051c CB       		.byte	0xcb
 1200 051d 86040000 		.4byte	0x486
 1201 0521 2C       		.byte	0x2c
 1202 0522 06       		.uleb128 0x6
 1203 0523 64000000 		.4byte	.LASF92
 1204 0527 08       		.byte	0x8
 1205 0528 CC       		.byte	0xcc
 1206 0529 86040000 		.4byte	0x486
 1207 052d 30       		.byte	0x30
 1208 052e 06       		.uleb128 0x6
 1209 052f 69000000 		.4byte	.LASF93
 1210 0533 08       		.byte	0x8
 1211 0534 CD       		.byte	0xcd
 1212 0535 86040000 		.4byte	0x486
 1213 0539 34       		.byte	0x34
 1214 053a 06       		.uleb128 0x6
 1215 053b 0E0A0000 		.4byte	.LASF94
 1216 053f 08       		.byte	0x8
 1217 0540 CE       		.byte	0xce
 1218 0541 86040000 		.4byte	0x486
 1219 0545 38       		.byte	0x38
 1220 0546 06       		.uleb128 0x6
 1221 0547 FA090000 		.4byte	.LASF95
 1222 054b 08       		.byte	0x8
 1223 054c CF       		.byte	0xcf
 1224 054d 86040000 		.4byte	0x486
 1225 0551 3C       		.byte	0x3c
 1226 0552 06       		.uleb128 0x6
 1227 0553 FF090000 		.4byte	.LASF96
 1228 0557 08       		.byte	0x8
 1229 0558 D0       		.byte	0xd0
 1230 0559 86040000 		.4byte	0x486
 1231 055d 40       		.byte	0x40
 1232 055e 06       		.uleb128 0x6
 1233 055f 040A0000 		.4byte	.LASF97
 1234 0563 08       		.byte	0x8
 1235 0564 D1       		.byte	0xd1
 1236 0565 86040000 		.4byte	0x486
 1237 0569 44       		.byte	0x44
 1238 056a 06       		.uleb128 0x6
 1239 056b 090A0000 		.4byte	.LASF98
 1240 056f 08       		.byte	0x8
 1241 0570 D2       		.byte	0xd2
 1242 0571 86040000 		.4byte	0x486
 1243 0575 48       		.byte	0x48
 1244 0576 11       		.uleb128 0x11
 1245 0577 445200   		.ascii	"DR\000"
 1246 057a 08       		.byte	0x8
 1247 057b D3       		.byte	0xd3
 1248 057c 86040000 		.4byte	0x486
 1249 0580 4C       		.byte	0x4c
 1250 0581 00       		.byte	0
 1251 0582 03       		.uleb128 0x3
 1252 0583 BC030000 		.4byte	.LASF99
 1253 0587 08       		.byte	0x8
ARM GAS  /tmp/ccrAgNC8.s 			page 23


 1254 0588 D4       		.byte	0xd4
 1255 0589 8B040000 		.4byte	0x48b
 1256 058d 12       		.uleb128 0x12
 1257 058e 18       		.byte	0x18
 1258 058f 08       		.byte	0x8
 1259 0590 5301     		.2byte	0x153
 1260 0592 E4050000 		.4byte	0x5e4
 1261 0596 07       		.uleb128 0x7
 1262 0597 435200   		.ascii	"CR\000"
 1263 059a 08       		.byte	0x8
 1264 059b 5501     		.2byte	0x155
 1265 059d 86040000 		.4byte	0x486
 1266 05a1 00       		.byte	0
 1267 05a2 08       		.uleb128 0x8
 1268 05a3 540A0000 		.4byte	.LASF100
 1269 05a7 08       		.byte	0x8
 1270 05a8 5601     		.2byte	0x156
 1271 05aa 86040000 		.4byte	0x486
 1272 05ae 04       		.byte	0x4
 1273 05af 07       		.uleb128 0x7
 1274 05b0 50415200 		.ascii	"PAR\000"
 1275 05b4 08       		.byte	0x8
 1276 05b5 5701     		.2byte	0x157
 1277 05b7 86040000 		.4byte	0x486
 1278 05bb 08       		.byte	0x8
 1279 05bc 08       		.uleb128 0x8
 1280 05bd 73090000 		.4byte	.LASF101
 1281 05c1 08       		.byte	0x8
 1282 05c2 5801     		.2byte	0x158
 1283 05c4 86040000 		.4byte	0x486
 1284 05c8 0C       		.byte	0xc
 1285 05c9 08       		.uleb128 0x8
 1286 05ca 00000000 		.4byte	.LASF102
 1287 05ce 08       		.byte	0x8
 1288 05cf 5901     		.2byte	0x159
 1289 05d1 86040000 		.4byte	0x486
 1290 05d5 10       		.byte	0x10
 1291 05d6 07       		.uleb128 0x7
 1292 05d7 46435200 		.ascii	"FCR\000"
 1293 05db 08       		.byte	0x8
 1294 05dc 5A01     		.2byte	0x15a
 1295 05de 86040000 		.4byte	0x486
 1296 05e2 14       		.byte	0x14
 1297 05e3 00       		.byte	0
 1298 05e4 13       		.uleb128 0x13
 1299 05e5 65070000 		.4byte	.LASF103
 1300 05e9 08       		.byte	0x8
 1301 05ea 5B01     		.2byte	0x15b
 1302 05ec 8D050000 		.4byte	0x58d
 1303 05f0 12       		.uleb128 0x12
 1304 05f1 28       		.byte	0x28
 1305 05f2 08       		.byte	0x8
 1306 05f3 DB01     		.2byte	0x1db
 1307 05f5 7B060000 		.4byte	0x67b
 1308 05f9 07       		.uleb128 0x7
 1309 05fa 43523100 		.ascii	"CR1\000"
 1310 05fe 08       		.byte	0x8
ARM GAS  /tmp/ccrAgNC8.s 			page 24


 1311 05ff DD01     		.2byte	0x1dd
 1312 0601 86040000 		.4byte	0x486
 1313 0605 00       		.byte	0
 1314 0606 07       		.uleb128 0x7
 1315 0607 43523200 		.ascii	"CR2\000"
 1316 060b 08       		.byte	0x8
 1317 060c DE01     		.2byte	0x1de
 1318 060e 86040000 		.4byte	0x486
 1319 0612 04       		.byte	0x4
 1320 0613 08       		.uleb128 0x8
 1321 0614 21090000 		.4byte	.LASF104
 1322 0618 08       		.byte	0x8
 1323 0619 DF01     		.2byte	0x1df
 1324 061b 86040000 		.4byte	0x486
 1325 061f 08       		.byte	0x8
 1326 0620 08       		.uleb128 0x8
 1327 0621 26090000 		.4byte	.LASF105
 1328 0625 08       		.byte	0x8
 1329 0626 E001     		.2byte	0x1e0
 1330 0628 86040000 		.4byte	0x486
 1331 062c 0C       		.byte	0xc
 1332 062d 07       		.uleb128 0x7
 1333 062e 445200   		.ascii	"DR\000"
 1334 0631 08       		.byte	0x8
 1335 0632 E101     		.2byte	0x1e1
 1336 0634 86040000 		.4byte	0x486
 1337 0638 10       		.byte	0x10
 1338 0639 07       		.uleb128 0x7
 1339 063a 53523100 		.ascii	"SR1\000"
 1340 063e 08       		.byte	0x8
 1341 063f E201     		.2byte	0x1e2
 1342 0641 86040000 		.4byte	0x486
 1343 0645 14       		.byte	0x14
 1344 0646 07       		.uleb128 0x7
 1345 0647 53523200 		.ascii	"SR2\000"
 1346 064b 08       		.byte	0x8
 1347 064c E301     		.2byte	0x1e3
 1348 064e 86040000 		.4byte	0x486
 1349 0652 18       		.byte	0x18
 1350 0653 07       		.uleb128 0x7
 1351 0654 43435200 		.ascii	"CCR\000"
 1352 0658 08       		.byte	0x8
 1353 0659 E401     		.2byte	0x1e4
 1354 065b 86040000 		.4byte	0x486
 1355 065f 1C       		.byte	0x1c
 1356 0660 08       		.uleb128 0x8
 1357 0661 A2040000 		.4byte	.LASF106
 1358 0665 08       		.byte	0x8
 1359 0666 E501     		.2byte	0x1e5
 1360 0668 86040000 		.4byte	0x486
 1361 066c 20       		.byte	0x20
 1362 066d 08       		.uleb128 0x8
 1363 066e 6E060000 		.4byte	.LASF107
 1364 0672 08       		.byte	0x8
 1365 0673 E601     		.2byte	0x1e6
 1366 0675 86040000 		.4byte	0x486
 1367 0679 24       		.byte	0x24
ARM GAS  /tmp/ccrAgNC8.s 			page 25


 1368 067a 00       		.byte	0
 1369 067b 13       		.uleb128 0x13
 1370 067c AA080000 		.4byte	.LASF108
 1371 0680 08       		.byte	0x8
 1372 0681 E701     		.2byte	0x1e7
 1373 0683 F0050000 		.4byte	0x5f0
 1374 0687 12       		.uleb128 0x12
 1375 0688 1C       		.byte	0x1c
 1376 0689 08       		.byte	0x8
 1377 068a A502     		.2byte	0x2a5
 1378 068c EA060000 		.4byte	0x6ea
 1379 0690 07       		.uleb128 0x7
 1380 0691 535200   		.ascii	"SR\000"
 1381 0694 08       		.byte	0x8
 1382 0695 A702     		.2byte	0x2a7
 1383 0697 86040000 		.4byte	0x486
 1384 069b 00       		.byte	0
 1385 069c 07       		.uleb128 0x7
 1386 069d 445200   		.ascii	"DR\000"
 1387 06a0 08       		.byte	0x8
 1388 06a1 A802     		.2byte	0x2a8
 1389 06a3 86040000 		.4byte	0x486
 1390 06a7 04       		.byte	0x4
 1391 06a8 07       		.uleb128 0x7
 1392 06a9 42525200 		.ascii	"BRR\000"
 1393 06ad 08       		.byte	0x8
 1394 06ae A902     		.2byte	0x2a9
 1395 06b0 86040000 		.4byte	0x486
 1396 06b4 08       		.byte	0x8
 1397 06b5 07       		.uleb128 0x7
 1398 06b6 43523100 		.ascii	"CR1\000"
 1399 06ba 08       		.byte	0x8
 1400 06bb AA02     		.2byte	0x2aa
 1401 06bd 86040000 		.4byte	0x486
 1402 06c1 0C       		.byte	0xc
 1403 06c2 07       		.uleb128 0x7
 1404 06c3 43523200 		.ascii	"CR2\000"
 1405 06c7 08       		.byte	0x8
 1406 06c8 AB02     		.2byte	0x2ab
 1407 06ca 86040000 		.4byte	0x486
 1408 06ce 10       		.byte	0x10
 1409 06cf 07       		.uleb128 0x7
 1410 06d0 43523300 		.ascii	"CR3\000"
 1411 06d4 08       		.byte	0x8
 1412 06d5 AC02     		.2byte	0x2ac
 1413 06d7 86040000 		.4byte	0x486
 1414 06db 14       		.byte	0x14
 1415 06dc 08       		.uleb128 0x8
 1416 06dd 42060000 		.4byte	.LASF109
 1417 06e1 08       		.byte	0x8
 1418 06e2 AD02     		.2byte	0x2ad
 1419 06e4 86040000 		.4byte	0x486
 1420 06e8 18       		.byte	0x18
 1421 06e9 00       		.byte	0
 1422 06ea 13       		.uleb128 0x13
 1423 06eb 3E030000 		.4byte	.LASF110
 1424 06ef 08       		.byte	0x8
ARM GAS  /tmp/ccrAgNC8.s 			page 26


 1425 06f0 AE02     		.2byte	0x2ae
 1426 06f2 87060000 		.4byte	0x687
 1427 06f6 03       		.uleb128 0x3
 1428 06f7 09020000 		.4byte	.LASF111
 1429 06fb 09       		.byte	0x9
 1430 06fc 65       		.byte	0x65
 1431 06fd 49030000 		.4byte	0x349
 1432 0701 03       		.uleb128 0x3
 1433 0702 33030000 		.4byte	.LASF112
 1434 0706 09       		.byte	0x9
 1435 0707 6D       		.byte	0x6d
 1436 0708 D9000000 		.4byte	0xd9
 1437 070c 05       		.uleb128 0x5
 1438 070d 59020000 		.4byte	.LASF113
 1439 0711 04       		.byte	0x4
 1440 0712 09       		.byte	0x9
 1441 0713 89       		.byte	0x89
 1442 0714 25070000 		.4byte	0x725
 1443 0718 11       		.uleb128 0x11
 1444 0719 72313300 		.ascii	"r13\000"
 1445 071d 09       		.byte	0x9
 1446 071e 8A       		.byte	0x8a
 1447 071f A0070000 		.4byte	0x7a0
 1448 0723 00       		.byte	0
 1449 0724 00       		.byte	0
 1450 0725 05       		.uleb128 0x5
 1451 0726 B4070000 		.4byte	.LASF114
 1452 072a 24       		.byte	0x24
 1453 072b 0A       		.byte	0xa
 1454 072c FD       		.byte	0xfd
 1455 072d A0070000 		.4byte	0x7a0
 1456 0731 07       		.uleb128 0x7
 1457 0732 723400   		.ascii	"r4\000"
 1458 0735 0A       		.byte	0xa
 1459 0736 1001     		.2byte	0x110
 1460 0738 F6060000 		.4byte	0x6f6
 1461 073c 00       		.byte	0
 1462 073d 07       		.uleb128 0x7
 1463 073e 723500   		.ascii	"r5\000"
 1464 0741 0A       		.byte	0xa
 1465 0742 1101     		.2byte	0x111
 1466 0744 F6060000 		.4byte	0x6f6
 1467 0748 04       		.byte	0x4
 1468 0749 07       		.uleb128 0x7
 1469 074a 723600   		.ascii	"r6\000"
 1470 074d 0A       		.byte	0xa
 1471 074e 1201     		.2byte	0x112
 1472 0750 F6060000 		.4byte	0x6f6
 1473 0754 08       		.byte	0x8
 1474 0755 07       		.uleb128 0x7
 1475 0756 723700   		.ascii	"r7\000"
 1476 0759 0A       		.byte	0xa
 1477 075a 1301     		.2byte	0x113
 1478 075c F6060000 		.4byte	0x6f6
 1479 0760 0C       		.byte	0xc
 1480 0761 07       		.uleb128 0x7
 1481 0762 723800   		.ascii	"r8\000"
ARM GAS  /tmp/ccrAgNC8.s 			page 27


 1482 0765 0A       		.byte	0xa
 1483 0766 1401     		.2byte	0x114
 1484 0768 F6060000 		.4byte	0x6f6
 1485 076c 10       		.byte	0x10
 1486 076d 07       		.uleb128 0x7
 1487 076e 723900   		.ascii	"r9\000"
 1488 0771 0A       		.byte	0xa
 1489 0772 1501     		.2byte	0x115
 1490 0774 F6060000 		.4byte	0x6f6
 1491 0778 14       		.byte	0x14
 1492 0779 07       		.uleb128 0x7
 1493 077a 72313000 		.ascii	"r10\000"
 1494 077e 0A       		.byte	0xa
 1495 077f 1601     		.2byte	0x116
 1496 0781 F6060000 		.4byte	0x6f6
 1497 0785 18       		.byte	0x18
 1498 0786 07       		.uleb128 0x7
 1499 0787 72313100 		.ascii	"r11\000"
 1500 078b 0A       		.byte	0xa
 1501 078c 1701     		.2byte	0x117
 1502 078e F6060000 		.4byte	0x6f6
 1503 0792 1C       		.byte	0x1c
 1504 0793 07       		.uleb128 0x7
 1505 0794 6C7200   		.ascii	"lr\000"
 1506 0797 0A       		.byte	0xa
 1507 0798 1801     		.2byte	0x118
 1508 079a F6060000 		.4byte	0x6f6
 1509 079e 20       		.byte	0x20
 1510 079f 00       		.byte	0
 1511 07a0 09       		.uleb128 0x9
 1512 07a1 04       		.byte	0x4
 1513 07a2 25070000 		.4byte	0x725
 1514 07a6 10       		.uleb128 0x10
 1515 07a7 04       		.byte	0x4
 1516 07a8 0B       		.byte	0xb
 1517 07a9 38       		.byte	0x38
 1518 07aa BB070000 		.4byte	0x7bb
 1519 07ae 06       		.uleb128 0x6
 1520 07af 55070000 		.4byte	.LASF115
 1521 07b3 0B       		.byte	0xb
 1522 07b4 3C       		.byte	0x3c
 1523 07b5 E4000000 		.4byte	0xe4
 1524 07b9 00       		.byte	0
 1525 07ba 00       		.byte	0
 1526 07bb 03       		.uleb128 0x3
 1527 07bc 5B090000 		.4byte	.LASF116
 1528 07c0 0B       		.byte	0xb
 1529 07c1 3D       		.byte	0x3d
 1530 07c2 A6070000 		.4byte	0x7a6
 1531 07c6 14       		.uleb128 0x14
 1532 07c7 04       		.byte	0x4
 1533 07c8 07       		.byte	0x7
 1534 07c9 FA       		.byte	0xfa
 1535 07ca 23080000 		.4byte	0x823
 1536 07ce 15       		.uleb128 0x15
 1537 07cf 8A0A0000 		.4byte	.LASF117
 1538 07d3 07       		.byte	0x7
ARM GAS  /tmp/ccrAgNC8.s 			page 28


 1539 07d4 0101     		.2byte	0x101
 1540 07d6 26010000 		.4byte	0x126
 1541 07da 15       		.uleb128 0x15
 1542 07db 48010000 		.4byte	.LASF118
 1543 07df 07       		.byte	0x7
 1544 07e0 0801     		.2byte	0x108
 1545 07e2 26010000 		.4byte	0x126
 1546 07e6 15       		.uleb128 0x15
 1547 07e7 16030000 		.4byte	.LASF119
 1548 07eb 07       		.byte	0x7
 1549 07ec 0F01     		.2byte	0x10f
 1550 07ee 49030000 		.4byte	0x349
 1551 07f2 15       		.uleb128 0x15
 1552 07f3 61020000 		.4byte	.LASF120
 1553 07f7 07       		.byte	0x7
 1554 07f8 1601     		.2byte	0x116
 1555 07fa 23080000 		.4byte	0x823
 1556 07fe 15       		.uleb128 0x15
 1557 07ff 32000000 		.4byte	.LASF121
 1558 0803 07       		.byte	0x7
 1559 0804 1E01     		.2byte	0x11e
 1560 0806 4E080000 		.4byte	0x84e
 1561 080a 15       		.uleb128 0x15
 1562 080b D9030000 		.4byte	.LASF122
 1563 080f 07       		.byte	0x7
 1564 0810 2701     		.2byte	0x127
 1565 0812 85080000 		.4byte	0x885
 1566 0816 15       		.uleb128 0x15
 1567 0817 6B010000 		.4byte	.LASF123
 1568 081b 07       		.byte	0x7
 1569 081c 2F01     		.2byte	0x12f
 1570 081e 31010000 		.4byte	0x131
 1571 0822 00       		.byte	0
 1572 0823 09       		.uleb128 0x9
 1573 0824 04       		.byte	0x4
 1574 0825 61020000 		.4byte	0x261
 1575 0829 05       		.uleb128 0x5
 1576 082a 55040000 		.4byte	.LASF124
 1577 082e 0C       		.byte	0xc
 1578 082f 0C       		.byte	0xc
 1579 0830 34       		.byte	0x34
 1580 0831 4E080000 		.4byte	0x84e
 1581 0835 06       		.uleb128 0x6
 1582 0836 78090000 		.4byte	.LASF125
 1583 083a 0C       		.byte	0xc
 1584 083b 35       		.byte	0x35
 1585 083c 96020000 		.4byte	0x296
 1586 0840 00       		.byte	0
 1587 0841 06       		.uleb128 0x6
 1588 0842 FF070000 		.4byte	.LASF126
 1589 0846 0C       		.byte	0xc
 1590 0847 37       		.byte	0x37
 1591 0848 47010000 		.4byte	0x147
 1592 084c 08       		.byte	0x8
 1593 084d 00       		.byte	0
 1594 084e 09       		.uleb128 0x9
 1595 084f 04       		.byte	0x4
ARM GAS  /tmp/ccrAgNC8.s 			page 29


 1596 0850 29080000 		.4byte	0x829
 1597 0854 05       		.uleb128 0x5
 1598 0855 A0090000 		.4byte	.LASF127
 1599 0859 10       		.byte	0x10
 1600 085a 0D       		.byte	0xd
 1601 085b 39       		.byte	0x39
 1602 085c 85080000 		.4byte	0x885
 1603 0860 06       		.uleb128 0x6
 1604 0861 5B050000 		.4byte	.LASF128
 1605 0865 0D       		.byte	0xd
 1606 0866 3A       		.byte	0x3a
 1607 0867 96020000 		.4byte	0x296
 1608 086b 00       		.byte	0
 1609 086c 06       		.uleb128 0x6
 1610 086d 32010000 		.4byte	.LASF129
 1611 0871 0D       		.byte	0xd
 1612 0872 3C       		.byte	0x3c
 1613 0873 6C020000 		.4byte	0x26c
 1614 0877 08       		.byte	0x8
 1615 0878 06       		.uleb128 0x6
 1616 0879 6E0B0000 		.4byte	.LASF130
 1617 087d 0D       		.byte	0xd
 1618 087e 3E       		.byte	0x3e
 1619 087f C8080000 		.4byte	0x8c8
 1620 0883 0C       		.byte	0xc
 1621 0884 00       		.byte	0
 1622 0885 09       		.uleb128 0x9
 1623 0886 04       		.byte	0x4
 1624 0887 54080000 		.4byte	0x854
 1625 088b 09       		.uleb128 0x9
 1626 088c 04       		.byte	0x4
 1627 088d 91080000 		.4byte	0x891
 1628 0891 16       		.uleb128 0x16
 1629 0892 96080000 		.4byte	0x896
 1630 0896 04       		.uleb128 0x4
 1631 0897 01       		.byte	0x1
 1632 0898 08       		.byte	0x8
 1633 0899 E6020000 		.4byte	.LASF131
 1634 089d 09       		.uleb128 0x9
 1635 089e 04       		.byte	0x4
 1636 089f 4B030000 		.4byte	0x34b
 1637 08a3 0F       		.uleb128 0xf
 1638 08a4 52010000 		.4byte	0x152
 1639 08a8 0F       		.uleb128 0xf
 1640 08a9 8B080000 		.4byte	0x88b
 1641 08ad 17       		.uleb128 0x17
 1642 08ae 01070000 		.4byte	0x701
 1643 08b2 BD080000 		.4byte	0x8bd
 1644 08b6 18       		.uleb128 0x18
 1645 08b7 7F040000 		.4byte	0x47f
 1646 08bb 1A       		.byte	0x1a
 1647 08bc 00       		.byte	0
 1648 08bd 03       		.uleb128 0x3
 1649 08be 1A0A0000 		.4byte	.LASF132
 1650 08c2 0D       		.byte	0xd
 1651 08c3 34       		.byte	0x34
 1652 08c4 54080000 		.4byte	0x854
ARM GAS  /tmp/ccrAgNC8.s 			page 30


 1653 08c8 09       		.uleb128 0x9
 1654 08c9 04       		.byte	0x4
 1655 08ca BD080000 		.4byte	0x8bd
 1656 08ce 03       		.uleb128 0x3
 1657 08cf 88030000 		.4byte	.LASF133
 1658 08d3 0E       		.byte	0xe
 1659 08d4 34       		.byte	0x34
 1660 08d5 D9080000 		.4byte	0x8d9
 1661 08d9 05       		.uleb128 0x5
 1662 08da 7B0A0000 		.4byte	.LASF134
 1663 08de 14       		.byte	0x14
 1664 08df 0E       		.byte	0xe
 1665 08e0 39       		.byte	0x39
 1666 08e1 22090000 		.4byte	0x922
 1667 08e5 06       		.uleb128 0x6
 1668 08e6 8E040000 		.4byte	.LASF135
 1669 08ea 0E       		.byte	0xe
 1670 08eb 3A       		.byte	0x3a
 1671 08ec 22090000 		.4byte	0x922
 1672 08f0 00       		.byte	0
 1673 08f1 06       		.uleb128 0x6
 1674 08f2 850B0000 		.4byte	.LASF136
 1675 08f6 0E       		.byte	0xe
 1676 08f7 3D       		.byte	0x3d
 1677 08f8 6C020000 		.4byte	0x26c
 1678 08fc 04       		.byte	0x4
 1679 08fd 06       		.uleb128 0x6
 1680 08fe 3B070000 		.4byte	.LASF137
 1681 0902 0E       		.byte	0xe
 1682 0903 3F       		.byte	0x3f
 1683 0904 31010000 		.4byte	0x131
 1684 0908 08       		.byte	0x8
 1685 0909 06       		.uleb128 0x6
 1686 090a E7000000 		.4byte	.LASF138
 1687 090e 0E       		.byte	0xe
 1688 090f 41       		.byte	0x41
 1689 0910 3C010000 		.4byte	0x13c
 1690 0914 0C       		.byte	0xc
 1691 0915 06       		.uleb128 0x6
 1692 0916 25070000 		.4byte	.LASF139
 1693 091a 0E       		.byte	0xe
 1694 091b 43       		.byte	0x43
 1695 091c 3C010000 		.4byte	0x13c
 1696 0920 10       		.byte	0x10
 1697 0921 00       		.byte	0
 1698 0922 09       		.uleb128 0x9
 1699 0923 04       		.byte	0x4
 1700 0924 CE080000 		.4byte	0x8ce
 1701 0928 05       		.uleb128 0x5
 1702 0929 8A090000 		.4byte	.LASF140
 1703 092d 04       		.byte	0x4
 1704 092e 0E       		.byte	0xe
 1705 092f 4A       		.byte	0x4a
 1706 0930 41090000 		.4byte	0x941
 1707 0934 06       		.uleb128 0x6
 1708 0935 1F040000 		.4byte	.LASF141
 1709 0939 0E       		.byte	0xe
ARM GAS  /tmp/ccrAgNC8.s 			page 31


 1710 093a 4B       		.byte	0x4b
 1711 093b 22090000 		.4byte	0x922
 1712 093f 00       		.byte	0
 1713 0940 00       		.byte	0
 1714 0941 03       		.uleb128 0x3
 1715 0942 4F060000 		.4byte	.LASF142
 1716 0946 0E       		.byte	0xe
 1717 0947 4E       		.byte	0x4e
 1718 0948 28090000 		.4byte	0x928
 1719 094c 03       		.uleb128 0x3
 1720 094d EA090000 		.4byte	.LASF143
 1721 0951 0F       		.byte	0xf
 1722 0952 3F       		.byte	0x3f
 1723 0953 57090000 		.4byte	0x957
 1724 0957 05       		.uleb128 0x5
 1725 0958 19020000 		.4byte	.LASF144
 1726 095c 24       		.byte	0x24
 1727 095d 0F       		.byte	0xf
 1728 095e 4D       		.byte	0x4d
 1729 095f C4090000 		.4byte	0x9c4
 1730 0963 06       		.uleb128 0x6
 1731 0964 09090000 		.4byte	.LASF145
 1732 0968 0F       		.byte	0xf
 1733 0969 4E       		.byte	0x4e
 1734 096a 96020000 		.4byte	0x296
 1735 096e 00       		.byte	0
 1736 096f 06       		.uleb128 0x6
 1737 0970 27040000 		.4byte	.LASF146
 1738 0974 0F       		.byte	0xf
 1739 0975 4F       		.byte	0x4f
 1740 0976 E6090000 		.4byte	0x9e6
 1741 097a 08       		.byte	0x8
 1742 097b 06       		.uleb128 0x6
 1743 097c 8D010000 		.4byte	.LASF147
 1744 0980 0F       		.byte	0xf
 1745 0981 50       		.byte	0x50
 1746 0982 EB090000 		.4byte	0x9eb
 1747 0986 0C       		.byte	0xc
 1748 0987 06       		.uleb128 0x6
 1749 0988 65010000 		.4byte	.LASF148
 1750 098c 0F       		.byte	0xf
 1751 098d 51       		.byte	0x51
 1752 098e EB090000 		.4byte	0x9eb
 1753 0992 10       		.byte	0x10
 1754 0993 06       		.uleb128 0x6
 1755 0994 C5040000 		.4byte	.LASF149
 1756 0998 0F       		.byte	0xf
 1757 0999 53       		.byte	0x53
 1758 099a EB090000 		.4byte	0x9eb
 1759 099e 14       		.byte	0x14
 1760 099f 06       		.uleb128 0x6
 1761 09a0 B7010000 		.4byte	.LASF150
 1762 09a4 0F       		.byte	0xf
 1763 09a5 54       		.byte	0x54
 1764 09a6 EB090000 		.4byte	0x9eb
 1765 09aa 18       		.byte	0x18
 1766 09ab 06       		.uleb128 0x6
ARM GAS  /tmp/ccrAgNC8.s 			page 32


 1767 09ac 96010000 		.4byte	.LASF151
 1768 09b0 0F       		.byte	0xf
 1769 09b1 55       		.byte	0x55
 1770 09b2 C4090000 		.4byte	0x9c4
 1771 09b6 1C       		.byte	0x1c
 1772 09b7 06       		.uleb128 0x6
 1773 09b8 75020000 		.4byte	.LASF152
 1774 09bc 0F       		.byte	0xf
 1775 09bd 56       		.byte	0x56
 1776 09be 49030000 		.4byte	0x349
 1777 09c2 20       		.byte	0x20
 1778 09c3 00       		.byte	0
 1779 09c4 03       		.uleb128 0x3
 1780 09c5 A3060000 		.4byte	.LASF153
 1781 09c9 0F       		.byte	0xf
 1782 09ca 42       		.byte	0x42
 1783 09cb CF090000 		.4byte	0x9cf
 1784 09cf 09       		.uleb128 0x9
 1785 09d0 04       		.byte	0x4
 1786 09d1 D5090000 		.4byte	0x9d5
 1787 09d5 0B       		.uleb128 0xb
 1788 09d6 E0090000 		.4byte	0x9e0
 1789 09da 0C       		.uleb128 0xc
 1790 09db E0090000 		.4byte	0x9e0
 1791 09df 00       		.byte	0
 1792 09e0 09       		.uleb128 0x9
 1793 09e1 04       		.byte	0x4
 1794 09e2 4C090000 		.4byte	0x94c
 1795 09e6 0F       		.uleb128 0xf
 1796 09e7 2C000000 		.4byte	0x2c
 1797 09eb 09       		.uleb128 0x9
 1798 09ec 04       		.byte	0x4
 1799 09ed AD000000 		.4byte	0xad
 1800 09f1 03       		.uleb128 0x3
 1801 09f2 620A0000 		.4byte	.LASF154
 1802 09f6 0F       		.byte	0xf
 1803 09f7 64       		.byte	0x64
 1804 09f8 4C090000 		.4byte	0x94c
 1805 09fc 03       		.uleb128 0x3
 1806 09fd D00A0000 		.4byte	.LASF155
 1807 0a01 0F       		.byte	0xf
 1808 0a02 71       		.byte	0x71
 1809 0a03 4C090000 		.4byte	0x94c
 1810 0a07 19       		.uleb128 0x19
 1811 0a08 2C000000 		.4byte	0x2c
 1812 0a0c 200A0000 		.4byte	0xa20
 1813 0a10 0C       		.uleb128 0xc
 1814 0a11 49030000 		.4byte	0x349
 1815 0a15 0C       		.uleb128 0xc
 1816 0a16 200A0000 		.4byte	0xa20
 1817 0a1a 0C       		.uleb128 0xc
 1818 0a1b 2C000000 		.4byte	0x2c
 1819 0a1f 00       		.byte	0
 1820 0a20 09       		.uleb128 0x9
 1821 0a21 04       		.byte	0x4
 1822 0a22 260A0000 		.4byte	0xa26
 1823 0a26 16       		.uleb128 0x16
ARM GAS  /tmp/ccrAgNC8.s 			page 33


 1824 0a27 AD000000 		.4byte	0xad
 1825 0a2b 09       		.uleb128 0x9
 1826 0a2c 04       		.byte	0x4
 1827 0a2d 070A0000 		.4byte	0xa07
 1828 0a31 19       		.uleb128 0x19
 1829 0a32 2C000000 		.4byte	0x2c
 1830 0a36 4A0A0000 		.4byte	0xa4a
 1831 0a3a 0C       		.uleb128 0xc
 1832 0a3b 49030000 		.4byte	0x349
 1833 0a3f 0C       		.uleb128 0xc
 1834 0a40 EB090000 		.4byte	0x9eb
 1835 0a44 0C       		.uleb128 0xc
 1836 0a45 2C000000 		.4byte	0x2c
 1837 0a49 00       		.byte	0
 1838 0a4a 09       		.uleb128 0x9
 1839 0a4b 04       		.byte	0x4
 1840 0a4c 310A0000 		.4byte	0xa31
 1841 0a50 19       		.uleb128 0x19
 1842 0a51 26010000 		.4byte	0x126
 1843 0a55 640A0000 		.4byte	0xa64
 1844 0a59 0C       		.uleb128 0xc
 1845 0a5a 49030000 		.4byte	0x349
 1846 0a5e 0C       		.uleb128 0xc
 1847 0a5f AD000000 		.4byte	0xad
 1848 0a63 00       		.byte	0
 1849 0a64 09       		.uleb128 0x9
 1850 0a65 04       		.byte	0x4
 1851 0a66 500A0000 		.4byte	0xa50
 1852 0a6a 19       		.uleb128 0x19
 1853 0a6b 26010000 		.4byte	0x126
 1854 0a6f 790A0000 		.4byte	0xa79
 1855 0a73 0C       		.uleb128 0xc
 1856 0a74 49030000 		.4byte	0x349
 1857 0a78 00       		.byte	0
 1858 0a79 09       		.uleb128 0x9
 1859 0a7a 04       		.byte	0x4
 1860 0a7b 6A0A0000 		.4byte	0xa6a
 1861 0a7f 12       		.uleb128 0x12
 1862 0a80 0C       		.byte	0xc
 1863 0a81 10       		.byte	0x10
 1864 0a82 6D01     		.2byte	0x16d
 1865 0a84 CA0A0000 		.4byte	0xaca
 1866 0a88 08       		.uleb128 0x8
 1867 0a89 81030000 		.4byte	.LASF156
 1868 0a8d 10       		.byte	0x10
 1869 0a8e 6E01     		.2byte	0x16e
 1870 0a90 CA0A0000 		.4byte	0xaca
 1871 0a94 00       		.byte	0
 1872 0a95 08       		.uleb128 0x8
 1873 0a96 3F0B0000 		.4byte	.LASF157
 1874 0a9a 10       		.byte	0x10
 1875 0a9b 6F01     		.2byte	0x16f
 1876 0a9d D00A0000 		.4byte	0xad0
 1877 0aa1 04       		.byte	0x4
 1878 0aa2 08       		.uleb128 0x8
 1879 0aa3 F1020000 		.4byte	.LASF158
 1880 0aa7 10       		.byte	0x10
ARM GAS  /tmp/ccrAgNC8.s 			page 34


 1881 0aa8 7001     		.2byte	0x170
 1882 0aaa AD000000 		.4byte	0xad
 1883 0aae 08       		.byte	0x8
 1884 0aaf 08       		.uleb128 0x8
 1885 0ab0 05080000 		.4byte	.LASF159
 1886 0ab4 10       		.byte	0x10
 1887 0ab5 7201     		.2byte	0x172
 1888 0ab7 AD000000 		.4byte	0xad
 1889 0abb 09       		.byte	0x9
 1890 0abc 08       		.uleb128 0x8
 1891 0abd A3080000 		.4byte	.LASF160
 1892 0ac1 10       		.byte	0x10
 1893 0ac2 7301     		.2byte	0x173
 1894 0ac4 AD000000 		.4byte	0xad
 1895 0ac8 0A       		.byte	0xa
 1896 0ac9 00       		.byte	0
 1897 0aca 09       		.uleb128 0x9
 1898 0acb 04       		.byte	0x4
 1899 0acc E4050000 		.4byte	0x5e4
 1900 0ad0 09       		.uleb128 0x9
 1901 0ad1 04       		.byte	0x4
 1902 0ad2 86040000 		.4byte	0x486
 1903 0ad6 13       		.uleb128 0x13
 1904 0ad7 05000000 		.4byte	.LASF161
 1905 0adb 10       		.byte	0x10
 1906 0adc 7401     		.2byte	0x174
 1907 0ade 7F0A0000 		.4byte	0xa7f
 1908 0ae2 19       		.uleb128 0x19
 1909 0ae3 26010000 		.4byte	0x126
 1910 0ae7 FB0A0000 		.4byte	0xafb
 1911 0aeb 0C       		.uleb128 0xc
 1912 0aec 49030000 		.4byte	0x349
 1913 0af0 0C       		.uleb128 0xc
 1914 0af1 AD000000 		.4byte	0xad
 1915 0af5 0C       		.uleb128 0xc
 1916 0af6 52010000 		.4byte	0x152
 1917 0afa 00       		.byte	0
 1918 0afb 09       		.uleb128 0x9
 1919 0afc 04       		.byte	0x4
 1920 0afd E20A0000 		.4byte	0xae2
 1921 0b01 19       		.uleb128 0x19
 1922 0b02 26010000 		.4byte	0x126
 1923 0b06 150B0000 		.4byte	0xb15
 1924 0b0a 0C       		.uleb128 0xc
 1925 0b0b 49030000 		.4byte	0x349
 1926 0b0f 0C       		.uleb128 0xc
 1927 0b10 52010000 		.4byte	0x152
 1928 0b14 00       		.byte	0
 1929 0b15 09       		.uleb128 0x9
 1930 0b16 04       		.byte	0x4
 1931 0b17 010B0000 		.4byte	0xb01
 1932 0b1b 19       		.uleb128 0x19
 1933 0b1c 2C000000 		.4byte	0x2c
 1934 0b20 390B0000 		.4byte	0xb39
 1935 0b24 0C       		.uleb128 0xc
 1936 0b25 49030000 		.4byte	0x349
 1937 0b29 0C       		.uleb128 0xc
ARM GAS  /tmp/ccrAgNC8.s 			page 35


 1938 0b2a 200A0000 		.4byte	0xa20
 1939 0b2e 0C       		.uleb128 0xc
 1940 0b2f 2C000000 		.4byte	0x2c
 1941 0b33 0C       		.uleb128 0xc
 1942 0b34 52010000 		.4byte	0x152
 1943 0b38 00       		.byte	0
 1944 0b39 09       		.uleb128 0x9
 1945 0b3a 04       		.byte	0x4
 1946 0b3b 1B0B0000 		.4byte	0xb1b
 1947 0b3f 19       		.uleb128 0x19
 1948 0b40 2C000000 		.4byte	0x2c
 1949 0b44 5D0B0000 		.4byte	0xb5d
 1950 0b48 0C       		.uleb128 0xc
 1951 0b49 49030000 		.4byte	0x349
 1952 0b4d 0C       		.uleb128 0xc
 1953 0b4e EB090000 		.4byte	0x9eb
 1954 0b52 0C       		.uleb128 0xc
 1955 0b53 2C000000 		.4byte	0x2c
 1956 0b57 0C       		.uleb128 0xc
 1957 0b58 52010000 		.4byte	0x152
 1958 0b5c 00       		.byte	0
 1959 0b5d 09       		.uleb128 0x9
 1960 0b5e 04       		.byte	0x4
 1961 0b5f 3F0B0000 		.4byte	0xb3f
 1962 0b63 04       		.uleb128 0x4
 1963 0b64 01       		.byte	0x1
 1964 0b65 02       		.byte	0x2
 1965 0b66 C9020000 		.4byte	.LASF162
 1966 0b6a 10       		.uleb128 0x10
 1967 0b6b 04       		.byte	0x4
 1968 0b6c 11       		.byte	0x11
 1969 0b6d E7       		.byte	0xe7
 1970 0b6e 8B0B0000 		.4byte	0xb8b
 1971 0b72 11       		.uleb128 0x11
 1972 0b73 73657400 		.ascii	"set\000"
 1973 0b77 11       		.byte	0x11
 1974 0b78 E8       		.byte	0xe8
 1975 0b79 B8000000 		.4byte	0xb8
 1976 0b7d 00       		.byte	0
 1977 0b7e 06       		.uleb128 0x6
 1978 0b7f 04040000 		.4byte	.LASF163
 1979 0b83 11       		.byte	0x11
 1980 0b84 E9       		.byte	0xe9
 1981 0b85 B8000000 		.4byte	0xb8
 1982 0b89 02       		.byte	0x2
 1983 0b8a 00       		.byte	0
 1984 0b8b 14       		.uleb128 0x14
 1985 0b8c 04       		.byte	0x4
 1986 0b8d 11       		.byte	0x11
 1987 0b8e E5       		.byte	0xe5
 1988 0b8f A60B0000 		.4byte	0xba6
 1989 0b93 1A       		.uleb128 0x1a
 1990 0b94 5700     		.ascii	"W\000"
 1991 0b96 11       		.byte	0x11
 1992 0b97 E6       		.byte	0xe6
 1993 0b98 CE000000 		.4byte	0xce
 1994 0b9c 1A       		.uleb128 0x1a
ARM GAS  /tmp/ccrAgNC8.s 			page 36


 1995 0b9d 4800     		.ascii	"H\000"
 1996 0b9f 11       		.byte	0x11
 1997 0ba0 EA       		.byte	0xea
 1998 0ba1 6A0B0000 		.4byte	0xb6a
 1999 0ba5 00       		.byte	0
 2000 0ba6 10       		.uleb128 0x10
 2001 0ba7 2C       		.byte	0x2c
 2002 0ba8 11       		.byte	0x11
 2003 0ba9 DD       		.byte	0xdd
 2004 0baa 330C0000 		.4byte	0xc33
 2005 0bae 06       		.uleb128 0x6
 2006 0baf C8060000 		.4byte	.LASF164
 2007 0bb3 11       		.byte	0x11
 2008 0bb4 DF       		.byte	0xdf
 2009 0bb5 86040000 		.4byte	0x486
 2010 0bb9 00       		.byte	0
 2011 0bba 06       		.uleb128 0x6
 2012 0bbb 02090000 		.4byte	.LASF165
 2013 0bbf 11       		.byte	0x11
 2014 0bc0 E0       		.byte	0xe0
 2015 0bc1 86040000 		.4byte	0x486
 2016 0bc5 04       		.byte	0x4
 2017 0bc6 06       		.uleb128 0x6
 2018 0bc7 16050000 		.4byte	.LASF166
 2019 0bcb 11       		.byte	0x11
 2020 0bcc E1       		.byte	0xe1
 2021 0bcd 86040000 		.4byte	0x486
 2022 0bd1 08       		.byte	0x8
 2023 0bd2 06       		.uleb128 0x6
 2024 0bd3 72010000 		.4byte	.LASF167
 2025 0bd7 11       		.byte	0x11
 2026 0bd8 E2       		.byte	0xe2
 2027 0bd9 86040000 		.4byte	0x486
 2028 0bdd 0C       		.byte	0xc
 2029 0bde 11       		.uleb128 0x11
 2030 0bdf 49445200 		.ascii	"IDR\000"
 2031 0be3 11       		.byte	0x11
 2032 0be4 E3       		.byte	0xe3
 2033 0be5 86040000 		.4byte	0x486
 2034 0be9 10       		.byte	0x10
 2035 0bea 11       		.uleb128 0x11
 2036 0beb 4F445200 		.ascii	"ODR\000"
 2037 0bef 11       		.byte	0x11
 2038 0bf0 E4       		.byte	0xe4
 2039 0bf1 86040000 		.4byte	0x486
 2040 0bf5 14       		.byte	0x14
 2041 0bf6 06       		.uleb128 0x6
 2042 0bf7 F5090000 		.4byte	.LASF168
 2043 0bfb 11       		.byte	0x11
 2044 0bfc EB       		.byte	0xeb
 2045 0bfd 330C0000 		.4byte	0xc33
 2046 0c01 18       		.byte	0x18
 2047 0c02 06       		.uleb128 0x6
 2048 0c03 CD040000 		.4byte	.LASF169
 2049 0c07 11       		.byte	0x11
 2050 0c08 EC       		.byte	0xec
 2051 0c09 86040000 		.4byte	0x486
ARM GAS  /tmp/ccrAgNC8.s 			page 37


 2052 0c0d 1C       		.byte	0x1c
 2053 0c0e 06       		.uleb128 0x6
 2054 0c0f 9E080000 		.4byte	.LASF170
 2055 0c13 11       		.byte	0x11
 2056 0c14 ED       		.byte	0xed
 2057 0c15 86040000 		.4byte	0x486
 2058 0c19 20       		.byte	0x20
 2059 0c1a 06       		.uleb128 0x6
 2060 0c1b 99080000 		.4byte	.LASF171
 2061 0c1f 11       		.byte	0x11
 2062 0c20 EE       		.byte	0xee
 2063 0c21 86040000 		.4byte	0x486
 2064 0c25 24       		.byte	0x24
 2065 0c26 11       		.uleb128 0x11
 2066 0c27 42525200 		.ascii	"BRR\000"
 2067 0c2b 11       		.byte	0x11
 2068 0c2c EF       		.byte	0xef
 2069 0c2d 86040000 		.4byte	0x486
 2070 0c31 28       		.byte	0x28
 2071 0c32 00       		.byte	0
 2072 0c33 0F       		.uleb128 0xf
 2073 0c34 8B0B0000 		.4byte	0xb8b
 2074 0c38 03       		.uleb128 0x3
 2075 0c39 7C020000 		.4byte	.LASF172
 2076 0c3d 11       		.byte	0x11
 2077 0c3e F0       		.byte	0xf0
 2078 0c3f A60B0000 		.4byte	0xba6
 2079 0c43 13       		.uleb128 0x13
 2080 0c44 99030000 		.4byte	.LASF173
 2081 0c48 11       		.byte	0x11
 2082 0c49 3F01     		.2byte	0x13f
 2083 0c4b CE000000 		.4byte	0xce
 2084 0c4f 13       		.uleb128 0x13
 2085 0c50 0B010000 		.4byte	.LASF174
 2086 0c54 11       		.byte	0x11
 2087 0c55 4401     		.2byte	0x144
 2088 0c57 CE000000 		.4byte	0xce
 2089 0c5b 13       		.uleb128 0x13
 2090 0c5c D4010000 		.4byte	.LASF175
 2091 0c60 11       		.byte	0x11
 2092 0c61 5101     		.2byte	0x151
 2093 0c63 670C0000 		.4byte	0xc67
 2094 0c67 09       		.uleb128 0x9
 2095 0c68 04       		.byte	0x4
 2096 0c69 380C0000 		.4byte	0xc38
 2097 0c6d 1B       		.uleb128 0x1b
 2098 0c6e 01       		.byte	0x1
 2099 0c6f 12       		.byte	0x12
 2100 0c70 46       		.byte	0x46
 2101 0c71 9A0C0000 		.4byte	0xc9a
 2102 0c75 1C       		.uleb128 0x1c
 2103 0c76 A40A0000 		.4byte	.LASF176
 2104 0c7a 00       		.sleb128 0
 2105 0c7b 1C       		.uleb128 0x1c
 2106 0c7c 31090000 		.4byte	.LASF177
 2107 0c80 01       		.sleb128 1
 2108 0c81 1C       		.uleb128 0x1c
ARM GAS  /tmp/ccrAgNC8.s 			page 38


 2109 0c82 BF020000 		.4byte	.LASF178
 2110 0c86 02       		.sleb128 2
 2111 0c87 1C       		.uleb128 0x1c
 2112 0c88 C0070000 		.4byte	.LASF179
 2113 0c8c 03       		.sleb128 3
 2114 0c8d 1C       		.uleb128 0x1c
 2115 0c8e ED040000 		.4byte	.LASF180
 2116 0c92 04       		.sleb128 4
 2117 0c93 1C       		.uleb128 0x1c
 2118 0c94 24030000 		.4byte	.LASF181
 2119 0c98 05       		.sleb128 5
 2120 0c99 00       		.byte	0
 2121 0c9a 03       		.uleb128 0x3
 2122 0c9b A4000000 		.4byte	.LASF182
 2123 0c9f 12       		.byte	0x12
 2124 0ca0 4D       		.byte	0x4d
 2125 0ca1 6D0C0000 		.4byte	0xc6d
 2126 0ca5 13       		.uleb128 0x13
 2127 0ca6 CF020000 		.4byte	.LASF183
 2128 0caa 13       		.byte	0x13
 2129 0cab 2E01     		.2byte	0x12e
 2130 0cad B8000000 		.4byte	0xb8
 2131 0cb1 13       		.uleb128 0x13
 2132 0cb2 1E050000 		.4byte	.LASF184
 2133 0cb6 13       		.byte	0x13
 2134 0cb7 3301     		.2byte	0x133
 2135 0cb9 B8000000 		.4byte	0xb8
 2136 0cbd 1D       		.uleb128 0x1d
 2137 0cbe 01       		.byte	0x1
 2138 0cbf 13       		.byte	0x13
 2139 0cc0 3A01     		.2byte	0x13a
 2140 0cc2 D30C0000 		.4byte	0xcd3
 2141 0cc6 1C       		.uleb128 0x1c
 2142 0cc7 6E030000 		.4byte	.LASF185
 2143 0ccb 00       		.sleb128 0
 2144 0ccc 1C       		.uleb128 0x1c
 2145 0ccd B6080000 		.4byte	.LASF186
 2146 0cd1 01       		.sleb128 1
 2147 0cd2 00       		.byte	0
 2148 0cd3 13       		.uleb128 0x13
 2149 0cd4 93020000 		.4byte	.LASF187
 2150 0cd8 13       		.byte	0x13
 2151 0cd9 3D01     		.2byte	0x13d
 2152 0cdb BD0C0000 		.4byte	0xcbd
 2153 0cdf 13       		.uleb128 0x13
 2154 0ce0 8F080000 		.4byte	.LASF188
 2155 0ce4 13       		.byte	0x13
 2156 0ce5 4201     		.2byte	0x142
 2157 0ce7 EB0C0000 		.4byte	0xceb
 2158 0ceb 0A       		.uleb128 0xa
 2159 0cec 8F080000 		.4byte	.LASF188
 2160 0cf0 34       		.byte	0x34
 2161 0cf1 13       		.byte	0x13
 2162 0cf2 A601     		.2byte	0x1a6
 2163 0cf4 7B0D0000 		.4byte	0xd7b
 2164 0cf8 08       		.uleb128 0x8
 2165 0cf9 F7000000 		.4byte	.LASF189
ARM GAS  /tmp/ccrAgNC8.s 			page 39


 2166 0cfd 13       		.byte	0x13
 2167 0cfe AA01     		.2byte	0x1aa
 2168 0d00 9A0C0000 		.4byte	0xc9a
 2169 0d04 00       		.byte	0
 2170 0d05 08       		.uleb128 0x8
 2171 0d06 F0000000 		.4byte	.LASF190
 2172 0d0a 13       		.byte	0x13
 2173 0d0b AE01     		.2byte	0x1ae
 2174 0d0d 980E0000 		.4byte	0xe98
 2175 0d11 04       		.byte	0x4
 2176 0d12 08       		.uleb128 0x8
 2177 0d13 A6030000 		.4byte	.LASF191
 2178 0d17 13       		.byte	0x13
 2179 0d18 B201     		.2byte	0x1b2
 2180 0d1a A80D0000 		.4byte	0xda8
 2181 0d1e 08       		.byte	0x8
 2182 0d1f 08       		.uleb128 0x8
 2183 0d20 4C030000 		.4byte	.LASF192
 2184 0d24 13       		.byte	0x13
 2185 0d25 B601     		.2byte	0x1b6
 2186 0d27 2C000000 		.4byte	0x2c
 2187 0d2b 0C       		.byte	0xc
 2188 0d2c 08       		.uleb128 0x8
 2189 0d2d 4E090000 		.4byte	.LASF193
 2190 0d31 13       		.byte	0x13
 2191 0d32 BA01     		.2byte	0x1ba
 2192 0d34 A30E0000 		.4byte	0xea3
 2193 0d38 10       		.byte	0x10
 2194 0d39 08       		.uleb128 0x8
 2195 0d3a 6C090000 		.4byte	.LASF194
 2196 0d3e 13       		.byte	0x13
 2197 0d3f BF01     		.2byte	0x1bf
 2198 0d41 61020000 		.4byte	0x261
 2199 0d45 14       		.byte	0x14
 2200 0d46 08       		.uleb128 0x8
 2201 0d47 7E060000 		.4byte	.LASF195
 2202 0d4b 13       		.byte	0x13
 2203 0d4c C501     		.2byte	0x1c5
 2204 0d4e BD080000 		.4byte	0x8bd
 2205 0d52 18       		.byte	0x18
 2206 0d53 07       		.uleb128 0x7
 2207 0d54 61646300 		.ascii	"adc\000"
 2208 0d58 13       		.byte	0x13
 2209 0d59 CE01     		.2byte	0x1ce
 2210 0d5b AE0E0000 		.4byte	0xeae
 2211 0d5f 28       		.byte	0x28
 2212 0d60 08       		.uleb128 0x8
 2213 0d61 4E040000 		.4byte	.LASF196
 2214 0d65 13       		.byte	0x13
 2215 0d66 D201     		.2byte	0x1d2
 2216 0d68 B40E0000 		.4byte	0xeb4
 2217 0d6c 2C       		.byte	0x2c
 2218 0d6d 08       		.uleb128 0x8
 2219 0d6e 9B060000 		.4byte	.LASF197
 2220 0d72 13       		.byte	0x13
 2221 0d73 D601     		.2byte	0x1d6
 2222 0d75 CE000000 		.4byte	0xce
ARM GAS  /tmp/ccrAgNC8.s 			page 40


 2223 0d79 30       		.byte	0x30
 2224 0d7a 00       		.byte	0
 2225 0d7b 13       		.uleb128 0x13
 2226 0d7c 51000000 		.4byte	.LASF198
 2227 0d80 13       		.byte	0x13
 2228 0d81 4C01     		.2byte	0x14c
 2229 0d83 870D0000 		.4byte	0xd87
 2230 0d87 09       		.uleb128 0x9
 2231 0d88 04       		.byte	0x4
 2232 0d89 8D0D0000 		.4byte	0xd8d
 2233 0d8d 0B       		.uleb128 0xb
 2234 0d8e A20D0000 		.4byte	0xda2
 2235 0d92 0C       		.uleb128 0xc
 2236 0d93 A20D0000 		.4byte	0xda2
 2237 0d97 0C       		.uleb128 0xc
 2238 0d98 A80D0000 		.4byte	0xda8
 2239 0d9c 0C       		.uleb128 0xc
 2240 0d9d 2C000000 		.4byte	0x2c
 2241 0da1 00       		.byte	0
 2242 0da2 09       		.uleb128 0x9
 2243 0da3 04       		.byte	0x4
 2244 0da4 DF0C0000 		.4byte	0xcdf
 2245 0da8 09       		.uleb128 0x9
 2246 0da9 04       		.byte	0x4
 2247 0daa A50C0000 		.4byte	0xca5
 2248 0dae 13       		.uleb128 0x13
 2249 0daf 2F060000 		.4byte	.LASF199
 2250 0db3 13       		.byte	0x13
 2251 0db4 5501     		.2byte	0x155
 2252 0db6 BA0D0000 		.4byte	0xdba
 2253 0dba 09       		.uleb128 0x9
 2254 0dbb 04       		.byte	0x4
 2255 0dbc C00D0000 		.4byte	0xdc0
 2256 0dc0 0B       		.uleb128 0xb
 2257 0dc1 D00D0000 		.4byte	0xdd0
 2258 0dc5 0C       		.uleb128 0xc
 2259 0dc6 A20D0000 		.4byte	0xda2
 2260 0dca 0C       		.uleb128 0xc
 2261 0dcb D30C0000 		.4byte	0xcd3
 2262 0dcf 00       		.byte	0
 2263 0dd0 12       		.uleb128 0x12
 2264 0dd1 28       		.byte	0x28
 2265 0dd2 13       		.byte	0x13
 2266 0dd3 5F01     		.2byte	0x15f
 2267 0dd5 690E0000 		.4byte	0xe69
 2268 0dd9 08       		.uleb128 0x8
 2269 0dda 57030000 		.4byte	.LASF200
 2270 0dde 13       		.byte	0x13
 2271 0ddf 6301     		.2byte	0x163
 2272 0de1 630B0000 		.4byte	0xb63
 2273 0de5 00       		.byte	0
 2274 0de6 08       		.uleb128 0x8
 2275 0de7 18070000 		.4byte	.LASF201
 2276 0deb 13       		.byte	0x13
 2277 0dec 6701     		.2byte	0x167
 2278 0dee B10C0000 		.4byte	0xcb1
 2279 0df2 02       		.byte	0x2
ARM GAS  /tmp/ccrAgNC8.s 			page 41


 2280 0df3 08       		.uleb128 0x8
 2281 0df4 41010000 		.4byte	.LASF202
 2282 0df8 13       		.byte	0x13
 2283 0df9 6B01     		.2byte	0x16b
 2284 0dfb 7B0D0000 		.4byte	0xd7b
 2285 0dff 04       		.byte	0x4
 2286 0e00 08       		.uleb128 0x8
 2287 0e01 02010000 		.4byte	.LASF203
 2288 0e05 13       		.byte	0x13
 2289 0e06 6F01     		.2byte	0x16f
 2290 0e08 AE0D0000 		.4byte	0xdae
 2291 0e0c 08       		.byte	0x8
 2292 0e0d 07       		.uleb128 0x7
 2293 0e0e 63723100 		.ascii	"cr1\000"
 2294 0e12 13       		.byte	0x13
 2295 0e13 7601     		.2byte	0x176
 2296 0e15 CE000000 		.4byte	0xce
 2297 0e19 0C       		.byte	0xc
 2298 0e1a 07       		.uleb128 0x7
 2299 0e1b 63723200 		.ascii	"cr2\000"
 2300 0e1f 13       		.byte	0x13
 2301 0e20 7D01     		.2byte	0x17d
 2302 0e22 CE000000 		.4byte	0xce
 2303 0e26 10       		.byte	0x10
 2304 0e27 08       		.uleb128 0x8
 2305 0e28 0A050000 		.4byte	.LASF204
 2306 0e2c 13       		.byte	0x13
 2307 0e2d 8301     		.2byte	0x183
 2308 0e2f CE000000 		.4byte	0xce
 2309 0e33 14       		.byte	0x14
 2310 0e34 08       		.uleb128 0x8
 2311 0e35 10050000 		.4byte	.LASF205
 2312 0e39 13       		.byte	0x13
 2313 0e3a 8901     		.2byte	0x189
 2314 0e3c CE000000 		.4byte	0xce
 2315 0e40 18       		.byte	0x18
 2316 0e41 08       		.uleb128 0x8
 2317 0e42 1F000000 		.4byte	.LASF206
 2318 0e46 13       		.byte	0x13
 2319 0e47 8E01     		.2byte	0x18e
 2320 0e49 CE000000 		.4byte	0xce
 2321 0e4d 1C       		.byte	0x1c
 2322 0e4e 08       		.uleb128 0x8
 2323 0e4f 24000000 		.4byte	.LASF207
 2324 0e53 13       		.byte	0x13
 2325 0e54 9301     		.2byte	0x193
 2326 0e56 CE000000 		.4byte	0xce
 2327 0e5a 20       		.byte	0x20
 2328 0e5b 08       		.uleb128 0x8
 2329 0e5c 52030000 		.4byte	.LASF208
 2330 0e60 13       		.byte	0x13
 2331 0e61 9801     		.2byte	0x198
 2332 0e63 CE000000 		.4byte	0xce
 2333 0e67 24       		.byte	0x24
 2334 0e68 00       		.byte	0
 2335 0e69 13       		.uleb128 0x13
 2336 0e6a DA040000 		.4byte	.LASF209
ARM GAS  /tmp/ccrAgNC8.s 			page 42


 2337 0e6e 13       		.byte	0x13
 2338 0e6f 9901     		.2byte	0x199
 2339 0e71 D00D0000 		.4byte	0xdd0
 2340 0e75 12       		.uleb128 0x12
 2341 0e76 04       		.byte	0x4
 2342 0e77 13       		.byte	0x13
 2343 0e78 9F01     		.2byte	0x19f
 2344 0e7a 8C0E0000 		.4byte	0xe8c
 2345 0e7e 08       		.uleb128 0x8
 2346 0e7f 2B090000 		.4byte	.LASF210
 2347 0e83 13       		.byte	0x13
 2348 0e84 A001     		.2byte	0x1a0
 2349 0e86 CE000000 		.4byte	0xce
 2350 0e8a 00       		.byte	0
 2351 0e8b 00       		.byte	0
 2352 0e8c 13       		.uleb128 0x13
 2353 0e8d 910B0000 		.4byte	.LASF211
 2354 0e91 13       		.byte	0x13
 2355 0e92 A101     		.2byte	0x1a1
 2356 0e94 750E0000 		.4byte	0xe75
 2357 0e98 09       		.uleb128 0x9
 2358 0e99 04       		.byte	0x4
 2359 0e9a 9E0E0000 		.4byte	0xe9e
 2360 0e9e 16       		.uleb128 0x16
 2361 0e9f 8C0E0000 		.4byte	0xe8c
 2362 0ea3 09       		.uleb128 0x9
 2363 0ea4 04       		.byte	0x4
 2364 0ea5 A90E0000 		.4byte	0xea9
 2365 0ea9 16       		.uleb128 0x16
 2366 0eaa 690E0000 		.4byte	0xe69
 2367 0eae 09       		.uleb128 0x9
 2368 0eaf 04       		.byte	0x4
 2369 0eb0 82050000 		.4byte	0x582
 2370 0eb4 09       		.uleb128 0x9
 2371 0eb5 04       		.byte	0x4
 2372 0eb6 BA0E0000 		.4byte	0xeba
 2373 0eba 16       		.uleb128 0x16
 2374 0ebb D60A0000 		.4byte	0xad6
 2375 0ebf 1B       		.uleb128 0x1b
 2376 0ec0 01       		.byte	0x1
 2377 0ec1 14       		.byte	0x14
 2378 0ec2 4C       		.byte	0x4c
 2379 0ec3 EC0E0000 		.4byte	0xeec
 2380 0ec7 1C       		.uleb128 0x1c
 2381 0ec8 50050000 		.4byte	.LASF212
 2382 0ecc 00       		.sleb128 0
 2383 0ecd 1C       		.uleb128 0x1c
 2384 0ece 5E0B0000 		.4byte	.LASF213
 2385 0ed2 01       		.sleb128 1
 2386 0ed3 1C       		.uleb128 0x1c
 2387 0ed4 45070000 		.4byte	.LASF214
 2388 0ed8 02       		.sleb128 2
 2389 0ed9 1C       		.uleb128 0x1c
 2390 0eda 60030000 		.4byte	.LASF215
 2391 0ede 03       		.sleb128 3
 2392 0edf 1C       		.uleb128 0x1c
 2393 0ee0 C6010000 		.4byte	.LASF216
ARM GAS  /tmp/ccrAgNC8.s 			page 43


 2394 0ee4 04       		.sleb128 4
 2395 0ee5 1C       		.uleb128 0x1c
 2396 0ee6 EE030000 		.4byte	.LASF217
 2397 0eea 05       		.sleb128 5
 2398 0eeb 00       		.byte	0
 2399 0eec 03       		.uleb128 0x3
 2400 0eed 73060000 		.4byte	.LASF218
 2401 0ef1 14       		.byte	0x14
 2402 0ef2 53       		.byte	0x53
 2403 0ef3 BF0E0000 		.4byte	0xebf
 2404 0ef7 13       		.uleb128 0x13
 2405 0ef8 5B010000 		.4byte	.LASF219
 2406 0efc 15       		.byte	0x15
 2407 0efd 6A01     		.2byte	0x16a
 2408 0eff B8000000 		.4byte	0xb8
 2409 0f03 13       		.uleb128 0x13
 2410 0f04 700A0000 		.4byte	.LASF220
 2411 0f08 15       		.byte	0x15
 2412 0f09 6F01     		.2byte	0x16f
 2413 0f0b CE000000 		.4byte	0xce
 2414 0f0f 1D       		.uleb128 0x1d
 2415 0f10 01       		.byte	0x1
 2416 0f11 15       		.byte	0x15
 2417 0f12 7401     		.2byte	0x174
 2418 0f14 2B0F0000 		.4byte	0xf2b
 2419 0f18 1C       		.uleb128 0x1c
 2420 0f19 DB020000 		.4byte	.LASF221
 2421 0f1d 01       		.sleb128 1
 2422 0f1e 1C       		.uleb128 0x1c
 2423 0f1f 67080000 		.4byte	.LASF222
 2424 0f23 02       		.sleb128 2
 2425 0f24 1C       		.uleb128 0x1c
 2426 0f25 C8090000 		.4byte	.LASF223
 2427 0f29 03       		.sleb128 3
 2428 0f2a 00       		.byte	0
 2429 0f2b 13       		.uleb128 0x13
 2430 0f2c 2E080000 		.4byte	.LASF224
 2431 0f30 15       		.byte	0x15
 2432 0f31 7801     		.2byte	0x178
 2433 0f33 0F0F0000 		.4byte	0xf0f
 2434 0f37 1D       		.uleb128 0x1d
 2435 0f38 01       		.byte	0x1
 2436 0f39 15       		.byte	0x15
 2437 0f3a 7D01     		.2byte	0x17d
 2438 0f3c 530F0000 		.4byte	0xf53
 2439 0f40 1C       		.uleb128 0x1c
 2440 0f41 C7080000 		.4byte	.LASF225
 2441 0f45 01       		.sleb128 1
 2442 0f46 1C       		.uleb128 0x1c
 2443 0f47 CF000000 		.4byte	.LASF226
 2444 0f4b 02       		.sleb128 2
 2445 0f4c 1C       		.uleb128 0x1c
 2446 0f4d 81070000 		.4byte	.LASF227
 2447 0f51 03       		.sleb128 3
 2448 0f52 00       		.byte	0
 2449 0f53 13       		.uleb128 0x13
 2450 0f54 78010000 		.4byte	.LASF228
ARM GAS  /tmp/ccrAgNC8.s 			page 44


 2451 0f58 15       		.byte	0x15
 2452 0f59 8101     		.2byte	0x181
 2453 0f5b 370F0000 		.4byte	0xf37
 2454 0f5f 12       		.uleb128 0x12
 2455 0f60 0C       		.byte	0xc
 2456 0f61 15       		.byte	0x15
 2457 0f62 8601     		.2byte	0x186
 2458 0f64 900F0000 		.4byte	0xf90
 2459 0f68 08       		.uleb128 0x8
 2460 0f69 4C0A0000 		.4byte	.LASF229
 2461 0f6d 15       		.byte	0x15
 2462 0f6e 8801     		.2byte	0x188
 2463 0f70 2B0F0000 		.4byte	0xf2b
 2464 0f74 00       		.byte	0
 2465 0f75 08       		.uleb128 0x8
 2466 0f76 AF0A0000 		.4byte	.LASF230
 2467 0f7a 15       		.byte	0x15
 2468 0f7b 8901     		.2byte	0x189
 2469 0f7d CE000000 		.4byte	0xce
 2470 0f81 04       		.byte	0x4
 2471 0f82 08       		.uleb128 0x8
 2472 0f83 F9030000 		.4byte	.LASF231
 2473 0f87 15       		.byte	0x15
 2474 0f88 8C01     		.2byte	0x18c
 2475 0f8a 530F0000 		.4byte	0xf53
 2476 0f8e 08       		.byte	0x8
 2477 0f8f 00       		.byte	0
 2478 0f90 13       		.uleb128 0x13
 2479 0f91 D4070000 		.4byte	.LASF232
 2480 0f95 15       		.byte	0x15
 2481 0f96 8E01     		.2byte	0x18e
 2482 0f98 5F0F0000 		.4byte	0xf5f
 2483 0f9c 13       		.uleb128 0x13
 2484 0f9d 15040000 		.4byte	.LASF233
 2485 0fa1 15       		.byte	0x15
 2486 0fa2 9301     		.2byte	0x193
 2487 0fa4 A80F0000 		.4byte	0xfa8
 2488 0fa8 0A       		.uleb128 0xa
 2489 0fa9 15040000 		.4byte	.LASF233
 2490 0fad 38       		.byte	0x38
 2491 0fae 15       		.byte	0x15
 2492 0faf 9801     		.2byte	0x198
 2493 0fb1 45100000 		.4byte	0x1045
 2494 0fb5 08       		.uleb128 0x8
 2495 0fb6 F7000000 		.4byte	.LASF189
 2496 0fba 15       		.byte	0x15
 2497 0fbb 9C01     		.2byte	0x19c
 2498 0fbd EC0E0000 		.4byte	0xeec
 2499 0fc1 00       		.byte	0
 2500 0fc2 08       		.uleb128 0x8
 2501 0fc3 F0000000 		.4byte	.LASF190
 2502 0fc7 15       		.byte	0x15
 2503 0fc8 A001     		.2byte	0x1a0
 2504 0fca 45100000 		.4byte	0x1045
 2505 0fce 04       		.byte	0x4
 2506 0fcf 08       		.uleb128 0x8
 2507 0fd0 1D030000 		.4byte	.LASF234
ARM GAS  /tmp/ccrAgNC8.s 			page 45


 2508 0fd4 15       		.byte	0x15
 2509 0fd5 A401     		.2byte	0x1a4
 2510 0fd7 030F0000 		.4byte	0xf03
 2511 0fdb 08       		.byte	0x8
 2512 0fdc 08       		.uleb128 0x8
 2513 0fdd 7E060000 		.4byte	.LASF195
 2514 0fe1 15       		.byte	0x15
 2515 0fe2 A901     		.2byte	0x1a9
 2516 0fe4 BD080000 		.4byte	0x8bd
 2517 0fe8 0C       		.byte	0xc
 2518 0fe9 08       		.uleb128 0x8
 2519 0fea 6C090000 		.4byte	.LASF194
 2520 0fee 15       		.byte	0x15
 2521 0fef B201     		.2byte	0x1b2
 2522 0ff1 61020000 		.4byte	0x261
 2523 0ff5 1C       		.byte	0x1c
 2524 0ff6 08       		.uleb128 0x8
 2525 0ff7 BD060000 		.4byte	.LASF235
 2526 0ffb 15       		.byte	0x15
 2527 0ffc B601     		.2byte	0x1b6
 2528 0ffe F70E0000 		.4byte	0xef7
 2529 1002 20       		.byte	0x20
 2530 1003 08       		.uleb128 0x8
 2531 1004 91060000 		.4byte	.LASF236
 2532 1008 15       		.byte	0x15
 2533 1009 BA01     		.2byte	0x1ba
 2534 100b CE000000 		.4byte	0xce
 2535 100f 24       		.byte	0x24
 2536 1010 08       		.uleb128 0x8
 2537 1011 750B0000 		.4byte	.LASF237
 2538 1015 15       		.byte	0x15
 2539 1016 BE01     		.2byte	0x1be
 2540 1018 CE000000 		.4byte	0xce
 2541 101c 28       		.byte	0x28
 2542 101d 08       		.uleb128 0x8
 2543 101e 31050000 		.4byte	.LASF238
 2544 1022 15       		.byte	0x15
 2545 1023 C201     		.2byte	0x1c2
 2546 1025 B40E0000 		.4byte	0xeb4
 2547 1029 2C       		.byte	0x2c
 2548 102a 08       		.uleb128 0x8
 2549 102b C2060000 		.4byte	.LASF239
 2550 102f 15       		.byte	0x15
 2551 1030 C601     		.2byte	0x1c6
 2552 1032 B40E0000 		.4byte	0xeb4
 2553 1036 30       		.byte	0x30
 2554 1037 07       		.uleb128 0x7
 2555 1038 69326300 		.ascii	"i2c\000"
 2556 103c 15       		.byte	0x15
 2557 103d CA01     		.2byte	0x1ca
 2558 103f 50100000 		.4byte	0x1050
 2559 1043 34       		.byte	0x34
 2560 1044 00       		.byte	0
 2561 1045 09       		.uleb128 0x9
 2562 1046 04       		.byte	0x4
 2563 1047 4B100000 		.4byte	0x104b
 2564 104b 16       		.uleb128 0x16
ARM GAS  /tmp/ccrAgNC8.s 			page 46


 2565 104c 900F0000 		.4byte	0xf90
 2566 1050 09       		.uleb128 0x9
 2567 1051 04       		.byte	0x4
 2568 1052 7B060000 		.4byte	0x67b
 2569 1056 1B       		.uleb128 0x1b
 2570 1057 01       		.byte	0x1
 2571 1058 16       		.byte	0x16
 2572 1059 55       		.byte	0x55
 2573 105a 71100000 		.4byte	0x1071
 2574 105e 1C       		.uleb128 0x1c
 2575 105f B5020000 		.4byte	.LASF240
 2576 1063 00       		.sleb128 0
 2577 1064 1C       		.uleb128 0x1c
 2578 1065 E90A0000 		.4byte	.LASF241
 2579 1069 01       		.sleb128 1
 2580 106a 1C       		.uleb128 0x1c
 2581 106b 45090000 		.4byte	.LASF242
 2582 106f 02       		.sleb128 2
 2583 1070 00       		.byte	0
 2584 1071 03       		.uleb128 0x3
 2585 1072 DB060000 		.4byte	.LASF243
 2586 1076 16       		.byte	0x16
 2587 1077 59       		.byte	0x59
 2588 1078 56100000 		.4byte	0x1056
 2589 107c 03       		.uleb128 0x3
 2590 107d F5080000 		.4byte	.LASF244
 2591 1081 16       		.byte	0x16
 2592 1082 5E       		.byte	0x5e
 2593 1083 87100000 		.4byte	0x1087
 2594 1087 05       		.uleb128 0x5
 2595 1088 F5080000 		.4byte	.LASF244
 2596 108c 78       		.byte	0x78
 2597 108d 16       		.byte	0x16
 2598 108e 78       		.byte	0x78
 2599 108f F2100000 		.4byte	0x10f2
 2600 1093 11       		.uleb128 0x11
 2601 1094 766D7400 		.ascii	"vmt\000"
 2602 1098 16       		.byte	0x16
 2603 1099 7A       		.byte	0x7a
 2604 109a A9110000 		.4byte	0x11a9
 2605 109e 00       		.byte	0
 2606 109f 06       		.uleb128 0x6
 2607 10a0 B7060000 		.4byte	.LASF245
 2608 10a4 16       		.byte	0x16
 2609 10a5 7B       		.byte	0x7b
 2610 10a6 41090000 		.4byte	0x941
 2611 10aa 04       		.byte	0x4
 2612 10ab 06       		.uleb128 0x6
 2613 10ac F7000000 		.4byte	.LASF189
 2614 10b0 16       		.byte	0x16
 2615 10b1 7B       		.byte	0x7b
 2616 10b2 71100000 		.4byte	0x1071
 2617 10b6 08       		.byte	0x8
 2618 10b7 06       		.uleb128 0x6
 2619 10b8 E7070000 		.4byte	.LASF246
 2620 10bc 16       		.byte	0x16
 2621 10bd 7B       		.byte	0x7b
ARM GAS  /tmp/ccrAgNC8.s 			page 47


 2622 10be F1090000 		.4byte	0x9f1
 2623 10c2 0C       		.byte	0xc
 2624 10c3 06       		.uleb128 0x6
 2625 10c4 02020000 		.4byte	.LASF247
 2626 10c8 16       		.byte	0x16
 2627 10c9 7B       		.byte	0x7b
 2628 10ca FC090000 		.4byte	0x9fc
 2629 10ce 30       		.byte	0x30
 2630 10cf 11       		.uleb128 0x11
 2631 10d0 696200   		.ascii	"ib\000"
 2632 10d3 16       		.byte	0x16
 2633 10d4 7B       		.byte	0x7b
 2634 10d5 B4110000 		.4byte	0x11b4
 2635 10d9 54       		.byte	0x54
 2636 10da 11       		.uleb128 0x11
 2637 10db 6F6200   		.ascii	"ob\000"
 2638 10de 16       		.byte	0x16
 2639 10df 7B       		.byte	0x7b
 2640 10e0 B4110000 		.4byte	0x11b4
 2641 10e4 64       		.byte	0x64
 2642 10e5 06       		.uleb128 0x6
 2643 10e6 22020000 		.4byte	.LASF248
 2644 10ea 16       		.byte	0x16
 2645 10eb 7B       		.byte	0x7b
 2646 10ec C4110000 		.4byte	0x11c4
 2647 10f0 74       		.byte	0x74
 2648 10f1 00       		.byte	0
 2649 10f2 12       		.uleb128 0x12
 2650 10f3 0C       		.byte	0xc
 2651 10f4 17       		.byte	0x17
 2652 10f5 0A01     		.2byte	0x10a
 2653 10f7 30110000 		.4byte	0x1130
 2654 10fb 08       		.uleb128 0x8
 2655 10fc C8030000 		.4byte	.LASF249
 2656 1100 17       		.byte	0x17
 2657 1101 0E01     		.2byte	0x10e
 2658 1103 CE000000 		.4byte	0xce
 2659 1107 00       		.byte	0
 2660 1108 07       		.uleb128 0x7
 2661 1109 63723100 		.ascii	"cr1\000"
 2662 110d 17       		.byte	0x17
 2663 110e 1301     		.2byte	0x113
 2664 1110 B8000000 		.4byte	0xb8
 2665 1114 04       		.byte	0x4
 2666 1115 07       		.uleb128 0x7
 2667 1116 63723200 		.ascii	"cr2\000"
 2668 111a 17       		.byte	0x17
 2669 111b 1701     		.2byte	0x117
 2670 111d B8000000 		.4byte	0xb8
 2671 1121 06       		.byte	0x6
 2672 1122 07       		.uleb128 0x7
 2673 1123 63723300 		.ascii	"cr3\000"
 2674 1127 17       		.byte	0x17
 2675 1128 1B01     		.2byte	0x11b
 2676 112a B8000000 		.4byte	0xb8
 2677 112e 08       		.byte	0x8
 2678 112f 00       		.byte	0
ARM GAS  /tmp/ccrAgNC8.s 			page 48


 2679 1130 13       		.uleb128 0x13
 2680 1131 97000000 		.4byte	.LASF250
 2681 1135 17       		.byte	0x17
 2682 1136 1C01     		.2byte	0x11c
 2683 1138 F2100000 		.4byte	0x10f2
 2684 113c 05       		.uleb128 0x5
 2685 113d 5E060000 		.4byte	.LASF251
 2686 1141 20       		.byte	0x20
 2687 1142 16       		.byte	0x16
 2688 1143 6D       		.byte	0x6d
 2689 1144 A9110000 		.4byte	0x11a9
 2690 1148 06       		.uleb128 0x6
 2691 1149 E1000000 		.4byte	.LASF252
 2692 114d 16       		.byte	0x16
 2693 114e 6E       		.byte	0x6e
 2694 114f 2B0A0000 		.4byte	0xa2b
 2695 1153 00       		.byte	0
 2696 1154 06       		.uleb128 0x6
 2697 1155 D6060000 		.4byte	.LASF253
 2698 1159 16       		.byte	0x16
 2699 115a 6E       		.byte	0x6e
 2700 115b 4A0A0000 		.4byte	0xa4a
 2701 115f 04       		.byte	0x4
 2702 1160 11       		.uleb128 0x11
 2703 1161 70757400 		.ascii	"put\000"
 2704 1165 16       		.byte	0x16
 2705 1166 6E       		.byte	0x6e
 2706 1167 640A0000 		.4byte	0xa64
 2707 116b 08       		.byte	0x8
 2708 116c 11       		.uleb128 0x11
 2709 116d 67657400 		.ascii	"get\000"
 2710 1171 16       		.byte	0x16
 2711 1172 6E       		.byte	0x6e
 2712 1173 790A0000 		.4byte	0xa79
 2713 1177 0C       		.byte	0xc
 2714 1178 06       		.uleb128 0x6
 2715 1179 FD000000 		.4byte	.LASF254
 2716 117d 16       		.byte	0x16
 2717 117e 6E       		.byte	0x6e
 2718 117f FB0A0000 		.4byte	0xafb
 2719 1183 10       		.byte	0x10
 2720 1184 06       		.uleb128 0x6
 2721 1185 2E030000 		.4byte	.LASF255
 2722 1189 16       		.byte	0x16
 2723 118a 6E       		.byte	0x6e
 2724 118b 150B0000 		.4byte	0xb15
 2725 118f 14       		.byte	0x14
 2726 1190 06       		.uleb128 0x6
 2727 1191 46020000 		.4byte	.LASF256
 2728 1195 16       		.byte	0x16
 2729 1196 6E       		.byte	0x6e
 2730 1197 390B0000 		.4byte	0xb39
 2731 119b 18       		.byte	0x18
 2732 119c 06       		.uleb128 0x6
 2733 119d 87010000 		.4byte	.LASF257
 2734 11a1 16       		.byte	0x16
 2735 11a2 6E       		.byte	0x6e
ARM GAS  /tmp/ccrAgNC8.s 			page 49


 2736 11a3 5D0B0000 		.4byte	0xb5d
 2737 11a7 1C       		.byte	0x1c
 2738 11a8 00       		.byte	0
 2739 11a9 09       		.uleb128 0x9
 2740 11aa 04       		.byte	0x4
 2741 11ab AF110000 		.4byte	0x11af
 2742 11af 16       		.uleb128 0x16
 2743 11b0 3C110000 		.4byte	0x113c
 2744 11b4 17       		.uleb128 0x17
 2745 11b5 AD000000 		.4byte	0xad
 2746 11b9 C4110000 		.4byte	0x11c4
 2747 11bd 18       		.uleb128 0x18
 2748 11be 7F040000 		.4byte	0x47f
 2749 11c2 0F       		.byte	0xf
 2750 11c3 00       		.byte	0
 2751 11c4 09       		.uleb128 0x9
 2752 11c5 04       		.byte	0x4
 2753 11c6 EA060000 		.4byte	0x6ea
 2754 11ca 1E       		.uleb128 0x1e
 2755 11cb DE070000 		.4byte	.LASF258
 2756 11cf 01       		.byte	0x1
 2757 11d0 03       		.byte	0x3
 2758 11d1 00000000 		.4byte	.LFB207
 2759 11d5 2C020000 		.4byte	.LFE207-.LFB207
 2760 11d9 01       		.uleb128 0x1
 2761 11da 9C       		.byte	0x9c
 2762 11db 47170000 		.4byte	0x1747
 2763 11df 1F       		.uleb128 0x1f
 2764 11e0 10000000 		.4byte	.LVL0
 2765 11e4 32190000 		.4byte	0x1932
 2766 11e8 FE110000 		.4byte	0x11fe
 2767 11ec 20       		.uleb128 0x20
 2768 11ed 01       		.uleb128 0x1
 2769 11ee 52       		.byte	0x52
 2770 11ef 02       		.uleb128 0x2
 2771 11f0 08       		.byte	0x8
 2772 11f1 40       		.byte	0x40
 2773 11f2 20       		.uleb128 0x20
 2774 11f3 01       		.uleb128 0x1
 2775 11f4 51       		.byte	0x51
 2776 11f5 01       		.uleb128 0x1
 2777 11f6 34       		.byte	0x34
 2778 11f7 20       		.uleb128 0x20
 2779 11f8 01       		.uleb128 0x1
 2780 11f9 50       		.byte	0x50
 2781 11fa 02       		.uleb128 0x2
 2782 11fb 74       		.byte	0x74
 2783 11fc 00       		.sleb128 0
 2784 11fd 00       		.byte	0
 2785 11fe 1F       		.uleb128 0x1f
 2786 11ff 1A000000 		.4byte	.LVL1
 2787 1203 32190000 		.4byte	0x1932
 2788 1207 1D120000 		.4byte	0x121d
 2789 120b 20       		.uleb128 0x20
 2790 120c 01       		.uleb128 0x1
 2791 120d 52       		.byte	0x52
 2792 120e 02       		.uleb128 0x2
ARM GAS  /tmp/ccrAgNC8.s 			page 50


 2793 120f 08       		.byte	0x8
 2794 1210 40       		.byte	0x40
 2795 1211 20       		.uleb128 0x20
 2796 1212 01       		.uleb128 0x1
 2797 1213 51       		.byte	0x51
 2798 1214 01       		.uleb128 0x1
 2799 1215 38       		.byte	0x38
 2800 1216 20       		.uleb128 0x20
 2801 1217 01       		.uleb128 0x1
 2802 1218 50       		.byte	0x50
 2803 1219 02       		.uleb128 0x2
 2804 121a 74       		.byte	0x74
 2805 121b 00       		.sleb128 0
 2806 121c 00       		.byte	0
 2807 121d 1F       		.uleb128 0x1f
 2808 121e 24000000 		.4byte	.LVL2
 2809 1222 32190000 		.4byte	0x1932
 2810 1226 3C120000 		.4byte	0x123c
 2811 122a 20       		.uleb128 0x20
 2812 122b 01       		.uleb128 0x1
 2813 122c 52       		.byte	0x52
 2814 122d 02       		.uleb128 0x2
 2815 122e 08       		.byte	0x8
 2816 122f 40       		.byte	0x40
 2817 1230 20       		.uleb128 0x20
 2818 1231 01       		.uleb128 0x1
 2819 1232 51       		.byte	0x51
 2820 1233 01       		.uleb128 0x1
 2821 1234 40       		.byte	0x40
 2822 1235 20       		.uleb128 0x20
 2823 1236 01       		.uleb128 0x1
 2824 1237 50       		.byte	0x50
 2825 1238 02       		.uleb128 0x2
 2826 1239 74       		.byte	0x74
 2827 123a 00       		.sleb128 0
 2828 123b 00       		.byte	0
 2829 123c 1F       		.uleb128 0x1f
 2830 123d 2E000000 		.4byte	.LVL3
 2831 1241 32190000 		.4byte	0x1932
 2832 1245 5C120000 		.4byte	0x125c
 2833 1249 20       		.uleb128 0x20
 2834 124a 01       		.uleb128 0x1
 2835 124b 52       		.byte	0x52
 2836 124c 02       		.uleb128 0x2
 2837 124d 08       		.byte	0x8
 2838 124e 40       		.byte	0x40
 2839 124f 20       		.uleb128 0x20
 2840 1250 01       		.uleb128 0x1
 2841 1251 51       		.byte	0x51
 2842 1252 02       		.uleb128 0x2
 2843 1253 08       		.byte	0x8
 2844 1254 20       		.byte	0x20
 2845 1255 20       		.uleb128 0x20
 2846 1256 01       		.uleb128 0x1
 2847 1257 50       		.byte	0x50
 2848 1258 02       		.uleb128 0x2
 2849 1259 74       		.byte	0x74
ARM GAS  /tmp/ccrAgNC8.s 			page 51


 2850 125a 00       		.sleb128 0
 2851 125b 00       		.byte	0
 2852 125c 1F       		.uleb128 0x1f
 2853 125d 38000000 		.4byte	.LVL4
 2854 1261 32190000 		.4byte	0x1932
 2855 1265 7C120000 		.4byte	0x127c
 2856 1269 20       		.uleb128 0x20
 2857 126a 01       		.uleb128 0x1
 2858 126b 52       		.byte	0x52
 2859 126c 02       		.uleb128 0x2
 2860 126d 08       		.byte	0x8
 2861 126e 40       		.byte	0x40
 2862 126f 20       		.uleb128 0x20
 2863 1270 01       		.uleb128 0x1
 2864 1271 51       		.byte	0x51
 2865 1272 02       		.uleb128 0x2
 2866 1273 08       		.byte	0x8
 2867 1274 40       		.byte	0x40
 2868 1275 20       		.uleb128 0x20
 2869 1276 01       		.uleb128 0x1
 2870 1277 50       		.byte	0x50
 2871 1278 02       		.uleb128 0x2
 2872 1279 74       		.byte	0x74
 2873 127a 00       		.sleb128 0
 2874 127b 00       		.byte	0
 2875 127c 1F       		.uleb128 0x1f
 2876 127d 44000000 		.4byte	.LVL5
 2877 1281 32190000 		.4byte	0x1932
 2878 1285 9A120000 		.4byte	0x129a
 2879 1289 20       		.uleb128 0x20
 2880 128a 01       		.uleb128 0x1
 2881 128b 52       		.byte	0x52
 2882 128c 01       		.uleb128 0x1
 2883 128d 31       		.byte	0x31
 2884 128e 20       		.uleb128 0x20
 2885 128f 01       		.uleb128 0x1
 2886 1290 51       		.byte	0x51
 2887 1291 01       		.uleb128 0x1
 2888 1292 31       		.byte	0x31
 2889 1293 20       		.uleb128 0x20
 2890 1294 01       		.uleb128 0x1
 2891 1295 50       		.byte	0x50
 2892 1296 02       		.uleb128 0x2
 2893 1297 74       		.byte	0x74
 2894 1298 00       		.sleb128 0
 2895 1299 00       		.byte	0
 2896 129a 1F       		.uleb128 0x1f
 2897 129b 4E000000 		.4byte	.LVL6
 2898 129f 32190000 		.4byte	0x1932
 2899 12a3 B8120000 		.4byte	0x12b8
 2900 12a7 20       		.uleb128 0x20
 2901 12a8 01       		.uleb128 0x1
 2902 12a9 52       		.byte	0x52
 2903 12aa 01       		.uleb128 0x1
 2904 12ab 31       		.byte	0x31
 2905 12ac 20       		.uleb128 0x20
 2906 12ad 01       		.uleb128 0x1
ARM GAS  /tmp/ccrAgNC8.s 			page 52


 2907 12ae 51       		.byte	0x51
 2908 12af 01       		.uleb128 0x1
 2909 12b0 32       		.byte	0x32
 2910 12b1 20       		.uleb128 0x20
 2911 12b2 01       		.uleb128 0x1
 2912 12b3 50       		.byte	0x50
 2913 12b4 02       		.uleb128 0x2
 2914 12b5 74       		.byte	0x74
 2915 12b6 00       		.sleb128 0
 2916 12b7 00       		.byte	0
 2917 12b8 1F       		.uleb128 0x1f
 2918 12b9 5A000000 		.4byte	.LVL7
 2919 12bd 32190000 		.4byte	0x1932
 2920 12c1 D8120000 		.4byte	0x12d8
 2921 12c5 20       		.uleb128 0x20
 2922 12c6 01       		.uleb128 0x1
 2923 12c7 52       		.byte	0x52
 2924 12c8 01       		.uleb128 0x1
 2925 12c9 31       		.byte	0x31
 2926 12ca 20       		.uleb128 0x20
 2927 12cb 01       		.uleb128 0x1
 2928 12cc 51       		.byte	0x51
 2929 12cd 03       		.uleb128 0x3
 2930 12ce 0A       		.byte	0xa
 2931 12cf 0001     		.2byte	0x100
 2932 12d1 20       		.uleb128 0x20
 2933 12d2 01       		.uleb128 0x1
 2934 12d3 50       		.byte	0x50
 2935 12d4 02       		.uleb128 0x2
 2936 12d5 77       		.byte	0x77
 2937 12d6 00       		.sleb128 0
 2938 12d7 00       		.byte	0
 2939 12d8 1F       		.uleb128 0x1f
 2940 12d9 6A000000 		.4byte	.LVL8
 2941 12dd 32190000 		.4byte	0x1932
 2942 12e1 F8120000 		.4byte	0x12f8
 2943 12e5 20       		.uleb128 0x20
 2944 12e6 01       		.uleb128 0x1
 2945 12e7 52       		.byte	0x52
 2946 12e8 02       		.uleb128 0x2
 2947 12e9 79       		.byte	0x79
 2948 12ea 00       		.sleb128 0
 2949 12eb 20       		.uleb128 0x20
 2950 12ec 01       		.uleb128 0x1
 2951 12ed 51       		.byte	0x51
 2952 12ee 02       		.uleb128 0x2
 2953 12ef 7A       		.byte	0x7a
 2954 12f0 00       		.sleb128 0
 2955 12f1 20       		.uleb128 0x20
 2956 12f2 01       		.uleb128 0x1
 2957 12f3 50       		.byte	0x50
 2958 12f4 02       		.uleb128 0x2
 2959 12f5 77       		.byte	0x77
 2960 12f6 00       		.sleb128 0
 2961 12f7 00       		.byte	0
 2962 12f8 1F       		.uleb128 0x1f
 2963 12f9 92000000 		.4byte	.LVL9
ARM GAS  /tmp/ccrAgNC8.s 			page 53


 2964 12fd 32190000 		.4byte	0x1932
 2965 1301 19130000 		.4byte	0x1319
 2966 1305 20       		.uleb128 0x20
 2967 1306 01       		.uleb128 0x1
 2968 1307 52       		.byte	0x52
 2969 1308 03       		.uleb128 0x3
 2970 1309 0A       		.byte	0xa
 2971 130a 8203     		.2byte	0x382
 2972 130c 20       		.uleb128 0x20
 2973 130d 01       		.uleb128 0x1
 2974 130e 51       		.byte	0x51
 2975 130f 02       		.uleb128 0x2
 2976 1310 7A       		.byte	0x7a
 2977 1311 00       		.sleb128 0
 2978 1312 20       		.uleb128 0x20
 2979 1313 01       		.uleb128 0x1
 2980 1314 50       		.byte	0x50
 2981 1315 02       		.uleb128 0x2
 2982 1316 78       		.byte	0x78
 2983 1317 00       		.sleb128 0
 2984 1318 00       		.byte	0
 2985 1319 1F       		.uleb128 0x1f
 2986 131a A0000000 		.4byte	.LVL10
 2987 131e 32190000 		.4byte	0x1932
 2988 1322 3B130000 		.4byte	0x133b
 2989 1326 20       		.uleb128 0x20
 2990 1327 01       		.uleb128 0x1
 2991 1328 52       		.byte	0x52
 2992 1329 03       		.uleb128 0x3
 2993 132a 0A       		.byte	0xa
 2994 132b 8203     		.2byte	0x382
 2995 132d 20       		.uleb128 0x20
 2996 132e 01       		.uleb128 0x1
 2997 132f 51       		.byte	0x51
 2998 1330 03       		.uleb128 0x3
 2999 1331 0A       		.byte	0xa
 3000 1332 0004     		.2byte	0x400
 3001 1334 20       		.uleb128 0x20
 3002 1335 01       		.uleb128 0x1
 3003 1336 50       		.byte	0x50
 3004 1337 02       		.uleb128 0x2
 3005 1338 78       		.byte	0x78
 3006 1339 00       		.sleb128 0
 3007 133a 00       		.byte	0
 3008 133b 1F       		.uleb128 0x1f
 3009 133c AC000000 		.4byte	.LVL11
 3010 1340 32190000 		.4byte	0x1932
 3011 1344 5C130000 		.4byte	0x135c
 3012 1348 20       		.uleb128 0x20
 3013 1349 01       		.uleb128 0x1
 3014 134a 52       		.byte	0x52
 3015 134b 03       		.uleb128 0x3
 3016 134c 0A       		.byte	0xa
 3017 134d 8203     		.2byte	0x382
 3018 134f 20       		.uleb128 0x20
 3019 1350 01       		.uleb128 0x1
 3020 1351 51       		.byte	0x51
ARM GAS  /tmp/ccrAgNC8.s 			page 54


 3021 1352 02       		.uleb128 0x2
 3022 1353 08       		.byte	0x8
 3023 1354 20       		.byte	0x20
 3024 1355 20       		.uleb128 0x20
 3025 1356 01       		.uleb128 0x1
 3026 1357 50       		.byte	0x50
 3027 1358 02       		.uleb128 0x2
 3028 1359 76       		.byte	0x76
 3029 135a 00       		.sleb128 0
 3030 135b 00       		.byte	0
 3031 135c 1F       		.uleb128 0x1f
 3032 135d BA000000 		.4byte	.LVL12
 3033 1361 32190000 		.4byte	0x1932
 3034 1365 7D130000 		.4byte	0x137d
 3035 1369 20       		.uleb128 0x20
 3036 136a 01       		.uleb128 0x1
 3037 136b 52       		.byte	0x52
 3038 136c 03       		.uleb128 0x3
 3039 136d 0A       		.byte	0xa
 3040 136e 8203     		.2byte	0x382
 3041 1370 20       		.uleb128 0x20
 3042 1371 01       		.uleb128 0x1
 3043 1372 51       		.byte	0x51
 3044 1373 02       		.uleb128 0x2
 3045 1374 08       		.byte	0x8
 3046 1375 40       		.byte	0x40
 3047 1376 20       		.uleb128 0x20
 3048 1377 01       		.uleb128 0x1
 3049 1378 50       		.byte	0x50
 3050 1379 02       		.uleb128 0x2
 3051 137a 76       		.byte	0x76
 3052 137b 00       		.sleb128 0
 3053 137c 00       		.byte	0
 3054 137d 1F       		.uleb128 0x1f
 3055 137e C6000000 		.4byte	.LVL13
 3056 1382 32190000 		.4byte	0x1932
 3057 1386 9E130000 		.4byte	0x139e
 3058 138a 20       		.uleb128 0x20
 3059 138b 01       		.uleb128 0x1
 3060 138c 52       		.byte	0x52
 3061 138d 02       		.uleb128 0x2
 3062 138e 08       		.byte	0x8
 3063 138f 40       		.byte	0x40
 3064 1390 20       		.uleb128 0x20
 3065 1391 01       		.uleb128 0x1
 3066 1392 51       		.byte	0x51
 3067 1393 03       		.uleb128 0x3
 3068 1394 0A       		.byte	0xa
 3069 1395 0001     		.2byte	0x100
 3070 1397 20       		.uleb128 0x20
 3071 1398 01       		.uleb128 0x1
 3072 1399 50       		.byte	0x50
 3073 139a 02       		.uleb128 0x2
 3074 139b 76       		.byte	0x76
 3075 139c 00       		.sleb128 0
 3076 139d 00       		.byte	0
 3077 139e 1F       		.uleb128 0x1f
ARM GAS  /tmp/ccrAgNC8.s 			page 55


 3078 139f D0000000 		.4byte	.LVL14
 3079 13a3 32190000 		.4byte	0x1932
 3080 13a7 BE130000 		.4byte	0x13be
 3081 13ab 20       		.uleb128 0x20
 3082 13ac 01       		.uleb128 0x1
 3083 13ad 52       		.byte	0x52
 3084 13ae 02       		.uleb128 0x2
 3085 13af 79       		.byte	0x79
 3086 13b0 00       		.sleb128 0
 3087 13b1 20       		.uleb128 0x20
 3088 13b2 01       		.uleb128 0x1
 3089 13b3 51       		.byte	0x51
 3090 13b4 02       		.uleb128 0x2
 3091 13b5 7A       		.byte	0x7a
 3092 13b6 00       		.sleb128 0
 3093 13b7 20       		.uleb128 0x20
 3094 13b8 01       		.uleb128 0x1
 3095 13b9 50       		.byte	0x50
 3096 13ba 02       		.uleb128 0x2
 3097 13bb 76       		.byte	0x76
 3098 13bc 00       		.sleb128 0
 3099 13bd 00       		.byte	0
 3100 13be 1F       		.uleb128 0x1f
 3101 13bf DE000000 		.4byte	.LVL15
 3102 13c3 32190000 		.4byte	0x1932
 3103 13c7 E0130000 		.4byte	0x13e0
 3104 13cb 20       		.uleb128 0x20
 3105 13cc 01       		.uleb128 0x1
 3106 13cd 52       		.byte	0x52
 3107 13ce 03       		.uleb128 0x3
 3108 13cf 0A       		.byte	0xa
 3109 13d0 0204     		.2byte	0x402
 3110 13d2 20       		.uleb128 0x20
 3111 13d3 01       		.uleb128 0x1
 3112 13d4 51       		.byte	0x51
 3113 13d5 03       		.uleb128 0x3
 3114 13d6 0A       		.byte	0xa
 3115 13d7 0004     		.2byte	0x400
 3116 13d9 20       		.uleb128 0x20
 3117 13da 01       		.uleb128 0x1
 3118 13db 50       		.byte	0x50
 3119 13dc 02       		.uleb128 0x2
 3120 13dd 75       		.byte	0x75
 3121 13de 00       		.sleb128 0
 3122 13df 00       		.byte	0
 3123 13e0 1F       		.uleb128 0x1f
 3124 13e1 EC000000 		.4byte	.LVL16
 3125 13e5 32190000 		.4byte	0x1932
 3126 13e9 02140000 		.4byte	0x1402
 3127 13ed 20       		.uleb128 0x20
 3128 13ee 01       		.uleb128 0x1
 3129 13ef 52       		.byte	0x52
 3130 13f0 03       		.uleb128 0x3
 3131 13f1 0A       		.byte	0xa
 3132 13f2 0204     		.2byte	0x402
 3133 13f4 20       		.uleb128 0x20
 3134 13f5 01       		.uleb128 0x1
ARM GAS  /tmp/ccrAgNC8.s 			page 56


 3135 13f6 51       		.byte	0x51
 3136 13f7 03       		.uleb128 0x3
 3137 13f8 0A       		.byte	0xa
 3138 13f9 0008     		.2byte	0x800
 3139 13fb 20       		.uleb128 0x20
 3140 13fc 01       		.uleb128 0x1
 3141 13fd 50       		.byte	0x50
 3142 13fe 02       		.uleb128 0x2
 3143 13ff 75       		.byte	0x75
 3144 1400 00       		.sleb128 0
 3145 1401 00       		.byte	0
 3146 1402 1F       		.uleb128 0x1f
 3147 1403 F8000000 		.4byte	.LVL17
 3148 1407 32190000 		.4byte	0x1932
 3149 140b 23140000 		.4byte	0x1423
 3150 140f 20       		.uleb128 0x20
 3151 1410 01       		.uleb128 0x1
 3152 1411 52       		.byte	0x52
 3153 1412 03       		.uleb128 0x3
 3154 1413 0A       		.byte	0xa
 3155 1414 0204     		.2byte	0x402
 3156 1416 20       		.uleb128 0x20
 3157 1417 01       		.uleb128 0x1
 3158 1418 51       		.byte	0x51
 3159 1419 02       		.uleb128 0x2
 3160 141a 08       		.byte	0x8
 3161 141b 40       		.byte	0x40
 3162 141c 20       		.uleb128 0x20
 3163 141d 01       		.uleb128 0x1
 3164 141e 50       		.byte	0x50
 3165 141f 02       		.uleb128 0x2
 3166 1420 75       		.byte	0x75
 3167 1421 00       		.sleb128 0
 3168 1422 00       		.byte	0
 3169 1423 1F       		.uleb128 0x1f
 3170 1424 04010000 		.4byte	.LVL18
 3171 1428 32190000 		.4byte	0x1932
 3172 142c 44140000 		.4byte	0x1444
 3173 1430 20       		.uleb128 0x20
 3174 1431 01       		.uleb128 0x1
 3175 1432 52       		.byte	0x52
 3176 1433 03       		.uleb128 0x3
 3177 1434 0A       		.byte	0xa
 3178 1435 0204     		.2byte	0x402
 3179 1437 20       		.uleb128 0x20
 3180 1438 01       		.uleb128 0x1
 3181 1439 51       		.byte	0x51
 3182 143a 02       		.uleb128 0x2
 3183 143b 08       		.byte	0x8
 3184 143c 80       		.byte	0x80
 3185 143d 20       		.uleb128 0x20
 3186 143e 01       		.uleb128 0x1
 3187 143f 50       		.byte	0x50
 3188 1440 02       		.uleb128 0x2
 3189 1441 75       		.byte	0x75
 3190 1442 00       		.sleb128 0
 3191 1443 00       		.byte	0
ARM GAS  /tmp/ccrAgNC8.s 			page 57


 3192 1444 1F       		.uleb128 0x1f
 3193 1445 10010000 		.4byte	.LVL19
 3194 1449 32190000 		.4byte	0x1932
 3195 144d 65140000 		.4byte	0x1465
 3196 1451 20       		.uleb128 0x20
 3197 1452 01       		.uleb128 0x1
 3198 1453 52       		.byte	0x52
 3199 1454 02       		.uleb128 0x2
 3200 1455 79       		.byte	0x79
 3201 1456 00       		.sleb128 0
 3202 1457 20       		.uleb128 0x20
 3203 1458 01       		.uleb128 0x1
 3204 1459 51       		.byte	0x51
 3205 145a 03       		.uleb128 0x3
 3206 145b 0A       		.byte	0xa
 3207 145c 0010     		.2byte	0x1000
 3208 145e 20       		.uleb128 0x20
 3209 145f 01       		.uleb128 0x1
 3210 1460 50       		.byte	0x50
 3211 1461 02       		.uleb128 0x2
 3212 1462 75       		.byte	0x75
 3213 1463 00       		.sleb128 0
 3214 1464 00       		.byte	0
 3215 1465 1F       		.uleb128 0x1f
 3216 1466 1A010000 		.4byte	.LVL20
 3217 146a 32190000 		.4byte	0x1932
 3218 146e 84140000 		.4byte	0x1484
 3219 1472 20       		.uleb128 0x20
 3220 1473 01       		.uleb128 0x1
 3221 1474 52       		.byte	0x52
 3222 1475 02       		.uleb128 0x2
 3223 1476 08       		.byte	0x8
 3224 1477 40       		.byte	0x40
 3225 1478 20       		.uleb128 0x20
 3226 1479 01       		.uleb128 0x1
 3227 147a 51       		.byte	0x51
 3228 147b 01       		.uleb128 0x1
 3229 147c 34       		.byte	0x34
 3230 147d 20       		.uleb128 0x20
 3231 147e 01       		.uleb128 0x1
 3232 147f 50       		.byte	0x50
 3233 1480 02       		.uleb128 0x2
 3234 1481 76       		.byte	0x76
 3235 1482 00       		.sleb128 0
 3236 1483 00       		.byte	0
 3237 1484 1F       		.uleb128 0x1f
 3238 1485 26010000 		.4byte	.LVL21
 3239 1489 32190000 		.4byte	0x1932
 3240 148d A5140000 		.4byte	0x14a5
 3241 1491 20       		.uleb128 0x20
 3242 1492 01       		.uleb128 0x1
 3243 1493 52       		.byte	0x52
 3244 1494 02       		.uleb128 0x2
 3245 1495 08       		.byte	0x8
 3246 1496 40       		.byte	0x40
 3247 1497 20       		.uleb128 0x20
 3248 1498 01       		.uleb128 0x1
ARM GAS  /tmp/ccrAgNC8.s 			page 58


 3249 1499 51       		.byte	0x51
 3250 149a 03       		.uleb128 0x3
 3251 149b 0A       		.byte	0xa
 3252 149c 0080     		.2byte	0x8000
 3253 149e 20       		.uleb128 0x20
 3254 149f 01       		.uleb128 0x1
 3255 14a0 50       		.byte	0x50
 3256 14a1 02       		.uleb128 0x2
 3257 14a2 76       		.byte	0x76
 3258 14a3 00       		.sleb128 0
 3259 14a4 00       		.byte	0
 3260 14a5 1F       		.uleb128 0x1f
 3261 14a6 30010000 		.4byte	.LVL22
 3262 14aa 32190000 		.4byte	0x1932
 3263 14ae C4140000 		.4byte	0x14c4
 3264 14b2 20       		.uleb128 0x20
 3265 14b3 01       		.uleb128 0x1
 3266 14b4 52       		.byte	0x52
 3267 14b5 01       		.uleb128 0x1
 3268 14b6 33       		.byte	0x33
 3269 14b7 20       		.uleb128 0x20
 3270 14b8 01       		.uleb128 0x1
 3271 14b9 51       		.byte	0x51
 3272 14ba 02       		.uleb128 0x2
 3273 14bb 79       		.byte	0x79
 3274 14bc 00       		.sleb128 0
 3275 14bd 20       		.uleb128 0x20
 3276 14be 01       		.uleb128 0x1
 3277 14bf 50       		.byte	0x50
 3278 14c0 02       		.uleb128 0x2
 3279 14c1 78       		.byte	0x78
 3280 14c2 00       		.sleb128 0
 3281 14c3 00       		.byte	0
 3282 14c4 1F       		.uleb128 0x1f
 3283 14c5 3A010000 		.4byte	.LVL23
 3284 14c9 32190000 		.4byte	0x1932
 3285 14cd E3140000 		.4byte	0x14e3
 3286 14d1 20       		.uleb128 0x20
 3287 14d2 01       		.uleb128 0x1
 3288 14d3 52       		.byte	0x52
 3289 14d4 01       		.uleb128 0x1
 3290 14d5 33       		.byte	0x33
 3291 14d6 20       		.uleb128 0x20
 3292 14d7 01       		.uleb128 0x1
 3293 14d8 51       		.byte	0x51
 3294 14d9 02       		.uleb128 0x2
 3295 14da 7B       		.byte	0x7b
 3296 14db 00       		.sleb128 0
 3297 14dc 20       		.uleb128 0x20
 3298 14dd 01       		.uleb128 0x1
 3299 14de 50       		.byte	0x50
 3300 14df 02       		.uleb128 0x2
 3301 14e0 78       		.byte	0x78
 3302 14e1 00       		.sleb128 0
 3303 14e2 00       		.byte	0
 3304 14e3 1F       		.uleb128 0x1f
 3305 14e4 44010000 		.4byte	.LVL24
ARM GAS  /tmp/ccrAgNC8.s 			page 59


 3306 14e8 32190000 		.4byte	0x1932
 3307 14ec 01150000 		.4byte	0x1501
 3308 14f0 20       		.uleb128 0x20
 3309 14f1 01       		.uleb128 0x1
 3310 14f2 52       		.byte	0x52
 3311 14f3 01       		.uleb128 0x1
 3312 14f4 33       		.byte	0x33
 3313 14f5 20       		.uleb128 0x20
 3314 14f6 01       		.uleb128 0x1
 3315 14f7 51       		.byte	0x51
 3316 14f8 01       		.uleb128 0x1
 3317 14f9 34       		.byte	0x34
 3318 14fa 20       		.uleb128 0x20
 3319 14fb 01       		.uleb128 0x1
 3320 14fc 50       		.byte	0x50
 3321 14fd 02       		.uleb128 0x2
 3322 14fe 78       		.byte	0x78
 3323 14ff 00       		.sleb128 0
 3324 1500 00       		.byte	0
 3325 1501 1F       		.uleb128 0x1f
 3326 1502 4E010000 		.4byte	.LVL25
 3327 1506 32190000 		.4byte	0x1932
 3328 150a 1F150000 		.4byte	0x151f
 3329 150e 20       		.uleb128 0x20
 3330 150f 01       		.uleb128 0x1
 3331 1510 52       		.byte	0x52
 3332 1511 01       		.uleb128 0x1
 3333 1512 33       		.byte	0x33
 3334 1513 20       		.uleb128 0x20
 3335 1514 01       		.uleb128 0x1
 3336 1515 51       		.byte	0x51
 3337 1516 01       		.uleb128 0x1
 3338 1517 38       		.byte	0x38
 3339 1518 20       		.uleb128 0x20
 3340 1519 01       		.uleb128 0x1
 3341 151a 50       		.byte	0x50
 3342 151b 02       		.uleb128 0x2
 3343 151c 78       		.byte	0x78
 3344 151d 00       		.sleb128 0
 3345 151e 00       		.byte	0
 3346 151f 1F       		.uleb128 0x1f
 3347 1520 58010000 		.4byte	.LVL26
 3348 1524 32190000 		.4byte	0x1932
 3349 1528 3E150000 		.4byte	0x153e
 3350 152c 20       		.uleb128 0x20
 3351 152d 01       		.uleb128 0x1
 3352 152e 52       		.byte	0x52
 3353 152f 01       		.uleb128 0x1
 3354 1530 33       		.byte	0x33
 3355 1531 20       		.uleb128 0x20
 3356 1532 01       		.uleb128 0x1
 3357 1533 51       		.byte	0x51
 3358 1534 02       		.uleb128 0x2
 3359 1535 79       		.byte	0x79
 3360 1536 00       		.sleb128 0
 3361 1537 20       		.uleb128 0x20
 3362 1538 01       		.uleb128 0x1
ARM GAS  /tmp/ccrAgNC8.s 			page 60


 3363 1539 50       		.byte	0x50
 3364 153a 02       		.uleb128 0x2
 3365 153b 77       		.byte	0x77
 3366 153c 00       		.sleb128 0
 3367 153d 00       		.byte	0
 3368 153e 1F       		.uleb128 0x1f
 3369 153f 62010000 		.4byte	.LVL27
 3370 1543 32190000 		.4byte	0x1932
 3371 1547 5D150000 		.4byte	0x155d
 3372 154b 20       		.uleb128 0x20
 3373 154c 01       		.uleb128 0x1
 3374 154d 52       		.byte	0x52
 3375 154e 01       		.uleb128 0x1
 3376 154f 33       		.byte	0x33
 3377 1550 20       		.uleb128 0x20
 3378 1551 01       		.uleb128 0x1
 3379 1552 51       		.byte	0x51
 3380 1553 02       		.uleb128 0x2
 3381 1554 7B       		.byte	0x7b
 3382 1555 00       		.sleb128 0
 3383 1556 20       		.uleb128 0x20
 3384 1557 01       		.uleb128 0x1
 3385 1558 50       		.byte	0x50
 3386 1559 02       		.uleb128 0x2
 3387 155a 77       		.byte	0x77
 3388 155b 00       		.sleb128 0
 3389 155c 00       		.byte	0
 3390 155d 1F       		.uleb128 0x1f
 3391 155e 6C010000 		.4byte	.LVL28
 3392 1562 32190000 		.4byte	0x1932
 3393 1566 7D150000 		.4byte	0x157d
 3394 156a 20       		.uleb128 0x20
 3395 156b 01       		.uleb128 0x1
 3396 156c 52       		.byte	0x52
 3397 156d 02       		.uleb128 0x2
 3398 156e 08       		.byte	0x8
 3399 156f 40       		.byte	0x40
 3400 1570 20       		.uleb128 0x20
 3401 1571 01       		.uleb128 0x1
 3402 1572 51       		.byte	0x51
 3403 1573 02       		.uleb128 0x2
 3404 1574 79       		.byte	0x79
 3405 1575 00       		.sleb128 0
 3406 1576 20       		.uleb128 0x20
 3407 1577 01       		.uleb128 0x1
 3408 1578 50       		.byte	0x50
 3409 1579 02       		.uleb128 0x2
 3410 157a 75       		.byte	0x75
 3411 157b 00       		.sleb128 0
 3412 157c 00       		.byte	0
 3413 157d 1F       		.uleb128 0x1f
 3414 157e 76010000 		.4byte	.LVL29
 3415 1582 32190000 		.4byte	0x1932
 3416 1586 9C150000 		.4byte	0x159c
 3417 158a 20       		.uleb128 0x20
 3418 158b 01       		.uleb128 0x1
 3419 158c 52       		.byte	0x52
ARM GAS  /tmp/ccrAgNC8.s 			page 61


 3420 158d 01       		.uleb128 0x1
 3421 158e 33       		.byte	0x33
 3422 158f 20       		.uleb128 0x20
 3423 1590 01       		.uleb128 0x1
 3424 1591 51       		.byte	0x51
 3425 1592 02       		.uleb128 0x2
 3426 1593 7B       		.byte	0x7b
 3427 1594 00       		.sleb128 0
 3428 1595 20       		.uleb128 0x20
 3429 1596 01       		.uleb128 0x1
 3430 1597 50       		.byte	0x50
 3431 1598 02       		.uleb128 0x2
 3432 1599 75       		.byte	0x75
 3433 159a 00       		.sleb128 0
 3434 159b 00       		.byte	0
 3435 159c 1F       		.uleb128 0x1f
 3436 159d 80010000 		.4byte	.LVL30
 3437 15a1 32190000 		.4byte	0x1932
 3438 15a5 BA150000 		.4byte	0x15ba
 3439 15a9 20       		.uleb128 0x20
 3440 15aa 01       		.uleb128 0x1
 3441 15ab 52       		.byte	0x52
 3442 15ac 01       		.uleb128 0x1
 3443 15ad 33       		.byte	0x33
 3444 15ae 20       		.uleb128 0x20
 3445 15af 01       		.uleb128 0x1
 3446 15b0 51       		.byte	0x51
 3447 15b1 01       		.uleb128 0x1
 3448 15b2 40       		.byte	0x40
 3449 15b3 20       		.uleb128 0x20
 3450 15b4 01       		.uleb128 0x1
 3451 15b5 50       		.byte	0x50
 3452 15b6 02       		.uleb128 0x2
 3453 15b7 75       		.byte	0x75
 3454 15b8 00       		.sleb128 0
 3455 15b9 00       		.byte	0
 3456 15ba 1F       		.uleb128 0x1f
 3457 15bb 8A010000 		.4byte	.LVL31
 3458 15bf 32190000 		.4byte	0x1932
 3459 15c3 D9150000 		.4byte	0x15d9
 3460 15c7 20       		.uleb128 0x20
 3461 15c8 01       		.uleb128 0x1
 3462 15c9 52       		.byte	0x52
 3463 15ca 01       		.uleb128 0x1
 3464 15cb 33       		.byte	0x33
 3465 15cc 20       		.uleb128 0x20
 3466 15cd 01       		.uleb128 0x1
 3467 15ce 51       		.byte	0x51
 3468 15cf 02       		.uleb128 0x2
 3469 15d0 08       		.byte	0x8
 3470 15d1 20       		.byte	0x20
 3471 15d2 20       		.uleb128 0x20
 3472 15d3 01       		.uleb128 0x1
 3473 15d4 50       		.byte	0x50
 3474 15d5 02       		.uleb128 0x2
 3475 15d6 75       		.byte	0x75
 3476 15d7 00       		.sleb128 0
ARM GAS  /tmp/ccrAgNC8.s 			page 62


 3477 15d8 00       		.byte	0
 3478 15d9 1F       		.uleb128 0x1f
 3479 15da 96010000 		.4byte	.LVL32
 3480 15de 32190000 		.4byte	0x1932
 3481 15e2 FA150000 		.4byte	0x15fa
 3482 15e6 20       		.uleb128 0x20
 3483 15e7 01       		.uleb128 0x1
 3484 15e8 52       		.byte	0x52
 3485 15e9 02       		.uleb128 0x2
 3486 15ea 79       		.byte	0x79
 3487 15eb 00       		.sleb128 0
 3488 15ec 20       		.uleb128 0x20
 3489 15ed 01       		.uleb128 0x1
 3490 15ee 51       		.byte	0x51
 3491 15ef 03       		.uleb128 0x3
 3492 15f0 0A       		.byte	0xa
 3493 15f1 0010     		.2byte	0x1000
 3494 15f3 20       		.uleb128 0x20
 3495 15f4 01       		.uleb128 0x1
 3496 15f5 50       		.byte	0x50
 3497 15f6 02       		.uleb128 0x2
 3498 15f7 76       		.byte	0x76
 3499 15f8 00       		.sleb128 0
 3500 15f9 00       		.byte	0
 3501 15fa 1F       		.uleb128 0x1f
 3502 15fb A4010000 		.4byte	.LVL33
 3503 15ff 32190000 		.4byte	0x1932
 3504 1603 1C160000 		.4byte	0x161c
 3505 1607 20       		.uleb128 0x20
 3506 1608 01       		.uleb128 0x1
 3507 1609 52       		.byte	0x52
 3508 160a 03       		.uleb128 0x3
 3509 160b 0A       		.byte	0xa
 3510 160c 0201     		.2byte	0x102
 3511 160e 20       		.uleb128 0x20
 3512 160f 01       		.uleb128 0x1
 3513 1610 51       		.byte	0x51
 3514 1611 03       		.uleb128 0x3
 3515 1612 0A       		.byte	0xa
 3516 1613 0020     		.2byte	0x2000
 3517 1615 20       		.uleb128 0x20
 3518 1616 01       		.uleb128 0x1
 3519 1617 50       		.byte	0x50
 3520 1618 02       		.uleb128 0x2
 3521 1619 76       		.byte	0x76
 3522 161a 00       		.sleb128 0
 3523 161b 00       		.byte	0
 3524 161c 1F       		.uleb128 0x1f
 3525 161d B2010000 		.4byte	.LVL34
 3526 1621 32190000 		.4byte	0x1932
 3527 1625 3E160000 		.4byte	0x163e
 3528 1629 20       		.uleb128 0x20
 3529 162a 01       		.uleb128 0x1
 3530 162b 52       		.byte	0x52
 3531 162c 03       		.uleb128 0x3
 3532 162d 0A       		.byte	0xa
 3533 162e 0201     		.2byte	0x102
ARM GAS  /tmp/ccrAgNC8.s 			page 63


 3534 1630 20       		.uleb128 0x20
 3535 1631 01       		.uleb128 0x1
 3536 1632 51       		.byte	0x51
 3537 1633 03       		.uleb128 0x3
 3538 1634 0A       		.byte	0xa
 3539 1635 0040     		.2byte	0x4000
 3540 1637 20       		.uleb128 0x20
 3541 1638 01       		.uleb128 0x1
 3542 1639 50       		.byte	0x50
 3543 163a 02       		.uleb128 0x2
 3544 163b 76       		.byte	0x76
 3545 163c 00       		.sleb128 0
 3546 163d 00       		.byte	0
 3547 163e 1F       		.uleb128 0x1f
 3548 163f BC010000 		.4byte	.LVL35
 3549 1643 32190000 		.4byte	0x1932
 3550 1647 5E160000 		.4byte	0x165e
 3551 164b 20       		.uleb128 0x20
 3552 164c 01       		.uleb128 0x1
 3553 164d 52       		.byte	0x52
 3554 164e 02       		.uleb128 0x2
 3555 164f 08       		.byte	0x8
 3556 1650 40       		.byte	0x40
 3557 1651 20       		.uleb128 0x20
 3558 1652 01       		.uleb128 0x1
 3559 1653 51       		.byte	0x51
 3560 1654 02       		.uleb128 0x2
 3561 1655 7A       		.byte	0x7a
 3562 1656 00       		.sleb128 0
 3563 1657 20       		.uleb128 0x20
 3564 1658 01       		.uleb128 0x1
 3565 1659 50       		.byte	0x50
 3566 165a 02       		.uleb128 0x2
 3567 165b 74       		.byte	0x74
 3568 165c 00       		.sleb128 0
 3569 165d 00       		.byte	0
 3570 165e 1F       		.uleb128 0x1f
 3571 165f C8010000 		.4byte	.LVL36
 3572 1663 32190000 		.4byte	0x1932
 3573 1667 7F160000 		.4byte	0x167f
 3574 166b 20       		.uleb128 0x20
 3575 166c 01       		.uleb128 0x1
 3576 166d 52       		.byte	0x52
 3577 166e 02       		.uleb128 0x2
 3578 166f 08       		.byte	0x8
 3579 1670 82       		.byte	0x82
 3580 1671 20       		.uleb128 0x20
 3581 1672 01       		.uleb128 0x1
 3582 1673 51       		.byte	0x51
 3583 1674 03       		.uleb128 0x3
 3584 1675 0A       		.byte	0xa
 3585 1676 0008     		.2byte	0x800
 3586 1678 20       		.uleb128 0x20
 3587 1679 01       		.uleb128 0x1
 3588 167a 50       		.byte	0x50
 3589 167b 02       		.uleb128 0x2
 3590 167c 74       		.byte	0x74
ARM GAS  /tmp/ccrAgNC8.s 			page 64


 3591 167d 00       		.sleb128 0
 3592 167e 00       		.byte	0
 3593 167f 1F       		.uleb128 0x1f
 3594 1680 D4010000 		.4byte	.LVL37
 3595 1684 32190000 		.4byte	0x1932
 3596 1688 A0160000 		.4byte	0x16a0
 3597 168c 20       		.uleb128 0x20
 3598 168d 01       		.uleb128 0x1
 3599 168e 52       		.byte	0x52
 3600 168f 02       		.uleb128 0x2
 3601 1690 08       		.byte	0x8
 3602 1691 82       		.byte	0x82
 3603 1692 20       		.uleb128 0x20
 3604 1693 01       		.uleb128 0x1
 3605 1694 51       		.byte	0x51
 3606 1695 03       		.uleb128 0x3
 3607 1696 0A       		.byte	0xa
 3608 1697 0020     		.2byte	0x2000
 3609 1699 20       		.uleb128 0x20
 3610 169a 01       		.uleb128 0x1
 3611 169b 50       		.byte	0x50
 3612 169c 02       		.uleb128 0x2
 3613 169d 74       		.byte	0x74
 3614 169e 00       		.sleb128 0
 3615 169f 00       		.byte	0
 3616 16a0 1F       		.uleb128 0x1f
 3617 16a1 E0010000 		.4byte	.LVL38
 3618 16a5 32190000 		.4byte	0x1932
 3619 16a9 C1160000 		.4byte	0x16c1
 3620 16ad 20       		.uleb128 0x20
 3621 16ae 01       		.uleb128 0x1
 3622 16af 52       		.byte	0x52
 3623 16b0 02       		.uleb128 0x2
 3624 16b1 08       		.byte	0x8
 3625 16b2 82       		.byte	0x82
 3626 16b3 20       		.uleb128 0x20
 3627 16b4 01       		.uleb128 0x1
 3628 16b5 51       		.byte	0x51
 3629 16b6 03       		.uleb128 0x3
 3630 16b7 0A       		.byte	0xa
 3631 16b8 0040     		.2byte	0x4000
 3632 16ba 20       		.uleb128 0x20
 3633 16bb 01       		.uleb128 0x1
 3634 16bc 50       		.byte	0x50
 3635 16bd 02       		.uleb128 0x2
 3636 16be 74       		.byte	0x74
 3637 16bf 00       		.sleb128 0
 3638 16c0 00       		.byte	0
 3639 16c1 1F       		.uleb128 0x1f
 3640 16c2 EC010000 		.4byte	.LVL39
 3641 16c6 32190000 		.4byte	0x1932
 3642 16ca E2160000 		.4byte	0x16e2
 3643 16ce 20       		.uleb128 0x20
 3644 16cf 01       		.uleb128 0x1
 3645 16d0 52       		.byte	0x52
 3646 16d1 03       		.uleb128 0x3
 3647 16d2 0A       		.byte	0xa
ARM GAS  /tmp/ccrAgNC8.s 			page 65


 3648 16d3 0202     		.2byte	0x202
 3649 16d5 20       		.uleb128 0x20
 3650 16d6 01       		.uleb128 0x1
 3651 16d7 51       		.byte	0x51
 3652 16d8 02       		.uleb128 0x2
 3653 16d9 08       		.byte	0x8
 3654 16da 40       		.byte	0x40
 3655 16db 20       		.uleb128 0x20
 3656 16dc 01       		.uleb128 0x1
 3657 16dd 50       		.byte	0x50
 3658 16de 02       		.uleb128 0x2
 3659 16df 77       		.byte	0x77
 3660 16e0 00       		.sleb128 0
 3661 16e1 00       		.byte	0
 3662 16e2 1F       		.uleb128 0x1f
 3663 16e3 F8010000 		.4byte	.LVL40
 3664 16e7 32190000 		.4byte	0x1932
 3665 16eb 03170000 		.4byte	0x1703
 3666 16ef 20       		.uleb128 0x20
 3667 16f0 01       		.uleb128 0x1
 3668 16f1 52       		.byte	0x52
 3669 16f2 03       		.uleb128 0x3
 3670 16f3 0A       		.byte	0xa
 3671 16f4 0202     		.2byte	0x202
 3672 16f6 20       		.uleb128 0x20
 3673 16f7 01       		.uleb128 0x1
 3674 16f8 51       		.byte	0x51
 3675 16f9 02       		.uleb128 0x2
 3676 16fa 08       		.byte	0x8
 3677 16fb 80       		.byte	0x80
 3678 16fc 20       		.uleb128 0x20
 3679 16fd 01       		.uleb128 0x1
 3680 16fe 50       		.byte	0x50
 3681 16ff 02       		.uleb128 0x2
 3682 1700 77       		.byte	0x77
 3683 1701 00       		.sleb128 0
 3684 1702 00       		.byte	0
 3685 1703 1F       		.uleb128 0x1f
 3686 1704 06020000 		.4byte	.LVL41
 3687 1708 32190000 		.4byte	0x1932
 3688 170c 25170000 		.4byte	0x1725
 3689 1710 20       		.uleb128 0x20
 3690 1711 01       		.uleb128 0x1
 3691 1712 52       		.byte	0x52
 3692 1713 03       		.uleb128 0x3
 3693 1714 0A       		.byte	0xa
 3694 1715 0202     		.2byte	0x202
 3695 1717 20       		.uleb128 0x20
 3696 1718 01       		.uleb128 0x1
 3697 1719 51       		.byte	0x51
 3698 171a 03       		.uleb128 0x3
 3699 171b 0A       		.byte	0xa
 3700 171c 0001     		.2byte	0x100
 3701 171e 20       		.uleb128 0x20
 3702 171f 01       		.uleb128 0x1
 3703 1720 50       		.byte	0x50
 3704 1721 02       		.uleb128 0x2
ARM GAS  /tmp/ccrAgNC8.s 			page 66


 3705 1722 78       		.byte	0x78
 3706 1723 00       		.sleb128 0
 3707 1724 00       		.byte	0
 3708 1725 21       		.uleb128 0x21
 3709 1726 16020000 		.4byte	.LVL42
 3710 172a 32190000 		.4byte	0x1932
 3711 172e 20       		.uleb128 0x20
 3712 172f 01       		.uleb128 0x1
 3713 1730 52       		.byte	0x52
 3714 1731 03       		.uleb128 0x3
 3715 1732 0A       		.byte	0xa
 3716 1733 0202     		.2byte	0x202
 3717 1735 20       		.uleb128 0x20
 3718 1736 01       		.uleb128 0x1
 3719 1737 51       		.byte	0x51
 3720 1738 03       		.uleb128 0x3
 3721 1739 0A       		.byte	0xa
 3722 173a 0002     		.2byte	0x200
 3723 173c 20       		.uleb128 0x20
 3724 173d 01       		.uleb128 0x1
 3725 173e 50       		.byte	0x50
 3726 173f 05       		.uleb128 0x5
 3727 1740 0C       		.byte	0xc
 3728 1741 00080240 		.4byte	0x40020800
 3729 1745 00       		.byte	0
 3730 1746 00       		.byte	0
 3731 1747 1E       		.uleb128 0x1e
 3732 1748 F10A0000 		.4byte	.LASF259
 3733 174c 01       		.byte	0x1
 3734 174d 77       		.byte	0x77
 3735 174e 00000000 		.4byte	.LFB208
 3736 1752 88000000 		.4byte	.LFE208-.LFB208
 3737 1756 01       		.uleb128 0x1
 3738 1757 9C       		.byte	0x9c
 3739 1758 2F180000 		.4byte	0x182f
 3740 175c 22       		.uleb128 0x22
 3741 175d 06000000 		.4byte	.LVL43
 3742 1761 4E190000 		.4byte	0x194e
 3743 1765 1F       		.uleb128 0x1f
 3744 1766 0E000000 		.4byte	.LVL44
 3745 176a 56190000 		.4byte	0x1956
 3746 176e 7C170000 		.4byte	0x177c
 3747 1772 20       		.uleb128 0x20
 3748 1773 01       		.uleb128 0x1
 3749 1774 51       		.byte	0x51
 3750 1775 05       		.uleb128 0x5
 3751 1776 03       		.byte	0x3
 3752 1777 00000000 		.4byte	.LANCHOR0
 3753 177b 00       		.byte	0
 3754 177c 1F       		.uleb128 0x1f
 3755 177d 16000000 		.4byte	.LVL45
 3756 1781 56190000 		.4byte	0x1956
 3757 1785 93170000 		.4byte	0x1793
 3758 1789 20       		.uleb128 0x20
 3759 178a 01       		.uleb128 0x1
 3760 178b 51       		.byte	0x51
 3761 178c 05       		.uleb128 0x5
ARM GAS  /tmp/ccrAgNC8.s 			page 67


 3762 178d 03       		.byte	0x3
 3763 178e 00000000 		.4byte	.LANCHOR1
 3764 1792 00       		.byte	0
 3765 1793 1F       		.uleb128 0x1f
 3766 1794 1E000000 		.4byte	.LVL46
 3767 1798 56190000 		.4byte	0x1956
 3768 179c AA170000 		.4byte	0x17aa
 3769 17a0 20       		.uleb128 0x20
 3770 17a1 01       		.uleb128 0x1
 3771 17a2 51       		.byte	0x51
 3772 17a3 05       		.uleb128 0x5
 3773 17a4 03       		.byte	0x3
 3774 17a5 00000000 		.4byte	.LANCHOR2
 3775 17a9 00       		.byte	0
 3776 17aa 1F       		.uleb128 0x1f
 3777 17ab 28000000 		.4byte	.LVL47
 3778 17af 56190000 		.4byte	0x1956
 3779 17b3 C1170000 		.4byte	0x17c1
 3780 17b7 20       		.uleb128 0x20
 3781 17b8 01       		.uleb128 0x1
 3782 17b9 51       		.byte	0x51
 3783 17ba 05       		.uleb128 0x5
 3784 17bb 03       		.byte	0x3
 3785 17bc 00000000 		.4byte	.LANCHOR3
 3786 17c0 00       		.byte	0
 3787 17c1 1F       		.uleb128 0x1f
 3788 17c2 30000000 		.4byte	.LVL48
 3789 17c6 56190000 		.4byte	0x1956
 3790 17ca D8170000 		.4byte	0x17d8
 3791 17ce 20       		.uleb128 0x20
 3792 17cf 01       		.uleb128 0x1
 3793 17d0 51       		.byte	0x51
 3794 17d1 05       		.uleb128 0x5
 3795 17d2 03       		.byte	0x3
 3796 17d3 00000000 		.4byte	.LANCHOR4
 3797 17d7 00       		.byte	0
 3798 17d8 22       		.uleb128 0x22
 3799 17d9 34000000 		.4byte	.LVL49
 3800 17dd 79190000 		.4byte	0x1979
 3801 17e1 1F       		.uleb128 0x1f
 3802 17e2 3A000000 		.4byte	.LVL50
 3803 17e6 80190000 		.4byte	0x1980
 3804 17ea F5170000 		.4byte	0x17f5
 3805 17ee 20       		.uleb128 0x20
 3806 17ef 01       		.uleb128 0x1
 3807 17f0 50       		.byte	0x50
 3808 17f1 02       		.uleb128 0x2
 3809 17f2 74       		.byte	0x74
 3810 17f3 00       		.sleb128 0
 3811 17f4 00       		.byte	0
 3812 17f5 1F       		.uleb128 0x1f
 3813 17f6 42000000 		.4byte	.LVL51
 3814 17fa 97190000 		.4byte	0x1997
 3815 17fe 12180000 		.4byte	0x1812
 3816 1802 20       		.uleb128 0x20
 3817 1803 01       		.uleb128 0x1
 3818 1804 51       		.byte	0x51
ARM GAS  /tmp/ccrAgNC8.s 			page 68


 3819 1805 05       		.uleb128 0x5
 3820 1806 03       		.byte	0x3
 3821 1807 00000000 		.4byte	.LANCHOR5
 3822 180b 20       		.uleb128 0x20
 3823 180c 01       		.uleb128 0x1
 3824 180d 50       		.byte	0x50
 3825 180e 02       		.uleb128 0x2
 3826 180f 74       		.byte	0x74
 3827 1810 00       		.sleb128 0
 3828 1811 00       		.byte	0
 3829 1812 1F       		.uleb128 0x1f
 3830 1813 4A000000 		.4byte	.LVL52
 3831 1817 AD190000 		.4byte	0x19ad
 3832 181b 25180000 		.4byte	0x1825
 3833 181f 20       		.uleb128 0x20
 3834 1820 01       		.uleb128 0x1
 3835 1821 51       		.byte	0x51
 3836 1822 01       		.uleb128 0x1
 3837 1823 30       		.byte	0x30
 3838 1824 00       		.byte	0
 3839 1825 23       		.uleb128 0x23
 3840 1826 52000000 		.4byte	.LVL53
 3841 182a C3190000 		.4byte	0x19c3
 3842 182e 00       		.byte	0
 3843 182f 1E       		.uleb128 0x1e
 3844 1830 0A040000 		.4byte	.LASF260
 3845 1834 01       		.byte	0x1
 3846 1835 8A       		.byte	0x8a
 3847 1836 00000000 		.4byte	.LFB209
 3848 183a 0E000000 		.4byte	.LFE209-.LFB209
 3849 183e 01       		.uleb128 0x1
 3850 183f 9C       		.byte	0x9c
 3851 1840 57180000 		.4byte	0x1857
 3852 1844 22       		.uleb128 0x22
 3853 1845 06000000 		.4byte	.LVL54
 3854 1849 CA110000 		.4byte	0x11ca
 3855 184d 23       		.uleb128 0x23
 3856 184e 0E000000 		.4byte	.LVL55
 3857 1852 47170000 		.4byte	0x1747
 3858 1856 00       		.byte	0
 3859 1857 24       		.uleb128 0x24
 3860 1858 E1080000 		.4byte	.LASF261
 3861 185c 01       		.byte	0x1
 3862 185d 4D       		.byte	0x4d
 3863 185e 68180000 		.4byte	0x1868
 3864 1862 05       		.uleb128 0x5
 3865 1863 03       		.byte	0x3
 3866 1864 00000000 		.4byte	usart_1_cfg
 3867 1868 16       		.uleb128 0x16
 3868 1869 30110000 		.4byte	0x1130
 3869 186d 24       		.uleb128 0x24
 3870 186e 2F070000 		.4byte	.LASF262
 3871 1872 01       		.byte	0x1
 3872 1873 54       		.byte	0x54
 3873 1874 68180000 		.4byte	0x1868
 3874 1878 05       		.uleb128 0x5
 3875 1879 03       		.byte	0x3
ARM GAS  /tmp/ccrAgNC8.s 			page 69


 3876 187a 00000000 		.4byte	usart_2_cfg
 3877 187e 24       		.uleb128 0x24
 3878 187f 6C040000 		.4byte	.LASF263
 3879 1883 01       		.byte	0x1
 3880 1884 5B       		.byte	0x5b
 3881 1885 68180000 		.4byte	0x1868
 3882 1889 05       		.uleb128 0x5
 3883 188a 03       		.byte	0x3
 3884 188b 00000000 		.4byte	usart_3_cfg
 3885 188f 24       		.uleb128 0x24
 3886 1890 F8020000 		.4byte	.LASF264
 3887 1894 01       		.byte	0x1
 3888 1895 62       		.byte	0x62
 3889 1896 68180000 		.4byte	0x1868
 3890 189a 05       		.uleb128 0x5
 3891 189b 03       		.byte	0x3
 3892 189c 00000000 		.4byte	usart_4_cfg
 3893 18a0 24       		.uleb128 0x24
 3894 18a1 440B0000 		.4byte	.LASF265
 3895 18a5 01       		.byte	0x1
 3896 18a6 69       		.byte	0x69
 3897 18a7 68180000 		.4byte	0x1868
 3898 18ab 05       		.uleb128 0x5
 3899 18ac 03       		.byte	0x3
 3900 18ad 00000000 		.4byte	usart_6_cfg
 3901 18b1 24       		.uleb128 0x24
 3902 18b2 6E000000 		.4byte	.LASF266
 3903 18b6 01       		.byte	0x1
 3904 18b7 71       		.byte	0x71
 3905 18b8 4B100000 		.4byte	0x104b
 3906 18bc 05       		.uleb128 0x5
 3907 18bd 03       		.byte	0x3
 3908 18be 00000000 		.4byte	compass_i2c_cfg
 3909 18c2 25       		.uleb128 0x25
 3910 18c3 84060000 		.4byte	.LASF267
 3911 18c7 18       		.byte	0x18
 3912 18c8 5506     		.2byte	0x655
 3913 18ca CE180000 		.4byte	0x18ce
 3914 18ce 0F       		.uleb128 0xf
 3915 18cf C3000000 		.4byte	0xc3
 3916 18d3 26       		.uleb128 0x26
 3917 18d4 636800   		.ascii	"ch\000"
 3918 18d7 07       		.byte	0x7
 3919 18d8 0902     		.2byte	0x209
 3920 18da 18040000 		.4byte	0x418
 3921 18de 25       		.uleb128 0x25
 3922 18df 4F070000 		.4byte	.LASF268
 3923 18e3 13       		.byte	0x13
 3924 18e4 1B02     		.2byte	0x21b
 3925 18e6 DF0C0000 		.4byte	0xcdf
 3926 18ea 25       		.uleb128 0x25
 3927 18eb EB020000 		.4byte	.LASF269
 3928 18ef 15       		.byte	0x15
 3929 18f0 E001     		.2byte	0x1e0
 3930 18f2 9C0F0000 		.4byte	0xf9c
 3931 18f6 26       		.uleb128 0x26
 3932 18f7 53443100 		.ascii	"SD1\000"
ARM GAS  /tmp/ccrAgNC8.s 			page 70


 3933 18fb 17       		.byte	0x17
 3934 18fc 4201     		.2byte	0x142
 3935 18fe 7C100000 		.4byte	0x107c
 3936 1902 26       		.uleb128 0x26
 3937 1903 53443200 		.ascii	"SD2\000"
 3938 1907 17       		.byte	0x17
 3939 1908 4501     		.2byte	0x145
 3940 190a 7C100000 		.4byte	0x107c
 3941 190e 26       		.uleb128 0x26
 3942 190f 53443300 		.ascii	"SD3\000"
 3943 1913 17       		.byte	0x17
 3944 1914 4801     		.2byte	0x148
 3945 1916 7C100000 		.4byte	0x107c
 3946 191a 26       		.uleb128 0x26
 3947 191b 53443400 		.ascii	"SD4\000"
 3948 191f 17       		.byte	0x17
 3949 1920 4B01     		.2byte	0x14b
 3950 1922 7C100000 		.4byte	0x107c
 3951 1926 26       		.uleb128 0x26
 3952 1927 53443600 		.ascii	"SD6\000"
 3953 192b 17       		.byte	0x17
 3954 192c 5101     		.2byte	0x151
 3955 192e 7C100000 		.4byte	0x107c
 3956 1932 27       		.uleb128 0x27
 3957 1933 1C010000 		.4byte	.LASF270
 3958 1937 11       		.byte	0x11
 3959 1938 2402     		.2byte	0x224
 3960 193a 4E190000 		.4byte	0x194e
 3961 193e 0C       		.uleb128 0xc
 3962 193f 5B0C0000 		.4byte	0xc5b
 3963 1943 0C       		.uleb128 0xc
 3964 1944 430C0000 		.4byte	0xc43
 3965 1948 0C       		.uleb128 0xc
 3966 1949 4F0C0000 		.4byte	0xc4f
 3967 194d 00       		.byte	0
 3968 194e 28       		.uleb128 0x28
 3969 194f 12020000 		.4byte	.LASF272
 3970 1953 16       		.byte	0x16
 3971 1954 0E01     		.2byte	0x10e
 3972 1956 27       		.uleb128 0x27
 3973 1957 D2040000 		.4byte	.LASF271
 3974 195b 16       		.byte	0x16
 3975 195c 1001     		.2byte	0x110
 3976 195e 6D190000 		.4byte	0x196d
 3977 1962 0C       		.uleb128 0xc
 3978 1963 6D190000 		.4byte	0x196d
 3979 1967 0C       		.uleb128 0xc
 3980 1968 73190000 		.4byte	0x1973
 3981 196c 00       		.byte	0
 3982 196d 09       		.uleb128 0x9
 3983 196e 04       		.byte	0x4
 3984 196f 7C100000 		.4byte	0x107c
 3985 1973 09       		.uleb128 0x9
 3986 1974 04       		.byte	0x4
 3987 1975 68180000 		.4byte	0x1868
 3988 1979 29       		.uleb128 0x29
 3989 197a 14010000 		.4byte	.LASF273
ARM GAS  /tmp/ccrAgNC8.s 			page 71


 3990 197e 14       		.byte	0x14
 3991 197f 8B       		.byte	0x8b
 3992 1980 2A       		.uleb128 0x2a
 3993 1981 500B0000 		.4byte	.LASF274
 3994 1985 14       		.byte	0x14
 3995 1986 8C       		.byte	0x8c
 3996 1987 91190000 		.4byte	0x1991
 3997 198b 0C       		.uleb128 0xc
 3998 198c 91190000 		.4byte	0x1991
 3999 1990 00       		.byte	0
 4000 1991 09       		.uleb128 0x9
 4001 1992 04       		.byte	0x4
 4002 1993 9C0F0000 		.4byte	0xf9c
 4003 1997 2A       		.uleb128 0x2a
 4004 1998 2A0A0000 		.4byte	.LASF275
 4005 199c 14       		.byte	0x14
 4006 199d 8D       		.byte	0x8d
 4007 199e AD190000 		.4byte	0x19ad
 4008 19a2 0C       		.uleb128 0xc
 4009 19a3 91190000 		.4byte	0x1991
 4010 19a7 0C       		.uleb128 0xc
 4011 19a8 45100000 		.4byte	0x1045
 4012 19ac 00       		.byte	0
 4013 19ad 2A       		.uleb128 0x2a
 4014 19ae C70A0000 		.4byte	.LASF276
 4015 19b2 12       		.byte	0x12
 4016 19b3 F8       		.byte	0xf8
 4017 19b4 C3190000 		.4byte	0x19c3
 4018 19b8 0C       		.uleb128 0xc
 4019 19b9 A20D0000 		.4byte	0xda2
 4020 19bd 0C       		.uleb128 0xc
 4021 19be 980E0000 		.4byte	0xe98
 4022 19c2 00       		.byte	0
 4023 19c3 28       		.uleb128 0x28
 4024 19c4 47060000 		.4byte	.LASF277
 4025 19c8 19       		.byte	0x19
 4026 19c9 1F01     		.2byte	0x11f
 4027 19cb 00       		.byte	0
 4028              		.section	.debug_abbrev,"",%progbits
 4029              	.Ldebug_abbrev0:
 4030 0000 01       		.uleb128 0x1
 4031 0001 11       		.uleb128 0x11
 4032 0002 01       		.byte	0x1
 4033 0003 25       		.uleb128 0x25
 4034 0004 0E       		.uleb128 0xe
 4035 0005 13       		.uleb128 0x13
 4036 0006 0B       		.uleb128 0xb
 4037 0007 03       		.uleb128 0x3
 4038 0008 0E       		.uleb128 0xe
 4039 0009 1B       		.uleb128 0x1b
 4040 000a 0E       		.uleb128 0xe
 4041 000b 55       		.uleb128 0x55
 4042 000c 17       		.uleb128 0x17
 4043 000d 11       		.uleb128 0x11
 4044 000e 01       		.uleb128 0x1
 4045 000f 10       		.uleb128 0x10
 4046 0010 17       		.uleb128 0x17
ARM GAS  /tmp/ccrAgNC8.s 			page 72


 4047 0011 00       		.byte	0
 4048 0012 00       		.byte	0
 4049 0013 02       		.uleb128 0x2
 4050 0014 24       		.uleb128 0x24
 4051 0015 00       		.byte	0
 4052 0016 0B       		.uleb128 0xb
 4053 0017 0B       		.uleb128 0xb
 4054 0018 3E       		.uleb128 0x3e
 4055 0019 0B       		.uleb128 0xb
 4056 001a 03       		.uleb128 0x3
 4057 001b 08       		.uleb128 0x8
 4058 001c 00       		.byte	0
 4059 001d 00       		.byte	0
 4060 001e 03       		.uleb128 0x3
 4061 001f 16       		.uleb128 0x16
 4062 0020 00       		.byte	0
 4063 0021 03       		.uleb128 0x3
 4064 0022 0E       		.uleb128 0xe
 4065 0023 3A       		.uleb128 0x3a
 4066 0024 0B       		.uleb128 0xb
 4067 0025 3B       		.uleb128 0x3b
 4068 0026 0B       		.uleb128 0xb
 4069 0027 49       		.uleb128 0x49
 4070 0028 13       		.uleb128 0x13
 4071 0029 00       		.byte	0
 4072 002a 00       		.byte	0
 4073 002b 04       		.uleb128 0x4
 4074 002c 24       		.uleb128 0x24
 4075 002d 00       		.byte	0
 4076 002e 0B       		.uleb128 0xb
 4077 002f 0B       		.uleb128 0xb
 4078 0030 3E       		.uleb128 0x3e
 4079 0031 0B       		.uleb128 0xb
 4080 0032 03       		.uleb128 0x3
 4081 0033 0E       		.uleb128 0xe
 4082 0034 00       		.byte	0
 4083 0035 00       		.byte	0
 4084 0036 05       		.uleb128 0x5
 4085 0037 13       		.uleb128 0x13
 4086 0038 01       		.byte	0x1
 4087 0039 03       		.uleb128 0x3
 4088 003a 0E       		.uleb128 0xe
 4089 003b 0B       		.uleb128 0xb
 4090 003c 0B       		.uleb128 0xb
 4091 003d 3A       		.uleb128 0x3a
 4092 003e 0B       		.uleb128 0xb
 4093 003f 3B       		.uleb128 0x3b
 4094 0040 0B       		.uleb128 0xb
 4095 0041 01       		.uleb128 0x1
 4096 0042 13       		.uleb128 0x13
 4097 0043 00       		.byte	0
 4098 0044 00       		.byte	0
 4099 0045 06       		.uleb128 0x6
 4100 0046 0D       		.uleb128 0xd
 4101 0047 00       		.byte	0
 4102 0048 03       		.uleb128 0x3
 4103 0049 0E       		.uleb128 0xe
ARM GAS  /tmp/ccrAgNC8.s 			page 73


 4104 004a 3A       		.uleb128 0x3a
 4105 004b 0B       		.uleb128 0xb
 4106 004c 3B       		.uleb128 0x3b
 4107 004d 0B       		.uleb128 0xb
 4108 004e 49       		.uleb128 0x49
 4109 004f 13       		.uleb128 0x13
 4110 0050 38       		.uleb128 0x38
 4111 0051 0B       		.uleb128 0xb
 4112 0052 00       		.byte	0
 4113 0053 00       		.byte	0
 4114 0054 07       		.uleb128 0x7
 4115 0055 0D       		.uleb128 0xd
 4116 0056 00       		.byte	0
 4117 0057 03       		.uleb128 0x3
 4118 0058 08       		.uleb128 0x8
 4119 0059 3A       		.uleb128 0x3a
 4120 005a 0B       		.uleb128 0xb
 4121 005b 3B       		.uleb128 0x3b
 4122 005c 05       		.uleb128 0x5
 4123 005d 49       		.uleb128 0x49
 4124 005e 13       		.uleb128 0x13
 4125 005f 38       		.uleb128 0x38
 4126 0060 0B       		.uleb128 0xb
 4127 0061 00       		.byte	0
 4128 0062 00       		.byte	0
 4129 0063 08       		.uleb128 0x8
 4130 0064 0D       		.uleb128 0xd
 4131 0065 00       		.byte	0
 4132 0066 03       		.uleb128 0x3
 4133 0067 0E       		.uleb128 0xe
 4134 0068 3A       		.uleb128 0x3a
 4135 0069 0B       		.uleb128 0xb
 4136 006a 3B       		.uleb128 0x3b
 4137 006b 05       		.uleb128 0x5
 4138 006c 49       		.uleb128 0x49
 4139 006d 13       		.uleb128 0x13
 4140 006e 38       		.uleb128 0x38
 4141 006f 0B       		.uleb128 0xb
 4142 0070 00       		.byte	0
 4143 0071 00       		.byte	0
 4144 0072 09       		.uleb128 0x9
 4145 0073 0F       		.uleb128 0xf
 4146 0074 00       		.byte	0
 4147 0075 0B       		.uleb128 0xb
 4148 0076 0B       		.uleb128 0xb
 4149 0077 49       		.uleb128 0x49
 4150 0078 13       		.uleb128 0x13
 4151 0079 00       		.byte	0
 4152 007a 00       		.byte	0
 4153 007b 0A       		.uleb128 0xa
 4154 007c 13       		.uleb128 0x13
 4155 007d 01       		.byte	0x1
 4156 007e 03       		.uleb128 0x3
 4157 007f 0E       		.uleb128 0xe
 4158 0080 0B       		.uleb128 0xb
 4159 0081 0B       		.uleb128 0xb
 4160 0082 3A       		.uleb128 0x3a
ARM GAS  /tmp/ccrAgNC8.s 			page 74


 4161 0083 0B       		.uleb128 0xb
 4162 0084 3B       		.uleb128 0x3b
 4163 0085 05       		.uleb128 0x5
 4164 0086 01       		.uleb128 0x1
 4165 0087 13       		.uleb128 0x13
 4166 0088 00       		.byte	0
 4167 0089 00       		.byte	0
 4168 008a 0B       		.uleb128 0xb
 4169 008b 15       		.uleb128 0x15
 4170 008c 01       		.byte	0x1
 4171 008d 27       		.uleb128 0x27
 4172 008e 19       		.uleb128 0x19
 4173 008f 01       		.uleb128 0x1
 4174 0090 13       		.uleb128 0x13
 4175 0091 00       		.byte	0
 4176 0092 00       		.byte	0
 4177 0093 0C       		.uleb128 0xc
 4178 0094 05       		.uleb128 0x5
 4179 0095 00       		.byte	0
 4180 0096 49       		.uleb128 0x49
 4181 0097 13       		.uleb128 0x13
 4182 0098 00       		.byte	0
 4183 0099 00       		.byte	0
 4184 009a 0D       		.uleb128 0xd
 4185 009b 0F       		.uleb128 0xf
 4186 009c 00       		.byte	0
 4187 009d 0B       		.uleb128 0xb
 4188 009e 0B       		.uleb128 0xb
 4189 009f 00       		.byte	0
 4190 00a0 00       		.byte	0
 4191 00a1 0E       		.uleb128 0xe
 4192 00a2 13       		.uleb128 0x13
 4193 00a3 01       		.byte	0x1
 4194 00a4 03       		.uleb128 0x3
 4195 00a5 0E       		.uleb128 0xe
 4196 00a6 0B       		.uleb128 0xb
 4197 00a7 05       		.uleb128 0x5
 4198 00a8 3A       		.uleb128 0x3a
 4199 00a9 0B       		.uleb128 0xb
 4200 00aa 3B       		.uleb128 0x3b
 4201 00ab 05       		.uleb128 0x5
 4202 00ac 01       		.uleb128 0x1
 4203 00ad 13       		.uleb128 0x13
 4204 00ae 00       		.byte	0
 4205 00af 00       		.byte	0
 4206 00b0 0F       		.uleb128 0xf
 4207 00b1 35       		.uleb128 0x35
 4208 00b2 00       		.byte	0
 4209 00b3 49       		.uleb128 0x49
 4210 00b4 13       		.uleb128 0x13
 4211 00b5 00       		.byte	0
 4212 00b6 00       		.byte	0
 4213 00b7 10       		.uleb128 0x10
 4214 00b8 13       		.uleb128 0x13
 4215 00b9 01       		.byte	0x1
 4216 00ba 0B       		.uleb128 0xb
 4217 00bb 0B       		.uleb128 0xb
ARM GAS  /tmp/ccrAgNC8.s 			page 75


 4218 00bc 3A       		.uleb128 0x3a
 4219 00bd 0B       		.uleb128 0xb
 4220 00be 3B       		.uleb128 0x3b
 4221 00bf 0B       		.uleb128 0xb
 4222 00c0 01       		.uleb128 0x1
 4223 00c1 13       		.uleb128 0x13
 4224 00c2 00       		.byte	0
 4225 00c3 00       		.byte	0
 4226 00c4 11       		.uleb128 0x11
 4227 00c5 0D       		.uleb128 0xd
 4228 00c6 00       		.byte	0
 4229 00c7 03       		.uleb128 0x3
 4230 00c8 08       		.uleb128 0x8
 4231 00c9 3A       		.uleb128 0x3a
 4232 00ca 0B       		.uleb128 0xb
 4233 00cb 3B       		.uleb128 0x3b
 4234 00cc 0B       		.uleb128 0xb
 4235 00cd 49       		.uleb128 0x49
 4236 00ce 13       		.uleb128 0x13
 4237 00cf 38       		.uleb128 0x38
 4238 00d0 0B       		.uleb128 0xb
 4239 00d1 00       		.byte	0
 4240 00d2 00       		.byte	0
 4241 00d3 12       		.uleb128 0x12
 4242 00d4 13       		.uleb128 0x13
 4243 00d5 01       		.byte	0x1
 4244 00d6 0B       		.uleb128 0xb
 4245 00d7 0B       		.uleb128 0xb
 4246 00d8 3A       		.uleb128 0x3a
 4247 00d9 0B       		.uleb128 0xb
 4248 00da 3B       		.uleb128 0x3b
 4249 00db 05       		.uleb128 0x5
 4250 00dc 01       		.uleb128 0x1
 4251 00dd 13       		.uleb128 0x13
 4252 00de 00       		.byte	0
 4253 00df 00       		.byte	0
 4254 00e0 13       		.uleb128 0x13
 4255 00e1 16       		.uleb128 0x16
 4256 00e2 00       		.byte	0
 4257 00e3 03       		.uleb128 0x3
 4258 00e4 0E       		.uleb128 0xe
 4259 00e5 3A       		.uleb128 0x3a
 4260 00e6 0B       		.uleb128 0xb
 4261 00e7 3B       		.uleb128 0x3b
 4262 00e8 05       		.uleb128 0x5
 4263 00e9 49       		.uleb128 0x49
 4264 00ea 13       		.uleb128 0x13
 4265 00eb 00       		.byte	0
 4266 00ec 00       		.byte	0
 4267 00ed 14       		.uleb128 0x14
 4268 00ee 17       		.uleb128 0x17
 4269 00ef 01       		.byte	0x1
 4270 00f0 0B       		.uleb128 0xb
 4271 00f1 0B       		.uleb128 0xb
 4272 00f2 3A       		.uleb128 0x3a
 4273 00f3 0B       		.uleb128 0xb
 4274 00f4 3B       		.uleb128 0x3b
ARM GAS  /tmp/ccrAgNC8.s 			page 76


 4275 00f5 0B       		.uleb128 0xb
 4276 00f6 01       		.uleb128 0x1
 4277 00f7 13       		.uleb128 0x13
 4278 00f8 00       		.byte	0
 4279 00f9 00       		.byte	0
 4280 00fa 15       		.uleb128 0x15
 4281 00fb 0D       		.uleb128 0xd
 4282 00fc 00       		.byte	0
 4283 00fd 03       		.uleb128 0x3
 4284 00fe 0E       		.uleb128 0xe
 4285 00ff 3A       		.uleb128 0x3a
 4286 0100 0B       		.uleb128 0xb
 4287 0101 3B       		.uleb128 0x3b
 4288 0102 05       		.uleb128 0x5
 4289 0103 49       		.uleb128 0x49
 4290 0104 13       		.uleb128 0x13
 4291 0105 00       		.byte	0
 4292 0106 00       		.byte	0
 4293 0107 16       		.uleb128 0x16
 4294 0108 26       		.uleb128 0x26
 4295 0109 00       		.byte	0
 4296 010a 49       		.uleb128 0x49
 4297 010b 13       		.uleb128 0x13
 4298 010c 00       		.byte	0
 4299 010d 00       		.byte	0
 4300 010e 17       		.uleb128 0x17
 4301 010f 01       		.uleb128 0x1
 4302 0110 01       		.byte	0x1
 4303 0111 49       		.uleb128 0x49
 4304 0112 13       		.uleb128 0x13
 4305 0113 01       		.uleb128 0x1
 4306 0114 13       		.uleb128 0x13
 4307 0115 00       		.byte	0
 4308 0116 00       		.byte	0
 4309 0117 18       		.uleb128 0x18
 4310 0118 21       		.uleb128 0x21
 4311 0119 00       		.byte	0
 4312 011a 49       		.uleb128 0x49
 4313 011b 13       		.uleb128 0x13
 4314 011c 2F       		.uleb128 0x2f
 4315 011d 0B       		.uleb128 0xb
 4316 011e 00       		.byte	0
 4317 011f 00       		.byte	0
 4318 0120 19       		.uleb128 0x19
 4319 0121 15       		.uleb128 0x15
 4320 0122 01       		.byte	0x1
 4321 0123 27       		.uleb128 0x27
 4322 0124 19       		.uleb128 0x19
 4323 0125 49       		.uleb128 0x49
 4324 0126 13       		.uleb128 0x13
 4325 0127 01       		.uleb128 0x1
 4326 0128 13       		.uleb128 0x13
 4327 0129 00       		.byte	0
 4328 012a 00       		.byte	0
 4329 012b 1A       		.uleb128 0x1a
 4330 012c 0D       		.uleb128 0xd
 4331 012d 00       		.byte	0
ARM GAS  /tmp/ccrAgNC8.s 			page 77


 4332 012e 03       		.uleb128 0x3
 4333 012f 08       		.uleb128 0x8
 4334 0130 3A       		.uleb128 0x3a
 4335 0131 0B       		.uleb128 0xb
 4336 0132 3B       		.uleb128 0x3b
 4337 0133 0B       		.uleb128 0xb
 4338 0134 49       		.uleb128 0x49
 4339 0135 13       		.uleb128 0x13
 4340 0136 00       		.byte	0
 4341 0137 00       		.byte	0
 4342 0138 1B       		.uleb128 0x1b
 4343 0139 04       		.uleb128 0x4
 4344 013a 01       		.byte	0x1
 4345 013b 0B       		.uleb128 0xb
 4346 013c 0B       		.uleb128 0xb
 4347 013d 3A       		.uleb128 0x3a
 4348 013e 0B       		.uleb128 0xb
 4349 013f 3B       		.uleb128 0x3b
 4350 0140 0B       		.uleb128 0xb
 4351 0141 01       		.uleb128 0x1
 4352 0142 13       		.uleb128 0x13
 4353 0143 00       		.byte	0
 4354 0144 00       		.byte	0
 4355 0145 1C       		.uleb128 0x1c
 4356 0146 28       		.uleb128 0x28
 4357 0147 00       		.byte	0
 4358 0148 03       		.uleb128 0x3
 4359 0149 0E       		.uleb128 0xe
 4360 014a 1C       		.uleb128 0x1c
 4361 014b 0D       		.uleb128 0xd
 4362 014c 00       		.byte	0
 4363 014d 00       		.byte	0
 4364 014e 1D       		.uleb128 0x1d
 4365 014f 04       		.uleb128 0x4
 4366 0150 01       		.byte	0x1
 4367 0151 0B       		.uleb128 0xb
 4368 0152 0B       		.uleb128 0xb
 4369 0153 3A       		.uleb128 0x3a
 4370 0154 0B       		.uleb128 0xb
 4371 0155 3B       		.uleb128 0x3b
 4372 0156 05       		.uleb128 0x5
 4373 0157 01       		.uleb128 0x1
 4374 0158 13       		.uleb128 0x13
 4375 0159 00       		.byte	0
 4376 015a 00       		.byte	0
 4377 015b 1E       		.uleb128 0x1e
 4378 015c 2E       		.uleb128 0x2e
 4379 015d 01       		.byte	0x1
 4380 015e 3F       		.uleb128 0x3f
 4381 015f 19       		.uleb128 0x19
 4382 0160 03       		.uleb128 0x3
 4383 0161 0E       		.uleb128 0xe
 4384 0162 3A       		.uleb128 0x3a
 4385 0163 0B       		.uleb128 0xb
 4386 0164 3B       		.uleb128 0x3b
 4387 0165 0B       		.uleb128 0xb
 4388 0166 27       		.uleb128 0x27
ARM GAS  /tmp/ccrAgNC8.s 			page 78


 4389 0167 19       		.uleb128 0x19
 4390 0168 11       		.uleb128 0x11
 4391 0169 01       		.uleb128 0x1
 4392 016a 12       		.uleb128 0x12
 4393 016b 06       		.uleb128 0x6
 4394 016c 40       		.uleb128 0x40
 4395 016d 18       		.uleb128 0x18
 4396 016e 9742     		.uleb128 0x2117
 4397 0170 19       		.uleb128 0x19
 4398 0171 01       		.uleb128 0x1
 4399 0172 13       		.uleb128 0x13
 4400 0173 00       		.byte	0
 4401 0174 00       		.byte	0
 4402 0175 1F       		.uleb128 0x1f
 4403 0176 898201   		.uleb128 0x4109
 4404 0179 01       		.byte	0x1
 4405 017a 11       		.uleb128 0x11
 4406 017b 01       		.uleb128 0x1
 4407 017c 31       		.uleb128 0x31
 4408 017d 13       		.uleb128 0x13
 4409 017e 01       		.uleb128 0x1
 4410 017f 13       		.uleb128 0x13
 4411 0180 00       		.byte	0
 4412 0181 00       		.byte	0
 4413 0182 20       		.uleb128 0x20
 4414 0183 8A8201   		.uleb128 0x410a
 4415 0186 00       		.byte	0
 4416 0187 02       		.uleb128 0x2
 4417 0188 18       		.uleb128 0x18
 4418 0189 9142     		.uleb128 0x2111
 4419 018b 18       		.uleb128 0x18
 4420 018c 00       		.byte	0
 4421 018d 00       		.byte	0
 4422 018e 21       		.uleb128 0x21
 4423 018f 898201   		.uleb128 0x4109
 4424 0192 01       		.byte	0x1
 4425 0193 11       		.uleb128 0x11
 4426 0194 01       		.uleb128 0x1
 4427 0195 9542     		.uleb128 0x2115
 4428 0197 19       		.uleb128 0x19
 4429 0198 31       		.uleb128 0x31
 4430 0199 13       		.uleb128 0x13
 4431 019a 00       		.byte	0
 4432 019b 00       		.byte	0
 4433 019c 22       		.uleb128 0x22
 4434 019d 898201   		.uleb128 0x4109
 4435 01a0 00       		.byte	0
 4436 01a1 11       		.uleb128 0x11
 4437 01a2 01       		.uleb128 0x1
 4438 01a3 31       		.uleb128 0x31
 4439 01a4 13       		.uleb128 0x13
 4440 01a5 00       		.byte	0
 4441 01a6 00       		.byte	0
 4442 01a7 23       		.uleb128 0x23
 4443 01a8 898201   		.uleb128 0x4109
 4444 01ab 00       		.byte	0
 4445 01ac 11       		.uleb128 0x11
ARM GAS  /tmp/ccrAgNC8.s 			page 79


 4446 01ad 01       		.uleb128 0x1
 4447 01ae 9542     		.uleb128 0x2115
 4448 01b0 19       		.uleb128 0x19
 4449 01b1 31       		.uleb128 0x31
 4450 01b2 13       		.uleb128 0x13
 4451 01b3 00       		.byte	0
 4452 01b4 00       		.byte	0
 4453 01b5 24       		.uleb128 0x24
 4454 01b6 34       		.uleb128 0x34
 4455 01b7 00       		.byte	0
 4456 01b8 03       		.uleb128 0x3
 4457 01b9 0E       		.uleb128 0xe
 4458 01ba 3A       		.uleb128 0x3a
 4459 01bb 0B       		.uleb128 0xb
 4460 01bc 3B       		.uleb128 0x3b
 4461 01bd 0B       		.uleb128 0xb
 4462 01be 49       		.uleb128 0x49
 4463 01bf 13       		.uleb128 0x13
 4464 01c0 02       		.uleb128 0x2
 4465 01c1 18       		.uleb128 0x18
 4466 01c2 00       		.byte	0
 4467 01c3 00       		.byte	0
 4468 01c4 25       		.uleb128 0x25
 4469 01c5 34       		.uleb128 0x34
 4470 01c6 00       		.byte	0
 4471 01c7 03       		.uleb128 0x3
 4472 01c8 0E       		.uleb128 0xe
 4473 01c9 3A       		.uleb128 0x3a
 4474 01ca 0B       		.uleb128 0xb
 4475 01cb 3B       		.uleb128 0x3b
 4476 01cc 05       		.uleb128 0x5
 4477 01cd 49       		.uleb128 0x49
 4478 01ce 13       		.uleb128 0x13
 4479 01cf 3F       		.uleb128 0x3f
 4480 01d0 19       		.uleb128 0x19
 4481 01d1 3C       		.uleb128 0x3c
 4482 01d2 19       		.uleb128 0x19
 4483 01d3 00       		.byte	0
 4484 01d4 00       		.byte	0
 4485 01d5 26       		.uleb128 0x26
 4486 01d6 34       		.uleb128 0x34
 4487 01d7 00       		.byte	0
 4488 01d8 03       		.uleb128 0x3
 4489 01d9 08       		.uleb128 0x8
 4490 01da 3A       		.uleb128 0x3a
 4491 01db 0B       		.uleb128 0xb
 4492 01dc 3B       		.uleb128 0x3b
 4493 01dd 05       		.uleb128 0x5
 4494 01de 49       		.uleb128 0x49
 4495 01df 13       		.uleb128 0x13
 4496 01e0 3F       		.uleb128 0x3f
 4497 01e1 19       		.uleb128 0x19
 4498 01e2 3C       		.uleb128 0x3c
 4499 01e3 19       		.uleb128 0x19
 4500 01e4 00       		.byte	0
 4501 01e5 00       		.byte	0
 4502 01e6 27       		.uleb128 0x27
ARM GAS  /tmp/ccrAgNC8.s 			page 80


 4503 01e7 2E       		.uleb128 0x2e
 4504 01e8 01       		.byte	0x1
 4505 01e9 3F       		.uleb128 0x3f
 4506 01ea 19       		.uleb128 0x19
 4507 01eb 03       		.uleb128 0x3
 4508 01ec 0E       		.uleb128 0xe
 4509 01ed 3A       		.uleb128 0x3a
 4510 01ee 0B       		.uleb128 0xb
 4511 01ef 3B       		.uleb128 0x3b
 4512 01f0 05       		.uleb128 0x5
 4513 01f1 27       		.uleb128 0x27
 4514 01f2 19       		.uleb128 0x19
 4515 01f3 3C       		.uleb128 0x3c
 4516 01f4 19       		.uleb128 0x19
 4517 01f5 01       		.uleb128 0x1
 4518 01f6 13       		.uleb128 0x13
 4519 01f7 00       		.byte	0
 4520 01f8 00       		.byte	0
 4521 01f9 28       		.uleb128 0x28
 4522 01fa 2E       		.uleb128 0x2e
 4523 01fb 00       		.byte	0
 4524 01fc 3F       		.uleb128 0x3f
 4525 01fd 19       		.uleb128 0x19
 4526 01fe 03       		.uleb128 0x3
 4527 01ff 0E       		.uleb128 0xe
 4528 0200 3A       		.uleb128 0x3a
 4529 0201 0B       		.uleb128 0xb
 4530 0202 3B       		.uleb128 0x3b
 4531 0203 05       		.uleb128 0x5
 4532 0204 27       		.uleb128 0x27
 4533 0205 19       		.uleb128 0x19
 4534 0206 3C       		.uleb128 0x3c
 4535 0207 19       		.uleb128 0x19
 4536 0208 00       		.byte	0
 4537 0209 00       		.byte	0
 4538 020a 29       		.uleb128 0x29
 4539 020b 2E       		.uleb128 0x2e
 4540 020c 00       		.byte	0
 4541 020d 3F       		.uleb128 0x3f
 4542 020e 19       		.uleb128 0x19
 4543 020f 03       		.uleb128 0x3
 4544 0210 0E       		.uleb128 0xe
 4545 0211 3A       		.uleb128 0x3a
 4546 0212 0B       		.uleb128 0xb
 4547 0213 3B       		.uleb128 0x3b
 4548 0214 0B       		.uleb128 0xb
 4549 0215 27       		.uleb128 0x27
 4550 0216 19       		.uleb128 0x19
 4551 0217 3C       		.uleb128 0x3c
 4552 0218 19       		.uleb128 0x19
 4553 0219 00       		.byte	0
 4554 021a 00       		.byte	0
 4555 021b 2A       		.uleb128 0x2a
 4556 021c 2E       		.uleb128 0x2e
 4557 021d 01       		.byte	0x1
 4558 021e 3F       		.uleb128 0x3f
 4559 021f 19       		.uleb128 0x19
ARM GAS  /tmp/ccrAgNC8.s 			page 81


 4560 0220 03       		.uleb128 0x3
 4561 0221 0E       		.uleb128 0xe
 4562 0222 3A       		.uleb128 0x3a
 4563 0223 0B       		.uleb128 0xb
 4564 0224 3B       		.uleb128 0x3b
 4565 0225 0B       		.uleb128 0xb
 4566 0226 27       		.uleb128 0x27
 4567 0227 19       		.uleb128 0x19
 4568 0228 3C       		.uleb128 0x3c
 4569 0229 19       		.uleb128 0x19
 4570 022a 01       		.uleb128 0x1
 4571 022b 13       		.uleb128 0x13
 4572 022c 00       		.byte	0
 4573 022d 00       		.byte	0
 4574 022e 00       		.byte	0
 4575              		.section	.debug_aranges,"",%progbits
 4576 0000 2C000000 		.4byte	0x2c
 4577 0004 0200     		.2byte	0x2
 4578 0006 00000000 		.4byte	.Ldebug_info0
 4579 000a 04       		.byte	0x4
 4580 000b 00       		.byte	0
 4581 000c 0000     		.2byte	0
 4582 000e 0000     		.2byte	0
 4583 0010 00000000 		.4byte	.LFB207
 4584 0014 2C020000 		.4byte	.LFE207-.LFB207
 4585 0018 00000000 		.4byte	.LFB208
 4586 001c 88000000 		.4byte	.LFE208-.LFB208
 4587 0020 00000000 		.4byte	.LFB209
 4588 0024 0E000000 		.4byte	.LFE209-.LFB209
 4589 0028 00000000 		.4byte	0
 4590 002c 00000000 		.4byte	0
 4591              		.section	.debug_ranges,"",%progbits
 4592              	.Ldebug_ranges0:
 4593 0000 00000000 		.4byte	.LFB207
 4594 0004 2C020000 		.4byte	.LFE207
 4595 0008 00000000 		.4byte	.LFB208
 4596 000c 88000000 		.4byte	.LFE208
 4597 0010 00000000 		.4byte	.LFB209
 4598 0014 0E000000 		.4byte	.LFE209
 4599 0018 00000000 		.4byte	0
 4600 001c 00000000 		.4byte	0
 4601              		.section	.debug_line,"",%progbits
 4602              	.Ldebug_line0:
 4603 0000 72040000 		.section	.debug_str,"MS",%progbits,1
 4603      0200EE03 
 4603      00000201 
 4603      FB0E0D00 
 4603      01010101 
 4604              	.LASF102:
 4605 0000 4D314152 		.ascii	"M1AR\000"
 4605      00
 4606              	.LASF161:
 4607 0005 73746D33 		.ascii	"stm32_dma_stream_t\000"
 4607      325F646D 
 4607      615F7374 
 4607      7265616D 
 4607      5F7400
ARM GAS  /tmp/ccrAgNC8.s 			page 82


 4608              	.LASF2:
 4609 0018 73697A65 		.ascii	"size_t\000"
 4609      5F7400
 4610              	.LASF206:
 4611 001f 73717231 		.ascii	"sqr1\000"
 4611      00
 4612              	.LASF207:
 4613 0024 73717232 		.ascii	"sqr2\000"
 4613      00
 4614              	.LASF84:
 4615 0029 73697A65 		.ascii	"sizetype\000"
 4615      74797065 
 4615      00
 4616              	.LASF121:
 4617 0032 77747365 		.ascii	"wtsemp\000"
 4617      6D7000
 4618              	.LASF30:
 4619 0039 73797374 		.ascii	"systime_t\000"
 4619      696D655F 
 4619      7400
 4620              	.LASF35:
 4621 0043 705F6374 		.ascii	"p_ctx\000"
 4621      7800
 4622              	.LASF25:
 4623 0049 74707269 		.ascii	"tprio_t\000"
 4623      6F5F7400 
 4624              	.LASF198:
 4625 0051 61646363 		.ascii	"adccallback_t\000"
 4625      616C6C62 
 4625      61636B5F 
 4625      7400
 4626              	.LASF91:
 4627 005f 53515231 		.ascii	"SQR1\000"
 4627      00
 4628              	.LASF92:
 4629 0064 53515232 		.ascii	"SQR2\000"
 4629      00
 4630              	.LASF93:
 4631 0069 53515233 		.ascii	"SQR3\000"
 4631      00
 4632              	.LASF266:
 4633 006e 636F6D70 		.ascii	"compass_i2c_cfg\000"
 4633      6173735F 
 4633      6932635F 
 4633      63666700 
 4634              	.LASF44:
 4635 007e 705F6D73 		.ascii	"p_msgqueue\000"
 4635      67717565 
 4635      756500
 4636              	.LASF60:
 4637 0089 725F6374 		.ascii	"r_ctx\000"
 4637      7800
 4638              	.LASF17:
 4639 008f 696E7433 		.ascii	"int32_t\000"
 4639      325F7400 
 4640              	.LASF250:
 4641 0097 53657269 		.ascii	"SerialConfig\000"
ARM GAS  /tmp/ccrAgNC8.s 			page 83


 4641      616C436F 
 4641      6E666967 
 4641      00
 4642              	.LASF182:
 4643 00a4 61646373 		.ascii	"adcstate_t\000"
 4643      74617465 
 4643      5F7400
 4644              	.LASF64:
 4645 00af 76746675 		.ascii	"vtfunc_t\000"
 4645      6E635F74 
 4645      00
 4646              	.LASF73:
 4647 00b8 63685F76 		.ascii	"ch_virtual_timers_list\000"
 4647      69727475 
 4647      616C5F74 
 4647      696D6572 
 4647      735F6C69 
 4648              	.LASF226:
 4649 00cf 46415354 		.ascii	"FAST_DUTY_CYCLE_2\000"
 4649      5F445554 
 4649      595F4359 
 4649      434C455F 
 4649      3200
 4650              	.LASF252:
 4651 00e1 77726974 		.ascii	"write\000"
 4651      6500
 4652              	.LASF138:
 4653 00e7 656C5F66 		.ascii	"el_flags\000"
 4653      6C616773 
 4653      00
 4654              	.LASF190:
 4655 00f0 636F6E66 		.ascii	"config\000"
 4655      696700
 4656              	.LASF189:
 4657 00f7 73746174 		.ascii	"state\000"
 4657      6500
 4658              	.LASF254:
 4659 00fd 70757474 		.ascii	"putt\000"
 4659      00
 4660              	.LASF203:
 4661 0102 6572726F 		.ascii	"error_cb\000"
 4661      725F6362 
 4661      00
 4662              	.LASF174:
 4663 010b 696F6D6F 		.ascii	"iomode_t\000"
 4663      64655F74 
 4663      00
 4664              	.LASF273:
 4665 0114 69326349 		.ascii	"i2cInit\000"
 4665      6E697400 
 4666              	.LASF270:
 4667 011c 5F70616C 		.ascii	"_pal_lld_setgroupmode\000"
 4667      5F6C6C64 
 4667      5F736574 
 4667      67726F75 
 4667      706D6F64 
 4668              	.LASF129:
ARM GAS  /tmp/ccrAgNC8.s 			page 84


 4669 0132 6D5F6F77 		.ascii	"m_owner\000"
 4669      6E657200 
 4670              	.LASF71:
 4671 013a 76745F70 		.ascii	"vt_par\000"
 4671      617200
 4672              	.LASF202:
 4673 0141 656E645F 		.ascii	"end_cb\000"
 4673      636200
 4674              	.LASF118:
 4675 0148 65786974 		.ascii	"exitcode\000"
 4675      636F6465 
 4675      00
 4676              	.LASF3:
 4677 0151 5F5F7569 		.ascii	"__uint8_t\000"
 4677      6E74385F 
 4677      7400
 4678              	.LASF219:
 4679 015b 69326361 		.ascii	"i2caddr_t\000"
 4679      6464725F 
 4679      7400
 4680              	.LASF148:
 4681 0165 715F746F 		.ascii	"q_top\000"
 4681      7000
 4682              	.LASF123:
 4683 016b 65776D61 		.ascii	"ewmask\000"
 4683      736B00
 4684              	.LASF167:
 4685 0172 50555044 		.ascii	"PUPDR\000"
 4685      5200
 4686              	.LASF228:
 4687 0178 69326364 		.ascii	"i2cdutycycle_t\000"
 4687      75747963 
 4687      79636C65 
 4687      5F7400
 4688              	.LASF257:
 4689 0187 72656164 		.ascii	"readt\000"
 4689      7400
 4690              	.LASF147:
 4691 018d 715F6275 		.ascii	"q_buffer\000"
 4691      66666572 
 4691      00
 4692              	.LASF151:
 4693 0196 715F6E6F 		.ascii	"q_notify\000"
 4693      74696679 
 4693      00
 4694              	.LASF36:
 4695 019f 705F6E65 		.ascii	"p_newer\000"
 4695      77657200 
 4696              	.LASF9:
 4697 01a7 6C6F6E67 		.ascii	"long int\000"
 4697      20696E74 
 4697      00
 4698              	.LASF32:
 4699 01b0 705F6E65 		.ascii	"p_next\000"
 4699      787400
 4700              	.LASF150:
 4701 01b7 715F7264 		.ascii	"q_rdptr\000"
ARM GAS  /tmp/ccrAgNC8.s 			page 85


 4701      70747200 
 4702              	.LASF33:
 4703 01bf 705F7072 		.ascii	"p_prev\000"
 4703      657600
 4704              	.LASF216:
 4705 01c6 4932435F 		.ascii	"I2C_ACTIVE_RX\000"
 4705      41435449 
 4705      56455F52 
 4705      5800
 4706              	.LASF175:
 4707 01d4 696F706F 		.ascii	"ioportid_t\000"
 4707      72746964 
 4707      5F7400
 4708              	.LASF22:
 4709 01df 74737461 		.ascii	"tstate_t\000"
 4709      74655F74 
 4709      00
 4710              	.LASF54:
 4711 01e8 74687265 		.ascii	"threads_queue_t\000"
 4711      6164735F 
 4711      71756575 
 4711      655F7400 
 4712              	.LASF47:
 4713 01f8 705F6D74 		.ascii	"p_mtxlist\000"
 4713      786C6973 
 4713      7400
 4714              	.LASF247:
 4715 0202 6F717565 		.ascii	"oqueue\000"
 4715      756500
 4716              	.LASF111:
 4717 0209 72656761 		.ascii	"regarm_t\000"
 4717      726D5F74 
 4717      00
 4718              	.LASF272:
 4719 0212 7364496E 		.ascii	"sdInit\000"
 4719      697400
 4720              	.LASF144:
 4721 0219 696F5F71 		.ascii	"io_queue\000"
 4721      75657565 
 4721      00
 4722              	.LASF248:
 4723 0222 75736172 		.ascii	"usart\000"
 4723      7400
 4724              	.LASF1:
 4725 0228 7369676E 		.ascii	"signed char\000"
 4725      65642063 
 4725      68617200 
 4726              	.LASF42:
 4727 0234 705F7072 		.ascii	"p_preempt\000"
 4727      65656D70 
 4727      7400
 4728              	.LASF15:
 4729 023e 75696E74 		.ascii	"uint8_t\000"
 4729      385F7400 
 4730              	.LASF256:
 4731 0246 77726974 		.ascii	"writet\000"
 4731      657400
ARM GAS  /tmp/ccrAgNC8.s 			page 86


 4732              	.LASF27:
 4733 024d 6576656E 		.ascii	"eventmask_t\000"
 4733      746D6173 
 4733      6B5F7400 
 4734              	.LASF113:
 4735 0259 636F6E74 		.ascii	"context\000"
 4735      65787400 
 4736              	.LASF120:
 4737 0261 77747472 		.ascii	"wttrp\000"
 4737      7000
 4738              	.LASF4:
 4739 0267 756E7369 		.ascii	"unsigned char\000"
 4739      676E6564 
 4739      20636861 
 4739      7200
 4740              	.LASF152:
 4741 0275 715F6C69 		.ascii	"q_link\000"
 4741      6E6B00
 4742              	.LASF172:
 4743 027c 73746D33 		.ascii	"stm32_gpio_t\000"
 4743      325F6770 
 4743      696F5F74 
 4743      00
 4744              	.LASF77:
 4745 0289 70616E69 		.ascii	"panic_msg\000"
 4745      635F6D73 
 4745      6700
 4746              	.LASF187:
 4747 0293 61646365 		.ascii	"adcerror_t\000"
 4747      72726F72 
 4747      5F7400
 4748              	.LASF61:
 4749 029e 725F6E65 		.ascii	"r_newer\000"
 4749      77657200 
 4750              	.LASF75:
 4751 02a6 73797374 		.ascii	"system_debug_t\000"
 4751      656D5F64 
 4751      65627567 
 4751      5F7400
 4752              	.LASF240:
 4753 02b5 53445F55 		.ascii	"SD_UNINIT\000"
 4753      4E494E49 
 4753      5400
 4754              	.LASF178:
 4755 02bf 4144435F 		.ascii	"ADC_READY\000"
 4755      52454144 
 4755      5900
 4756              	.LASF162:
 4757 02c9 5F426F6F 		.ascii	"_Bool\000"
 4757      6C00
 4758              	.LASF183:
 4759 02cf 61646373 		.ascii	"adcsample_t\000"
 4759      616D706C 
 4759      655F7400 
 4760              	.LASF221:
 4761 02db 4F504D4F 		.ascii	"OPMODE_I2C\000"
 4761      44455F49 
ARM GAS  /tmp/ccrAgNC8.s 			page 87


 4761      324300
 4762              	.LASF131:
 4763 02e6 63686172 		.ascii	"char\000"
 4763      00
 4764              	.LASF269:
 4765 02eb 49324344 		.ascii	"I2CD1\000"
 4765      3100
 4766              	.LASF158:
 4767 02f1 69736869 		.ascii	"ishift\000"
 4767      667400
 4768              	.LASF264:
 4769 02f8 75736172 		.ascii	"usart_4_cfg\000"
 4769      745F345F 
 4769      63666700 
 4770              	.LASF34:
 4771 0304 705F7072 		.ascii	"p_prio\000"
 4771      696F00
 4772              	.LASF6:
 4773 030b 5F5F7569 		.ascii	"__uint16_t\000"
 4773      6E743136 
 4773      5F7400
 4774              	.LASF119:
 4775 0316 77746F62 		.ascii	"wtobjp\000"
 4775      6A7000
 4776              	.LASF234:
 4777 031d 6572726F 		.ascii	"errors\000"
 4777      727300
 4778              	.LASF181:
 4779 0324 4144435F 		.ascii	"ADC_ERROR\000"
 4779      4552524F 
 4779      5200
 4780              	.LASF255:
 4781 032e 67657474 		.ascii	"gett\000"
 4781      00
 4782              	.LASF112:
 4783 0333 73746B61 		.ascii	"stkalign_t\000"
 4783      6C69676E 
 4783      5F7400
 4784              	.LASF110:
 4785 033e 55534152 		.ascii	"USART_TypeDef\000"
 4785      545F5479 
 4785      70654465 
 4785      6600
 4786              	.LASF192:
 4787 034c 64657074 		.ascii	"depth\000"
 4787      6800
 4788              	.LASF208:
 4789 0352 73717233 		.ascii	"sqr3\000"
 4789      00
 4790              	.LASF200:
 4791 0357 63697263 		.ascii	"circular\000"
 4791      756C6172 
 4791      00
 4792              	.LASF215:
 4793 0360 4932435F 		.ascii	"I2C_ACTIVE_TX\000"
 4793      41435449 
 4793      56455F54 
ARM GAS  /tmp/ccrAgNC8.s 			page 88


 4793      5800
 4794              	.LASF185:
 4795 036e 4144435F 		.ascii	"ADC_ERR_DMAFAILURE\000"
 4795      4552525F 
 4795      444D4146 
 4795      41494C55 
 4795      524500
 4796              	.LASF156:
 4797 0381 73747265 		.ascii	"stream\000"
 4797      616D00
 4798              	.LASF133:
 4799 0388 6576656E 		.ascii	"event_listener_t\000"
 4799      745F6C69 
 4799      7374656E 
 4799      65725F74 
 4799      00
 4800              	.LASF173:
 4801 0399 696F706F 		.ascii	"ioportmask_t\000"
 4801      72746D61 
 4801      736B5F74 
 4801      00
 4802              	.LASF191:
 4803 03a6 73616D70 		.ascii	"samples\000"
 4803      6C657300 
 4804              	.LASF29:
 4805 03ae 636E745F 		.ascii	"cnt_t\000"
 4805      7400
 4806              	.LASF70:
 4807 03b4 76745F66 		.ascii	"vt_func\000"
 4807      756E6300 
 4808              	.LASF99:
 4809 03bc 4144435F 		.ascii	"ADC_TypeDef\000"
 4809      54797065 
 4809      44656600 
 4810              	.LASF249:
 4811 03c8 73706565 		.ascii	"speed\000"
 4811      6400
 4812              	.LASF46:
 4813 03ce 705F6570 		.ascii	"p_epending\000"
 4813      656E6469 
 4813      6E6700
 4814              	.LASF122:
 4815 03d9 77746D74 		.ascii	"wtmtxp\000"
 4815      787000
 4816              	.LASF57:
 4817 03e0 63685F72 		.ascii	"ch_ready_list\000"
 4817      65616479 
 4817      5F6C6973 
 4817      7400
 4818              	.LASF217:
 4819 03ee 4932435F 		.ascii	"I2C_LOCKED\000"
 4819      4C4F434B 
 4819      454400
 4820              	.LASF231:
 4821 03f9 64757479 		.ascii	"duty_cycle\000"
 4821      5F637963 
 4821      6C6500
ARM GAS  /tmp/ccrAgNC8.s 			page 89


 4822              	.LASF163:
 4823 0404 636C6561 		.ascii	"clear\000"
 4823      7200
 4824              	.LASF260:
 4825 040a 626F6172 		.ascii	"board_init\000"
 4825      645F696E 
 4825      697400
 4826              	.LASF233:
 4827 0415 49324344 		.ascii	"I2CDriver\000"
 4827      72697665 
 4827      7200
 4828              	.LASF141:
 4829 041f 65735F6E 		.ascii	"es_next\000"
 4829      65787400 
 4830              	.LASF146:
 4831 0427 715F636F 		.ascii	"q_counter\000"
 4831      756E7465 
 4831      7200
 4832              	.LASF13:
 4833 0431 5F5F7569 		.ascii	"__uint64_t\000"
 4833      6E743634 
 4833      5F7400
 4834              	.LASF11:
 4835 043c 6C6F6E67 		.ascii	"long unsigned int\000"
 4835      20756E73 
 4835      69676E65 
 4835      6420696E 
 4835      7400
 4836              	.LASF196:
 4837 044e 646D6173 		.ascii	"dmastp\000"
 4837      747000
 4838              	.LASF124:
 4839 0455 63685F73 		.ascii	"ch_semaphore\000"
 4839      656D6170 
 4839      686F7265 
 4839      00
 4840              	.LASF52:
 4841 0462 63685F74 		.ascii	"ch_thread\000"
 4841      68726561 
 4841      6400
 4842              	.LASF263:
 4843 046c 75736172 		.ascii	"usart_3_cfg\000"
 4843      745F335F 
 4843      63666700 
 4844              	.LASF72:
 4845 0478 76697274 		.ascii	"virtual_timers_list_t\000"
 4845      75616C5F 
 4845      74696D65 
 4845      72735F6C 
 4845      6973745F 
 4846              	.LASF135:
 4847 048e 656C5F6E 		.ascii	"el_next\000"
 4847      65787400 
 4848              	.LASF85:
 4849 0496 534D5052 		.ascii	"SMPR1\000"
 4849      3100
 4850              	.LASF86:
ARM GAS  /tmp/ccrAgNC8.s 			page 90


 4851 049c 534D5052 		.ascii	"SMPR2\000"
 4851      3200
 4852              	.LASF106:
 4853 04a2 54524953 		.ascii	"TRISE\000"
 4853      4500
 4854              	.LASF65:
 4855 04a8 76697274 		.ascii	"virtual_timer_t\000"
 4855      75616C5F 
 4855      74696D65 
 4855      725F7400 
 4856              	.LASF56:
 4857 04b8 72656164 		.ascii	"ready_list_t\000"
 4857      795F6C69 
 4857      73745F74 
 4857      00
 4858              	.LASF149:
 4859 04c5 715F7772 		.ascii	"q_wrptr\000"
 4859      70747200 
 4860              	.LASF169:
 4861 04cd 4C434B52 		.ascii	"LCKR\000"
 4861      00
 4862              	.LASF271:
 4863 04d2 73645374 		.ascii	"sdStart\000"
 4863      61727400 
 4864              	.LASF209:
 4865 04da 41444343 		.ascii	"ADCConversionGroup\000"
 4865      6F6E7665 
 4865      7273696F 
 4865      6E47726F 
 4865      757000
 4866              	.LASF180:
 4867 04ed 4144435F 		.ascii	"ADC_COMPLETE\000"
 4867      434F4D50 
 4867      4C455445 
 4867      00
 4868              	.LASF53:
 4869 04fa 63685F74 		.ascii	"ch_threads_list\000"
 4869      68726561 
 4869      64735F6C 
 4869      69737400 
 4870              	.LASF204:
 4871 050a 736D7072 		.ascii	"smpr1\000"
 4871      3100
 4872              	.LASF205:
 4873 0510 736D7072 		.ascii	"smpr2\000"
 4873      3200
 4874              	.LASF166:
 4875 0516 4F535045 		.ascii	"OSPEEDR\000"
 4875      45445200 
 4876              	.LASF184:
 4877 051e 6164635F 		.ascii	"adc_channels_num_t\000"
 4877      6368616E 
 4877      6E656C73 
 4877      5F6E756D 
 4877      5F7400
 4878              	.LASF238:
 4879 0531 646D6172 		.ascii	"dmarx\000"
ARM GAS  /tmp/ccrAgNC8.s 			page 91


 4879      7800
 4880              	.LASF10:
 4881 0537 5F5F7569 		.ascii	"__uint32_t\000"
 4881      6E743332 
 4881      5F7400
 4882              	.LASF12:
 4883 0542 6C6F6E67 		.ascii	"long long int\000"
 4883      206C6F6E 
 4883      6720696E 
 4883      7400
 4884              	.LASF212:
 4885 0550 4932435F 		.ascii	"I2C_UNINIT\000"
 4885      554E494E 
 4885      495400
 4886              	.LASF128:
 4887 055b 6D5F7175 		.ascii	"m_queue\000"
 4887      65756500 
 4888              	.LASF67:
 4889 0563 76745F6E 		.ascii	"vt_next\000"
 4889      65787400 
 4890              	.LASF278:
 4891 056b 474E5520 		.ascii	"GNU C 4.9.3 20150529 (prerelease) -mcpu=cortex-m3 -"
 4891      4320342E 
 4891      392E3320 
 4891      32303135 
 4891      30353239 
 4892 059e 6D6E6F2D 		.ascii	"mno-thumb-interwork -mthumb -ggdb -O2 -std=c99 -fom"
 4892      7468756D 
 4892      622D696E 
 4892      74657277 
 4892      6F726B20 
 4893 05d1 69742D66 		.ascii	"it-frame-pointer -falign-functions=16 -ffunction-se"
 4893      72616D65 
 4893      2D706F69 
 4893      6E746572 
 4893      202D6661 
 4894 0604 6374696F 		.ascii	"ctions -fdata-sections -fno-common\000"
 4894      6E73202D 
 4894      66646174 
 4894      612D7365 
 4894      6374696F 
 4895              	.LASF68:
 4896 0627 76745F70 		.ascii	"vt_prev\000"
 4896      72657600 
 4897              	.LASF199:
 4898 062f 61646365 		.ascii	"adcerrorcallback_t\000"
 4898      72726F72 
 4898      63616C6C 
 4898      6261636B 
 4898      5F7400
 4899              	.LASF109:
 4900 0642 47545052 		.ascii	"GTPR\000"
 4900      00
 4901              	.LASF277:
 4902 0647 70776D49 		.ascii	"pwmInit\000"
 4902      6E697400 
 4903              	.LASF142:
ARM GAS  /tmp/ccrAgNC8.s 			page 92


 4904 064f 6576656E 		.ascii	"event_source_t\000"
 4904      745F736F 
 4904      75726365 
 4904      5F7400
 4905              	.LASF251:
 4906 065e 53657269 		.ascii	"SerialDriverVMT\000"
 4906      616C4472 
 4906      69766572 
 4906      564D5400 
 4907              	.LASF107:
 4908 066e 464C5452 		.ascii	"FLTR\000"
 4908      00
 4909              	.LASF218:
 4910 0673 69326373 		.ascii	"i2cstate_t\000"
 4910      74617465 
 4910      5F7400
 4911              	.LASF195:
 4912 067e 6D757465 		.ascii	"mutex\000"
 4912      7800
 4913              	.LASF267:
 4914 0684 49544D5F 		.ascii	"ITM_RxBuffer\000"
 4914      52784275 
 4914      66666572 
 4914      00
 4915              	.LASF236:
 4916 0691 7278646D 		.ascii	"rxdmamode\000"
 4916      616D6F64 
 4916      6500
 4917              	.LASF197:
 4918 069b 646D616D 		.ascii	"dmamode\000"
 4918      6F646500 
 4919              	.LASF153:
 4920 06a3 716E6F74 		.ascii	"qnotify_t\000"
 4920      6966795F 
 4920      7400
 4921              	.LASF43:
 4922 06ad 705F7761 		.ascii	"p_waiting\000"
 4922      6974696E 
 4922      6700
 4923              	.LASF245:
 4924 06b7 6576656E 		.ascii	"event\000"
 4924      7400
 4925              	.LASF235:
 4926 06bd 61646472 		.ascii	"addr\000"
 4926      00
 4927              	.LASF239:
 4928 06c2 646D6174 		.ascii	"dmatx\000"
 4928      7800
 4929              	.LASF164:
 4930 06c8 4D4F4445 		.ascii	"MODER\000"
 4930      5200
 4931              	.LASF40:
 4932 06ce 705F666C 		.ascii	"p_flags\000"
 4932      61677300 
 4933              	.LASF253:
 4934 06d6 72656164 		.ascii	"read\000"
 4934      00
ARM GAS  /tmp/ccrAgNC8.s 			page 93


 4935              	.LASF243:
 4936 06db 73647374 		.ascii	"sdstate_t\000"
 4936      6174655F 
 4936      7400
 4937              	.LASF83:
 4938 06e5 69646C65 		.ascii	"idle_thread_wa\000"
 4938      5F746872 
 4938      6561645F 
 4938      776100
 4939              	.LASF0:
 4940 06f4 756E7369 		.ascii	"unsigned int\000"
 4940      676E6564 
 4940      20696E74 
 4940      00
 4941              	.LASF20:
 4942 0701 7274636E 		.ascii	"rtcnt_t\000"
 4942      745F7400 
 4943              	.LASF49:
 4944 0709 705F6D70 		.ascii	"p_mpool\000"
 4944      6F6F6C00 
 4945              	.LASF41:
 4946 0711 705F7265 		.ascii	"p_refs\000"
 4946      667300
 4947              	.LASF201:
 4948 0718 6E756D5F 		.ascii	"num_channels\000"
 4948      6368616E 
 4948      6E656C73 
 4948      00
 4949              	.LASF139:
 4950 0725 656C5F77 		.ascii	"el_wflags\000"
 4950      666C6167 
 4950      7300
 4951              	.LASF262:
 4952 072f 75736172 		.ascii	"usart_2_cfg\000"
 4952      745F325F 
 4952      63666700 
 4953              	.LASF137:
 4954 073b 656C5F65 		.ascii	"el_events\000"
 4954      76656E74 
 4954      7300
 4955              	.LASF214:
 4956 0745 4932435F 		.ascii	"I2C_READY\000"
 4956      52454144 
 4956      5900
 4957              	.LASF268:
 4958 074f 41444344 		.ascii	"ADCD1\000"
 4958      3100
 4959              	.LASF115:
 4960 0755 6F666673 		.ascii	"offset\000"
 4960      657400
 4961              	.LASF279:
 4962 075c 636F6E66 		.ascii	"config.c\000"
 4962      69672E63 
 4962      00
 4963              	.LASF103:
 4964 0765 444D415F 		.ascii	"DMA_Stream_TypeDef\000"
 4964      53747265 
ARM GAS  /tmp/ccrAgNC8.s 			page 94


 4964      616D5F54 
 4964      79706544 
 4964      656600
 4965              	.LASF31:
 4966 0778 74687265 		.ascii	"thread_t\000"
 4966      61645F74 
 4966      00
 4967              	.LASF227:
 4968 0781 46415354 		.ascii	"FAST_DUTY_CYCLE_16_9\000"
 4968      5F445554 
 4968      595F4359 
 4968      434C455F 
 4968      31365F39 
 4969              	.LASF50:
 4970 0796 74687265 		.ascii	"thread_reference_t\000"
 4970      61645F72 
 4970      65666572 
 4970      656E6365 
 4970      5F7400
 4971              	.LASF48:
 4972 07a9 705F7265 		.ascii	"p_realprio\000"
 4972      616C7072 
 4972      696F00
 4973              	.LASF114:
 4974 07b4 706F7274 		.ascii	"port_intctx\000"
 4974      5F696E74 
 4974      63747800 
 4975              	.LASF179:
 4976 07c0 4144435F 		.ascii	"ADC_ACTIVE\000"
 4976      41435449 
 4976      564500
 4977              	.LASF69:
 4978 07cb 76745F64 		.ascii	"vt_delta\000"
 4978      656C7461 
 4978      00
 4979              	.LASF232:
 4980 07d4 49324343 		.ascii	"I2CConfig\000"
 4980      6F6E6669 
 4980      6700
 4981              	.LASF258:
 4982 07de 7365745F 		.ascii	"set_pins\000"
 4982      70696E73 
 4982      00
 4983              	.LASF246:
 4984 07e7 69717565 		.ascii	"iqueue\000"
 4984      756500
 4985              	.LASF66:
 4986 07ee 63685F76 		.ascii	"ch_virtual_timer\000"
 4986      69727475 
 4986      616C5F74 
 4986      696D6572 
 4986      00
 4987              	.LASF126:
 4988 07ff 735F636E 		.ascii	"s_cnt\000"
 4988      7400
 4989              	.LASF159:
 4990 0805 73656C66 		.ascii	"selfindex\000"
ARM GAS  /tmp/ccrAgNC8.s 			page 95


 4990      696E6465 
 4990      7800
 4991              	.LASF14:
 4992 080f 6C6F6E67 		.ascii	"long long unsigned int\000"
 4992      206C6F6E 
 4992      6720756E 
 4992      7369676E 
 4992      65642069 
 4993              	.LASF37:
 4994 0826 705F6F6C 		.ascii	"p_older\000"
 4994      64657200 
 4995              	.LASF224:
 4996 082e 6932636F 		.ascii	"i2copmode_t\000"
 4996      706D6F64 
 4996      655F7400 
 4997              	.LASF16:
 4998 083a 75696E74 		.ascii	"uint16_t\000"
 4998      31365F74 
 4998      00
 4999              	.LASF26:
 5000 0843 6D73675F 		.ascii	"msg_t\000"
 5000      7400
 5001              	.LASF55:
 5002 0849 63685F74 		.ascii	"ch_threads_queue\000"
 5002      68726561 
 5002      64735F71 
 5002      75657565 
 5002      00
 5003              	.LASF28:
 5004 085a 6576656E 		.ascii	"eventflags_t\000"
 5004      74666C61 
 5004      67735F74 
 5004      00
 5005              	.LASF222:
 5006 0867 4F504D4F 		.ascii	"OPMODE_SMBUS_DEVICE\000"
 5006      44455F53 
 5006      4D425553 
 5006      5F444556 
 5006      49434500 
 5007              	.LASF24:
 5008 087b 74736C69 		.ascii	"tslices_t\000"
 5008      6365735F 
 5008      7400
 5009              	.LASF63:
 5010 0885 725F6375 		.ascii	"r_current\000"
 5010      7272656E 
 5010      7400
 5011              	.LASF188:
 5012 088f 41444344 		.ascii	"ADCDriver\000"
 5012      72697665 
 5012      7200
 5013              	.LASF171:
 5014 0899 41465248 		.ascii	"AFRH\000"
 5014      00
 5015              	.LASF170:
 5016 089e 4146524C 		.ascii	"AFRL\000"
 5016      00
ARM GAS  /tmp/ccrAgNC8.s 			page 96


 5017              	.LASF160:
 5018 08a3 76656374 		.ascii	"vector\000"
 5018      6F7200
 5019              	.LASF108:
 5020 08aa 4932435F 		.ascii	"I2C_TypeDef\000"
 5020      54797065 
 5020      44656600 
 5021              	.LASF186:
 5022 08b6 4144435F 		.ascii	"ADC_ERR_OVERFLOW\000"
 5022      4552525F 
 5022      4F564552 
 5022      464C4F57 
 5022      00
 5023              	.LASF225:
 5024 08c7 5354445F 		.ascii	"STD_DUTY_CYCLE\000"
 5024      44555459 
 5024      5F435943 
 5024      4C4500
 5025              	.LASF82:
 5026 08d6 6D61696E 		.ascii	"mainthread\000"
 5026      74687265 
 5026      616400
 5027              	.LASF261:
 5028 08e1 75736172 		.ascii	"usart_1_cfg\000"
 5028      745F315F 
 5028      63666700 
 5029              	.LASF58:
 5030 08ed 725F7175 		.ascii	"r_queue\000"
 5030      65756500 
 5031              	.LASF244:
 5032 08f5 53657269 		.ascii	"SerialDriver\000"
 5032      616C4472 
 5032      69766572 
 5032      00
 5033              	.LASF165:
 5034 0902 4F545950 		.ascii	"OTYPER\000"
 5034      455200
 5035              	.LASF145:
 5036 0909 715F7761 		.ascii	"q_waiting\000"
 5036      6974696E 
 5036      6700
 5037              	.LASF80:
 5038 0913 726C6973 		.ascii	"rlist\000"
 5038      7400
 5039              	.LASF21:
 5040 0919 746D6F64 		.ascii	"tmode_t\000"
 5040      655F7400 
 5041              	.LASF104:
 5042 0921 4F415231 		.ascii	"OAR1\000"
 5042      00
 5043              	.LASF105:
 5044 0926 4F415232 		.ascii	"OAR2\000"
 5044      00
 5045              	.LASF210:
 5046 092b 64756D6D 		.ascii	"dummy\000"
 5046      7900
 5047              	.LASF177:
ARM GAS  /tmp/ccrAgNC8.s 			page 97


 5048 0931 4144435F 		.ascii	"ADC_STOP\000"
 5048      53544F50 
 5048      00
 5049              	.LASF74:
 5050 093a 76745F73 		.ascii	"vt_systime\000"
 5050      79737469 
 5050      6D6500
 5051              	.LASF242:
 5052 0945 53445F52 		.ascii	"SD_READY\000"
 5052      45414459 
 5052      00
 5053              	.LASF193:
 5054 094e 67727070 		.ascii	"grpp\000"
 5054      00
 5055              	.LASF62:
 5056 0953 725F6F6C 		.ascii	"r_older\000"
 5056      64657200 
 5057              	.LASF116:
 5058 095b 746D5F63 		.ascii	"tm_calibration_t\000"
 5058      616C6962 
 5058      72617469 
 5058      6F6E5F74 
 5058      00
 5059              	.LASF194:
 5060 096c 74687265 		.ascii	"thread\000"
 5060      616400
 5061              	.LASF101:
 5062 0973 4D304152 		.ascii	"M0AR\000"
 5062      00
 5063              	.LASF125:
 5064 0978 735F7175 		.ascii	"s_queue\000"
 5064      65756500 
 5065              	.LASF5:
 5066 0980 73686F72 		.ascii	"short int\000"
 5066      7420696E 
 5066      7400
 5067              	.LASF140:
 5068 098a 6576656E 		.ascii	"event_source\000"
 5068      745F736F 
 5068      75726365 
 5068      00
 5069              	.LASF19:
 5070 0997 75696E74 		.ascii	"uint64_t\000"
 5070      36345F74 
 5070      00
 5071              	.LASF127:
 5072 09a0 63685F6D 		.ascii	"ch_mutex\000"
 5072      75746578 
 5072      00
 5073              	.LASF87:
 5074 09a9 4A4F4652 		.ascii	"JOFR1\000"
 5074      3100
 5075              	.LASF88:
 5076 09af 4A4F4652 		.ascii	"JOFR2\000"
 5076      3200
 5077              	.LASF89:
 5078 09b5 4A4F4652 		.ascii	"JOFR3\000"
ARM GAS  /tmp/ccrAgNC8.s 			page 98


 5078      3300
 5079              	.LASF90:
 5080 09bb 4A4F4652 		.ascii	"JOFR4\000"
 5080      3400
 5081              	.LASF59:
 5082 09c1 725F7072 		.ascii	"r_prio\000"
 5082      696F00
 5083              	.LASF223:
 5084 09c8 4F504D4F 		.ascii	"OPMODE_SMBUS_HOST\000"
 5084      44455F53 
 5084      4D425553 
 5084      5F484F53 
 5084      5400
 5085              	.LASF76:
 5086 09da 63685F73 		.ascii	"ch_system_debug\000"
 5086      79737465 
 5086      6D5F6465 
 5086      62756700 
 5087              	.LASF143:
 5088 09ea 696F5F71 		.ascii	"io_queue_t\000"
 5088      75657565 
 5088      5F7400
 5089              	.LASF168:
 5090 09f5 42535252 		.ascii	"BSRR\000"
 5090      00
 5091              	.LASF95:
 5092 09fa 4A445231 		.ascii	"JDR1\000"
 5092      00
 5093              	.LASF96:
 5094 09ff 4A445232 		.ascii	"JDR2\000"
 5094      00
 5095              	.LASF97:
 5096 0a04 4A445233 		.ascii	"JDR3\000"
 5096      00
 5097              	.LASF98:
 5098 0a09 4A445234 		.ascii	"JDR4\000"
 5098      00
 5099              	.LASF94:
 5100 0a0e 4A535152 		.ascii	"JSQR\000"
 5100      00
 5101              	.LASF81:
 5102 0a13 76746C69 		.ascii	"vtlist\000"
 5102      737400
 5103              	.LASF132:
 5104 0a1a 6D757465 		.ascii	"mutex_t\000"
 5104      785F7400 
 5105              	.LASF23:
 5106 0a22 74726566 		.ascii	"trefs_t\000"
 5106      735F7400 
 5107              	.LASF275:
 5108 0a2a 69326353 		.ascii	"i2cStart\000"
 5108      74617274 
 5108      00
 5109              	.LASF51:
 5110 0a33 74687265 		.ascii	"threads_list_t\000"
 5110      6164735F 
 5110      6C697374 
ARM GAS  /tmp/ccrAgNC8.s 			page 99


 5110      5F7400
 5111              	.LASF79:
 5112 0a42 63685F73 		.ascii	"ch_system\000"
 5112      79737465 
 5112      6D00
 5113              	.LASF229:
 5114 0a4c 6F705F6D 		.ascii	"op_mode\000"
 5114      6F646500 
 5115              	.LASF100:
 5116 0a54 4E445452 		.ascii	"NDTR\000"
 5116      00
 5117              	.LASF18:
 5118 0a59 75696E74 		.ascii	"uint32_t\000"
 5118      33325F74 
 5118      00
 5119              	.LASF154:
 5120 0a62 696E7075 		.ascii	"input_queue_t\000"
 5120      745F7175 
 5120      6575655F 
 5120      7400
 5121              	.LASF220:
 5122 0a70 69326366 		.ascii	"i2cflags_t\000"
 5122      6C616773 
 5122      5F7400
 5123              	.LASF134:
 5124 0a7b 6576656E 		.ascii	"event_listener\000"
 5124      745F6C69 
 5124      7374656E 
 5124      657200
 5125              	.LASF117:
 5126 0a8a 7264796D 		.ascii	"rdymsg\000"
 5126      736700
 5127              	.LASF7:
 5128 0a91 73686F72 		.ascii	"short unsigned int\000"
 5128      7420756E 
 5128      7369676E 
 5128      65642069 
 5128      6E7400
 5129              	.LASF176:
 5130 0aa4 4144435F 		.ascii	"ADC_UNINIT\000"
 5130      554E494E 
 5130      495400
 5131              	.LASF230:
 5132 0aaf 636C6F63 		.ascii	"clock_speed\000"
 5132      6B5F7370 
 5132      65656400 
 5133              	.LASF78:
 5134 0abb 63685F73 		.ascii	"ch_system_t\000"
 5134      79737465 
 5134      6D5F7400 
 5135              	.LASF276:
 5136 0ac7 61646353 		.ascii	"adcStart\000"
 5136      74617274 
 5136      00
 5137              	.LASF155:
 5138 0ad0 6F757470 		.ascii	"output_queue_t\000"
 5138      75745F71 
ARM GAS  /tmp/ccrAgNC8.s 			page 100


 5138      75657565 
 5138      5F7400
 5139              	.LASF8:
 5140 0adf 5F5F696E 		.ascii	"__int32_t\000"
 5140      7433325F 
 5140      7400
 5141              	.LASF241:
 5142 0ae9 53445F53 		.ascii	"SD_STOP\000"
 5142      544F5000 
 5143              	.LASF259:
 5144 0af1 696E6974 		.ascii	"init_drivers\000"
 5144      5F647269 
 5144      76657273 
 5144      00
 5145              	.LASF280:
 5146 0afe 2F686F6D 		.ascii	"/home/peter/Plocha/robocup_2017/dribler_versions/ro"
 5146      652F7065 
 5146      7465722F 
 5146      506C6F63 
 5146      68612F72 
 5147 0b31 626F6375 		.ascii	"bocup_austria\000"
 5147      705F6175 
 5147      73747269 
 5147      6100
 5148              	.LASF157:
 5149 0b3f 69666372 		.ascii	"ifcr\000"
 5149      00
 5150              	.LASF265:
 5151 0b44 75736172 		.ascii	"usart_6_cfg\000"
 5151      745F365F 
 5151      63666700 
 5152              	.LASF274:
 5153 0b50 6932634F 		.ascii	"i2cObjectInit\000"
 5153      626A6563 
 5153      74496E69 
 5153      7400
 5154              	.LASF213:
 5155 0b5e 4932435F 		.ascii	"I2C_STOP\000"
 5155      53544F50 
 5155      00
 5156              	.LASF38:
 5157 0b67 705F6E61 		.ascii	"p_name\000"
 5157      6D6500
 5158              	.LASF130:
 5159 0b6e 6D5F6E65 		.ascii	"m_next\000"
 5159      787400
 5160              	.LASF237:
 5161 0b75 7478646D 		.ascii	"txdmamode\000"
 5161      616D6F64 
 5161      6500
 5162              	.LASF45:
 5163 0b7f 705F6D73 		.ascii	"p_msg\000"
 5163      6700
 5164              	.LASF136:
 5165 0b85 656C5F6C 		.ascii	"el_listener\000"
 5165      69737465 
 5165      6E657200 
ARM GAS  /tmp/ccrAgNC8.s 			page 101


 5166              	.LASF211:
 5167 0b91 41444343 		.ascii	"ADCConfig\000"
 5167      6F6E6669 
 5167      6700
 5168              	.LASF39:
 5169 0b9b 705F7374 		.ascii	"p_state\000"
 5169      61746500 
 5170              		.ident	"GCC: (15:4.9.3+svn227297-1) 4.9.3 20150529 (prerelease)"
ARM GAS  /tmp/ccrAgNC8.s 			page 102


DEFINED SYMBOLS
                            *ABS*:00000000 config.c
     /tmp/ccrAgNC8.s:19     .text.set_pins:00000000 $t
     /tmp/ccrAgNC8.s:25     .text.set_pins:00000000 set_pins
     /tmp/ccrAgNC8.s:350    .text.set_pins:00000218 $d
     /tmp/ccrAgNC8.s:359    .text.init_drivers:00000000 $t
     /tmp/ccrAgNC8.s:365    .text.init_drivers:00000000 init_drivers
     /tmp/ccrAgNC8.s:433    .text.init_drivers:00000054 $d
     /tmp/ccrAgNC8.s:450    .text.board_init:00000000 $t
     /tmp/ccrAgNC8.s:456    .text.board_init:00000000 board_init
     /tmp/ccrAgNC8.s:481    .rodata.usart_4_cfg:00000000 $d
     /tmp/ccrAgNC8.s:485    .rodata.usart_4_cfg:00000000 usart_4_cfg
     /tmp/ccrAgNC8.s:492    .rodata.compass_i2c_cfg:00000000 $d
     /tmp/ccrAgNC8.s:496    .rodata.compass_i2c_cfg:00000000 compass_i2c_cfg
     /tmp/ccrAgNC8.s:503    .rodata.usart_6_cfg:00000000 $d
     /tmp/ccrAgNC8.s:507    .rodata.usart_6_cfg:00000000 usart_6_cfg
     /tmp/ccrAgNC8.s:514    .rodata.usart_1_cfg:00000000 $d
     /tmp/ccrAgNC8.s:518    .rodata.usart_1_cfg:00000000 usart_1_cfg
     /tmp/ccrAgNC8.s:525    .rodata.usart_2_cfg:00000000 $d
     /tmp/ccrAgNC8.s:529    .rodata.usart_2_cfg:00000000 usart_2_cfg
     /tmp/ccrAgNC8.s:536    .rodata.usart_3_cfg:00000000 $d
     /tmp/ccrAgNC8.s:540    .rodata.usart_3_cfg:00000000 usart_3_cfg
                     .debug_frame:00000010 $d
     /tmp/ccrAgNC8.s:358    .text.set_pins:0000022c $t
     /tmp/ccrAgNC8.s:449    .text.init_drivers:00000088 $t

UNDEFINED SYMBOLS
_pal_lld_setgroupmode
sdInit
sdStart
i2cInit
i2cObjectInit
i2cStart
adcStart
pwmInit
SD1
SD2
SD3
I2CD1
SD4
SD6
ADCD1
