ARM GAS  /tmp/ccrAgNC8.s 			page 1


   1              		.syntax unified
   2              		.cpu cortex-m3
   3              		.fpu softvfp
   4              		.eabi_attribute 20, 1
   5              		.eabi_attribute 21, 1
   6              		.eabi_attribute 23, 3
   7              		.eabi_attribute 24, 1
   8              		.eabi_attribute 25, 1
   9              		.eabi_attribute 26, 1
  10              		.eabi_attribute 30, 2
  11              		.eabi_attribute 34, 1
  12              		.eabi_attribute 18, 4
  13              		.thumb
  14              		.file	"config.c"
  15              		.text
  16              	.Ltext0:
  17              		.cfi_sections	.debug_frame
  18              		.section	.text.set_pins,"ax",%progbits
  19              		.align	2
  20              		.p2align 4,,15
  21              		.global	set_pins
  22              		.thumb
  23              		.thumb_func
  24              		.type	set_pins, %function
  25              	set_pins:
  26              	.LFB207:
  27              		.file 1 "config.c"
  28              		.loc 1 4 0
  29              		.cfi_startproc
  30              		@ args = 0, pretend = 0, frame = 0
  31              		@ frame_needed = 0, uses_anonymous_args = 0
  32 0000 2DE9F84F 		push	{r3, r4, r5, r6, r7, r8, r9, r10, fp, lr}
  33              		.cfi_def_cfa_offset 40
  34              		.cfi_offset 3, -40
  35              		.cfi_offset 4, -36
  36              		.cfi_offset 5, -32
  37              		.cfi_offset 6, -28
  38              		.cfi_offset 7, -24
  39              		.cfi_offset 8, -20
  40              		.cfi_offset 9, -16
  41              		.cfi_offset 10, -12
  42              		.cfi_offset 11, -8
  43              		.cfi_offset 14, -4
  44              		.loc 1 6 0
  45 0004 844C     		ldr	r4, .L3
  46 0006 0421     		movs	r1, #4
  47 0008 2046     		mov	r0, r4
  48 000a 4022     		movs	r2, #64
  49 000c FFF7FEFF 		bl	_pal_lld_setgroupmode
  50              	.LVL0:
  51              		.loc 1 7 0
  52 0010 2046     		mov	r0, r4
  53 0012 0821     		movs	r1, #8
  54 0014 4022     		movs	r2, #64
  55 0016 FFF7FEFF 		bl	_pal_lld_setgroupmode
  56              	.LVL1:
  57              		.loc 1 8 0
ARM GAS  /tmp/ccrAgNC8.s 			page 2


  58 001a 2046     		mov	r0, r4
  59 001c 1021     		movs	r1, #16
  60 001e 4022     		movs	r2, #64
  61 0020 FFF7FEFF 		bl	_pal_lld_setgroupmode
  62              	.LVL2:
  63              		.loc 1 9 0
  64 0024 2046     		mov	r0, r4
  65 0026 2021     		movs	r1, #32
  66 0028 4022     		movs	r2, #64
  67 002a FFF7FEFF 		bl	_pal_lld_setgroupmode
  68              	.LVL3:
  69              		.loc 1 10 0
  70 002e 4021     		movs	r1, #64
  71 0030 2046     		mov	r0, r4
  72 0032 0A46     		mov	r2, r1
  73 0034 FFF7FEFF 		bl	_pal_lld_setgroupmode
  74              	.LVL4:
  75              		.loc 1 13 0
  76 0038 0121     		movs	r1, #1
  77              		.loc 1 15 0
  78 003a 784F     		ldr	r7, .L3+4
  79              		.loc 1 13 0
  80 003c 2046     		mov	r0, r4
  81 003e 0A46     		mov	r2, r1
  82 0040 FFF7FEFF 		bl	_pal_lld_setgroupmode
  83              	.LVL5:
  84              		.loc 1 14 0
  85 0044 2046     		mov	r0, r4
  86 0046 0221     		movs	r1, #2
  87 0048 0122     		movs	r2, #1
  88 004a FFF7FEFF 		bl	_pal_lld_setgroupmode
  89              	.LVL6:
  90              		.loc 1 15 0
  91 004e 3846     		mov	r0, r7
  92 0050 4FF48071 		mov	r1, #256
  93 0054 0122     		movs	r2, #1
  94 0056 FFF7FEFF 		bl	_pal_lld_setgroupmode
  95              	.LVL7:
  96              		.loc 1 16 0
  97 005a 3846     		mov	r0, r7
  98 005c 4FF40071 		mov	r1, #512
  99 0060 0122     		movs	r2, #1
 100              		.loc 1 18 0
 101 0062 9146     		mov	r9, r2
 102              		.loc 1 21 0
 103 0064 8A46     		mov	r10, r1
 104              		.loc 1 16 0
 105 0066 FFF7FEFF 		bl	_pal_lld_setgroupmode
 106              	.LVL8:
 107              		.loc 1 20 0
 108 006a 4FF48073 		mov	r3, #256	@ movhi
 109              		.loc 1 24 0
 110 006e DFF8B881 		ldr	r8, .L3+16
 111              		.loc 1 19 0
 112 0072 4FF0020B 		mov	fp, #2
 113              		.loc 1 27 0
 114 0076 6A4E     		ldr	r6, .L3+8
ARM GAS  /tmp/ccrAgNC8.s 			page 3


 115              		.loc 1 18 0
 116 0078 A4F81A90 		strh	r9, [r4, #26]	@ movhi
 117              		.loc 1 24 0
 118 007c 5146     		mov	r1, r10
 119              		.loc 1 19 0
 120 007e A4F81AB0 		strh	fp, [r4, #26]	@ movhi
 121              		.loc 1 24 0
 122 0082 4046     		mov	r0, r8
 123              		.loc 1 20 0
 124 0084 7B83     		strh	r3, [r7, #26]	@ movhi
 125              		.loc 1 24 0
 126 0086 40F28232 		movw	r2, #898
 127              		.loc 1 21 0
 128 008a A7F81AA0 		strh	r10, [r7, #26]	@ movhi
 129              		.loc 1 24 0
 130 008e FFF7FEFF 		bl	_pal_lld_setgroupmode
 131              	.LVL9:
 132              		.loc 1 25 0
 133 0092 4046     		mov	r0, r8
 134 0094 4FF48061 		mov	r1, #1024
 135 0098 40F28232 		movw	r2, #898
 136 009c FFF7FEFF 		bl	_pal_lld_setgroupmode
 137              	.LVL10:
 138              		.loc 1 27 0
 139 00a0 3046     		mov	r0, r6
 140 00a2 2021     		movs	r1, #32
 141 00a4 40F28232 		movw	r2, #898
 142 00a8 FFF7FEFF 		bl	_pal_lld_setgroupmode
 143              	.LVL11:
 144              		.loc 1 28 0
 145 00ac 3046     		mov	r0, r6
 146 00ae 4021     		movs	r1, #64
 147 00b0 40F28232 		movw	r2, #898
 148              		.loc 1 33 0
 149 00b4 5B4D     		ldr	r5, .L3+12
 150              		.loc 1 28 0
 151 00b6 FFF7FEFF 		bl	_pal_lld_setgroupmode
 152              	.LVL12:
 153              		.loc 1 30 0
 154 00ba 3046     		mov	r0, r6
 155 00bc 4FF48071 		mov	r1, #256
 156 00c0 4022     		movs	r2, #64
 157 00c2 FFF7FEFF 		bl	_pal_lld_setgroupmode
 158              	.LVL13:
 159              		.loc 1 31 0
 160 00c6 3046     		mov	r0, r6
 161 00c8 5146     		mov	r1, r10
 162 00ca 4A46     		mov	r2, r9
 163 00cc FFF7FEFF 		bl	_pal_lld_setgroupmode
 164              	.LVL14:
 165              		.loc 1 33 0
 166 00d0 2846     		mov	r0, r5
 167 00d2 4FF48061 		mov	r1, #1024
 168 00d6 40F20242 		movw	r2, #1026
 169 00da FFF7FEFF 		bl	_pal_lld_setgroupmode
 170              	.LVL15:
 171              		.loc 1 34 0
ARM GAS  /tmp/ccrAgNC8.s 			page 4


 172 00de 2846     		mov	r0, r5
 173 00e0 4FF40061 		mov	r1, #2048
 174 00e4 40F20242 		movw	r2, #1026
 175 00e8 FFF7FEFF 		bl	_pal_lld_setgroupmode
 176              	.LVL16:
 177              		.loc 1 36 0
 178 00ec 2846     		mov	r0, r5
 179 00ee 4021     		movs	r1, #64
 180 00f0 40F20242 		movw	r2, #1026
 181 00f4 FFF7FEFF 		bl	_pal_lld_setgroupmode
 182              	.LVL17:
 183              		.loc 1 37 0
 184 00f8 2846     		mov	r0, r5
 185 00fa 8021     		movs	r1, #128
 186 00fc 40F20242 		movw	r2, #1026
 187 0100 FFF7FEFF 		bl	_pal_lld_setgroupmode
 188              	.LVL18:
 189              		.loc 1 40 0
 190 0104 2846     		mov	r0, r5
 191 0106 4A46     		mov	r2, r9
 192 0108 4FF48051 		mov	r1, #4096
 193 010c FFF7FEFF 		bl	_pal_lld_setgroupmode
 194              	.LVL19:
 195              		.loc 1 41 0
 196 0110 3046     		mov	r0, r6
 197 0112 0421     		movs	r1, #4
 198 0114 4022     		movs	r2, #64
 199 0116 FFF7FEFF 		bl	_pal_lld_setgroupmode
 200              	.LVL20:
 201              		.loc 1 44 0
 202 011a 3046     		mov	r0, r6
 203 011c 4FF40041 		mov	r1, #32768
 204 0120 4022     		movs	r2, #64
 205 0122 FFF7FEFF 		bl	_pal_lld_setgroupmode
 206              	.LVL21:
 207              		.loc 1 47 0
 208 0126 4046     		mov	r0, r8
 209 0128 4946     		mov	r1, r9
 210 012a 0322     		movs	r2, #3
 211 012c FFF7FEFF 		bl	_pal_lld_setgroupmode
 212              	.LVL22:
 213              		.loc 1 48 0
 214 0130 4046     		mov	r0, r8
 215 0132 5946     		mov	r1, fp
 216 0134 0322     		movs	r2, #3
 217 0136 FFF7FEFF 		bl	_pal_lld_setgroupmode
 218              	.LVL23:
 219              		.loc 1 49 0
 220 013a 4046     		mov	r0, r8
 221 013c 0421     		movs	r1, #4
 222 013e 0322     		movs	r2, #3
 223 0140 FFF7FEFF 		bl	_pal_lld_setgroupmode
 224              	.LVL24:
 225              		.loc 1 50 0
 226 0144 4046     		mov	r0, r8
 227 0146 0821     		movs	r1, #8
 228 0148 0322     		movs	r2, #3
ARM GAS  /tmp/ccrAgNC8.s 			page 5


 229 014a FFF7FEFF 		bl	_pal_lld_setgroupmode
 230              	.LVL25:
 231              		.loc 1 51 0
 232 014e 3846     		mov	r0, r7
 233 0150 4946     		mov	r1, r9
 234 0152 0322     		movs	r2, #3
 235 0154 FFF7FEFF 		bl	_pal_lld_setgroupmode
 236              	.LVL26:
 237              		.loc 1 52 0
 238 0158 3846     		mov	r0, r7
 239 015a 5946     		mov	r1, fp
 240 015c 0322     		movs	r2, #3
 241 015e FFF7FEFF 		bl	_pal_lld_setgroupmode
 242              	.LVL27:
 243              		.loc 1 53 0
 244 0162 2846     		mov	r0, r5
 245 0164 4946     		mov	r1, r9
 246 0166 4022     		movs	r2, #64
 247 0168 FFF7FEFF 		bl	_pal_lld_setgroupmode
 248              	.LVL28:
 249              		.loc 1 54 0
 250 016c 2846     		mov	r0, r5
 251 016e 5946     		mov	r1, fp
 252 0170 0322     		movs	r2, #3
 253 0172 FFF7FEFF 		bl	_pal_lld_setgroupmode
 254              	.LVL29:
 255              		.loc 1 55 0
 256 0176 2846     		mov	r0, r5
 257 0178 1021     		movs	r1, #16
 258 017a 0322     		movs	r2, #3
 259 017c FFF7FEFF 		bl	_pal_lld_setgroupmode
 260              	.LVL30:
 261              		.loc 1 56 0
 262 0180 2846     		mov	r0, r5
 263 0182 2021     		movs	r1, #32
 264 0184 0322     		movs	r2, #3
 265 0186 FFF7FEFF 		bl	_pal_lld_setgroupmode
 266              	.LVL31:
 267              		.loc 1 59 0
 268 018a 3046     		mov	r0, r6
 269 018c 4A46     		mov	r2, r9
 270 018e 4FF48051 		mov	r1, #4096
 271 0192 FFF7FEFF 		bl	_pal_lld_setgroupmode
 272              	.LVL32:
 273              		.loc 1 60 0
 274 0196 3046     		mov	r0, r6
 275 0198 4FF40051 		mov	r1, #8192
 276 019c 4FF48172 		mov	r2, #258
 277 01a0 FFF7FEFF 		bl	_pal_lld_setgroupmode
 278              	.LVL33:
 279              		.loc 1 61 0
 280 01a4 3046     		mov	r0, r6
 281 01a6 4FF48041 		mov	r1, #16384
 282 01aa 4FF48172 		mov	r2, #258
 283 01ae FFF7FEFF 		bl	_pal_lld_setgroupmode
 284              	.LVL34:
 285              		.loc 1 63 0
ARM GAS  /tmp/ccrAgNC8.s 			page 6


 286 01b2 2046     		mov	r0, r4
 287 01b4 5146     		mov	r1, r10
 288 01b6 4022     		movs	r2, #64
 289 01b8 FFF7FEFF 		bl	_pal_lld_setgroupmode
 290              	.LVL35:
 291              		.loc 1 65 0
 292 01bc 2046     		mov	r0, r4
 293 01be 4FF40061 		mov	r1, #2048
 294 01c2 8222     		movs	r2, #130
 295 01c4 FFF7FEFF 		bl	_pal_lld_setgroupmode
 296              	.LVL36:
 297              		.loc 1 66 0
 298 01c8 2046     		mov	r0, r4
 299 01ca 4FF40051 		mov	r1, #8192
 300 01ce 8222     		movs	r2, #130
 301 01d0 FFF7FEFF 		bl	_pal_lld_setgroupmode
 302              	.LVL37:
 303              		.loc 1 67 0
 304 01d4 2046     		mov	r0, r4
 305 01d6 4FF48041 		mov	r1, #16384
 306 01da 8222     		movs	r2, #130
 307 01dc FFF7FEFF 		bl	_pal_lld_setgroupmode
 308              	.LVL38:
 309              		.loc 1 70 0
 310 01e0 3846     		mov	r0, r7
 311 01e2 4021     		movs	r1, #64
 312 01e4 40F20222 		movw	r2, #514
 313 01e8 FFF7FEFF 		bl	_pal_lld_setgroupmode
 314              	.LVL39:
 315              		.loc 1 71 0
 316 01ec 3846     		mov	r0, r7
 317 01ee 8021     		movs	r1, #128
 318 01f0 40F20222 		movw	r2, #514
 319 01f4 FFF7FEFF 		bl	_pal_lld_setgroupmode
 320              	.LVL40:
 321              		.loc 1 73 0
 322 01f8 4046     		mov	r0, r8
 323 01fa 4FF48071 		mov	r1, #256
 324 01fe 40F20222 		movw	r2, #514
 325 0202 FFF7FEFF 		bl	_pal_lld_setgroupmode
 326              	.LVL41:
 327              		.loc 1 74 0
 328 0206 2846     		mov	r0, r5
 329 0208 5146     		mov	r1, r10
 330              		.loc 1 75 0
 331 020a BDE8F84F 		pop	{r3, r4, r5, r6, r7, r8, r9, r10, fp, lr}
 332              		.cfi_restore 14
 333              		.cfi_restore 11
 334              		.cfi_restore 10
 335              		.cfi_restore 9
 336              		.cfi_restore 8
 337              		.cfi_restore 7
 338              		.cfi_restore 6
 339              		.cfi_restore 5
 340              		.cfi_restore 4
 341              		.cfi_restore 3
 342              		.cfi_def_cfa_offset 0
ARM GAS  /tmp/ccrAgNC8.s 			page 7


 343              		.loc 1 74 0
 344 020e 40F20222 		movw	r2, #514
 345 0212 FFF7FEBF 		b	_pal_lld_setgroupmode
 346              	.LVL42:
 347              	.L4:
 348 0216 00BF     		.align	2
 349              	.L3:
 350 0218 00100240 		.word	1073876992
 351 021c 00040240 		.word	1073873920
 352 0220 000C0240 		.word	1073875968
 353 0224 00080240 		.word	1073874944
 354 0228 00000240 		.word	1073872896
 355              		.cfi_endproc
 356              	.LFE207:
 357              		.size	set_pins, .-set_pins
 358 022c AFF30080 		.section	.text.init_drivers,"ax",%progbits
 359              		.align	2
 360              		.p2align 4,,15
 361              		.global	init_drivers
 362              		.thumb
 363              		.thumb_func
 364              		.type	init_drivers, %function
 365              	init_drivers:
 366              	.LFB208:
 367              		.loc 1 119 0
 368              		.cfi_startproc
 369              		@ args = 0, pretend = 0, frame = 0
 370              		@ frame_needed = 0, uses_anonymous_args = 0
 371 0000 10B5     		push	{r4, lr}
 372              		.cfi_def_cfa_offset 8
 373              		.cfi_offset 4, -8
 374              		.cfi_offset 14, -4
 375              		.loc 1 120 0
 376 0002 FFF7FEFF 		bl	sdInit
 377              	.LVL43:
 378              		.loc 1 122 0
 379 0006 1348     		ldr	r0, .L7
 380 0008 1349     		ldr	r1, .L7+4
 381 000a FFF7FEFF 		bl	sdStart
 382              	.LVL44:
 383              		.loc 1 123 0
 384 000e 1348     		ldr	r0, .L7+8
 385 0010 1349     		ldr	r1, .L7+12
 386 0012 FFF7FEFF 		bl	sdStart
 387              	.LVL45:
 388              		.loc 1 124 0
 389 0016 1348     		ldr	r0, .L7+16
 390 0018 1349     		ldr	r1, .L7+20
 391 001a FFF7FEFF 		bl	sdStart
 392              	.LVL46:
 393              		.loc 1 130 0
 394 001e 134C     		ldr	r4, .L7+24
 395              		.loc 1 125 0
 396 0020 1348     		ldr	r0, .L7+28
 397 0022 1449     		ldr	r1, .L7+32
 398 0024 FFF7FEFF 		bl	sdStart
 399              	.LVL47:
ARM GAS  /tmp/ccrAgNC8.s 			page 8


 400              		.loc 1 126 0
 401 0028 1349     		ldr	r1, .L7+36
 402 002a 1448     		ldr	r0, .L7+40
 403 002c FFF7FEFF 		bl	sdStart
 404              	.LVL48:
 405              		.loc 1 128 0
 406 0030 FFF7FEFF 		bl	i2cInit
 407              	.LVL49:
 408              		.loc 1 130 0
 409 0034 2046     		mov	r0, r4
 410 0036 FFF7FEFF 		bl	i2cObjectInit
 411              	.LVL50:
 412              		.loc 1 131 0
 413 003a 2046     		mov	r0, r4
 414 003c 1049     		ldr	r1, .L7+44
 415 003e FFF7FEFF 		bl	i2cStart
 416              	.LVL51:
 417              		.loc 1 133 0
 418 0042 1048     		ldr	r0, .L7+48
 419 0044 0021     		movs	r1, #0
 420 0046 FFF7FEFF 		bl	adcStart
 421              	.LVL52:
 422              		.loc 1 136 0
 423 004a BDE81040 		pop	{r4, lr}
 424              		.cfi_restore 14
 425              		.cfi_restore 4
 426              		.cfi_def_cfa_offset 0
 427              		.loc 1 134 0
 428 004e FFF7FEBF 		b	pwmInit
 429              	.LVL53:
 430              	.L8:
 431 0052 00BF     		.align	2
 432              	.L7:
 433 0054 00000000 		.word	SD1
 434 0058 00000000 		.word	.LANCHOR0
 435 005c 00000000 		.word	SD2
 436 0060 00000000 		.word	.LANCHOR1
 437 0064 00000000 		.word	SD3
 438 0068 00000000 		.word	.LANCHOR2
 439 006c 00000000 		.word	I2CD1
 440 0070 00000000 		.word	SD4
 441 0074 00000000 		.word	.LANCHOR3
 442 0078 00000000 		.word	.LANCHOR4
 443 007c 00000000 		.word	SD6
 444 0080 00000000 		.word	.LANCHOR5
 445 0084 00000000 		.word	ADCD1
 446              		.cfi_endproc
 447              	.LFE208:
 448              		.size	init_drivers, .-init_drivers
 449 0088 AFF30080 		.section	.text.board_init,"ax",%progbits
 449      AFF30080 
 450              		.align	2
 451              		.p2align 4,,15
 452              		.global	board_init
 453              		.thumb
 454              		.thumb_func
 455              		.type	board_init, %function
ARM GAS  /tmp/ccrAgNC8.s 			page 9


 456              	board_init:
 457              	.LFB209:
 458              		.loc 1 138 0
 459              		.cfi_startproc
 460              		@ args = 0, pretend = 0, frame = 0
 461              		@ frame_needed = 0, uses_anonymous_args = 0
 462 0000 08B5     		push	{r3, lr}
 463              		.cfi_def_cfa_offset 8
 464              		.cfi_offset 3, -8
 465              		.cfi_offset 14, -4
 466              		.loc 1 139 0
 467 0002 FFF7FEFF 		bl	set_pins
 468              	.LVL54:
 469              		.loc 1 141 0
 470 0006 BDE80840 		pop	{r3, lr}
 471              		.cfi_restore 14
 472              		.cfi_restore 3
 473              		.cfi_def_cfa_offset 0
 474              		.loc 1 140 0
 475 000a FFF7FEBF 		b	init_drivers
 476              	.LVL55:
 477              		.cfi_endproc
 478              	.LFE209:
 479              		.size	board_init, .-board_init
 480 000e 00BF     		.section	.rodata.usart_4_cfg,"a",%progbits
 481              		.align	2
 482              		.set	.LANCHOR3,. + 0
 483              		.type	usart_4_cfg, %object
 484              		.size	usart_4_cfg, 12
 485              	usart_4_cfg:
 486 0000 00E10000 		.word	57600
 487 0004 0000     		.short	0
 488 0006 0000     		.short	0
 489 0008 0000     		.short	0
 490 000a 0000     		.space	2
 491              		.section	.rodata.compass_i2c_cfg,"a",%progbits
 492              		.align	2
 493              		.set	.LANCHOR5,. + 0
 494              		.type	compass_i2c_cfg, %object
 495              		.size	compass_i2c_cfg, 12
 496              	compass_i2c_cfg:
 497 0000 01       		.byte	1
 498 0001 000000   		.space	3
 499 0004 10270000 		.word	10000
 500 0008 03       		.byte	3
 501 0009 000000   		.space	3
 502              		.section	.rodata.usart_6_cfg,"a",%progbits
 503              		.align	2
 504              		.set	.LANCHOR4,. + 0
 505              		.type	usart_6_cfg, %object
 506              		.size	usart_6_cfg, 12
 507              	usart_6_cfg:
 508 0000 00C20100 		.word	115200
 509 0004 0000     		.short	0
 510 0006 0000     		.short	0
 511 0008 0000     		.short	0
 512 000a 0000     		.space	2
ARM GAS  /tmp/ccrAgNC8.s 			page 10


 513              		.section	.rodata.usart_1_cfg,"a",%progbits
 514              		.align	2
 515              		.set	.LANCHOR0,. + 0
 516              		.type	usart_1_cfg, %object
 517              		.size	usart_1_cfg, 12
 518              	usart_1_cfg:
 519 0000 00C20100 		.word	115200
 520 0004 0000     		.short	0
 521 0006 0000     		.short	0
 522 0008 0000     		.short	0
 523 000a 0000     		.space	2
 524              		.section	.rodata.usart_2_cfg,"a",%progbits
 525              		.align	2
 526              		.set	.LANCHOR1,. + 0
 527              		.type	usart_2_cfg, %object
 528              		.size	usart_2_cfg, 12
 529              	usart_2_cfg:
 530 0000 00C20100 		.word	115200
 531 0004 0000     		.short	0
 532 0006 0000     		.short	0
 533 0008 0000     		.short	0
 534 000a 0000     		.space	2
 535              		.section	.rodata.usart_3_cfg,"a",%progbits
 536              		.align	2
 537              		.set	.LANCHOR2,. + 0
 538              		.type	usart_3_cfg, %object
 539              		.size	usart_3_cfg, 12
 540              	usart_3_cfg:
 541 0000 80250000 		.word	9600
 542 0004 0000     		.short	0
 543 0006 0000     		.short	0
 544 0008 0000     		.short	0
 545 000a 0000     		.space	2
 546              		.text
 547              	.Letext0:
 548              		.file 2 "/usr/lib/gcc/arm-none-eabi/4.9.3/include/stddef.h"
 549              		.file 3 "/usr/include/newlib/machine/_default_types.h"
 550              		.file 4 "/usr/include/newlib/stdint.h"
 551              		.file 5 "/home/peter/ChibiOS_16.1.4/os/rt/ports/ARMCMx/compilers/GCC/chtypes.h"
 552              		.file 6 "/home/peter/ChibiOS_16.1.4/os/rt/include/chsystypes.h"
 553              		.file 7 "/home/peter/ChibiOS_16.1.4/os/rt/include/chschd.h"
 554              		.file 8 "/home/peter/ChibiOS_16.1.4/os/ext/CMSIS/ST/STM32F2xx/stm32f205xx.h"
 555              		.file 9 "/home/peter/ChibiOS_16.1.4/os/rt/ports/ARMCMx/chcore.h"
 556              		.file 10 "/home/peter/ChibiOS_16.1.4/os/rt/ports/ARMCMx/chcore_v7m.h"
 557              		.file 11 "/home/peter/ChibiOS_16.1.4/os/rt/include/chtm.h"
 558              		.file 12 "/home/peter/ChibiOS_16.1.4/os/rt/include/chsem.h"
 559              		.file 13 "/home/peter/ChibiOS_16.1.4/os/rt/include/chmtx.h"
 560              		.file 14 "/home/peter/ChibiOS_16.1.4/os/rt/include/chevents.h"
 561              		.file 15 "/home/peter/ChibiOS_16.1.4/os/rt/include/chqueues.h"
 562              		.file 16 "/home/peter/ChibiOS_16.1.4/os/hal/ports/STM32/LLD/DMAv2/stm32_dma.h"
 563              		.file 17 "/home/peter/ChibiOS_16.1.4/os/hal/ports/STM32/LLD/GPIOv2/pal_lld.h"
 564              		.file 18 "/home/peter/ChibiOS_16.1.4/os/hal/include/adc.h"
 565              		.file 19 "/home/peter/ChibiOS_16.1.4/os/hal/ports/STM32/LLD/ADCv2/adc_lld.h"
 566              		.file 20 "/home/peter/ChibiOS_16.1.4/os/hal/include/i2c.h"
 567              		.file 21 "/home/peter/ChibiOS_16.1.4/os/hal/ports/STM32/LLD/I2Cv1/i2c_lld.h"
 568              		.file 22 "/home/peter/ChibiOS_16.1.4/os/hal/include/serial.h"
 569              		.file 23 "/home/peter/ChibiOS_16.1.4/os/hal/ports/STM32/LLD/USARTv1/serial_lld.h"
ARM GAS  /tmp/ccrAgNC8.s 			page 11


 570              		.file 24 "/home/peter/ChibiOS_16.1.4/os/ext/CMSIS/include/core_cm3.h"
 571              		.file 25 "/home/peter/ChibiOS_16.1.4/os/hal/include/pwm.h"