ARM GAS  /tmp/cciaaWOK.s 			page 1


   1              		.syntax unified
   2              		.cpu cortex-m3
   3              		.fpu softvfp
   4              		.eabi_attribute 20, 1
   5              		.eabi_attribute 21, 1
   6              		.eabi_attribute 23, 3
   7              		.eabi_attribute 24, 1
   8              		.eabi_attribute 25, 1
   9              		.eabi_attribute 26, 1
  10              		.eabi_attribute 30, 2
  11              		.eabi_attribute 34, 1
  12              		.eabi_attribute 18, 4
  13              		.thumb
  14              		.file	"hal_lld.c"
  15              		.text
  16              	.Ltext0:
  17              		.cfi_sections	.debug_frame
  18              		.section	.text.hal_lld_init,"ax",%progbits
  19              		.align	2
  20              		.p2align 4,,15
  21              		.global	hal_lld_init
  22              		.thumb
  23              		.thumb_func
  24              		.type	hal_lld_init, %function
  25              	hal_lld_init:
  26              	.LFB208:
  27              		.file 1 "/home/peter/ChibiOS_16.1.4/os/hal/ports/STM32/STM32F4xx/hal_lld.c"
  28              		.loc 1 114 0
  29              		.cfi_startproc
  30              		@ args = 0, pretend = 0, frame = 0
  31              		@ frame_needed = 0, uses_anonymous_args = 0
  32              		@ link register save eliminated.
  33              		.loc 1 118 0
  34 0000 174B     		ldr	r3, .L8
  35 0002 4FF0FF31 		mov	r1, #-1
  36 0006 0022     		movs	r2, #0
  37 0008 1869     		ldr	r0, [r3, #16]
  38              		.loc 1 114 0
  39 000a 10B4     		push	{r4}
  40              		.cfi_def_cfa_offset 4
  41              		.cfi_offset 4, -4
  42              		.loc 1 118 0
  43 000c 1961     		str	r1, [r3, #16]
  44 000e 1A61     		str	r2, [r3, #16]
  45              		.loc 1 119 0
  46 0010 5869     		ldr	r0, [r3, #20]
  47 0012 5961     		str	r1, [r3, #20]
  48 0014 5A61     		str	r2, [r3, #20]
  49              		.loc 1 120 0
  50 0016 186A     		ldr	r0, [r3, #32]
  51              	.LBB4:
  52              	.LBB5:
  53              		.loc 1 57 0
  54 0018 124C     		ldr	r4, .L8+4
  55              	.LBE5:
  56              	.LBE4:
  57              		.loc 1 120 0
ARM GAS  /tmp/cciaaWOK.s 			page 2


  58 001a 60F08050 		orn	r0, r0, #268435456
  59 001e 1862     		str	r0, [r3, #32]
  60 0020 1A62     		str	r2, [r3, #32]
  61              		.loc 1 121 0
  62 0022 586A     		ldr	r0, [r3, #36]
  63 0024 5962     		str	r1, [r3, #36]
  64 0026 5A62     		str	r2, [r3, #36]
  65              		.loc 1 124 0
  66 0028 196C     		ldr	r1, [r3, #64]
  67 002a 41F08051 		orr	r1, r1, #268435456
  68 002e 1964     		str	r1, [r3, #64]
  69              	.LBB8:
  70              	.LBB6:
  71              		.loc 1 57 0
  72 0030 2168     		ldr	r1, [r4]
  73 0032 41F48071 		orr	r1, r1, #256
  74 0036 2160     		str	r1, [r4]
  75              		.loc 1 60 0
  76 0038 196F     		ldr	r1, [r3, #112]
  77 003a 01F44071 		and	r1, r1, #768
  78 003e B1F5007F 		cmp	r1, #512
  79 0042 03D0     		beq	.L2
  80              		.loc 1 62 0
  81 0044 4FF48031 		mov	r1, #65536
  82 0048 1967     		str	r1, [r3, #112]
  83              		.loc 1 63 0
  84 004a 1A67     		str	r2, [r3, #112]
  85              	.L2:
  86              		.loc 1 97 0
  87 004c 054A     		ldr	r2, .L8+4
  88              	.LBE6:
  89              	.LBE8:
  90              		.loc 1 137 0
  91 004e 5DF8044B 		ldr	r4, [sp], #4
  92              		.cfi_restore 4
  93              		.cfi_def_cfa_offset 0
  94              	.LBB9:
  95              	.LBB7:
  96              		.loc 1 97 0
  97 0052 5368     		ldr	r3, [r2, #4]
  98 0054 23F40073 		bic	r3, r3, #512
  99 0058 5360     		str	r3, [r2, #4]
 100              	.LBE7:
 101              	.LBE9:
 102              		.loc 1 130 0
 103 005a FFF7FEBF 		b	dmaInit
 104              	.LVL0:
 105              	.L9:
 106 005e 00BF     		.align	2
 107              	.L8:
 108 0060 00380240 		.word	1073887232
 109 0064 00700040 		.word	1073770496
 110              		.cfi_endproc
 111              	.LFE208:
 112              		.size	hal_lld_init, .-hal_lld_init
 113 0068 AFF30080 		.section	.text.stm32_clock_init,"ax",%progbits
 113      AFF30080 
ARM GAS  /tmp/cciaaWOK.s 			page 3


 114              		.align	2
 115              		.p2align 4,,15
 116              		.global	stm32_clock_init
 117              		.thumb
 118              		.thumb_func
 119              		.type	stm32_clock_init, %function
 120              	stm32_clock_init:
 121              	.LFB209:
 122              		.loc 1 146 0
 123              		.cfi_startproc
 124              		@ args = 0, pretend = 0, frame = 0
 125              		@ frame_needed = 0, uses_anonymous_args = 0
 126              		@ link register save eliminated.
 127              		.loc 1 150 0
 128 0000 284B     		ldr	r3, .L25
 129              		.loc 1 156 0
 130 0002 294A     		ldr	r2, .L25+4
 131              		.loc 1 162 0
 132 0004 1946     		mov	r1, r3
 133              		.loc 1 146 0
 134 0006 10B4     		push	{r4}
 135              		.cfi_def_cfa_offset 4
 136              		.cfi_offset 4, -4
 137              		.loc 1 156 0
 138 0008 0020     		movs	r0, #0
 139              		.loc 1 150 0
 140 000a 4FF08054 		mov	r4, #268435456
 141 000e 1C64     		str	r4, [r3, #64]
 142              		.loc 1 156 0
 143 0010 1060     		str	r0, [r2]
 144              		.loc 1 161 0
 145 0012 1A68     		ldr	r2, [r3]
 146 0014 42F00102 		orr	r2, r2, #1
 147 0018 1A60     		str	r2, [r3]
 148              	.L11:
 149              		.loc 1 162 0 discriminator 1
 150 001a 0B68     		ldr	r3, [r1]
 151 001c 214A     		ldr	r2, .L25
 152 001e 9C07     		lsls	r4, r3, #30
 153 0020 FBD5     		bpl	.L11
 154              		.loc 1 170 0
 155 0022 1146     		mov	r1, r2
 156              		.loc 1 168 0
 157 0024 9368     		ldr	r3, [r2, #8]
 158 0026 23F00303 		bic	r3, r3, #3
 159 002a 9360     		str	r3, [r2, #8]
 160              		.loc 1 169 0
 161 002c 9368     		ldr	r3, [r2, #8]
 162 002e 9360     		str	r3, [r2, #8]
 163              	.L12:
 164              		.loc 1 170 0 discriminator 1
 165 0030 8B68     		ldr	r3, [r1, #8]
 166 0032 1C4A     		ldr	r2, .L25
 167 0034 13F00C03 		ands	r3, r3, #12
 168 0038 FAD1     		bne	.L12
 169              		.loc 1 193 0
 170 003a 1146     		mov	r1, r2
ARM GAS  /tmp/cciaaWOK.s 			page 4


 171              		.loc 1 174 0
 172 003c 1068     		ldr	r0, [r2]
 173 003e 00F0F900 		and	r0, r0, #249
 174 0042 1060     		str	r0, [r2]
 175              		.loc 1 175 0
 176 0044 9360     		str	r3, [r2, #8]
 177              		.loc 1 192 0
 178 0046 536F     		ldr	r3, [r2, #116]
 179 0048 43F00103 		orr	r3, r3, #1
 180 004c 5367     		str	r3, [r2, #116]
 181              	.L13:
 182              		.loc 1 193 0 discriminator 1
 183 004e 4B6F     		ldr	r3, [r1, #116]
 184 0050 144A     		ldr	r2, .L25
 185 0052 9807     		lsls	r0, r3, #30
 186 0054 FBD5     		bpl	.L13
 187              		.loc 1 221 0
 188 0056 1146     		mov	r1, r2
 189              		.loc 1 199 0
 190 0058 144B     		ldr	r3, .L25+8
 191 005a 5360     		str	r3, [r2, #4]
 192              		.loc 1 201 0
 193 005c 1368     		ldr	r3, [r2]
 194 005e 43F08073 		orr	r3, r3, #16777216
 195 0062 1360     		str	r3, [r2]
 196              	.L14:
 197              		.loc 1 221 0 discriminator 1
 198 0064 0B68     		ldr	r3, [r1]
 199 0066 0F4A     		ldr	r2, .L25
 200 0068 9B01     		lsls	r3, r3, #6
 201 006a FBD5     		bpl	.L14
 202              		.loc 1 268 0
 203 006c 1146     		mov	r1, r2
 204              		.loc 1 261 0
 205 006e 104B     		ldr	r3, .L25+12
 206              		.loc 1 247 0
 207 0070 104C     		ldr	r4, .L25+16
 208              		.loc 1 261 0
 209 0072 4FF4E060 		mov	r0, #1792
 210              		.loc 1 247 0
 211 0076 9460     		str	r4, [r2, #8]
 212              		.loc 1 261 0
 213 0078 1860     		str	r0, [r3]
 214              		.loc 1 267 0
 215 007a 9368     		ldr	r3, [r2, #8]
 216 007c 43F00203 		orr	r3, r3, #2
 217 0080 9360     		str	r3, [r2, #8]
 218              	.L15:
 219              		.loc 1 268 0 discriminator 1
 220 0082 8B68     		ldr	r3, [r1, #8]
 221 0084 074A     		ldr	r2, .L25
 222 0086 03F00C03 		and	r3, r3, #12
 223 008a 082B     		cmp	r3, #8
 224 008c F9D1     		bne	.L15
 225              		.loc 1 275 0
 226 008e 536C     		ldr	r3, [r2, #68]
 227              		.loc 1 276 0
ARM GAS  /tmp/cciaaWOK.s 			page 5


 228 0090 5DF8044B 		ldr	r4, [sp], #4
 229              		.cfi_restore 4
 230              		.cfi_def_cfa_offset 0
 231              		.loc 1 275 0
 232 0094 43F48043 		orr	r3, r3, #16384
 233 0098 5364     		str	r3, [r2, #68]
 234 009a 536E     		ldr	r3, [r2, #100]
 235 009c 43F48043 		orr	r3, r3, #16384
 236 00a0 5366     		str	r3, [r2, #100]
 237              		.loc 1 276 0
 238 00a2 7047     		bx	lr
 239              	.L26:
 240              		.align	2
 241              	.L25:
 242 00a4 00380240 		.word	1073887232
 243 00a8 00700040 		.word	1073770496
 244 00ac 103C0105 		.word	83966992
 245 00b0 003C0240 		.word	1073888256
 246 00b4 80B8883C 		.word	1015593088
 247              		.cfi_endproc
 248              	.LFE209:
 249              		.size	stm32_clock_init, .-stm32_clock_init
 250              		.global	SystemCoreClock
 251 00b8 AFF30080 		.section	.data.SystemCoreClock,"aw",%progbits
 251      AFF30080 
 252              		.align	2
 253              		.type	SystemCoreClock, %object
 254              		.size	SystemCoreClock, 4
 255              	SystemCoreClock:
 256 0000 80C3C901 		.word	30000000
 257              		.text
 258              	.Letext0:
 259              		.file 2 "/usr/lib/gcc/arm-none-eabi/4.9.3/include/stddef.h"
 260              		.file 3 "/usr/include/newlib/machine/_default_types.h"
 261              		.file 4 "/usr/include/newlib/stdint.h"
 262              		.file 5 "/home/peter/ChibiOS_16.1.4/os/rt/ports/ARMCMx/compilers/GCC/chtypes.h"
 263              		.file 6 "/home/peter/ChibiOS_16.1.4/os/rt/include/chsystypes.h"
 264              		.file 7 "/home/peter/ChibiOS_16.1.4/os/rt/include/chschd.h"
 265              		.file 8 "/home/peter/ChibiOS_16.1.4/os/ext/CMSIS/ST/STM32F2xx/stm32f205xx.h"
 266              		.file 9 "/home/peter/ChibiOS_16.1.4/os/rt/ports/ARMCMx/chcore.h"
 267              		.file 10 "/home/peter/ChibiOS_16.1.4/os/rt/ports/ARMCMx/chcore_v7m.h"
 268              		.file 11 "/home/peter/ChibiOS_16.1.4/os/rt/include/chtm.h"
 269              		.file 12 "/home/peter/ChibiOS_16.1.4/os/rt/include/chsem.h"
 270              		.file 13 "/home/peter/ChibiOS_16.1.4/os/rt/include/chmtx.h"
 271              		.file 14 "/home/peter/ChibiOS_16.1.4/os/ext/CMSIS/include/core_cm3.h"
 272              		.file 15 "/home/peter/ChibiOS_16.1.4/os/hal/ports/STM32/LLD/DMAv2/stm32_dma.h"