ARM GAS  /tmp/ccfsyuYl.s 			page 1


   1              		.syntax unified
   2              		.cpu cortex-m3
   3              		.fpu softvfp
   4              		.eabi_attribute 20, 1
   5              		.eabi_attribute 21, 1
   6              		.eabi_attribute 23, 3
   7              		.eabi_attribute 24, 1
   8              		.eabi_attribute 25, 1
   9              		.eabi_attribute 26, 1
  10              		.eabi_attribute 30, 2
  11              		.eabi_attribute 34, 1
  12              		.eabi_attribute 18, 4
  13              		.thumb
  14              		.file	"hal_buffers.c"
  15              		.text
  16              	.Ltext0:
  17              		.cfi_sections	.debug_frame
  18              		.section	.text.ibqObjectInit,"ax",%progbits
  19              		.align	2
  20              		.p2align 4,,15
  21              		.global	ibqObjectInit
  22              		.thumb
  23              		.thumb_func
  24              		.type	ibqObjectInit, %function
  25              	ibqObjectInit:
  26              	.LFB207:
  27              		.file 1 "/home/peter/ChibiOS_16.1.4/os/hal/src/hal_buffers.c"
  28              		.loc 1 77 0
  29              		.cfi_startproc
  30              		@ args = 8, pretend = 0, frame = 0
  31              		@ frame_needed = 0, uses_anonymous_args = 0
  32              		@ link register save eliminated.
  33              	.LVL0:
  34 0000 F0B4     		push	{r4, r5, r6, r7}
  35              		.cfi_def_cfa_offset 16
  36              		.cfi_offset 4, -16
  37              		.cfi_offset 5, -12
  38              		.cfi_offset 6, -8
  39              		.cfi_offset 7, -4
  40              		.loc 1 85 0
  41 0002 0432     		adds	r2, r2, #4
  42              	.LVL1:
  43 0004 03FB0217 		mla	r7, r3, r2, r1
  44              		.loc 1 77 0
  45 0008 049E     		ldr	r6, [sp, #16]
  46 000a 059D     		ldr	r5, [sp, #20]
  47              		.loc 1 82 0
  48 000c 0024     		movs	r4, #0
  49              		.loc 1 85 0
  50 000e 4761     		str	r7, [r0, #20]
  51              		.loc 1 91 0
  52 0010 C662     		str	r6, [r0, #44]
  53              		.loc 1 92 0
  54 0012 0563     		str	r5, [r0, #48]
  55              		.loc 1 82 0
  56 0014 8460     		str	r4, [r0, #8]
  57              		.loc 1 89 0
ARM GAS  /tmp/ccfsyuYl.s 			page 2


  58 0016 4462     		str	r4, [r0, #36]
  59              		.loc 1 90 0
  60 0018 8462     		str	r4, [r0, #40]
  61              	.LBB256:
  62              	.LBB257:
  63              	.LBB258:
  64              	.LBB259:
  65              		.file 2 "/home/peter/ChibiOS_16.1.4/os/rt/include/chschd.h"
  66              		.loc 2 604 0
  67 001a 0060     		str	r0, [r0]
  68              		.loc 2 605 0
  69 001c 4060     		str	r0, [r0, #4]
  70              	.LBE259:
  71              	.LBE258:
  72              	.LBE257:
  73              	.LBE256:
  74              		.loc 1 83 0
  75 001e 0161     		str	r1, [r0, #16]
  76              		.loc 1 84 0
  77 0020 C160     		str	r1, [r0, #12]
  78              		.loc 1 86 0
  79 0022 8261     		str	r2, [r0, #24]
  80              		.loc 1 87 0
  81 0024 C361     		str	r3, [r0, #28]
  82              		.loc 1 88 0
  83 0026 0162     		str	r1, [r0, #32]
  84              		.loc 1 93 0
  85 0028 F0BC     		pop	{r4, r5, r6, r7}
  86              		.cfi_restore 7
  87              		.cfi_restore 6
  88              		.cfi_restore 5
  89              		.cfi_restore 4
  90              		.cfi_def_cfa_offset 0
  91              	.LVL2:
  92 002a 7047     		bx	lr
  93              		.cfi_endproc
  94              	.LFE207:
  95              		.size	ibqObjectInit, .-ibqObjectInit
  96 002c AFF30080 		.section	.text.ibqResetI,"ax",%progbits
  97              		.align	2
  98              		.p2align 4,,15
  99              		.global	ibqResetI
 100              		.thumb
 101              		.thumb_func
 102              		.type	ibqResetI, %function
 103              	ibqResetI:
 104              	.LFB208:
 105              		.loc 1 106 0
 106              		.cfi_startproc
 107              		@ args = 0, pretend = 0, frame = 0
 108              		@ frame_needed = 0, uses_anonymous_args = 0
 109              		@ link register save eliminated.
 110              	.LVL3:
 111              		.loc 1 111 0
 112 0000 016A     		ldr	r1, [r0, #32]
 113              		.loc 1 110 0
 114 0002 0022     		movs	r2, #0
ARM GAS  /tmp/ccfsyuYl.s 			page 3


 115              		.loc 1 111 0
 116 0004 0161     		str	r1, [r0, #16]
 117              		.loc 1 112 0
 118 0006 C160     		str	r1, [r0, #12]
 119              		.loc 1 110 0
 120 0008 8260     		str	r2, [r0, #8]
 121              		.loc 1 113 0
 122 000a 4262     		str	r2, [r0, #36]
 123              		.loc 1 114 0
 124 000c 8262     		str	r2, [r0, #40]
 125              	.LVL4:
 126              	.LBB260:
 127              	.LBB261:
 128              		.file 3 "/home/peter/ChibiOS_16.1.4/os/hal/osal/rt/osal.h"
 129              		.loc 3 810 0
 130 000e 6FF00101 		mvn	r1, #1
 131 0012 FFF7FEBF 		b	chThdDequeueAllI
 132              	.LVL5:
 133              	.LBE261:
 134              	.LBE260:
 135              		.cfi_endproc
 136              	.LFE208:
 137              		.size	ibqResetI, .-ibqResetI
 138 0016 00BFAFF3 		.section	.text.ibqGetEmptyBufferI,"ax",%progbits
 138      0080AFF3 
 138      0080
 139              		.align	2
 140              		.p2align 4,,15
 141              		.global	ibqGetEmptyBufferI
 142              		.thumb
 143              		.thumb_func
 144              		.type	ibqGetEmptyBufferI, %function
 145              	ibqGetEmptyBufferI:
 146              	.LFB209:
 147              		.loc 1 128 0
 148              		.cfi_startproc
 149              		@ args = 0, pretend = 0, frame = 0
 150              		@ frame_needed = 0, uses_anonymous_args = 0
 151              		@ link register save eliminated.
 152              	.LVL6:
 153              		.loc 1 132 0
 154 0000 C368     		ldr	r3, [r0, #12]
 155 0002 0269     		ldr	r2, [r0, #16]
 156 0004 9342     		cmp	r3, r2
 157 0006 01D0     		beq	.L12
 158              	.L5:
 159              		.loc 1 136 0
 160 0008 181D     		adds	r0, r3, #4
 161              	.LVL7:
 162              		.loc 1 137 0
 163 000a 7047     		bx	lr
 164              	.LVL8:
 165              	.L12:
 166              		.loc 1 132 0 discriminator 1
 167 000c 8268     		ldr	r2, [r0, #8]
 168 000e 002A     		cmp	r2, #0
 169 0010 FAD0     		beq	.L5
ARM GAS  /tmp/ccfsyuYl.s 			page 4


 170              		.loc 1 133 0
 171 0012 0020     		movs	r0, #0
 172              	.LVL9:
 173 0014 7047     		bx	lr
 174              		.cfi_endproc
 175              	.LFE209:
 176              		.size	ibqGetEmptyBufferI, .-ibqGetEmptyBufferI
 177 0016 00BFAFF3 		.section	.text.ibqPostFullBufferI,"ax",%progbits
 177      0080AFF3 
 177      0080
 178              		.align	2
 179              		.p2align 4,,15
 180              		.global	ibqPostFullBufferI
 181              		.thumb
 182              		.thumb_func
 183              		.type	ibqPostFullBufferI, %function
 184              	ibqPostFullBufferI:
 185              	.LFB210:
 186              		.loc 1 147 0
 187              		.cfi_startproc
 188              		@ args = 0, pretend = 0, frame = 0
 189              		@ frame_needed = 0, uses_anonymous_args = 0
 190              		@ link register save eliminated.
 191              	.LVL10:
 192 0000 30B4     		push	{r4, r5}
 193              		.cfi_def_cfa_offset 8
 194              		.cfi_offset 4, -8
 195              		.cfi_offset 5, -4
 196              		.loc 1 155 0
 197 0002 C468     		ldr	r4, [r0, #12]
 198              		.loc 1 160 0
 199 0004 4569     		ldr	r5, [r0, #20]
 200              		.loc 1 155 0
 201 0006 2160     		str	r1, [r4]
 202              		.loc 1 159 0
 203 0008 8369     		ldr	r3, [r0, #24]
 204              		.loc 1 158 0
 205 000a 8268     		ldr	r2, [r0, #8]
 206              		.loc 1 159 0
 207 000c 2344     		add	r3, r3, r4
 208              		.loc 1 160 0
 209 000e AB42     		cmp	r3, r5
 210              		.loc 1 159 0
 211 0010 C360     		str	r3, [r0, #12]
 212              		.loc 1 161 0
 213 0012 28BF     		it	cs
 214 0014 036A     		ldrcs	r3, [r0, #32]
 215              		.loc 1 158 0
 216 0016 02F10102 		add	r2, r2, #1
 217 001a 8260     		str	r2, [r0, #8]
 218              		.loc 1 161 0
 219 001c 28BF     		it	cs
 220 001e C360     		strcs	r3, [r0, #12]
 221              	.LVL11:
 222              	.LBB262:
 223              	.LBB263:
 224              		.loc 3 797 0
ARM GAS  /tmp/ccfsyuYl.s 			page 5


 225 0020 0021     		movs	r1, #0
 226              	.LVL12:
 227              	.LBE263:
 228              	.LBE262:
 229              		.loc 1 166 0
 230 0022 30BC     		pop	{r4, r5}
 231              		.cfi_restore 5
 232              		.cfi_restore 4
 233              		.cfi_def_cfa_offset 0
 234              	.LBB265:
 235              	.LBB264:
 236              		.loc 3 797 0
 237 0024 FFF7FEBF 		b	chThdDequeueNextI
 238              	.LVL13:
 239              	.LBE264:
 240              	.LBE265:
 241              		.cfi_endproc
 242              	.LFE210:
 243              		.size	ibqPostFullBufferI, .-ibqPostFullBufferI
 244 0028 AFF30080 		.section	.text.ibqGetFullBufferTimeoutS,"ax",%progbits
 244      AFF30080 
 245              		.align	2
 246              		.p2align 4,,15
 247              		.global	ibqGetFullBufferTimeoutS
 248              		.thumb
 249              		.thumb_func
 250              		.type	ibqGetFullBufferTimeoutS, %function
 251              	ibqGetFullBufferTimeoutS:
 252              	.LFB212:
 253              		.loc 1 220 0
 254              		.cfi_startproc
 255              		@ args = 0, pretend = 0, frame = 0
 256              		@ frame_needed = 0, uses_anonymous_args = 0
 257              	.LVL14:
 258 0000 38B5     		push	{r3, r4, r5, lr}
 259              		.cfi_def_cfa_offset 16
 260              		.cfi_offset 3, -16
 261              		.cfi_offset 4, -12
 262              		.cfi_offset 5, -8
 263              		.cfi_offset 14, -4
 264              		.loc 1 220 0
 265 0002 0446     		mov	r4, r0
 266 0004 0D46     		mov	r5, r1
 267              		.loc 1 224 0
 268 0006 05E0     		b	.L17
 269              	.LVL15:
 270              	.L19:
 271              	.LBB274:
 272              	.LBB275:
 273              	.LBB276:
 274              		.loc 3 784 0
 275 0008 2046     		mov	r0, r4
 276 000a 2946     		mov	r1, r5
 277 000c FFF7FEFF 		bl	chThdEnqueueTimeoutS
 278              	.LVL16:
 279              	.LBE276:
 280              	.LBE275:
ARM GAS  /tmp/ccfsyuYl.s 			page 6


 281              		.loc 1 226 0
 282 0010 0028     		cmp	r0, #0
 283 0012 09DB     		blt	.L18
 284              	.LVL17:
 285              	.L17:
 286              	.LBE274:
 287              		.loc 1 224 0
 288 0014 A368     		ldr	r3, [r4, #8]
 289 0016 002B     		cmp	r3, #0
 290 0018 F6D0     		beq	.L19
 291              	.LVL18:
 292              	.LBB277:
 293              	.LBB278:
 294              		.loc 1 234 0
 295 001a 2369     		ldr	r3, [r4, #16]
 296              		.loc 1 235 0
 297 001c 0020     		movs	r0, #0
 298 001e 1A68     		ldr	r2, [r3]
 299              		.loc 1 234 0
 300 0020 0433     		adds	r3, r3, #4
 301              		.loc 1 235 0
 302 0022 1A44     		add	r2, r2, r3
 303 0024 A262     		str	r2, [r4, #40]
 304              		.loc 1 234 0
 305 0026 6362     		str	r3, [r4, #36]
 306              	.LVL19:
 307              	.L18:
 308              	.LBE278:
 309              	.LBE277:
 310              		.loc 1 238 0
 311 0028 38BD     		pop	{r3, r4, r5, pc}
 312              		.cfi_endproc
 313              	.LFE212:
 314              		.size	ibqGetFullBufferTimeoutS, .-ibqGetFullBufferTimeoutS
 315 002a 00BFAFF3 		.section	.text.ibqGetFullBufferTimeout,"ax",%progbits
 315      0080
 316              		.align	2
 317              		.p2align 4,,15
 318              		.global	ibqGetFullBufferTimeout
 319              		.thumb
 320              		.thumb_func
 321              		.type	ibqGetFullBufferTimeout, %function
 322              	ibqGetFullBufferTimeout:
 323              	.LFB211:
 324              		.loc 1 189 0
 325              		.cfi_startproc
 326              		@ args = 0, pretend = 0, frame = 0
 327              		@ frame_needed = 0, uses_anonymous_args = 0
 328              	.LVL20:
 329 0000 08B5     		push	{r3, lr}
 330              		.cfi_def_cfa_offset 8
 331              		.cfi_offset 3, -8
 332              		.cfi_offset 14, -4
 333              	.LBB279:
 334              	.LBB280:
 335              	.LBB281:
 336              	.LBB282:
ARM GAS  /tmp/ccfsyuYl.s 			page 7


 337              	.LBB283:
 338              		.file 4 "/home/peter/ChibiOS_16.1.4/os/ext/CMSIS/include/core_cmFunc.h"
 339              		.loc 4 548 0
 340 0002 2023     		movs	r3, #32
 341              	@ 548 "/home/peter/ChibiOS_16.1.4/os/ext/CMSIS/include/core_cmFunc.h" 1
 342 0004 83F31188 		MSR basepri, r3
 343              	@ 0 "" 2
 344              		.thumb
 345              	.LBE283:
 346              	.LBE282:
 347              	.LBE281:
 348              	.LBE280:
 349              	.LBE279:
 350              		.loc 1 193 0
 351 0008 FFF7FEFF 		bl	ibqGetFullBufferTimeoutS
 352              	.LVL21:
 353              	.LBB284:
 354              	.LBB285:
 355              	.LBB286:
 356              	.LBB287:
 357              	.LBB288:
 358              	.LBB289:
 359              		.loc 4 548 0
 360 000c 0023     		movs	r3, #0
 361              	@ 548 "/home/peter/ChibiOS_16.1.4/os/ext/CMSIS/include/core_cmFunc.h" 1
 362 000e 83F31188 		MSR basepri, r3
 363              	@ 0 "" 2
 364              		.thumb
 365              	.LBE289:
 366              	.LBE288:
 367              	.LBE287:
 368              	.LBE286:
 369              	.LBE285:
 370              	.LBE284:
 371              		.loc 1 197 0
 372 0012 08BD     		pop	{r3, pc}
 373              		.cfi_endproc
 374              	.LFE211:
 375              		.size	ibqGetFullBufferTimeout, .-ibqGetFullBufferTimeout
 376 0014 AFF30080 		.section	.text.ibqReleaseEmptyBufferS,"ax",%progbits
 376      AFF30080 
 376      AFF30080 
 377              		.align	2
 378              		.p2align 4,,15
 379              		.global	ibqReleaseEmptyBufferS
 380              		.thumb
 381              		.thumb_func
 382              		.type	ibqReleaseEmptyBufferS, %function
 383              	ibqReleaseEmptyBufferS:
 384              	.LFB214:
 385              		.loc 1 263 0
 386              		.cfi_startproc
 387              		@ args = 0, pretend = 0, frame = 0
 388              		@ frame_needed = 0, uses_anonymous_args = 0
 389              		@ link register save eliminated.
 390              	.LVL22:
 391 0000 10B4     		push	{r4}
ARM GAS  /tmp/ccfsyuYl.s 			page 8


 392              		.cfi_def_cfa_offset 4
 393              		.cfi_offset 4, -4
 394              		.loc 1 270 0
 395 0002 8369     		ldr	r3, [r0, #24]
 396 0004 0469     		ldr	r4, [r0, #16]
 397              		.loc 1 271 0
 398 0006 4169     		ldr	r1, [r0, #20]
 399              		.loc 1 270 0
 400 0008 2344     		add	r3, r3, r4
 401              		.loc 1 271 0
 402 000a 8B42     		cmp	r3, r1
 403              		.loc 1 270 0
 404 000c 0361     		str	r3, [r0, #16]
 405              		.loc 1 269 0
 406 000e 8268     		ldr	r2, [r0, #8]
 407              		.loc 1 272 0
 408 0010 28BF     		it	cs
 409 0012 036A     		ldrcs	r3, [r0, #32]
 410              		.loc 1 269 0
 411 0014 02F1FF32 		add	r2, r2, #-1
 412              		.loc 1 272 0
 413 0018 28BF     		it	cs
 414 001a 0361     		strcs	r3, [r0, #16]
 415              		.loc 1 279 0
 416 001c C36A     		ldr	r3, [r0, #44]
 417              		.loc 1 269 0
 418 001e 8260     		str	r2, [r0, #8]
 419              		.loc 1 276 0
 420 0020 0022     		movs	r2, #0
 421 0022 4262     		str	r2, [r0, #36]
 422              		.loc 1 279 0
 423 0024 13B1     		cbz	r3, .L24
 424              		.loc 1 282 0
 425 0026 5DF8044B 		ldr	r4, [sp], #4
 426              		.cfi_remember_state
 427              		.cfi_restore 4
 428              		.cfi_def_cfa_offset 0
 429              		.loc 1 280 0
 430 002a 1847     		bx	r3	@ indirect register sibling call
 431              	.LVL23:
 432              	.L24:
 433              		.cfi_restore_state
 434              		.loc 1 282 0
 435 002c 5DF8044B 		ldr	r4, [sp], #4
 436              		.cfi_restore 4
 437              		.cfi_def_cfa_offset 0
 438 0030 7047     		bx	lr
 439              		.cfi_endproc
 440              	.LFE214:
 441              		.size	ibqReleaseEmptyBufferS, .-ibqReleaseEmptyBufferS
 442 0032 00BFAFF3 		.section	.text.ibqReleaseEmptyBuffer,"ax",%progbits
 442      0080AFF3 
 442      0080AFF3 
 442      0080
 443              		.align	2
 444              		.p2align 4,,15
 445              		.global	ibqReleaseEmptyBuffer
ARM GAS  /tmp/ccfsyuYl.s 			page 9


 446              		.thumb
 447              		.thumb_func
 448              		.type	ibqReleaseEmptyBuffer, %function
 449              	ibqReleaseEmptyBuffer:
 450              	.LFB213:
 451              		.loc 1 248 0
 452              		.cfi_startproc
 453              		@ args = 0, pretend = 0, frame = 0
 454              		@ frame_needed = 0, uses_anonymous_args = 0
 455              	.LVL24:
 456 0000 08B5     		push	{r3, lr}
 457              		.cfi_def_cfa_offset 8
 458              		.cfi_offset 3, -8
 459              		.cfi_offset 14, -4
 460              	.LBB290:
 461              	.LBB291:
 462              	.LBB292:
 463              	.LBB293:
 464              	.LBB294:
 465              		.loc 4 548 0
 466 0002 2023     		movs	r3, #32
 467              	@ 548 "/home/peter/ChibiOS_16.1.4/os/ext/CMSIS/include/core_cmFunc.h" 1
 468 0004 83F31188 		MSR basepri, r3
 469              	@ 0 "" 2
 470              		.thumb
 471              	.LBE294:
 472              	.LBE293:
 473              	.LBE292:
 474              	.LBE291:
 475              	.LBE290:
 476              		.loc 1 251 0
 477 0008 FFF7FEFF 		bl	ibqReleaseEmptyBufferS
 478              	.LVL25:
 479              	.LBB295:
 480              	.LBB296:
 481              	.LBB297:
 482              	.LBB298:
 483              	.LBB299:
 484              	.LBB300:
 485              		.loc 4 548 0
 486 000c 0023     		movs	r3, #0
 487              	@ 548 "/home/peter/ChibiOS_16.1.4/os/ext/CMSIS/include/core_cmFunc.h" 1
 488 000e 83F31188 		MSR basepri, r3
 489              	@ 0 "" 2
 490              		.thumb
 491 0012 08BD     		pop	{r3, pc}
 492              	.LBE300:
 493              	.LBE299:
 494              	.LBE298:
 495              	.LBE297:
 496              	.LBE296:
 497              	.LBE295:
 498              		.cfi_endproc
 499              	.LFE213:
 500              		.size	ibqReleaseEmptyBuffer, .-ibqReleaseEmptyBuffer
 501 0014 AFF30080 		.section	.text.ibqGetTimeout,"ax",%progbits
 501      AFF30080 
ARM GAS  /tmp/ccfsyuYl.s 			page 10


 501      AFF30080 
 502              		.align	2
 503              		.p2align 4,,15
 504              		.global	ibqGetTimeout
 505              		.thumb
 506              		.thumb_func
 507              		.type	ibqGetTimeout, %function
 508              	ibqGetTimeout:
 509              	.LFB215:
 510              		.loc 1 302 0
 511              		.cfi_startproc
 512              		@ args = 0, pretend = 0, frame = 0
 513              		@ frame_needed = 0, uses_anonymous_args = 0
 514              	.LVL26:
 515 0000 38B5     		push	{r3, r4, r5, lr}
 516              		.cfi_def_cfa_offset 16
 517              		.cfi_offset 3, -16
 518              		.cfi_offset 4, -12
 519              		.cfi_offset 5, -8
 520              		.cfi_offset 14, -4
 521              		.loc 1 302 0
 522 0002 0446     		mov	r4, r0
 523              	.LBB301:
 524              	.LBB302:
 525              	.LBB303:
 526              	.LBB304:
 527              	.LBB305:
 528              		.loc 4 548 0
 529 0004 2023     		movs	r3, #32
 530              	@ 548 "/home/peter/ChibiOS_16.1.4/os/ext/CMSIS/include/core_cmFunc.h" 1
 531 0006 83F31188 		MSR basepri, r3
 532              	@ 0 "" 2
 533              		.thumb
 534              	.LBE305:
 535              	.LBE304:
 536              	.LBE303:
 537              	.LBE302:
 538              	.LBE301:
 539              		.loc 1 308 0
 540 000a 456A     		ldr	r5, [r0, #36]
 541 000c 9DB1     		cbz	r5, .L36
 542              	.LVL27:
 543              	.L31:
 544              		.loc 1 317 0
 545 000e 2B46     		mov	r3, r5
 546              		.loc 1 322 0
 547 0010 A26A     		ldr	r2, [r4, #40]
 548              		.loc 1 317 0
 549 0012 13F8015B 		ldrb	r5, [r3], #1	@ zero_extendqisi2
 550              	.LVL28:
 551              		.loc 1 322 0
 552 0016 9342     		cmp	r3, r2
 553              		.loc 1 318 0
 554 0018 6362     		str	r3, [r4, #36]
 555              		.loc 1 322 0
 556 001a 04D2     		bcs	.L37
 557              	.LVL29:
ARM GAS  /tmp/ccfsyuYl.s 			page 11


 558              	.LBB306:
 559              	.LBB307:
 560              	.LBB308:
 561              	.LBB309:
 562              	.LBB310:
 563              	.LBB311:
 564              		.loc 4 548 0
 565 001c 0023     		movs	r3, #0
 566              	@ 548 "/home/peter/ChibiOS_16.1.4/os/ext/CMSIS/include/core_cmFunc.h" 1
 567 001e 83F31188 		MSR basepri, r3
 568              	@ 0 "" 2
 569              		.thumb
 570              	.LBE311:
 571              	.LBE310:
 572              	.LBE309:
 573              	.LBE308:
 574              	.LBE307:
 575              	.LBE306:
 576              		.loc 1 327 0
 577 0022 2846     		mov	r0, r5
 578              		.loc 1 328 0
 579 0024 38BD     		pop	{r3, r4, r5, pc}
 580              	.LVL30:
 581              	.L37:
 582              		.loc 1 323 0
 583 0026 2046     		mov	r0, r4
 584 0028 FFF7FEFF 		bl	ibqReleaseEmptyBufferS
 585              	.LVL31:
 586              	.LBB317:
 587              	.LBB316:
 588              	.LBB315:
 589              	.LBB314:
 590              	.LBB313:
 591              	.LBB312:
 592              		.loc 4 548 0
 593 002c 0023     		movs	r3, #0
 594              	@ 548 "/home/peter/ChibiOS_16.1.4/os/ext/CMSIS/include/core_cmFunc.h" 1
 595 002e 83F31188 		MSR basepri, r3
 596              	@ 0 "" 2
 597              		.thumb
 598              	.LBE312:
 599              	.LBE313:
 600              	.LBE314:
 601              	.LBE315:
 602              	.LBE316:
 603              	.LBE317:
 604              		.loc 1 327 0
 605 0032 2846     		mov	r0, r5
 606              		.loc 1 328 0
 607 0034 38BD     		pop	{r3, r4, r5, pc}
 608              	.LVL32:
 609              	.L36:
 610              		.loc 1 309 0
 611 0036 FFF7FEFF 		bl	ibqGetFullBufferTimeoutS
 612              	.LVL33:
 613              		.loc 1 310 0
 614 003a 08B9     		cbnz	r0, .L32
ARM GAS  /tmp/ccfsyuYl.s 			page 12


 615 003c 656A     		ldr	r5, [r4, #36]
 616 003e E6E7     		b	.L31
 617              	.L32:
 618              	.LVL34:
 619              	.LBB318:
 620              	.LBB319:
 621              	.LBB320:
 622              	.LBB321:
 623              	.LBB322:
 624              	.LBB323:
 625              		.loc 4 548 0
 626              	@ 548 "/home/peter/ChibiOS_16.1.4/os/ext/CMSIS/include/core_cmFunc.h" 1
 627 0040 85F31188 		MSR basepri, r5
 628              	@ 0 "" 2
 629              		.thumb
 630              	.LBE323:
 631              	.LBE322:
 632              	.LBE321:
 633              	.LBE320:
 634              	.LBE319:
 635              	.LBE318:
 636              		.loc 1 312 0
 637 0044 38BD     		pop	{r3, r4, r5, pc}
 638              		.cfi_endproc
 639              	.LFE215:
 640              		.size	ibqGetTimeout, .-ibqGetTimeout
 641 0046 00BFAFF3 		.section	.text.ibqReadTimeout,"ax",%progbits
 641      0080AFF3 
 641      0080
 642              		.align	2
 643              		.p2align 4,,15
 644              		.global	ibqReadTimeout
 645              		.thumb
 646              		.thumb_func
 647              		.type	ibqReadTimeout, %function
 648              	ibqReadTimeout:
 649              	.LFB216:
 650              		.loc 1 352 0
 651              		.cfi_startproc
 652              		@ args = 0, pretend = 0, frame = 8
 653              		@ frame_needed = 0, uses_anonymous_args = 0
 654              	.LVL35:
 655 0000 2DE9F04F 		push	{r4, r5, r6, r7, r8, r9, r10, fp, lr}
 656              		.cfi_def_cfa_offset 36
 657              		.cfi_offset 4, -36
 658              		.cfi_offset 5, -32
 659              		.cfi_offset 6, -28
 660              		.cfi_offset 7, -24
 661              		.cfi_offset 8, -20
 662              		.cfi_offset 9, -16
 663              		.cfi_offset 10, -12
 664              		.cfi_offset 11, -8
 665              		.cfi_offset 14, -4
 666 0004 0446     		mov	r4, r0
 667 0006 83B0     		sub	sp, sp, #12
 668              		.cfi_def_cfa_offset 48
 669              		.loc 1 352 0
ARM GAS  /tmp/ccfsyuYl.s 			page 13


 670 0008 0E46     		mov	r6, r1
 671 000a 9246     		mov	r10, r2
 672 000c 9946     		mov	r9, r3
 673              	.LBB324:
 674              	.LBB325:
 675              	.LBB326:
 676              	.LBB327:
 677              	.LBB328:
 678              		.loc 4 548 0
 679 000e 2027     		movs	r7, #32
 680              	@ 548 "/home/peter/ChibiOS_16.1.4/os/ext/CMSIS/include/core_cmFunc.h" 1
 681 0010 87F31188 		MSR basepri, r7
 682              	@ 0 "" 2
 683              		.thumb
 684              	.LBE328:
 685              	.LBE327:
 686              	.LBE326:
 687              	.LBE325:
 688              	.LBE324:
 689              	.LBB329:
 690              	.LBB330:
 691              		.loc 1 370 0
 692 0014 013B     		subs	r3, r3, #1
 693              	.LVL36:
 694 0016 0093     		str	r3, [sp]
 695              	.LBE330:
 696              	.LBE329:
 697              	.LBB377:
 698              	.LBB378:
 699              	.LBB379:
 700              		.file 5 "/home/peter/ChibiOS_16.1.4/os/rt/include/chvt.h"
 701              		.loc 5 231 0
 702 0018 384B     		ldr	r3, .L59
 703              	.LBE379:
 704              	.LBE378:
 705              	.LBE377:
 706              	.LBB382:
 707              		.loc 1 365 0
 708 001a 616A     		ldr	r1, [r4, #36]
 709              	.LVL37:
 710              	.LBE382:
 711              	.LBB383:
 712              	.LBB381:
 713              	.LBB380:
 714              		.loc 5 231 0
 715 001c 9B6A     		ldr	r3, [r3, #40]
 716              	.LBE380:
 717              	.LBE381:
 718              	.LBE383:
 719              		.loc 1 353 0
 720 001e 0025     		movs	r5, #0
 721              		.loc 1 359 0
 722 0020 4B44     		add	r3, r9, r3
 723              	.LBB384:
 724              	.LBB351:
 725              	.LBB352:
 726              	.LBB353:
ARM GAS  /tmp/ccfsyuYl.s 			page 14


 727              	.LBB354:
 728              	.LBB355:
 729              	.LBB356:
 730              		.loc 4 548 0
 731 0022 A846     		mov	r8, r5
 732              	.LBE356:
 733              	.LBE355:
 734              	.LBE354:
 735              	.LBE353:
 736              	.LBE352:
 737              	.LBE351:
 738              	.LBE384:
 739              		.loc 1 359 0
 740 0024 0193     		str	r3, [sp, #4]
 741              	.LVL38:
 742              	.LBB385:
 743              		.loc 1 365 0
 744 0026 91B3     		cbz	r1, .L53
 745              	.LVL39:
 746              	.L39:
 747              		.loc 1 394 0
 748 0028 A36A     		ldr	r3, [r4, #40]
 749              		.loc 1 395 0
 750 002a C5EB0A0B 		rsb	fp, r5, r10
 751              		.loc 1 394 0
 752 002e 5B1A     		subs	r3, r3, r1
 753              	.LVL40:
 754 0030 9B45     		cmp	fp, r3
 755 0032 28BF     		it	cs
 756 0034 9B46     		movcs	fp, r3
 757              	.LVL41:
 758              		.loc 1 401 0
 759 0036 BBF1400F 		cmp	fp, #64
 760 003a 38D9     		bls	.L45
 761              		.loc 1 403 0
 762 003c 3346     		mov	r3, r6
 763 003e 01F14002 		add	r2, r1, #64
 764              	.LVL42:
 765              	.L46:
 766 0042 D1F800B0 		ldr	fp, [r1]	@ unaligned
 767 0046 D1F804C0 		ldr	ip, [r1, #4]	@ unaligned
 768 004a D1F808E0 		ldr	lr, [r1, #8]	@ unaligned
 769 004e C868     		ldr	r0, [r1, #12]	@ unaligned
 770 0050 1031     		adds	r1, r1, #16
 771 0052 9142     		cmp	r1, r2
 772 0054 C3F800B0 		str	fp, [r3]	@ unaligned
 773 0058 C3F804C0 		str	ip, [r3, #4]	@ unaligned
 774 005c C3F808E0 		str	lr, [r3, #8]	@ unaligned
 775 0060 D860     		str	r0, [r3, #12]	@ unaligned
 776 0062 03F11003 		add	r3, r3, #16
 777 0066 ECD1     		bne	.L46
 778              		.loc 1 405 0
 779 0068 636A     		ldr	r3, [r4, #36]
 780              		.loc 1 416 0
 781 006a A26A     		ldr	r2, [r4, #40]
 782              		.loc 1 405 0
 783 006c 4033     		adds	r3, r3, #64
ARM GAS  /tmp/ccfsyuYl.s 			page 15


 784              		.loc 1 416 0
 785 006e 9A42     		cmp	r2, r3
 786              		.loc 1 404 0
 787 0070 06F14006 		add	r6, r6, #64
 788              	.LVL43:
 789              		.loc 1 406 0
 790 0074 05F14005 		add	r5, r5, #64
 791              	.LVL44:
 792              		.loc 1 405 0
 793 0078 6362     		str	r3, [r4, #36]
 794              		.loc 1 416 0
 795 007a 24D9     		bls	.L54
 796              	.L48:
 797              	.LVL45:
 798              	.LBB367:
 799              	.LBB365:
 800              	.LBB363:
 801              	.LBB361:
 802              	.LBB359:
 803              	.LBB357:
 804              		.loc 4 548 0
 805              	@ 548 "/home/peter/ChibiOS_16.1.4/os/ext/CMSIS/include/core_cmFunc.h" 1
 806 007c 88F31188 		MSR basepri, r8
 807              	@ 0 "" 2
 808              		.thumb
 809              	.LBE357:
 810              	.LBE359:
 811              	.LBE361:
 812              	.LBE363:
 813              	.LBE365:
 814              	.LBE367:
 815              		.loc 1 422 0
 816 0080 5545     		cmp	r5, r10
 817 0082 27D2     		bcs	.L43
 818              	.L57:
 819              	.LVL46:
 820              	.LBB368:
 821              	.LBB369:
 822              	.LBB370:
 823              	.LBB371:
 824              	.LBB372:
 825              		.loc 4 548 0
 826              	@ 548 "/home/peter/ChibiOS_16.1.4/os/ext/CMSIS/include/core_cmFunc.h" 1
 827 0084 87F31188 		MSR basepri, r7
 828              	@ 0 "" 2
 829              		.thumb
 830              	.LBE372:
 831              	.LBE371:
 832              	.LBE370:
 833              	.LBE369:
 834              	.LBE368:
 835              		.loc 1 365 0
 836 0088 616A     		ldr	r1, [r4, #36]
 837 008a 0029     		cmp	r1, #0
 838 008c CCD1     		bne	.L39
 839              	.LVL47:
 840              	.L53:
ARM GAS  /tmp/ccfsyuYl.s 			page 16


 841              	.LBB373:
 842              		.loc 1 370 0
 843 008e 009B     		ldr	r3, [sp]
 844 0090 0333     		adds	r3, r3, #3
 845 0092 23D8     		bhi	.L55
 846              	.LBB331:
 847              	.LBB332:
 848              	.LBB333:
 849              	.LBB334:
 850              		.loc 5 231 0
 851 0094 194B     		ldr	r3, .L59
 852              	.LBE334:
 853              	.LBE333:
 854              	.LBE332:
 855              		.loc 1 374 0
 856 0096 019A     		ldr	r2, [sp, #4]
 857              	.LBB337:
 858              	.LBB336:
 859              	.LBB335:
 860              		.loc 5 231 0
 861 0098 9B6A     		ldr	r3, [r3, #40]
 862              	.LBE335:
 863              	.LBE336:
 864              	.LBE337:
 865              		.loc 1 374 0
 866 009a D31A     		subs	r3, r2, r3
 867              	.LVL48:
 868              		.loc 1 379 0
 869 009c 9945     		cmp	r9, r3
 870 009e 2AD3     		bcc	.L56
 871              		.loc 1 383 0
 872 00a0 1946     		mov	r1, r3
 873 00a2 2046     		mov	r0, r4
 874 00a4 FFF7FEFF 		bl	ibqGetFullBufferTimeoutS
 875              	.LVL49:
 876              	.LBE331:
 877              		.loc 1 387 0
 878 00a8 F0B9     		cbnz	r0, .L44
 879              	.L58:
 880 00aa 616A     		ldr	r1, [r4, #36]
 881 00ac BCE7     		b	.L39
 882              	.LVL50:
 883              	.L45:
 884              	.LBE373:
 885              		.loc 1 409 0
 886 00ae 3046     		mov	r0, r6
 887 00b0 5A46     		mov	r2, fp
 888 00b2 FFF7FEFF 		bl	memcpy
 889              	.LVL51:
 890              		.loc 1 411 0
 891 00b6 636A     		ldr	r3, [r4, #36]
 892              		.loc 1 416 0
 893 00b8 A26A     		ldr	r2, [r4, #40]
 894              		.loc 1 411 0
 895 00ba 5B44     		add	r3, r3, fp
 896              		.loc 1 416 0
 897 00bc 9A42     		cmp	r2, r3
ARM GAS  /tmp/ccfsyuYl.s 			page 17


 898              		.loc 1 412 0
 899 00be 5D44     		add	r5, r5, fp
 900              	.LVL52:
 901              		.loc 1 410 0
 902 00c0 5E44     		add	r6, r6, fp
 903              	.LVL53:
 904              		.loc 1 411 0
 905 00c2 6362     		str	r3, [r4, #36]
 906              		.loc 1 416 0
 907 00c4 DAD8     		bhi	.L48
 908              	.LVL54:
 909              	.L54:
 910              		.loc 1 417 0
 911 00c6 2046     		mov	r0, r4
 912 00c8 FFF7FEFF 		bl	ibqReleaseEmptyBufferS
 913              	.LVL55:
 914              	.LBB374:
 915              	.LBB366:
 916              	.LBB364:
 917              	.LBB362:
 918              	.LBB360:
 919              	.LBB358:
 920              		.loc 4 548 0
 921              	@ 548 "/home/peter/ChibiOS_16.1.4/os/ext/CMSIS/include/core_cmFunc.h" 1
 922 00cc 88F31188 		MSR basepri, r8
 923              	@ 0 "" 2
 924              		.thumb
 925              	.LBE358:
 926              	.LBE360:
 927              	.LBE362:
 928              	.LBE364:
 929              	.LBE366:
 930              	.LBE374:
 931              		.loc 1 422 0
 932 00d0 5545     		cmp	r5, r10
 933 00d2 D7D3     		bcc	.L57
 934              	.LVL56:
 935              	.L43:
 936              	.LBE385:
 937              		.loc 1 427 0
 938 00d4 2846     		mov	r0, r5
 939 00d6 03B0     		add	sp, sp, #12
 940              		.cfi_remember_state
 941              		.cfi_def_cfa_offset 36
 942              		@ sp needed
 943 00d8 BDE8F08F 		pop	{r4, r5, r6, r7, r8, r9, r10, fp, pc}
 944              	.LVL57:
 945              	.L55:
 946              		.cfi_restore_state
 947              	.LBB386:
 948              	.LBB375:
 949              		.loc 1 371 0
 950 00dc 2046     		mov	r0, r4
 951 00de 4946     		mov	r1, r9
 952 00e0 FFF7FEFF 		bl	ibqGetFullBufferTimeoutS
 953              	.LVL58:
 954              		.loc 1 387 0
ARM GAS  /tmp/ccfsyuYl.s 			page 18


 955 00e4 0028     		cmp	r0, #0
 956 00e6 E0D0     		beq	.L58
 957              	.L44:
 958              	.LVL59:
 959              	.LBB344:
 960              	.LBB345:
 961              	.LBB346:
 962              	.LBB347:
 963              	.LBB348:
 964              	.LBB349:
 965              		.loc 4 548 0
 966 00e8 0023     		movs	r3, #0
 967              	@ 548 "/home/peter/ChibiOS_16.1.4/os/ext/CMSIS/include/core_cmFunc.h" 1
 968 00ea 83F31188 		MSR basepri, r3
 969              	@ 0 "" 2
 970              		.thumb
 971              	.LBE349:
 972              	.LBE348:
 973              	.LBE347:
 974              	.LBE346:
 975              	.LBE345:
 976              	.LBE344:
 977              	.LBE375:
 978              	.LBE386:
 979              		.loc 1 427 0
 980 00ee 2846     		mov	r0, r5
 981              	.LVL60:
 982 00f0 03B0     		add	sp, sp, #12
 983              		.cfi_remember_state
 984              		.cfi_def_cfa_offset 36
 985              		@ sp needed
 986 00f2 BDE8F08F 		pop	{r4, r5, r6, r7, r8, r9, r10, fp, pc}
 987              	.LVL61:
 988              	.L56:
 989              		.cfi_restore_state
 990              	.LBB387:
 991              	.LBB376:
 992              	.LBB350:
 993              	.LBB338:
 994              	.LBB339:
 995              	.LBB340:
 996              	.LBB341:
 997              	.LBB342:
 998              	.LBB343:
 999              		.loc 4 548 0
 1000              	@ 548 "/home/peter/ChibiOS_16.1.4/os/ext/CMSIS/include/core_cmFunc.h" 1
 1001 00f6 81F31188 		MSR basepri, r1
 1002              	@ 0 "" 2
 1003              		.thumb
 1004              	.LBE343:
 1005              	.LBE342:
 1006              	.LBE341:
 1007              	.LBE340:
 1008              	.LBE339:
 1009              	.LBE338:
 1010              		.loc 1 381 0
 1011 00fa EBE7     		b	.L43
ARM GAS  /tmp/ccfsyuYl.s 			page 19


 1012              	.L60:
 1013              		.align	2
 1014              	.L59:
 1015 00fc 00000000 		.word	ch
 1016              	.LBE350:
 1017              	.LBE376:
 1018              	.LBE387:
 1019              		.cfi_endproc
 1020              	.LFE216:
 1021              		.size	ibqReadTimeout, .-ibqReadTimeout
 1022              		.section	.text.obqObjectInit,"ax",%progbits
 1023              		.align	2
 1024              		.p2align 4,,15
 1025              		.global	obqObjectInit
 1026              		.thumb
 1027              		.thumb_func
 1028              		.type	obqObjectInit, %function
 1029              	obqObjectInit:
 1030              	.LFB217:
 1031              		.loc 1 443 0
 1032              		.cfi_startproc
 1033              		@ args = 8, pretend = 0, frame = 0
 1034              		@ frame_needed = 0, uses_anonymous_args = 0
 1035              		@ link register save eliminated.
 1036              	.LVL62:
 1037 0000 F0B4     		push	{r4, r5, r6, r7}
 1038              		.cfi_def_cfa_offset 16
 1039              		.cfi_offset 4, -16
 1040              		.cfi_offset 5, -12
 1041              		.cfi_offset 6, -8
 1042              		.cfi_offset 7, -4
 1043              		.loc 1 451 0
 1044 0002 0432     		adds	r2, r2, #4
 1045              	.LVL63:
 1046 0004 02FB0317 		mla	r7, r2, r3, r1
 1047              		.loc 1 443 0
 1048 0008 049E     		ldr	r6, [sp, #16]
 1049 000a 059D     		ldr	r5, [sp, #20]
 1050              		.loc 1 455 0
 1051 000c 0024     		movs	r4, #0
 1052              		.loc 1 451 0
 1053 000e 4761     		str	r7, [r0, #20]
 1054              		.loc 1 457 0
 1055 0010 C662     		str	r6, [r0, #44]
 1056              		.loc 1 458 0
 1057 0012 0563     		str	r5, [r0, #48]
 1058              		.loc 1 455 0
 1059 0014 4462     		str	r4, [r0, #36]
 1060              		.loc 1 456 0
 1061 0016 8462     		str	r4, [r0, #40]
 1062              	.LBB388:
 1063              	.LBB389:
 1064              	.LBB390:
 1065              	.LBB391:
 1066              		.loc 2 604 0
 1067 0018 0060     		str	r0, [r0]
 1068              		.loc 2 605 0
ARM GAS  /tmp/ccfsyuYl.s 			page 20


 1069 001a 4060     		str	r0, [r0, #4]
 1070              	.LBE391:
 1071              	.LBE390:
 1072              	.LBE389:
 1073              	.LBE388:
 1074              		.loc 1 448 0
 1075 001c 8360     		str	r3, [r0, #8]
 1076              		.loc 1 449 0
 1077 001e 0161     		str	r1, [r0, #16]
 1078              		.loc 1 450 0
 1079 0020 C160     		str	r1, [r0, #12]
 1080              		.loc 1 452 0
 1081 0022 8261     		str	r2, [r0, #24]
 1082              		.loc 1 453 0
 1083 0024 C361     		str	r3, [r0, #28]
 1084              		.loc 1 454 0
 1085 0026 0162     		str	r1, [r0, #32]
 1086              		.loc 1 459 0
 1087 0028 F0BC     		pop	{r4, r5, r6, r7}
 1088              		.cfi_restore 7
 1089              		.cfi_restore 6
 1090              		.cfi_restore 5
 1091              		.cfi_restore 4
 1092              		.cfi_def_cfa_offset 0
 1093              	.LVL64:
 1094 002a 7047     		bx	lr
 1095              		.cfi_endproc
 1096              	.LFE217:
 1097              		.size	obqObjectInit, .-obqObjectInit
 1098 002c AFF30080 		.section	.text.obqResetI,"ax",%progbits
 1099              		.align	2
 1100              		.p2align 4,,15
 1101              		.global	obqResetI
 1102              		.thumb
 1103              		.thumb_func
 1104              		.type	obqResetI, %function
 1105              	obqResetI:
 1106              	.LFB218:
 1107              		.loc 1 472 0
 1108              		.cfi_startproc
 1109              		@ args = 0, pretend = 0, frame = 0
 1110              		@ frame_needed = 0, uses_anonymous_args = 0
 1111              		@ link register save eliminated.
 1112              	.LVL65:
 1113              		.loc 1 477 0
 1114 0000 016A     		ldr	r1, [r0, #32]
 1115              		.loc 1 472 0
 1116 0002 10B4     		push	{r4}
 1117              		.cfi_def_cfa_offset 4
 1118              		.cfi_offset 4, -4
 1119              		.loc 1 476 0
 1120 0004 C469     		ldr	r4, [r0, #28]
 1121              		.loc 1 479 0
 1122 0006 0022     		movs	r2, #0
 1123              		.loc 1 476 0
 1124 0008 8460     		str	r4, [r0, #8]
 1125              		.loc 1 477 0
ARM GAS  /tmp/ccfsyuYl.s 			page 21


 1126 000a 0161     		str	r1, [r0, #16]
 1127              		.loc 1 478 0
 1128 000c C160     		str	r1, [r0, #12]
 1129              		.loc 1 479 0
 1130 000e 4262     		str	r2, [r0, #36]
 1131              		.loc 1 480 0
 1132 0010 8262     		str	r2, [r0, #40]
 1133              	.LVL66:
 1134              	.LBB392:
 1135              	.LBB393:
 1136              		.loc 3 810 0
 1137 0012 6FF00101 		mvn	r1, #1
 1138              	.LBE393:
 1139              	.LBE392:
 1140              		.loc 1 482 0
 1141 0016 5DF8044B 		ldr	r4, [sp], #4
 1142              		.cfi_restore 4
 1143              		.cfi_def_cfa_offset 0
 1144              	.LBB395:
 1145              	.LBB394:
 1146              		.loc 3 810 0
 1147 001a FFF7FEBF 		b	chThdDequeueAllI
 1148              	.LVL67:
 1149              	.LBE394:
 1150              	.LBE395:
 1151              		.cfi_endproc
 1152              	.LFE218:
 1153              		.size	obqResetI, .-obqResetI
 1154 001e 00BF     		.section	.text.obqGetFullBufferI,"ax",%progbits
 1155              		.align	2
 1156              		.p2align 4,,15
 1157              		.global	obqGetFullBufferI
 1158              		.thumb
 1159              		.thumb_func
 1160              		.type	obqGetFullBufferI, %function
 1161              	obqGetFullBufferI:
 1162              	.LFB219:
 1163              		.loc 1 496 0
 1164              		.cfi_startproc
 1165              		@ args = 0, pretend = 0, frame = 0
 1166              		@ frame_needed = 0, uses_anonymous_args = 0
 1167              		@ link register save eliminated.
 1168              	.LVL68:
 1169              		.loc 1 500 0
 1170 0000 0369     		ldr	r3, [r0, #16]
 1171 0002 C268     		ldr	r2, [r0, #12]
 1172 0004 9A42     		cmp	r2, r3
 1173 0006 04D0     		beq	.L72
 1174              	.L66:
 1175              		.loc 1 505 0
 1176 0008 1846     		mov	r0, r3
 1177              	.LVL69:
 1178 000a 50F8043B 		ldr	r3, [r0], #4
 1179 000e 0B60     		str	r3, [r1]
 1180              		.loc 1 508 0
 1181 0010 7047     		bx	lr
 1182              	.LVL70:
ARM GAS  /tmp/ccfsyuYl.s 			page 22


 1183              	.L72:
 1184              		.loc 1 500 0 discriminator 1
 1185 0012 8268     		ldr	r2, [r0, #8]
 1186 0014 002A     		cmp	r2, #0
 1187 0016 F7D0     		beq	.L66
 1188              		.loc 1 501 0
 1189 0018 0020     		movs	r0, #0
 1190              	.LVL71:
 1191 001a 7047     		bx	lr
 1192              		.cfi_endproc
 1193              	.LFE219:
 1194              		.size	obqGetFullBufferI, .-obqGetFullBufferI
 1195 001c AFF30080 		.section	.text.obqReleaseEmptyBufferI,"ax",%progbits
 1196              		.align	2
 1197              		.p2align 4,,15
 1198              		.global	obqReleaseEmptyBufferI
 1199              		.thumb
 1200              		.thumb_func
 1201              		.type	obqReleaseEmptyBufferI, %function
 1202              	obqReleaseEmptyBufferI:
 1203              	.LFB220:
 1204              		.loc 1 517 0
 1205              		.cfi_startproc
 1206              		@ args = 0, pretend = 0, frame = 0
 1207              		@ frame_needed = 0, uses_anonymous_args = 0
 1208              		@ link register save eliminated.
 1209              	.LVL72:
 1210 0000 10B4     		push	{r4}
 1211              		.cfi_def_cfa_offset 4
 1212              		.cfi_offset 4, -4
 1213              		.loc 1 524 0
 1214 0002 8369     		ldr	r3, [r0, #24]
 1215 0004 0469     		ldr	r4, [r0, #16]
 1216              		.loc 1 525 0
 1217 0006 4169     		ldr	r1, [r0, #20]
 1218              		.loc 1 524 0
 1219 0008 2344     		add	r3, r3, r4
 1220              		.loc 1 525 0
 1221 000a 8B42     		cmp	r3, r1
 1222              		.loc 1 523 0
 1223 000c 8268     		ldr	r2, [r0, #8]
 1224              		.loc 1 524 0
 1225 000e 0361     		str	r3, [r0, #16]
 1226              		.loc 1 526 0
 1227 0010 28BF     		it	cs
 1228 0012 036A     		ldrcs	r3, [r0, #32]
 1229              		.loc 1 523 0
 1230 0014 02F10102 		add	r2, r2, #1
 1231 0018 8260     		str	r2, [r0, #8]
 1232              		.loc 1 526 0
 1233 001a 28BF     		it	cs
 1234 001c 0361     		strcs	r3, [r0, #16]
 1235              	.LVL73:
 1236              	.LBB396:
 1237              	.LBB397:
 1238              		.loc 3 797 0
 1239 001e 0021     		movs	r1, #0
ARM GAS  /tmp/ccfsyuYl.s 			page 23


 1240              	.LBE397:
 1241              	.LBE396:
 1242              		.loc 1 531 0
 1243 0020 5DF8044B 		ldr	r4, [sp], #4
 1244              		.cfi_restore 4
 1245              		.cfi_def_cfa_offset 0
 1246              	.LBB399:
 1247              	.LBB398:
 1248              		.loc 3 797 0
 1249 0024 FFF7FEBF 		b	chThdDequeueNextI
 1250              	.LVL74:
 1251              	.LBE398:
 1252              	.LBE399:
 1253              		.cfi_endproc
 1254              	.LFE220:
 1255              		.size	obqReleaseEmptyBufferI, .-obqReleaseEmptyBufferI
 1256 0028 AFF30080 		.section	.text.obqGetEmptyBufferTimeoutS,"ax",%progbits
 1256      AFF30080 
 1257              		.align	2
 1258              		.p2align 4,,15
 1259              		.global	obqGetEmptyBufferTimeoutS
 1260              		.thumb
 1261              		.thumb_func
 1262              		.type	obqGetEmptyBufferTimeoutS, %function
 1263              	obqGetEmptyBufferTimeoutS:
 1264              	.LFB222:
 1265              		.loc 1 585 0
 1266              		.cfi_startproc
 1267              		@ args = 0, pretend = 0, frame = 0
 1268              		@ frame_needed = 0, uses_anonymous_args = 0
 1269              	.LVL75:
 1270 0000 38B5     		push	{r3, r4, r5, lr}
 1271              		.cfi_def_cfa_offset 16
 1272              		.cfi_offset 3, -16
 1273              		.cfi_offset 4, -12
 1274              		.cfi_offset 5, -8
 1275              		.cfi_offset 14, -4
 1276              		.loc 1 585 0
 1277 0002 0446     		mov	r4, r0
 1278 0004 0D46     		mov	r5, r1
 1279              		.loc 1 589 0
 1280 0006 05E0     		b	.L77
 1281              	.LVL76:
 1282              	.L79:
 1283              	.LBB408:
 1284              	.LBB409:
 1285              	.LBB410:
 1286              		.loc 3 784 0
 1287 0008 2046     		mov	r0, r4
 1288 000a 2946     		mov	r1, r5
 1289 000c FFF7FEFF 		bl	chThdEnqueueTimeoutS
 1290              	.LVL77:
 1291              	.LBE410:
 1292              	.LBE409:
 1293              		.loc 1 591 0
 1294 0010 0028     		cmp	r0, #0
 1295 0012 09DB     		blt	.L78
ARM GAS  /tmp/ccfsyuYl.s 			page 24


 1296              	.LVL78:
 1297              	.L77:
 1298              	.LBE408:
 1299              		.loc 1 589 0
 1300 0014 A368     		ldr	r3, [r4, #8]
 1301 0016 002B     		cmp	r3, #0
 1302 0018 F6D0     		beq	.L79
 1303              	.LVL79:
 1304              	.LBB411:
 1305              	.LBB412:
 1306              		.loc 1 599 0
 1307 001a E268     		ldr	r2, [r4, #12]
 1308              		.loc 1 600 0
 1309 001c A369     		ldr	r3, [r4, #24]
 1310              		.loc 1 599 0
 1311 001e 111D     		adds	r1, r2, #4
 1312              		.loc 1 600 0
 1313 0020 1344     		add	r3, r3, r2
 1314              		.loc 1 599 0
 1315 0022 6162     		str	r1, [r4, #36]
 1316              		.loc 1 600 0
 1317 0024 A362     		str	r3, [r4, #40]
 1318 0026 0020     		movs	r0, #0
 1319              	.LVL80:
 1320              	.L78:
 1321              	.LBE412:
 1322              	.LBE411:
 1323              		.loc 1 603 0
 1324 0028 38BD     		pop	{r3, r4, r5, pc}
 1325              		.cfi_endproc
 1326              	.LFE222:
 1327              		.size	obqGetEmptyBufferTimeoutS, .-obqGetEmptyBufferTimeoutS
 1328 002a 00BFAFF3 		.section	.text.obqGetEmptyBufferTimeout,"ax",%progbits
 1328      0080
 1329              		.align	2
 1330              		.p2align 4,,15
 1331              		.global	obqGetEmptyBufferTimeout
 1332              		.thumb
 1333              		.thumb_func
 1334              		.type	obqGetEmptyBufferTimeout, %function
 1335              	obqGetEmptyBufferTimeout:
 1336              	.LFB221:
 1337              		.loc 1 554 0
 1338              		.cfi_startproc
 1339              		@ args = 0, pretend = 0, frame = 0
 1340              		@ frame_needed = 0, uses_anonymous_args = 0
 1341              	.LVL81:
 1342 0000 08B5     		push	{r3, lr}
 1343              		.cfi_def_cfa_offset 8
 1344              		.cfi_offset 3, -8
 1345              		.cfi_offset 14, -4
 1346              	.LBB413:
 1347              	.LBB414:
 1348              	.LBB415:
 1349              	.LBB416:
 1350              	.LBB417:
 1351              		.loc 4 548 0
ARM GAS  /tmp/ccfsyuYl.s 			page 25


 1352 0002 2023     		movs	r3, #32
 1353              	@ 548 "/home/peter/ChibiOS_16.1.4/os/ext/CMSIS/include/core_cmFunc.h" 1
 1354 0004 83F31188 		MSR basepri, r3
 1355              	@ 0 "" 2
 1356              		.thumb
 1357              	.LBE417:
 1358              	.LBE416:
 1359              	.LBE415:
 1360              	.LBE414:
 1361              	.LBE413:
 1362              		.loc 1 558 0
 1363 0008 FFF7FEFF 		bl	obqGetEmptyBufferTimeoutS
 1364              	.LVL82:
 1365              	.LBB418:
 1366              	.LBB419:
 1367              	.LBB420:
 1368              	.LBB421:
 1369              	.LBB422:
 1370              	.LBB423:
 1371              		.loc 4 548 0
 1372 000c 0023     		movs	r3, #0
 1373              	@ 548 "/home/peter/ChibiOS_16.1.4/os/ext/CMSIS/include/core_cmFunc.h" 1
 1374 000e 83F31188 		MSR basepri, r3
 1375              	@ 0 "" 2
 1376              		.thumb
 1377              	.LBE423:
 1378              	.LBE422:
 1379              	.LBE421:
 1380              	.LBE420:
 1381              	.LBE419:
 1382              	.LBE418:
 1383              		.loc 1 562 0
 1384 0012 08BD     		pop	{r3, pc}
 1385              		.cfi_endproc
 1386              	.LFE221:
 1387              		.size	obqGetEmptyBufferTimeout, .-obqGetEmptyBufferTimeout
 1388 0014 AFF30080 		.section	.text.obqPostFullBufferS,"ax",%progbits
 1388      AFF30080 
 1388      AFF30080 
 1389              		.align	2
 1390              		.p2align 4,,15
 1391              		.global	obqPostFullBufferS
 1392              		.thumb
 1393              		.thumb_func
 1394              		.type	obqPostFullBufferS, %function
 1395              	obqPostFullBufferS:
 1396              	.LFB224:
 1397              		.loc 1 630 0
 1398              		.cfi_startproc
 1399              		@ args = 0, pretend = 0, frame = 0
 1400              		@ frame_needed = 0, uses_anonymous_args = 0
 1401              		@ link register save eliminated.
 1402              	.LVL83:
 1403 0000 30B4     		push	{r4, r5}
 1404              		.cfi_def_cfa_offset 8
 1405              		.cfi_offset 4, -8
 1406              		.cfi_offset 5, -4
ARM GAS  /tmp/ccfsyuYl.s 			page 26


 1407              		.loc 1 637 0
 1408 0002 C468     		ldr	r4, [r0, #12]
 1409              		.loc 1 642 0
 1410 0004 4569     		ldr	r5, [r0, #20]
 1411              		.loc 1 637 0
 1412 0006 2160     		str	r1, [r4]
 1413              		.loc 1 641 0
 1414 0008 8369     		ldr	r3, [r0, #24]
 1415              		.loc 1 640 0
 1416 000a 8268     		ldr	r2, [r0, #8]
 1417              		.loc 1 641 0
 1418 000c 2344     		add	r3, r3, r4
 1419              		.loc 1 642 0
 1420 000e AB42     		cmp	r3, r5
 1421              		.loc 1 641 0
 1422 0010 C360     		str	r3, [r0, #12]
 1423              		.loc 1 643 0
 1424 0012 28BF     		it	cs
 1425 0014 036A     		ldrcs	r3, [r0, #32]
 1426              		.loc 1 640 0
 1427 0016 02F1FF32 		add	r2, r2, #-1
 1428              		.loc 1 643 0
 1429 001a 28BF     		it	cs
 1430 001c C360     		strcs	r3, [r0, #12]
 1431              		.loc 1 650 0
 1432 001e C36A     		ldr	r3, [r0, #44]
 1433              		.loc 1 640 0
 1434 0020 8260     		str	r2, [r0, #8]
 1435              		.loc 1 647 0
 1436 0022 0022     		movs	r2, #0
 1437 0024 4262     		str	r2, [r0, #36]
 1438              		.loc 1 650 0
 1439 0026 0BB1     		cbz	r3, .L84
 1440              		.loc 1 653 0
 1441 0028 30BC     		pop	{r4, r5}
 1442              		.cfi_remember_state
 1443              		.cfi_restore 5
 1444              		.cfi_restore 4
 1445              		.cfi_def_cfa_offset 0
 1446              		.loc 1 651 0
 1447 002a 1847     		bx	r3	@ indirect register sibling call
 1448              	.LVL84:
 1449              	.L84:
 1450              		.cfi_restore_state
 1451              		.loc 1 653 0
 1452 002c 30BC     		pop	{r4, r5}
 1453              		.cfi_restore 5
 1454              		.cfi_restore 4
 1455              		.cfi_def_cfa_offset 0
 1456 002e 7047     		bx	lr
 1457              		.cfi_endproc
 1458              	.LFE224:
 1459              		.size	obqPostFullBufferS, .-obqPostFullBufferS
 1460              		.section	.text.obqPostFullBuffer,"ax",%progbits
 1461              		.align	2
 1462              		.p2align 4,,15
 1463              		.global	obqPostFullBuffer
ARM GAS  /tmp/ccfsyuYl.s 			page 27


 1464              		.thumb
 1465              		.thumb_func
 1466              		.type	obqPostFullBuffer, %function
 1467              	obqPostFullBuffer:
 1468              	.LFB223:
 1469              		.loc 1 614 0
 1470              		.cfi_startproc
 1471              		@ args = 0, pretend = 0, frame = 0
 1472              		@ frame_needed = 0, uses_anonymous_args = 0
 1473              	.LVL85:
 1474 0000 08B5     		push	{r3, lr}
 1475              		.cfi_def_cfa_offset 8
 1476              		.cfi_offset 3, -8
 1477              		.cfi_offset 14, -4
 1478              	.LBB424:
 1479              	.LBB425:
 1480              	.LBB426:
 1481              	.LBB427:
 1482              	.LBB428:
 1483              		.loc 4 548 0
 1484 0002 2023     		movs	r3, #32
 1485              	@ 548 "/home/peter/ChibiOS_16.1.4/os/ext/CMSIS/include/core_cmFunc.h" 1
 1486 0004 83F31188 		MSR basepri, r3
 1487              	@ 0 "" 2
 1488              		.thumb
 1489              	.LBE428:
 1490              	.LBE427:
 1491              	.LBE426:
 1492              	.LBE425:
 1493              	.LBE424:
 1494              		.loc 1 617 0
 1495 0008 FFF7FEFF 		bl	obqPostFullBufferS
 1496              	.LVL86:
 1497              	.LBB429:
 1498              	.LBB430:
 1499              	.LBB431:
 1500              	.LBB432:
 1501              	.LBB433:
 1502              	.LBB434:
 1503              		.loc 4 548 0
 1504 000c 0023     		movs	r3, #0
 1505              	@ 548 "/home/peter/ChibiOS_16.1.4/os/ext/CMSIS/include/core_cmFunc.h" 1
 1506 000e 83F31188 		MSR basepri, r3
 1507              	@ 0 "" 2
 1508              		.thumb
 1509 0012 08BD     		pop	{r3, pc}
 1510              	.LBE434:
 1511              	.LBE433:
 1512              	.LBE432:
 1513              	.LBE431:
 1514              	.LBE430:
 1515              	.LBE429:
 1516              		.cfi_endproc
 1517              	.LFE223:
 1518              		.size	obqPostFullBuffer, .-obqPostFullBuffer
 1519 0014 AFF30080 		.section	.text.obqPutTimeout,"ax",%progbits
 1519      AFF30080 
ARM GAS  /tmp/ccfsyuYl.s 			page 28


 1519      AFF30080 
 1520              		.align	2
 1521              		.p2align 4,,15
 1522              		.global	obqPutTimeout
 1523              		.thumb
 1524              		.thumb_func
 1525              		.type	obqPutTimeout, %function
 1526              	obqPutTimeout:
 1527              	.LFB225:
 1528              		.loc 1 675 0
 1529              		.cfi_startproc
 1530              		@ args = 0, pretend = 0, frame = 0
 1531              		@ frame_needed = 0, uses_anonymous_args = 0
 1532              	.LVL87:
 1533 0000 70B5     		push	{r4, r5, r6, lr}
 1534              		.cfi_def_cfa_offset 16
 1535              		.cfi_offset 4, -16
 1536              		.cfi_offset 5, -12
 1537              		.cfi_offset 6, -8
 1538              		.cfi_offset 14, -4
 1539              	.LBB435:
 1540              	.LBB436:
 1541              	.LBB437:
 1542              	.LBB438:
 1543              	.LBB439:
 1544              		.loc 4 548 0
 1545 0002 2023     		movs	r3, #32
 1546              	.LBE439:
 1547              	.LBE438:
 1548              	.LBE437:
 1549              	.LBE436:
 1550              	.LBE435:
 1551              		.loc 1 675 0
 1552 0004 0E46     		mov	r6, r1
 1553 0006 0446     		mov	r4, r0
 1554              	.LBB444:
 1555              	.LBB443:
 1556              	.LBB442:
 1557              	.LBB441:
 1558              	.LBB440:
 1559              		.loc 4 548 0
 1560              	@ 548 "/home/peter/ChibiOS_16.1.4/os/ext/CMSIS/include/core_cmFunc.h" 1
 1561 0008 83F31188 		MSR basepri, r3
 1562              	@ 0 "" 2
 1563              		.thumb
 1564              	.LBE440:
 1565              	.LBE441:
 1566              	.LBE442:
 1567              	.LBE443:
 1568              	.LBE444:
 1569              		.loc 1 681 0
 1570 000c 456A     		ldr	r5, [r0, #36]
 1571 000e 9DB1     		cbz	r5, .L96
 1572              	.LVL88:
 1573              	.L91:
 1574              		.loc 1 690 0
 1575 0010 2E70     		strb	r6, [r5]
ARM GAS  /tmp/ccfsyuYl.s 			page 29


 1576              		.loc 1 691 0
 1577 0012 636A     		ldr	r3, [r4, #36]
 1578              		.loc 1 695 0
 1579 0014 A26A     		ldr	r2, [r4, #40]
 1580              		.loc 1 691 0
 1581 0016 0133     		adds	r3, r3, #1
 1582              		.loc 1 695 0
 1583 0018 9342     		cmp	r3, r2
 1584              		.loc 1 691 0
 1585 001a 6362     		str	r3, [r4, #36]
 1586              		.loc 1 695 0
 1587 001c 03D2     		bcs	.L97
 1588              	.LVL89:
 1589              	.LBB445:
 1590              	.LBB446:
 1591              	.LBB447:
 1592              	.LBB448:
 1593              	.LBB449:
 1594              	.LBB450:
 1595              		.loc 4 548 0
 1596 001e 0020     		movs	r0, #0
 1597              	@ 548 "/home/peter/ChibiOS_16.1.4/os/ext/CMSIS/include/core_cmFunc.h" 1
 1598 0020 80F31188 		MSR basepri, r0
 1599              	@ 0 "" 2
 1600              		.thumb
 1601              	.LBE450:
 1602              	.LBE449:
 1603              	.LBE448:
 1604              	.LBE447:
 1605              	.LBE446:
 1606              	.LBE445:
 1607              		.loc 1 701 0
 1608 0024 70BD     		pop	{r4, r5, r6, pc}
 1609              	.LVL90:
 1610              	.L97:
 1611              		.loc 1 696 0
 1612 0026 A169     		ldr	r1, [r4, #24]
 1613 0028 2046     		mov	r0, r4
 1614 002a 0439     		subs	r1, r1, #4
 1615 002c FFF7FEFF 		bl	obqPostFullBufferS
 1616              	.LVL91:
 1617              	.LBB456:
 1618              	.LBB455:
 1619              	.LBB454:
 1620              	.LBB453:
 1621              	.LBB452:
 1622              	.LBB451:
 1623              		.loc 4 548 0
 1624 0030 0020     		movs	r0, #0
 1625              	@ 548 "/home/peter/ChibiOS_16.1.4/os/ext/CMSIS/include/core_cmFunc.h" 1
 1626 0032 80F31188 		MSR basepri, r0
 1627              	@ 0 "" 2
 1628              		.thumb
 1629              	.LBE451:
 1630              	.LBE452:
 1631              	.LBE453:
 1632              	.LBE454:
ARM GAS  /tmp/ccfsyuYl.s 			page 30


 1633              	.LBE455:
 1634              	.LBE456:
 1635              		.loc 1 701 0
 1636 0036 70BD     		pop	{r4, r5, r6, pc}
 1637              	.LVL92:
 1638              	.L96:
 1639              		.loc 1 682 0
 1640 0038 1146     		mov	r1, r2
 1641              	.LVL93:
 1642 003a FFF7FEFF 		bl	obqGetEmptyBufferTimeoutS
 1643              	.LVL94:
 1644              		.loc 1 683 0
 1645 003e 08B9     		cbnz	r0, .L92
 1646 0040 656A     		ldr	r5, [r4, #36]
 1647 0042 E5E7     		b	.L91
 1648              	.L92:
 1649              	.LVL95:
 1650              	.LBB457:
 1651              	.LBB458:
 1652              	.LBB459:
 1653              	.LBB460:
 1654              	.LBB461:
 1655              	.LBB462:
 1656              		.loc 4 548 0
 1657              	@ 548 "/home/peter/ChibiOS_16.1.4/os/ext/CMSIS/include/core_cmFunc.h" 1
 1658 0044 85F31188 		MSR basepri, r5
 1659              	@ 0 "" 2
 1660              		.thumb
 1661              	.LBE462:
 1662              	.LBE461:
 1663              	.LBE460:
 1664              	.LBE459:
 1665              	.LBE458:
 1666              	.LBE457:
 1667              		.loc 1 685 0
 1668 0048 70BD     		pop	{r4, r5, r6, pc}
 1669              		.cfi_endproc
 1670              	.LFE225:
 1671              		.size	obqPutTimeout, .-obqPutTimeout
 1672 004a 00BFAFF3 		.section	.text.obqWriteTimeout,"ax",%progbits
 1672      0080
 1673              		.align	2
 1674              		.p2align 4,,15
 1675              		.global	obqWriteTimeout
 1676              		.thumb
 1677              		.thumb_func
 1678              		.type	obqWriteTimeout, %function
 1679              	obqWriteTimeout:
 1680              	.LFB226:
 1681              		.loc 1 725 0
 1682              		.cfi_startproc
 1683              		@ args = 0, pretend = 0, frame = 8
 1684              		@ frame_needed = 0, uses_anonymous_args = 0
 1685              	.LVL96:
 1686 0000 2DE9F04F 		push	{r4, r5, r6, r7, r8, r9, r10, fp, lr}
 1687              		.cfi_def_cfa_offset 36
 1688              		.cfi_offset 4, -36
ARM GAS  /tmp/ccfsyuYl.s 			page 31


 1689              		.cfi_offset 5, -32
 1690              		.cfi_offset 6, -28
 1691              		.cfi_offset 7, -24
 1692              		.cfi_offset 8, -20
 1693              		.cfi_offset 9, -16
 1694              		.cfi_offset 10, -12
 1695              		.cfi_offset 11, -8
 1696              		.cfi_offset 14, -4
 1697 0004 0446     		mov	r4, r0
 1698 0006 83B0     		sub	sp, sp, #12
 1699              		.cfi_def_cfa_offset 48
 1700              		.loc 1 725 0
 1701 0008 9246     		mov	r10, r2
 1702 000a 9846     		mov	r8, r3
 1703              	.LBB463:
 1704              	.LBB464:
 1705              	.LBB465:
 1706              	.LBB466:
 1707              	.LBB467:
 1708              		.loc 4 548 0
 1709 000c 2026     		movs	r6, #32
 1710              	@ 548 "/home/peter/ChibiOS_16.1.4/os/ext/CMSIS/include/core_cmFunc.h" 1
 1711 000e 86F31188 		MSR basepri, r6
 1712              	@ 0 "" 2
 1713              		.thumb
 1714              	.LBE467:
 1715              	.LBE466:
 1716              	.LBE465:
 1717              	.LBE464:
 1718              	.LBE463:
 1719              	.LBB468:
 1720              	.LBB469:
 1721              		.loc 1 743 0
 1722 0012 013B     		subs	r3, r3, #1
 1723              	.LVL97:
 1724 0014 0093     		str	r3, [sp]
 1725              	.LBE469:
 1726              	.LBE468:
 1727              	.LBB513:
 1728              	.LBB514:
 1729              	.LBB515:
 1730              		.loc 5 231 0
 1731 0016 394B     		ldr	r3, .L119
 1732              	.LBE515:
 1733              	.LBE514:
 1734              	.LBE513:
 1735              	.LBB518:
 1736              		.loc 1 738 0
 1737 0018 606A     		ldr	r0, [r4, #36]
 1738              	.LVL98:
 1739              	.LBE518:
 1740              	.LBB519:
 1741              	.LBB517:
 1742              	.LBB516:
 1743              		.loc 5 231 0
 1744 001a 9B6A     		ldr	r3, [r3, #40]
 1745              	.LBE516:
ARM GAS  /tmp/ccfsyuYl.s 			page 32


 1746              	.LBE517:
 1747              	.LBE519:
 1748              		.loc 1 726 0
 1749 001c 0025     		movs	r5, #0
 1750              		.loc 1 732 0
 1751 001e 4344     		add	r3, r8, r3
 1752              	.LBB520:
 1753              	.LBB487:
 1754              	.LBB488:
 1755              	.LBB489:
 1756              	.LBB490:
 1757              	.LBB491:
 1758              	.LBB492:
 1759              		.loc 4 548 0
 1760 0020 2F46     		mov	r7, r5
 1761              	.LBE492:
 1762              	.LBE491:
 1763              	.LBE490:
 1764              	.LBE489:
 1765              	.LBE488:
 1766              	.LBE487:
 1767              	.LBE520:
 1768              		.loc 1 732 0
 1769 0022 0193     		str	r3, [sp, #4]
 1770              	.LVL99:
 1771 0024 8946     		mov	r9, r1
 1772              	.LBB521:
 1773              		.loc 1 738 0
 1774 0026 88B3     		cbz	r0, .L113
 1775              	.LVL100:
 1776              	.L99:
 1777              		.loc 1 767 0
 1778 0028 A26A     		ldr	r2, [r4, #40]
 1779              		.loc 1 768 0
 1780 002a C5EB0A0B 		rsb	fp, r5, r10
 1781              		.loc 1 767 0
 1782 002e 121A     		subs	r2, r2, r0
 1783              	.LVL101:
 1784 0030 9345     		cmp	fp, r2
 1785 0032 28BF     		it	cs
 1786 0034 9346     		movcs	fp, r2
 1787              	.LVL102:
 1788              		.loc 1 774 0
 1789 0036 BBF1400F 		cmp	fp, #64
 1790              		.loc 1 776 0
 1791 003a 4946     		mov	r1, r9
 1792              		.loc 1 774 0
 1793 003c 35D9     		bls	.L105
 1794              	.LVL103:
 1795              		.loc 1 776 0
 1796 003e 09F14003 		add	r3, r9, #64
 1797              	.LVL104:
 1798              	.L106:
 1799 0042 D1F80090 		ldr	r9, [r1]	@ unaligned
 1800 0046 D1F804C0 		ldr	ip, [r1, #4]	@ unaligned
 1801 004a D1F808E0 		ldr	lr, [r1, #8]	@ unaligned
 1802 004e CA68     		ldr	r2, [r1, #12]	@ unaligned
ARM GAS  /tmp/ccfsyuYl.s 			page 33


 1803 0050 1031     		adds	r1, r1, #16
 1804 0052 9942     		cmp	r1, r3
 1805 0054 C0F80090 		str	r9, [r0]	@ unaligned
 1806 0058 C0F804C0 		str	ip, [r0, #4]	@ unaligned
 1807 005c C0F808E0 		str	lr, [r0, #8]	@ unaligned
 1808 0060 C260     		str	r2, [r0, #12]	@ unaligned
 1809 0062 00F11000 		add	r0, r0, #16
 1810 0066 ECD1     		bne	.L106
 1811              		.loc 1 778 0
 1812 0068 626A     		ldr	r2, [r4, #36]
 1813              		.loc 1 777 0
 1814 006a 8946     		mov	r9, r1
 1815              	.LVL105:
 1816              		.loc 1 789 0
 1817 006c A16A     		ldr	r1, [r4, #40]
 1818              		.loc 1 778 0
 1819 006e 4032     		adds	r2, r2, #64
 1820              		.loc 1 789 0
 1821 0070 9142     		cmp	r1, r2
 1822              		.loc 1 779 0
 1823 0072 05F14005 		add	r5, r5, #64
 1824              	.LVL106:
 1825              		.loc 1 778 0
 1826 0076 6262     		str	r2, [r4, #36]
 1827              	.LVL107:
 1828              		.loc 1 789 0
 1829 0078 22D9     		bls	.L114
 1830              	.L108:
 1831              	.LVL108:
 1832              	.LBB503:
 1833              	.LBB501:
 1834              	.LBB499:
 1835              	.LBB497:
 1836              	.LBB495:
 1837              	.LBB493:
 1838              		.loc 4 548 0
 1839              	@ 548 "/home/peter/ChibiOS_16.1.4/os/ext/CMSIS/include/core_cmFunc.h" 1
 1840 007a 87F31188 		MSR basepri, r7
 1841              	@ 0 "" 2
 1842              		.thumb
 1843              	.LBE493:
 1844              	.LBE495:
 1845              	.LBE497:
 1846              	.LBE499:
 1847              	.LBE501:
 1848              	.LBE503:
 1849              		.loc 1 795 0
 1850 007e 5545     		cmp	r5, r10
 1851 0080 27D2     		bcs	.L103
 1852              	.L117:
 1853              	.LVL109:
 1854              	.LBB504:
 1855              	.LBB505:
 1856              	.LBB506:
 1857              	.LBB507:
 1858              	.LBB508:
 1859              		.loc 4 548 0
ARM GAS  /tmp/ccfsyuYl.s 			page 34


 1860              	@ 548 "/home/peter/ChibiOS_16.1.4/os/ext/CMSIS/include/core_cmFunc.h" 1
 1861 0082 86F31188 		MSR basepri, r6
 1862              	@ 0 "" 2
 1863              		.thumb
 1864              	.LBE508:
 1865              	.LBE507:
 1866              	.LBE506:
 1867              	.LBE505:
 1868              	.LBE504:
 1869              		.loc 1 738 0
 1870 0086 606A     		ldr	r0, [r4, #36]
 1871 0088 0028     		cmp	r0, #0
 1872 008a CDD1     		bne	.L99
 1873              	.LVL110:
 1874              	.L113:
 1875              	.LBB509:
 1876              		.loc 1 743 0
 1877 008c 009B     		ldr	r3, [sp]
 1878 008e 0333     		adds	r3, r3, #3
 1879 0090 23D8     		bhi	.L115
 1880              	.LBB470:
 1881              	.LBB471:
 1882              	.LBB472:
 1883              	.LBB473:
 1884              		.loc 5 231 0
 1885 0092 1A4B     		ldr	r3, .L119
 1886 0094 996A     		ldr	r1, [r3, #40]
 1887              	.LBE473:
 1888              	.LBE472:
 1889              	.LBE471:
 1890              		.loc 1 747 0
 1891 0096 019B     		ldr	r3, [sp, #4]
 1892 0098 591A     		subs	r1, r3, r1
 1893              	.LVL111:
 1894              		.loc 1 752 0
 1895 009a 8845     		cmp	r8, r1
 1896 009c 2AD3     		bcc	.L116
 1897              		.loc 1 756 0
 1898 009e 2046     		mov	r0, r4
 1899 00a0 FFF7FEFF 		bl	obqGetEmptyBufferTimeoutS
 1900              	.LVL112:
 1901              	.LBE470:
 1902              		.loc 1 760 0
 1903 00a4 F8B9     		cbnz	r0, .L104
 1904              	.L118:
 1905 00a6 606A     		ldr	r0, [r4, #36]
 1906              	.LVL113:
 1907 00a8 BEE7     		b	.L99
 1908              	.LVL114:
 1909              	.L105:
 1910              	.LBE509:
 1911              		.loc 1 782 0
 1912 00aa 5A46     		mov	r2, fp
 1913 00ac FFF7FEFF 		bl	memcpy
 1914              	.LVL115:
 1915              		.loc 1 784 0
 1916 00b0 626A     		ldr	r2, [r4, #36]
ARM GAS  /tmp/ccfsyuYl.s 			page 35


 1917              		.loc 1 789 0
 1918 00b2 A16A     		ldr	r1, [r4, #40]
 1919              		.loc 1 784 0
 1920 00b4 5A44     		add	r2, r2, fp
 1921              		.loc 1 789 0
 1922 00b6 9142     		cmp	r1, r2
 1923              		.loc 1 785 0
 1924 00b8 5D44     		add	r5, r5, fp
 1925              	.LVL116:
 1926              		.loc 1 783 0
 1927 00ba D944     		add	r9, r9, fp
 1928              	.LVL117:
 1929              		.loc 1 784 0
 1930 00bc 6262     		str	r2, [r4, #36]
 1931              		.loc 1 789 0
 1932 00be DCD8     		bhi	.L108
 1933              	.L114:
 1934              		.loc 1 790 0
 1935 00c0 A169     		ldr	r1, [r4, #24]
 1936 00c2 2046     		mov	r0, r4
 1937 00c4 0439     		subs	r1, r1, #4
 1938 00c6 FFF7FEFF 		bl	obqPostFullBufferS
 1939              	.LVL118:
 1940              	.LBB510:
 1941              	.LBB502:
 1942              	.LBB500:
 1943              	.LBB498:
 1944              	.LBB496:
 1945              	.LBB494:
 1946              		.loc 4 548 0
 1947              	@ 548 "/home/peter/ChibiOS_16.1.4/os/ext/CMSIS/include/core_cmFunc.h" 1
 1948 00ca 87F31188 		MSR basepri, r7
 1949              	@ 0 "" 2
 1950              		.thumb
 1951              	.LBE494:
 1952              	.LBE496:
 1953              	.LBE498:
 1954              	.LBE500:
 1955              	.LBE502:
 1956              	.LBE510:
 1957              		.loc 1 795 0
 1958 00ce 5545     		cmp	r5, r10
 1959 00d0 D7D3     		bcc	.L117
 1960              	.LVL119:
 1961              	.L103:
 1962              	.LBE521:
 1963              		.loc 1 800 0
 1964 00d2 2846     		mov	r0, r5
 1965 00d4 03B0     		add	sp, sp, #12
 1966              		.cfi_remember_state
 1967              		.cfi_def_cfa_offset 36
 1968              		@ sp needed
 1969 00d6 BDE8F08F 		pop	{r4, r5, r6, r7, r8, r9, r10, fp, pc}
 1970              	.LVL120:
 1971              	.L115:
 1972              		.cfi_restore_state
 1973              	.LBB522:
ARM GAS  /tmp/ccfsyuYl.s 			page 36


 1974              	.LBB511:
 1975              		.loc 1 744 0
 1976 00da 2046     		mov	r0, r4
 1977 00dc 4146     		mov	r1, r8
 1978 00de FFF7FEFF 		bl	obqGetEmptyBufferTimeoutS
 1979              	.LVL121:
 1980              		.loc 1 760 0
 1981 00e2 0028     		cmp	r0, #0
 1982 00e4 DFD0     		beq	.L118
 1983              	.L104:
 1984              	.LVL122:
 1985              	.LBB480:
 1986              	.LBB481:
 1987              	.LBB482:
 1988              	.LBB483:
 1989              	.LBB484:
 1990              	.LBB485:
 1991              		.loc 4 548 0
 1992 00e6 0023     		movs	r3, #0
 1993              	@ 548 "/home/peter/ChibiOS_16.1.4/os/ext/CMSIS/include/core_cmFunc.h" 1
 1994 00e8 83F31188 		MSR basepri, r3
 1995              	@ 0 "" 2
 1996              		.thumb
 1997              	.LBE485:
 1998              	.LBE484:
 1999              	.LBE483:
 2000              	.LBE482:
 2001              	.LBE481:
 2002              	.LBE480:
 2003              	.LBE511:
 2004              	.LBE522:
 2005              		.loc 1 800 0
 2006 00ec 2846     		mov	r0, r5
 2007              	.LVL123:
 2008 00ee 03B0     		add	sp, sp, #12
 2009              		.cfi_remember_state
 2010              		.cfi_def_cfa_offset 36
 2011              		@ sp needed
 2012 00f0 BDE8F08F 		pop	{r4, r5, r6, r7, r8, r9, r10, fp, pc}
 2013              	.LVL124:
 2014              	.L116:
 2015              		.cfi_restore_state
 2016              	.LBB523:
 2017              	.LBB512:
 2018              	.LBB486:
 2019              	.LBB474:
 2020              	.LBB475:
 2021              	.LBB476:
 2022              	.LBB477:
 2023              	.LBB478:
 2024              	.LBB479:
 2025              		.loc 4 548 0
 2026              	@ 548 "/home/peter/ChibiOS_16.1.4/os/ext/CMSIS/include/core_cmFunc.h" 1
 2027 00f4 80F31188 		MSR basepri, r0
 2028              	@ 0 "" 2
 2029              		.thumb
 2030              	.LBE479:
ARM GAS  /tmp/ccfsyuYl.s 			page 37


 2031              	.LBE478:
 2032              	.LBE477:
 2033              	.LBE476:
 2034              	.LBE475:
 2035              	.LBE474:
 2036              		.loc 1 754 0
 2037 00f8 EBE7     		b	.L103
 2038              	.L120:
 2039 00fa 00BF     		.align	2
 2040              	.L119:
 2041 00fc 00000000 		.word	ch
 2042              	.LBE486:
 2043              	.LBE512:
 2044              	.LBE523:
 2045              		.cfi_endproc
 2046              	.LFE226:
 2047              		.size	obqWriteTimeout, .-obqWriteTimeout
 2048              		.section	.text.obqTryFlushI,"ax",%progbits
 2049              		.align	2
 2050              		.p2align 4,,15
 2051              		.global	obqTryFlushI
 2052              		.thumb
 2053              		.thumb_func
 2054              		.type	obqTryFlushI, %function
 2055              	obqTryFlushI:
 2056              	.LFB227:
 2057              		.loc 1 815 0
 2058              		.cfi_startproc
 2059              		@ args = 0, pretend = 0, frame = 0
 2060              		@ frame_needed = 0, uses_anonymous_args = 0
 2061              		@ link register save eliminated.
 2062              	.LVL125:
 2063              		.loc 1 821 0
 2064 0000 C268     		ldr	r2, [r0, #12]
 2065 0002 0369     		ldr	r3, [r0, #16]
 2066 0004 9A42     		cmp	r2, r3
 2067 0006 01D0     		beq	.L132
 2068              	.L126:
 2069              		.loc 1 842 0
 2070 0008 0020     		movs	r0, #0
 2071              	.LVL126:
 2072 000a 7047     		bx	lr
 2073              	.LVL127:
 2074              	.L132:
 2075              		.loc 1 821 0 discriminator 1
 2076 000c 8368     		ldr	r3, [r0, #8]
 2077 000e 002B     		cmp	r3, #0
 2078 0010 FAD0     		beq	.L126
 2079              		.loc 1 821 0 is_stmt 0
 2080 0012 436A     		ldr	r3, [r0, #36]
 2081 0014 002B     		cmp	r3, #0
 2082 0016 F7D0     		beq	.L126
 2083 0018 043B     		subs	r3, r3, #4
 2084              	.LVL128:
 2085              	.LBB524:
 2086              		.loc 1 824 0 is_stmt 1
 2087 001a 9B1A     		subs	r3, r3, r2
ARM GAS  /tmp/ccfsyuYl.s 			page 38


 2088              	.LVL129:
 2089 001c F4D0     		beq	.L126
 2090              	.LBE524:
 2091              		.loc 1 815 0
 2092 001e 10B4     		push	{r4}
 2093              		.cfi_def_cfa_offset 4
 2094              		.cfi_offset 4, -4
 2095              	.LBB525:
 2096              		.loc 1 827 0
 2097 0020 1360     		str	r3, [r2]
 2098              		.loc 1 831 0
 2099 0022 8369     		ldr	r3, [r0, #24]
 2100              	.LVL130:
 2101              		.loc 1 832 0
 2102 0024 4469     		ldr	r4, [r0, #20]
 2103              		.loc 1 831 0
 2104 0026 1A44     		add	r2, r2, r3
 2105              	.LVL131:
 2106              		.loc 1 832 0
 2107 0028 A242     		cmp	r2, r4
 2108              		.loc 1 830 0
 2109 002a 8168     		ldr	r1, [r0, #8]
 2110              		.loc 1 833 0
 2111 002c 28BF     		it	cs
 2112 002e 036A     		ldrcs	r3, [r0, #32]
 2113              		.loc 1 831 0
 2114 0030 C260     		str	r2, [r0, #12]
 2115              	.LVL132:
 2116              		.loc 1 830 0
 2117 0032 01F1FF31 		add	r1, r1, #-1
 2118              		.loc 1 833 0
 2119 0036 28BF     		it	cs
 2120 0038 C360     		strcs	r3, [r0, #12]
 2121              		.loc 1 837 0
 2122 003a 0023     		movs	r3, #0
 2123              		.loc 1 830 0
 2124 003c 8160     		str	r1, [r0, #8]
 2125              		.loc 1 837 0
 2126 003e 4362     		str	r3, [r0, #36]
 2127              	.LBE525:
 2128              		.loc 1 843 0
 2129 0040 5DF8044B 		ldr	r4, [sp], #4
 2130              		.cfi_restore 4
 2131              		.cfi_def_cfa_offset 0
 2132              	.LBB526:
 2133              		.loc 1 839 0
 2134 0044 0120     		movs	r0, #1
 2135              	.LVL133:
 2136              	.LBE526:
 2137              		.loc 1 843 0
 2138 0046 7047     		bx	lr
 2139              		.cfi_endproc
 2140              	.LFE227:
 2141              		.size	obqTryFlushI, .-obqTryFlushI
 2142 0048 AFF30080 		.section	.text.obqFlush,"ax",%progbits
 2142      AFF30080 
 2143              		.align	2
ARM GAS  /tmp/ccfsyuYl.s 			page 39


 2144              		.p2align 4,,15
 2145              		.global	obqFlush
 2146              		.thumb
 2147              		.thumb_func
 2148              		.type	obqFlush, %function
 2149              	obqFlush:
 2150              	.LFB228:
 2151              		.loc 1 852 0
 2152              		.cfi_startproc
 2153              		@ args = 0, pretend = 0, frame = 0
 2154              		@ frame_needed = 0, uses_anonymous_args = 0
 2155              	.LVL134:
 2156 0000 08B5     		push	{r3, lr}
 2157              		.cfi_def_cfa_offset 8
 2158              		.cfi_offset 3, -8
 2159              		.cfi_offset 14, -4
 2160              	.LBB527:
 2161              	.LBB528:
 2162              	.LBB529:
 2163              	.LBB530:
 2164              	.LBB531:
 2165              		.loc 4 548 0
 2166 0002 2023     		movs	r3, #32
 2167              	@ 548 "/home/peter/ChibiOS_16.1.4/os/ext/CMSIS/include/core_cmFunc.h" 1
 2168 0004 83F31188 		MSR basepri, r3
 2169              	@ 0 "" 2
 2170              		.thumb
 2171              	.LBE531:
 2172              	.LBE530:
 2173              	.LBE529:
 2174              	.LBE528:
 2175              	.LBE527:
 2176              		.loc 1 857 0
 2177 0008 436A     		ldr	r3, [r0, #36]
 2178 000a 2BB1     		cbz	r3, .L134
 2179              	.LBB532:
 2180              		.loc 1 858 0
 2181 000c C168     		ldr	r1, [r0, #12]
 2182 000e 043B     		subs	r3, r3, #4
 2183              	.LVL135:
 2184              		.loc 1 860 0
 2185 0010 591A     		subs	r1, r3, r1
 2186              	.LVL136:
 2187 0012 01D0     		beq	.L134
 2188              		.loc 1 861 0
 2189 0014 FFF7FEFF 		bl	obqPostFullBufferS
 2190              	.LVL137:
 2191              	.L134:
 2192              	.LBE532:
 2193              	.LBB533:
 2194              	.LBB534:
 2195              	.LBB535:
 2196              	.LBB536:
 2197              	.LBB537:
 2198              	.LBB538:
 2199              		.loc 4 548 0
 2200 0018 0023     		movs	r3, #0
ARM GAS  /tmp/ccfsyuYl.s 			page 40


 2201              	@ 548 "/home/peter/ChibiOS_16.1.4/os/ext/CMSIS/include/core_cmFunc.h" 1
 2202 001a 83F31188 		MSR basepri, r3
 2203              	@ 0 "" 2
 2204              		.thumb
 2205 001e 08BD     		pop	{r3, pc}
 2206              	.LBE538:
 2207              	.LBE537:
 2208              	.LBE536:
 2209              	.LBE535:
 2210              	.LBE534:
 2211              	.LBE533:
 2212              		.cfi_endproc
 2213              	.LFE228:
 2214              		.size	obqFlush, .-obqFlush
 2215              		.text
 2216              	.Letext0:
 2217              		.file 6 "/usr/lib/gcc/arm-none-eabi/4.9.3/include/stddef.h"
 2218              		.file 7 "/usr/include/newlib/machine/_default_types.h"
 2219              		.file 8 "/usr/include/newlib/stdint.h"
 2220              		.file 9 "/home/peter/ChibiOS_16.1.4/os/rt/ports/ARMCMx/compilers/GCC/chtypes.h"
 2221              		.file 10 "/home/peter/ChibiOS_16.1.4/os/rt/include/chsystypes.h"
 2222              		.file 11 "/home/peter/ChibiOS_16.1.4/os/rt/ports/ARMCMx/chcore.h"
 2223              		.file 12 "/home/peter/ChibiOS_16.1.4/os/rt/ports/ARMCMx/chcore_v7m.h"
 2224              		.file 13 "/home/peter/ChibiOS_16.1.4/os/rt/include/chtm.h"
 2225              		.file 14 "/home/peter/ChibiOS_16.1.4/os/rt/include/chsem.h"
 2226              		.file 15 "/home/peter/ChibiOS_16.1.4/os/rt/include/chmtx.h"
 2227              		.file 16 "/home/peter/ChibiOS_16.1.4/os/hal/include/hal_buffers.h"
 2228              		.file 17 "/home/peter/ChibiOS_16.1.4/os/rt/include/chsys.h"
 2229              		.file 18 "/home/peter/ChibiOS_16.1.4/os/rt/include/chthreads.h"
 2230              		.file 19 "/home/peter/ChibiOS_16.1.4/os/ext/CMSIS/include/core_cm3.h"