ARM GAS  /tmp/ccKPi6e1.s 			page 1


   1              		.syntax unified
   2              		.cpu cortex-m3
   3              		.fpu softvfp
   4              		.eabi_attribute 20, 1
   5              		.eabi_attribute 21, 1
   6              		.eabi_attribute 23, 3
   7              		.eabi_attribute 24, 1
   8              		.eabi_attribute 25, 1
   9              		.eabi_attribute 26, 1
  10              		.eabi_attribute 30, 2
  11              		.eabi_attribute 34, 1
  12              		.eabi_attribute 18, 4
  13              		.thumb
  14              		.file	"icu.c"
  15              		.text
  16              	.Ltext0:
  17              		.cfi_sections	.debug_frame
  18              		.section	.text.icuInit,"ax",%progbits
  19              		.align	2
  20              		.p2align 4,,15
  21              		.global	icuInit
  22              		.thumb
  23              		.thumb_func
  24              		.type	icuInit, %function
  25              	icuInit:
  26              	.LFB207:
  27              		.file 1 "/home/peter/ChibiOS_16.1.4/os/hal/src/icu.c"
  28              		.loc 1 56 0
  29              		.cfi_startproc
  30              		@ args = 0, pretend = 0, frame = 0
  31              		@ frame_needed = 0, uses_anonymous_args = 0
  32              		@ link register save eliminated.
  33              		.loc 1 58 0
  34 0000 FFF7FEBF 		b	icu_lld_init
  35              	.LVL0:
  36              		.cfi_endproc
  37              	.LFE207:
  38              		.size	icuInit, .-icuInit
  39 0004 AFF30080 		.section	.text.icuObjectInit,"ax",%progbits
  39      AFF30080 
  39      AFF30080 
  40              		.align	2
  41              		.p2align 4,,15
  42              		.global	icuObjectInit
  43              		.thumb
  44              		.thumb_func
  45              		.type	icuObjectInit, %function
  46              	icuObjectInit:
  47              	.LFB208:
  48              		.loc 1 68 0
  49              		.cfi_startproc
  50              		@ args = 0, pretend = 0, frame = 0
  51              		@ frame_needed = 0, uses_anonymous_args = 0
  52              		@ link register save eliminated.
  53              	.LVL1:
  54              		.loc 1 70 0
  55 0000 0122     		movs	r2, #1
ARM GAS  /tmp/ccKPi6e1.s 			page 2


  56              		.loc 1 71 0
  57 0002 0023     		movs	r3, #0
  58              		.loc 1 70 0
  59 0004 0270     		strb	r2, [r0]
  60              		.loc 1 71 0
  61 0006 4360     		str	r3, [r0, #4]
  62 0008 7047     		bx	lr
  63              		.cfi_endproc
  64              	.LFE208:
  65              		.size	icuObjectInit, .-icuObjectInit
  66 000a 00BFAFF3 		.section	.text.icuStart,"ax",%progbits
  66      0080
  67              		.align	2
  68              		.p2align 4,,15
  69              		.global	icuStart
  70              		.thumb
  71              		.thumb_func
  72              		.type	icuStart, %function
  73              	icuStart:
  74              	.LFB209:
  75              		.loc 1 82 0
  76              		.cfi_startproc
  77              		@ args = 0, pretend = 0, frame = 0
  78              		@ frame_needed = 0, uses_anonymous_args = 0
  79              	.LVL2:
  80 0000 10B5     		push	{r4, lr}
  81              		.cfi_def_cfa_offset 8
  82              		.cfi_offset 4, -8
  83              		.cfi_offset 14, -4
  84              	.LBB115:
  85              	.LBB116:
  86              	.LBB117:
  87              	.LBB118:
  88              	.LBB119:
  89              		.file 2 "/home/peter/ChibiOS_16.1.4/os/ext/CMSIS/include/core_cmFunc.h"
  90              		.loc 2 548 0
  91 0002 2023     		movs	r3, #32
  92              	.LBE119:
  93              	.LBE118:
  94              	.LBE117:
  95              	.LBE116:
  96              	.LBE115:
  97              		.loc 1 82 0
  98 0004 0446     		mov	r4, r0
  99              	.LBB124:
 100              	.LBB123:
 101              	.LBB122:
 102              	.LBB121:
 103              	.LBB120:
 104              		.loc 2 548 0
 105              	@ 548 "/home/peter/ChibiOS_16.1.4/os/ext/CMSIS/include/core_cmFunc.h" 1
 106 0006 83F31188 		MSR basepri, r3
 107              	@ 0 "" 2
 108              		.thumb
 109              	.LBE120:
 110              	.LBE121:
 111              	.LBE122:
ARM GAS  /tmp/ccKPi6e1.s 			page 3


 112              	.LBE123:
 113              	.LBE124:
 114              		.loc 1 89 0
 115 000a 4160     		str	r1, [r0, #4]
 116              		.loc 1 90 0
 117 000c FFF7FEFF 		bl	icu_lld_start
 118              	.LVL3:
 119              		.loc 1 91 0
 120 0010 0223     		movs	r3, #2
 121 0012 2370     		strb	r3, [r4]
 122              	.LVL4:
 123              	.LBB125:
 124              	.LBB126:
 125              	.LBB127:
 126              	.LBB128:
 127              	.LBB129:
 128              	.LBB130:
 129              		.loc 2 548 0
 130 0014 0023     		movs	r3, #0
 131              	@ 548 "/home/peter/ChibiOS_16.1.4/os/ext/CMSIS/include/core_cmFunc.h" 1
 132 0016 83F31188 		MSR basepri, r3
 133              	@ 0 "" 2
 134              		.thumb
 135 001a 10BD     		pop	{r4, pc}
 136              	.LBE130:
 137              	.LBE129:
 138              	.LBE128:
 139              	.LBE127:
 140              	.LBE126:
 141              	.LBE125:
 142              		.cfi_endproc
 143              	.LFE209:
 144              		.size	icuStart, .-icuStart
 145 001c AFF30080 		.section	.text.icuStop,"ax",%progbits
 146              		.align	2
 147              		.p2align 4,,15
 148              		.global	icuStop
 149              		.thumb
 150              		.thumb_func
 151              		.type	icuStop, %function
 152              	icuStop:
 153              	.LFB210:
 154              		.loc 1 102 0
 155              		.cfi_startproc
 156              		@ args = 0, pretend = 0, frame = 0
 157              		@ frame_needed = 0, uses_anonymous_args = 0
 158              	.LVL5:
 159 0000 10B5     		push	{r4, lr}
 160              		.cfi_def_cfa_offset 8
 161              		.cfi_offset 4, -8
 162              		.cfi_offset 14, -4
 163              	.LBB131:
 164              	.LBB132:
 165              	.LBB133:
 166              	.LBB134:
 167              	.LBB135:
 168              		.loc 2 548 0
ARM GAS  /tmp/ccKPi6e1.s 			page 4


 169 0002 2023     		movs	r3, #32
 170              	.LBE135:
 171              	.LBE134:
 172              	.LBE133:
 173              	.LBE132:
 174              	.LBE131:
 175              		.loc 1 102 0
 176 0004 0446     		mov	r4, r0
 177              	.LBB140:
 178              	.LBB139:
 179              	.LBB138:
 180              	.LBB137:
 181              	.LBB136:
 182              		.loc 2 548 0
 183              	@ 548 "/home/peter/ChibiOS_16.1.4/os/ext/CMSIS/include/core_cmFunc.h" 1
 184 0006 83F31188 		MSR basepri, r3
 185              	@ 0 "" 2
 186              		.thumb
 187              	.LBE136:
 188              	.LBE137:
 189              	.LBE138:
 190              	.LBE139:
 191              	.LBE140:
 192              		.loc 1 109 0
 193 000a FFF7FEFF 		bl	icu_lld_stop
 194              	.LVL6:
 195              		.loc 1 110 0
 196 000e 0123     		movs	r3, #1
 197 0010 2370     		strb	r3, [r4]
 198              	.LVL7:
 199              	.LBB141:
 200              	.LBB142:
 201              	.LBB143:
 202              	.LBB144:
 203              	.LBB145:
 204              	.LBB146:
 205              		.loc 2 548 0
 206 0012 0023     		movs	r3, #0
 207              	@ 548 "/home/peter/ChibiOS_16.1.4/os/ext/CMSIS/include/core_cmFunc.h" 1
 208 0014 83F31188 		MSR basepri, r3
 209              	@ 0 "" 2
 210              		.thumb
 211 0018 10BD     		pop	{r4, pc}
 212              	.LBE146:
 213              	.LBE145:
 214              	.LBE144:
 215              	.LBE143:
 216              	.LBE142:
 217              	.LBE141:
 218              		.cfi_endproc
 219              	.LFE210:
 220              		.size	icuStop, .-icuStop
 221 001a 00BFAFF3 		.section	.text.icuStartCapture,"ax",%progbits
 221      0080
 222              		.align	2
 223              		.p2align 4,,15
 224              		.global	icuStartCapture
ARM GAS  /tmp/ccKPi6e1.s 			page 5


 225              		.thumb
 226              		.thumb_func
 227              		.type	icuStartCapture, %function
 228              	icuStartCapture:
 229              	.LFB211:
 230              		.loc 1 121 0
 231              		.cfi_startproc
 232              		@ args = 0, pretend = 0, frame = 0
 233              		@ frame_needed = 0, uses_anonymous_args = 0
 234              	.LVL8:
 235 0000 10B5     		push	{r4, lr}
 236              		.cfi_def_cfa_offset 8
 237              		.cfi_offset 4, -8
 238              		.cfi_offset 14, -4
 239              	.LBB147:
 240              	.LBB148:
 241              	.LBB149:
 242              	.LBB150:
 243              	.LBB151:
 244              		.loc 2 548 0
 245 0002 2023     		movs	r3, #32
 246              	.LBE151:
 247              	.LBE150:
 248              	.LBE149:
 249              	.LBE148:
 250              	.LBE147:
 251              		.loc 1 121 0
 252 0004 0446     		mov	r4, r0
 253              	.LBB156:
 254              	.LBB155:
 255              	.LBB154:
 256              	.LBB153:
 257              	.LBB152:
 258              		.loc 2 548 0
 259              	@ 548 "/home/peter/ChibiOS_16.1.4/os/ext/CMSIS/include/core_cmFunc.h" 1
 260 0006 83F31188 		MSR basepri, r3
 261              	@ 0 "" 2
 262              		.thumb
 263              	.LBE152:
 264              	.LBE153:
 265              	.LBE154:
 266              	.LBE155:
 267              	.LBE156:
 268              		.loc 1 127 0
 269 000a FFF7FEFF 		bl	icu_lld_start_capture
 270              	.LVL9:
 271 000e 0323     		movs	r3, #3
 272 0010 2370     		strb	r3, [r4]
 273              	.LVL10:
 274              	.LBB157:
 275              	.LBB158:
 276              	.LBB159:
 277              	.LBB160:
 278              	.LBB161:
 279              	.LBB162:
 280              		.loc 2 548 0
 281 0012 0023     		movs	r3, #0
ARM GAS  /tmp/ccKPi6e1.s 			page 6


 282              	@ 548 "/home/peter/ChibiOS_16.1.4/os/ext/CMSIS/include/core_cmFunc.h" 1
 283 0014 83F31188 		MSR basepri, r3
 284              	@ 0 "" 2
 285              		.thumb
 286 0018 10BD     		pop	{r4, pc}
 287              	.LBE162:
 288              	.LBE161:
 289              	.LBE160:
 290              	.LBE159:
 291              	.LBE158:
 292              	.LBE157:
 293              		.cfi_endproc
 294              	.LFE211:
 295              		.size	icuStartCapture, .-icuStartCapture
 296 001a 00BFAFF3 		.section	.text.icuWaitCapture,"ax",%progbits
 296      0080
 297              		.align	2
 298              		.p2align 4,,15
 299              		.global	icuWaitCapture
 300              		.thumb
 301              		.thumb_func
 302              		.type	icuWaitCapture, %function
 303              	icuWaitCapture:
 304              	.LFB212:
 305              		.loc 1 147 0
 306              		.cfi_startproc
 307              		@ args = 0, pretend = 0, frame = 0
 308              		@ frame_needed = 0, uses_anonymous_args = 0
 309              	.LVL11:
 310 0000 10B5     		push	{r4, lr}
 311              		.cfi_def_cfa_offset 8
 312              		.cfi_offset 4, -8
 313              		.cfi_offset 14, -4
 314              	.LBB163:
 315              	.LBB164:
 316              	.LBB165:
 317              	.LBB166:
 318              	.LBB167:
 319              		.loc 2 548 0
 320 0002 2023     		movs	r3, #32
 321              	.LBE167:
 322              	.LBE166:
 323              	.LBE165:
 324              	.LBE164:
 325              	.LBE163:
 326              		.loc 1 147 0
 327 0004 0446     		mov	r4, r0
 328              	.LBB172:
 329              	.LBB171:
 330              	.LBB170:
 331              	.LBB169:
 332              	.LBB168:
 333              		.loc 2 548 0
 334              	@ 548 "/home/peter/ChibiOS_16.1.4/os/ext/CMSIS/include/core_cmFunc.h" 1
 335 0006 83F31188 		MSR basepri, r3
 336              	@ 0 "" 2
 337              		.thumb
ARM GAS  /tmp/ccKPi6e1.s 			page 7


 338              	.LBE168:
 339              	.LBE169:
 340              	.LBE170:
 341              	.LBE171:
 342              	.LBE172:
 343              		.loc 1 157 0
 344 000a FFF7FEFF 		bl	icu_lld_wait_capture
 345              	.LVL12:
 346              		.loc 1 158 0
 347 000e 0028     		cmp	r0, #0
 348 0010 14BF     		ite	ne
 349 0012 0322     		movne	r2, #3
 350 0014 0422     		moveq	r2, #4
 351              	.LBB173:
 352              	.LBB174:
 353              	.LBB175:
 354              	.LBB176:
 355              	.LBB177:
 356              	.LBB178:
 357              		.loc 2 548 0
 358 0016 0023     		movs	r3, #0
 359              	.LBE178:
 360              	.LBE177:
 361              	.LBE176:
 362              	.LBE175:
 363              	.LBE174:
 364              	.LBE173:
 365              		.loc 1 158 0
 366 0018 2270     		strb	r2, [r4]
 367              	.LVL13:
 368              	.LBB184:
 369              	.LBB183:
 370              	.LBB182:
 371              	.LBB181:
 372              	.LBB180:
 373              	.LBB179:
 374              		.loc 2 548 0
 375              	@ 548 "/home/peter/ChibiOS_16.1.4/os/ext/CMSIS/include/core_cmFunc.h" 1
 376 001a 83F31188 		MSR basepri, r3
 377              	@ 0 "" 2
 378              		.thumb
 379              	.LBE179:
 380              	.LBE180:
 381              	.LBE181:
 382              	.LBE182:
 383              	.LBE183:
 384              	.LBE184:
 385              		.loc 1 162 0
 386 001e 10BD     		pop	{r4, pc}
 387              		.cfi_endproc
 388              	.LFE212:
 389              		.size	icuWaitCapture, .-icuWaitCapture
 390              		.section	.text.icuStopCapture,"ax",%progbits
 391              		.align	2
 392              		.p2align 4,,15
 393              		.global	icuStopCapture
 394              		.thumb
ARM GAS  /tmp/ccKPi6e1.s 			page 8


 395              		.thumb_func
 396              		.type	icuStopCapture, %function
 397              	icuStopCapture:
 398              	.LFB213:
 399              		.loc 1 171 0
 400              		.cfi_startproc
 401              		@ args = 0, pretend = 0, frame = 0
 402              		@ frame_needed = 0, uses_anonymous_args = 0
 403              	.LVL14:
 404 0000 10B5     		push	{r4, lr}
 405              		.cfi_def_cfa_offset 8
 406              		.cfi_offset 4, -8
 407              		.cfi_offset 14, -4
 408              	.LBB185:
 409              	.LBB186:
 410              	.LBB187:
 411              	.LBB188:
 412              	.LBB189:
 413              		.loc 2 548 0
 414 0002 2023     		movs	r3, #32
 415              	.LBE189:
 416              	.LBE188:
 417              	.LBE187:
 418              	.LBE186:
 419              	.LBE185:
 420              		.loc 1 171 0
 421 0004 0446     		mov	r4, r0
 422              	.LBB194:
 423              	.LBB193:
 424              	.LBB192:
 425              	.LBB191:
 426              	.LBB190:
 427              		.loc 2 548 0
 428              	@ 548 "/home/peter/ChibiOS_16.1.4/os/ext/CMSIS/include/core_cmFunc.h" 1
 429 0006 83F31188 		MSR basepri, r3
 430              	@ 0 "" 2
 431              		.thumb
 432              	.LBE190:
 433              	.LBE191:
 434              	.LBE192:
 435              	.LBE193:
 436              	.LBE194:
 437              		.loc 1 179 0
 438 000a FFF7FEFF 		bl	icu_lld_stop_capture
 439              	.LVL15:
 440 000e 0223     		movs	r3, #2
 441 0010 2370     		strb	r3, [r4]
 442              	.LVL16:
 443              	.LBB195:
 444              	.LBB196:
 445              	.LBB197:
 446              	.LBB198:
 447              	.LBB199:
 448              	.LBB200:
 449              		.loc 2 548 0
 450 0012 0023     		movs	r3, #0
 451              	@ 548 "/home/peter/ChibiOS_16.1.4/os/ext/CMSIS/include/core_cmFunc.h" 1
ARM GAS  /tmp/ccKPi6e1.s 			page 9


 452 0014 83F31188 		MSR basepri, r3
 453              	@ 0 "" 2
 454              		.thumb
 455 0018 10BD     		pop	{r4, pc}
 456              	.LBE200:
 457              	.LBE199:
 458              	.LBE198:
 459              	.LBE197:
 460              	.LBE196:
 461              	.LBE195:
 462              		.cfi_endproc
 463              	.LFE213:
 464              		.size	icuStopCapture, .-icuStopCapture
 465 001a 00BFAFF3 		.section	.text.icuEnableNotifications,"ax",%progbits
 465      0080
 466              		.align	2
 467              		.p2align 4,,15
 468              		.global	icuEnableNotifications
 469              		.thumb
 470              		.thumb_func
 471              		.type	icuEnableNotifications, %function
 472              	icuEnableNotifications:
 473              	.LFB214:
 474              		.loc 1 192 0
 475              		.cfi_startproc
 476              		@ args = 0, pretend = 0, frame = 0
 477              		@ frame_needed = 0, uses_anonymous_args = 0
 478              	.LVL17:
 479 0000 08B5     		push	{r3, lr}
 480              		.cfi_def_cfa_offset 8
 481              		.cfi_offset 3, -8
 482              		.cfi_offset 14, -4
 483              	.LBB201:
 484              	.LBB202:
 485              	.LBB203:
 486              	.LBB204:
 487              	.LBB205:
 488              		.loc 2 548 0
 489 0002 2023     		movs	r3, #32
 490              	@ 548 "/home/peter/ChibiOS_16.1.4/os/ext/CMSIS/include/core_cmFunc.h" 1
 491 0004 83F31188 		MSR basepri, r3
 492              	@ 0 "" 2
 493              		.thumb
 494              	.LBE205:
 495              	.LBE204:
 496              	.LBE203:
 497              	.LBE202:
 498              	.LBE201:
 499              		.loc 1 199 0
 500 0008 FFF7FEFF 		bl	icu_lld_enable_notifications
 501              	.LVL18:
 502              	.LBB206:
 503              	.LBB207:
 504              	.LBB208:
 505              	.LBB209:
 506              	.LBB210:
 507              	.LBB211:
ARM GAS  /tmp/ccKPi6e1.s 			page 10


 508              		.loc 2 548 0
 509 000c 0023     		movs	r3, #0
 510              	@ 548 "/home/peter/ChibiOS_16.1.4/os/ext/CMSIS/include/core_cmFunc.h" 1
 511 000e 83F31188 		MSR basepri, r3
 512              	@ 0 "" 2
 513              		.thumb
 514 0012 08BD     		pop	{r3, pc}
 515              	.LBE211:
 516              	.LBE210:
 517              	.LBE209:
 518              	.LBE208:
 519              	.LBE207:
 520              	.LBE206:
 521              		.cfi_endproc
 522              	.LFE214:
 523              		.size	icuEnableNotifications, .-icuEnableNotifications
 524 0014 AFF30080 		.section	.text.icuDisableNotifications,"ax",%progbits
 524      AFF30080 
 524      AFF30080 
 525              		.align	2
 526              		.p2align 4,,15
 527              		.global	icuDisableNotifications
 528              		.thumb
 529              		.thumb_func
 530              		.type	icuDisableNotifications, %function
 531              	icuDisableNotifications:
 532              	.LFB215:
 533              		.loc 1 212 0
 534              		.cfi_startproc
 535              		@ args = 0, pretend = 0, frame = 0
 536              		@ frame_needed = 0, uses_anonymous_args = 0
 537              	.LVL19:
 538 0000 08B5     		push	{r3, lr}
 539              		.cfi_def_cfa_offset 8
 540              		.cfi_offset 3, -8
 541              		.cfi_offset 14, -4
 542              	.LBB212:
 543              	.LBB213:
 544              	.LBB214:
 545              	.LBB215:
 546              	.LBB216:
 547              		.loc 2 548 0
 548 0002 2023     		movs	r3, #32
 549              	@ 548 "/home/peter/ChibiOS_16.1.4/os/ext/CMSIS/include/core_cmFunc.h" 1
 550 0004 83F31188 		MSR basepri, r3
 551              	@ 0 "" 2
 552              		.thumb
 553              	.LBE216:
 554              	.LBE215:
 555              	.LBE214:
 556              	.LBE213:
 557              	.LBE212:
 558              		.loc 1 219 0
 559 0008 FFF7FEFF 		bl	icu_lld_disable_notifications
 560              	.LVL20:
 561              	.LBB217:
 562              	.LBB218:
ARM GAS  /tmp/ccKPi6e1.s 			page 11


 563              	.LBB219:
 564              	.LBB220:
 565              	.LBB221:
 566              	.LBB222:
 567              		.loc 2 548 0
 568 000c 0023     		movs	r3, #0
 569              	@ 548 "/home/peter/ChibiOS_16.1.4/os/ext/CMSIS/include/core_cmFunc.h" 1
 570 000e 83F31188 		MSR basepri, r3
 571              	@ 0 "" 2
 572              		.thumb
 573 0012 08BD     		pop	{r3, pc}
 574              	.LBE222:
 575              	.LBE221:
 576              	.LBE220:
 577              	.LBE219:
 578              	.LBE218:
 579              	.LBE217:
 580              		.cfi_endproc
 581              	.LFE215:
 582              		.size	icuDisableNotifications, .-icuDisableNotifications
 583 0014 AFF30080 		.text
 583      AFF30080 
 583      AFF30080 
 584              	.Letext0:
 585              		.file 3 "/usr/include/newlib/machine/_default_types.h"
 586              		.file 4 "/usr/include/newlib/stdint.h"
 587              		.file 5 "/home/peter/ChibiOS_16.1.4/os/rt/ports/ARMCMx/compilers/GCC/chtypes.h"
 588              		.file 6 "/home/peter/ChibiOS_16.1.4/os/rt/include/chsystypes.h"
 589              		.file 7 "/home/peter/ChibiOS_16.1.4/os/rt/include/chschd.h"
 590              		.file 8 "/home/peter/ChibiOS_16.1.4/os/rt/ports/ARMCMx/chcore.h"
 591              		.file 9 "/home/peter/ChibiOS_16.1.4/os/rt/ports/ARMCMx/chcore_v7m.h"
 592              		.file 10 "/home/peter/ChibiOS_16.1.4/os/rt/include/chtm.h"
 593              		.file 11 "/home/peter/ChibiOS_16.1.4/os/rt/include/chsem.h"
 594              		.file 12 "/home/peter/ChibiOS_16.1.4/os/rt/include/chmtx.h"
 595              		.file 13 "/home/peter/ChibiOS_16.1.4/os/hal/include/icu.h"
 596              		.file 14 "/home/peter/ChibiOS_16.1.4/os/hal/ports/STM32/LLD/TIMv1/icu_lld.h"
 597              		.file 15 "/home/peter/ChibiOS_16.1.4/os/hal/ports/STM32/LLD/TIMv1/stm32_tim.h"
 598              		.file 16 "/home/peter/ChibiOS_16.1.4/os/rt/include/chsys.h"
 599              		.file 17 "/home/peter/ChibiOS_16.1.4/os/hal/osal/rt/osal.h"
 600              		.file 18 "/home/peter/ChibiOS_16.1.4/os/ext/CMSIS/include/core_cm3.h"