ARM GAS  /tmp/ccKPi6e1.s 			page 1


   1              		.syntax unified
   2              		.cpu cortex-m3
   3              		.fpu softvfp
   4              		.eabi_attribute 20, 1
   5              		.eabi_attribute 21, 1
   6              		.eabi_attribute 23, 3
   7              		.eabi_attribute 24, 1
   8              		.eabi_attribute 25, 1
   9              		.eabi_attribute 26, 1
  10              		.eabi_attribute 30, 2
  11              		.eabi_attribute 34, 1
  12              		.eabi_attribute 18, 4
  13              		.thumb
  14              		.file	"icu.c"
  15              		.text
  16              	.Ltext0:
  17              		.cfi_sections	.debug_frame
  18              		.section	.text.icuInit,"ax",%progbits
  19              		.align	2
  20              		.p2align 4,,15
  21              		.global	icuInit
  22              		.thumb
  23              		.thumb_func
  24              		.type	icuInit, %function
  25              	icuInit:
  26              	.LFB207:
  27              		.file 1 "/home/peter/ChibiOS_16.1.4/os/hal/src/icu.c"
  28              		.loc 1 56 0
  29              		.cfi_startproc
  30              		@ args = 0, pretend = 0, frame = 0
  31              		@ frame_needed = 0, uses_anonymous_args = 0
  32              		@ link register save eliminated.
  33              		.loc 1 58 0
  34 0000 FFF7FEBF 		b	icu_lld_init
  35              	.LVL0:
  36              		.cfi_endproc
  37              	.LFE207:
  38              		.size	icuInit, .-icuInit
  39 0004 AFF30080 		.section	.text.icuObjectInit,"ax",%progbits
  39      AFF30080 
  39      AFF30080 
  40              		.align	2
  41              		.p2align 4,,15
  42              		.global	icuObjectInit
  43              		.thumb
  44              		.thumb_func
  45              		.type	icuObjectInit, %function
  46              	icuObjectInit:
  47              	.LFB208:
  48              		.loc 1 68 0
  49              		.cfi_startproc
  50              		@ args = 0, pretend = 0, frame = 0
  51              		@ frame_needed = 0, uses_anonymous_args = 0
  52              		@ link register save eliminated.
  53              	.LVL1:
  54              		.loc 1 70 0
  55 0000 0122     		movs	r2, #1
ARM GAS  /tmp/ccKPi6e1.s 			page 2


  56              		.loc 1 71 0
  57 0002 0023     		movs	r3, #0
  58              		.loc 1 70 0
  59 0004 0270     		strb	r2, [r0]
  60              		.loc 1 71 0
  61 0006 4360     		str	r3, [r0, #4]
  62 0008 7047     		bx	lr
  63              		.cfi_endproc
  64              	.LFE208:
  65              		.size	icuObjectInit, .-icuObjectInit
  66 000a 00BFAFF3 		.section	.text.icuStart,"ax",%progbits
  66      0080
  67              		.align	2
  68              		.p2align 4,,15
  69              		.global	icuStart
  70              		.thumb
  71              		.thumb_func
  72              		.type	icuStart, %function
  73              	icuStart:
  74              	.LFB209:
  75              		.loc 1 82 0
  76              		.cfi_startproc
  77              		@ args = 0, pretend = 0, frame = 0
  78              		@ frame_needed = 0, uses_anonymous_args = 0
  79              	.LVL2:
  80 0000 10B5     		push	{r4, lr}
  81              		.cfi_def_cfa_offset 8
  82              		.cfi_offset 4, -8
  83              		.cfi_offset 14, -4
  84              	.LBB115:
  85              	.LBB116:
  86              	.LBB117:
  87              	.LBB118:
  88              	.LBB119:
  89              		.file 2 "/home/peter/ChibiOS_16.1.4/os/ext/CMSIS/include/core_cmFunc.h"
  90              		.loc 2 548 0
  91 0002 2023     		movs	r3, #32
  92              	.LBE119:
  93              	.LBE118:
  94              	.LBE117:
  95              	.LBE116:
  96              	.LBE115:
  97              		.loc 1 82 0
  98 0004 0446     		mov	r4, r0
  99              	.LBB124:
 100              	.LBB123:
 101              	.LBB122:
 102              	.LBB121:
 103              	.LBB120:
 104              		.loc 2 548 0
 105              	@ 548 "/home/peter/ChibiOS_16.1.4/os/ext/CMSIS/include/core_cmFunc.h" 1
 106 0006 83F31188 		MSR basepri, r3
 107              	@ 0 "" 2
 108              		.thumb
 109              	.LBE120:
 110              	.LBE121:
 111              	.LBE122:
ARM GAS  /tmp/ccKPi6e1.s 			page 3


 112              	.LBE123:
 113              	.LBE124:
 114              		.loc 1 89 0
 115 000a 4160     		str	r1, [r0, #4]
 116              		.loc 1 90 0
 117 000c FFF7FEFF 		bl	icu_lld_start
 118              	.LVL3:
 119              		.loc 1 91 0
 120 0010 0223     		movs	r3, #2
 121 0012 2370     		strb	r3, [r4]
 122              	.LVL4:
 123              	.LBB125:
 124              	.LBB126:
 125              	.LBB127:
 126              	.LBB128:
 127              	.LBB129:
 128              	.LBB130:
 129              		.loc 2 548 0
 130 0014 0023     		movs	r3, #0
 131              	@ 548 "/home/peter/ChibiOS_16.1.4/os/ext/CMSIS/include/core_cmFunc.h" 1
 132 0016 83F31188 		MSR basepri, r3
 133              	@ 0 "" 2
 134              		.thumb
 135 001a 10BD     		pop	{r4, pc}
 136              	.LBE130:
 137              	.LBE129:
 138              	.LBE128:
 139              	.LBE127:
 140              	.LBE126:
 141              	.LBE125:
 142              		.cfi_endproc
 143              	.LFE209:
 144              		.size	icuStart, .-icuStart
 145 001c AFF30080 		.section	.text.icuStop,"ax",%progbits
 146              		.align	2
 147              		.p2align 4,,15
 148              		.global	icuStop
 149              		.thumb
 150              		.thumb_func
 151              		.type	icuStop, %function
 152              	icuStop:
 153              	.LFB210:
 154              		.loc 1 102 0
 155              		.cfi_startproc
 156              		@ args = 0, pretend = 0, frame = 0
 157              		@ frame_needed = 0, uses_anonymous_args = 0
 158              	.LVL5:
 159 0000 10B5     		push	{r4, lr}
 160              		.cfi_def_cfa_offset 8
 161              		.cfi_offset 4, -8
 162              		.cfi_offset 14, -4
 163              	.LBB131:
 164              	.LBB132:
 165              	.LBB133:
 166              	.LBB134:
 167              	.LBB135:
 168              		.loc 2 548 0
ARM GAS  /tmp/ccKPi6e1.s 			page 4


 169 0002 2023     		movs	r3, #32
 170              	.LBE135:
 171              	.LBE134:
 172              	.LBE133:
 173              	.LBE132:
 174              	.LBE131:
 175              		.loc 1 102 0
 176 0004 0446     		mov	r4, r0
 177              	.LBB140:
 178              	.LBB139:
 179              	.LBB138:
 180              	.LBB137:
 181              	.LBB136:
 182              		.loc 2 548 0
 183              	@ 548 "/home/peter/ChibiOS_16.1.4/os/ext/CMSIS/include/core_cmFunc.h" 1
 184 0006 83F31188 		MSR basepri, r3
 185              	@ 0 "" 2
 186              		.thumb
 187              	.LBE136:
 188              	.LBE137:
 189              	.LBE138:
 190              	.LBE139:
 191              	.LBE140:
 192              		.loc 1 109 0
 193 000a FFF7FEFF 		bl	icu_lld_stop
 194              	.LVL6:
 195              		.loc 1 110 0
 196 000e 0123     		movs	r3, #1
 197 0010 2370     		strb	r3, [r4]
 198              	.LVL7:
 199              	.LBB141:
 200              	.LBB142:
 201              	.LBB143:
 202              	.LBB144:
 203              	.LBB145:
 204              	.LBB146:
 205              		.loc 2 548 0
 206 0012 0023     		movs	r3, #0
 207              	@ 548 "/home/peter/ChibiOS_16.1.4/os/ext/CMSIS/include/core_cmFunc.h" 1
 208 0014 83F31188 		MSR basepri, r3
 209              	@ 0 "" 2
 210              		.thumb
 211 0018 10BD     		pop	{r4, pc}
 212              	.LBE146:
 213              	.LBE145:
 214              	.LBE144:
 215              	.LBE143:
 216              	.LBE142:
 217              	.LBE141:
 218              		.cfi_endproc
 219              	.LFE210:
 220              		.size	icuStop, .-icuStop
 221 001a 00BFAFF3 		.section	.text.icuStartCapture,"ax",%progbits
 221      0080
 222              		.align	2
 223              		.p2align 4,,15
 224              		.global	icuStartCapture
ARM GAS  /tmp/ccKPi6e1.s 			page 5


 225              		.thumb
 226              		.thumb_func
 227              		.type	icuStartCapture, %function
 228              	icuStartCapture:
 229              	.LFB211:
 230              		.loc 1 121 0
 231              		.cfi_startproc
 232              		@ args = 0, pretend = 0, frame = 0
 233              		@ frame_needed = 0, uses_anonymous_args = 0
 234              	.LVL8:
 235 0000 10B5     		push	{r4, lr}
 236              		.cfi_def_cfa_offset 8
 237              		.cfi_offset 4, -8
 238              		.cfi_offset 14, -4
 239              	.LBB147:
 240              	.LBB148:
 241              	.LBB149:
 242              	.LBB150:
 243              	.LBB151:
 244              		.loc 2 548 0
 245 0002 2023     		movs	r3, #32
 246              	.LBE151:
 247              	.LBE150:
 248              	.LBE149:
 249              	.LBE148:
 250              	.LBE147:
 251              		.loc 1 121 0
 252 0004 0446     		mov	r4, r0
 253              	.LBB156:
 254              	.LBB155:
 255              	.LBB154:
 256              	.LBB153:
 257              	.LBB152:
 258              		.loc 2 548 0
 259              	@ 548 "/home/peter/ChibiOS_16.1.4/os/ext/CMSIS/include/core_cmFunc.h" 1
 260 0006 83F31188 		MSR basepri, r3
 261              	@ 0 "" 2
 262              		.thumb
 263              	.LBE152:
 264              	.LBE153:
 265              	.LBE154:
 266              	.LBE155:
 267              	.LBE156:
 268              		.loc 1 127 0
 269 000a FFF7FEFF 		bl	icu_lld_start_capture
 270              	.LVL9:
 271 000e 0323     		movs	r3, #3
 272 0010 2370     		strb	r3, [r4]
 273              	.LVL10:
 274              	.LBB157:
 275              	.LBB158:
 276              	.LBB159:
 277              	.LBB160:
 278              	.LBB161:
 279              	.LBB162:
 280              		.loc 2 548 0
 281 0012 0023     		movs	r3, #0
ARM GAS  /tmp/ccKPi6e1.s 			page 6


 282              	@ 548 "/home/peter/ChibiOS_16.1.4/os/ext/CMSIS/include/core_cmFunc.h" 1
 283 0014 83F31188 		MSR basepri, r3
 284              	@ 0 "" 2
 285              		.thumb
 286 0018 10BD     		pop	{r4, pc}
 287              	.LBE162:
 288              	.LBE161:
 289              	.LBE160:
 290              	.LBE159:
 291              	.LBE158:
 292              	.LBE157:
 293              		.cfi_endproc
 294              	.LFE211:
 295              		.size	icuStartCapture, .-icuStartCapture
 296 001a 00BFAFF3 		.section	.text.icuWaitCapture,"ax",%progbits
 296      0080
 297              		.align	2
 298              		.p2align 4,,15
 299              		.global	icuWaitCapture
 300              		.thumb
 301              		.thumb_func
 302              		.type	icuWaitCapture, %function
 303              	icuWaitCapture:
 304              	.LFB212:
 305              		.loc 1 147 0
 306              		.cfi_startproc
 307              		@ args = 0, pretend = 0, frame = 0
 308              		@ frame_needed = 0, uses_anonymous_args = 0
 309              	.LVL11:
 310 0000 10B5     		push	{r4, lr}
 311              		.cfi_def_cfa_offset 8
 312              		.cfi_offset 4, -8
 313              		.cfi_offset 14, -4
 314              	.LBB163:
 315              	.LBB164:
 316              	.LBB165:
 317              	.LBB166:
 318              	.LBB167:
 319              		.loc 2 548 0
 320 0002 2023     		movs	r3, #32
 321              	.LBE167:
 322              	.LBE166:
 323              	.LBE165:
 324              	.LBE164:
 325              	.LBE163:
 326              		.loc 1 147 0
 327 0004 0446     		mov	r4, r0
 328              	.LBB172:
 329              	.LBB171:
 330              	.LBB170:
 331              	.LBB169:
 332              	.LBB168:
 333              		.loc 2 548 0
 334              	@ 548 "/home/peter/ChibiOS_16.1.4/os/ext/CMSIS/include/core_cmFunc.h" 1
 335 0006 83F31188 		MSR basepri, r3
 336              	@ 0 "" 2
 337              		.thumb
ARM GAS  /tmp/ccKPi6e1.s 			page 7


 338              	.LBE168:
 339              	.LBE169:
 340              	.LBE170:
 341              	.LBE171:
 342              	.LBE172:
 343              		.loc 1 157 0
 344 000a FFF7FEFF 		bl	icu_lld_wait_capture
 345              	.LVL12:
 346              		.loc 1 158 0
 347 000e 0028     		cmp	r0, #0
 348 0010 14BF     		ite	ne
 349 0012 0322     		movne	r2, #3
 350 0014 0422     		moveq	r2, #4
 351              	.LBB173:
 352              	.LBB174:
 353              	.LBB175:
 354              	.LBB176:
 355              	.LBB177:
 356              	.LBB178:
 357              		.loc 2 548 0
 358 0016 0023     		movs	r3, #0
 359              	.LBE178:
 360              	.LBE177:
 361              	.LBE176:
 362              	.LBE175:
 363              	.LBE174:
 364              	.LBE173:
 365              		.loc 1 158 0
 366 0018 2270     		strb	r2, [r4]
 367              	.LVL13:
 368              	.LBB184:
 369              	.LBB183:
 370              	.LBB182:
 371              	.LBB181:
 372              	.LBB180:
 373              	.LBB179:
 374              		.loc 2 548 0
 375              	@ 548 "/home/peter/ChibiOS_16.1.4/os/ext/CMSIS/include/core_cmFunc.h" 1
 376 001a 83F31188 		MSR basepri, r3
 377              	@ 0 "" 2
 378              		.thumb
 379              	.LBE179:
 380              	.LBE180:
 381              	.LBE181:
 382              	.LBE182:
 383              	.LBE183:
 384              	.LBE184:
 385              		.loc 1 162 0
 386 001e 10BD     		pop	{r4, pc}
 387              		.cfi_endproc
 388              	.LFE212:
 389              		.size	icuWaitCapture, .-icuWaitCapture
 390              		.section	.text.icuStopCapture,"ax",%progbits
 391              		.align	2
 392              		.p2align 4,,15
 393              		.global	icuStopCapture
 394              		.thumb
ARM GAS  /tmp/ccKPi6e1.s 			page 8


 395              		.thumb_func
 396              		.type	icuStopCapture, %function
 397              	icuStopCapture:
 398              	.LFB213:
 399              		.loc 1 171 0
 400              		.cfi_startproc
 401              		@ args = 0, pretend = 0, frame = 0
 402              		@ frame_needed = 0, uses_anonymous_args = 0
 403              	.LVL14:
 404 0000 10B5     		push	{r4, lr}
 405              		.cfi_def_cfa_offset 8
 406              		.cfi_offset 4, -8
 407              		.cfi_offset 14, -4
 408              	.LBB185:
 409              	.LBB186:
 410              	.LBB187:
 411              	.LBB188:
 412              	.LBB189:
 413              		.loc 2 548 0
 414 0002 2023     		movs	r3, #32
 415              	.LBE189:
 416              	.LBE188:
 417              	.LBE187:
 418              	.LBE186:
 419              	.LBE185:
 420              		.loc 1 171 0
 421 0004 0446     		mov	r4, r0
 422              	.LBB194:
 423              	.LBB193:
 424              	.LBB192:
 425              	.LBB191:
 426              	.LBB190:
 427              		.loc 2 548 0
 428              	@ 548 "/home/peter/ChibiOS_16.1.4/os/ext/CMSIS/include/core_cmFunc.h" 1
 429 0006 83F31188 		MSR basepri, r3
 430              	@ 0 "" 2
 431              		.thumb
 432              	.LBE190:
 433              	.LBE191:
 434              	.LBE192:
 435              	.LBE193:
 436              	.LBE194:
 437              		.loc 1 179 0
 438 000a FFF7FEFF 		bl	icu_lld_stop_capture
 439              	.LVL15:
 440 000e 0223     		movs	r3, #2
 441 0010 2370     		strb	r3, [r4]
 442              	.LVL16:
 443              	.LBB195:
 444              	.LBB196:
 445              	.LBB197:
 446              	.LBB198:
 447              	.LBB199:
 448              	.LBB200:
 449              		.loc 2 548 0
 450 0012 0023     		movs	r3, #0
 451              	@ 548 "/home/peter/ChibiOS_16.1.4/os/ext/CMSIS/include/core_cmFunc.h" 1
ARM GAS  /tmp/ccKPi6e1.s 			page 9


 452 0014 83F31188 		MSR basepri, r3
 453              	@ 0 "" 2
 454              		.thumb
 455 0018 10BD     		pop	{r4, pc}
 456              	.LBE200:
 457              	.LBE199:
 458              	.LBE198:
 459              	.LBE197:
 460              	.LBE196:
 461              	.LBE195:
 462              		.cfi_endproc
 463              	.LFE213:
 464              		.size	icuStopCapture, .-icuStopCapture
 465 001a 00BFAFF3 		.section	.text.icuEnableNotifications,"ax",%progbits
 465      0080
 466              		.align	2
 467              		.p2align 4,,15
 468              		.global	icuEnableNotifications
 469              		.thumb
 470              		.thumb_func
 471              		.type	icuEnableNotifications, %function
 472              	icuEnableNotifications:
 473              	.LFB214:
 474              		.loc 1 192 0
 475              		.cfi_startproc
 476              		@ args = 0, pretend = 0, frame = 0
 477              		@ frame_needed = 0, uses_anonymous_args = 0
 478              	.LVL17:
 479 0000 08B5     		push	{r3, lr}
 480              		.cfi_def_cfa_offset 8
 481              		.cfi_offset 3, -8
 482              		.cfi_offset 14, -4
 483              	.LBB201:
 484              	.LBB202:
 485              	.LBB203:
 486              	.LBB204:
 487              	.LBB205:
 488              		.loc 2 548 0
 489 0002 2023     		movs	r3, #32
 490              	@ 548 "/home/peter/ChibiOS_16.1.4/os/ext/CMSIS/include/core_cmFunc.h" 1
 491 0004 83F31188 		MSR basepri, r3
 492              	@ 0 "" 2
 493              		.thumb
 494              	.LBE205:
 495              	.LBE204:
 496              	.LBE203:
 497              	.LBE202:
 498              	.LBE201:
 499              		.loc 1 199 0
 500 0008 FFF7FEFF 		bl	icu_lld_enable_notifications
 501              	.LVL18:
 502              	.LBB206:
 503              	.LBB207:
 504              	.LBB208:
 505              	.LBB209:
 506              	.LBB210:
 507              	.LBB211:
ARM GAS  /tmp/ccKPi6e1.s 			page 10


 508              		.loc 2 548 0
 509 000c 0023     		movs	r3, #0
 510              	@ 548 "/home/peter/ChibiOS_16.1.4/os/ext/CMSIS/include/core_cmFunc.h" 1
 511 000e 83F31188 		MSR basepri, r3
 512              	@ 0 "" 2
 513              		.thumb
 514 0012 08BD     		pop	{r3, pc}
 515              	.LBE211:
 516              	.LBE210:
 517              	.LBE209:
 518              	.LBE208:
 519              	.LBE207:
 520              	.LBE206:
 521              		.cfi_endproc
 522              	.LFE214:
 523              		.size	icuEnableNotifications, .-icuEnableNotifications
 524 0014 AFF30080 		.section	.text.icuDisableNotifications,"ax",%progbits
 524      AFF30080 
 524      AFF30080 
 525              		.align	2
 526              		.p2align 4,,15
 527              		.global	icuDisableNotifications
 528              		.thumb
 529              		.thumb_func
 530              		.type	icuDisableNotifications, %function
 531              	icuDisableNotifications:
 532              	.LFB215:
 533              		.loc 1 212 0
 534              		.cfi_startproc
 535              		@ args = 0, pretend = 0, frame = 0
 536              		@ frame_needed = 0, uses_anonymous_args = 0
 537              	.LVL19:
 538 0000 08B5     		push	{r3, lr}
 539              		.cfi_def_cfa_offset 8
 540              		.cfi_offset 3, -8
 541              		.cfi_offset 14, -4
 542              	.LBB212:
 543              	.LBB213:
 544              	.LBB214:
 545              	.LBB215:
 546              	.LBB216:
 547              		.loc 2 548 0
 548 0002 2023     		movs	r3, #32
 549              	@ 548 "/home/peter/ChibiOS_16.1.4/os/ext/CMSIS/include/core_cmFunc.h" 1
 550 0004 83F31188 		MSR basepri, r3
 551              	@ 0 "" 2
 552              		.thumb
 553              	.LBE216:
 554              	.LBE215:
 555              	.LBE214:
 556              	.LBE213:
 557              	.LBE212:
 558              		.loc 1 219 0
 559 0008 FFF7FEFF 		bl	icu_lld_disable_notifications
 560              	.LVL20:
 561              	.LBB217:
 562              	.LBB218:
ARM GAS  /tmp/ccKPi6e1.s 			page 11


 563              	.LBB219:
 564              	.LBB220:
 565              	.LBB221:
 566              	.LBB222:
 567              		.loc 2 548 0
 568 000c 0023     		movs	r3, #0
 569              	@ 548 "/home/peter/ChibiOS_16.1.4/os/ext/CMSIS/include/core_cmFunc.h" 1
 570 000e 83F31188 		MSR basepri, r3
 571              	@ 0 "" 2
 572              		.thumb
 573 0012 08BD     		pop	{r3, pc}
 574              	.LBE222:
 575              	.LBE221:
 576              	.LBE220:
 577              	.LBE219:
 578              	.LBE218:
 579              	.LBE217:
 580              		.cfi_endproc
 581              	.LFE215:
 582              		.size	icuDisableNotifications, .-icuDisableNotifications
 583 0014 AFF30080 		.text
 583      AFF30080 
 583      AFF30080 
 584              	.Letext0:
 585              		.file 3 "/usr/include/newlib/machine/_default_types.h"
 586              		.file 4 "/usr/include/newlib/stdint.h"
 587              		.file 5 "/home/peter/ChibiOS_16.1.4/os/rt/ports/ARMCMx/compilers/GCC/chtypes.h"
 588              		.file 6 "/home/peter/ChibiOS_16.1.4/os/rt/include/chsystypes.h"
 589              		.file 7 "/home/peter/ChibiOS_16.1.4/os/rt/include/chschd.h"
 590              		.file 8 "/home/peter/ChibiOS_16.1.4/os/rt/ports/ARMCMx/chcore.h"
 591              		.file 9 "/home/peter/ChibiOS_16.1.4/os/rt/ports/ARMCMx/chcore_v7m.h"
 592              		.file 10 "/home/peter/ChibiOS_16.1.4/os/rt/include/chtm.h"
 593              		.file 11 "/home/peter/ChibiOS_16.1.4/os/rt/include/chsem.h"
 594              		.file 12 "/home/peter/ChibiOS_16.1.4/os/rt/include/chmtx.h"
 595              		.file 13 "/home/peter/ChibiOS_16.1.4/os/hal/include/icu.h"
 596              		.file 14 "/home/peter/ChibiOS_16.1.4/os/hal/ports/STM32/LLD/TIMv1/icu_lld.h"
 597              		.file 15 "/home/peter/ChibiOS_16.1.4/os/hal/ports/STM32/LLD/TIMv1/stm32_tim.h"
 598              		.file 16 "/home/peter/ChibiOS_16.1.4/os/rt/include/chsys.h"
 599              		.file 17 "/home/peter/ChibiOS_16.1.4/os/hal/osal/rt/osal.h"
 600              		.file 18 "/home/peter/ChibiOS_16.1.4/os/ext/CMSIS/include/core_cm3.h"
 601              		.section	.debug_info,"",%progbits
 602              	.Ldebug_info0:
 603 0000 59110000 		.4byte	0x1159
 604 0004 0400     		.2byte	0x4
 605 0006 00000000 		.4byte	.Ldebug_abbrev0
 606 000a 04       		.byte	0x4
 607 000b 01       		.uleb128 0x1
 608 000c B7050000 		.4byte	.LASF165
 609 0010 01       		.byte	0x1
 610 0011 28000000 		.4byte	.LASF166
 611 0015 90000000 		.4byte	.Ldebug_ranges0+0x90
 612 0019 00000000 		.4byte	0
 613 001d 00000000 		.4byte	.Ldebug_line0
 614 0021 02       		.uleb128 0x2
 615 0022 04       		.byte	0x4
 616 0023 05       		.byte	0x5
 617 0024 696E7400 		.ascii	"int\000"
ARM GAS  /tmp/ccKPi6e1.s 			page 12


 618 0028 03       		.uleb128 0x3
 619 0029 04       		.byte	0x4
 620 002a 07       		.byte	0x7
 621 002b 6F020000 		.4byte	.LASF0
 622 002f 03       		.uleb128 0x3
 623 0030 01       		.byte	0x1
 624 0031 06       		.byte	0x6
 625 0032 80010000 		.4byte	.LASF1
 626 0036 04       		.uleb128 0x4
 627 0037 97000000 		.4byte	.LASF5
 628 003b 03       		.byte	0x3
 629 003c 1D       		.byte	0x1d
 630 003d 41000000 		.4byte	0x41
 631 0041 03       		.uleb128 0x3
 632 0042 01       		.byte	0x1
 633 0043 08       		.byte	0x8
 634 0044 B2040000 		.4byte	.LASF2
 635 0048 03       		.uleb128 0x3
 636 0049 02       		.byte	0x2
 637 004a 05       		.byte	0x5
 638 004b D4040000 		.4byte	.LASF3
 639 004f 03       		.uleb128 0x3
 640 0050 02       		.byte	0x2
 641 0051 07       		.byte	0x7
 642 0052 5B010000 		.4byte	.LASF4
 643 0056 04       		.uleb128 0x4
 644 0057 18030000 		.4byte	.LASF6
 645 005b 03       		.byte	0x3
 646 005c 3F       		.byte	0x3f
 647 005d 61000000 		.4byte	0x61
 648 0061 03       		.uleb128 0x3
 649 0062 04       		.byte	0x4
 650 0063 05       		.byte	0x5
 651 0064 C1010000 		.4byte	.LASF7
 652 0068 04       		.uleb128 0x4
 653 0069 BC060000 		.4byte	.LASF8
 654 006d 03       		.byte	0x3
 655 006e 41       		.byte	0x41
 656 006f 73000000 		.4byte	0x73
 657 0073 03       		.uleb128 0x3
 658 0074 04       		.byte	0x4
 659 0075 07       		.byte	0x7
 660 0076 A5050000 		.4byte	.LASF9
 661 007a 03       		.uleb128 0x3
 662 007b 08       		.byte	0x8
 663 007c 05       		.byte	0x5
 664 007d EE010000 		.4byte	.LASF10
 665 0081 04       		.uleb128 0x4
 666 0082 46040000 		.4byte	.LASF11
 667 0086 03       		.byte	0x3
 668 0087 5B       		.byte	0x5b
 669 0088 8C000000 		.4byte	0x8c
 670 008c 03       		.uleb128 0x3
 671 008d 08       		.byte	0x8
 672 008e 07       		.byte	0x7
 673 008f EA000000 		.4byte	.LASF12
 674 0093 04       		.uleb128 0x4
ARM GAS  /tmp/ccKPi6e1.s 			page 13


 675 0094 89070000 		.4byte	.LASF13
 676 0098 04       		.byte	0x4
 677 0099 15       		.byte	0x15
 678 009a 36000000 		.4byte	0x36
 679 009e 04       		.uleb128 0x4
 680 009f AA040000 		.4byte	.LASF14
 681 00a3 04       		.byte	0x4
 682 00a4 2C       		.byte	0x2c
 683 00a5 56000000 		.4byte	0x56
 684 00a9 04       		.uleb128 0x4
 685 00aa 24070000 		.4byte	.LASF15
 686 00ae 04       		.byte	0x4
 687 00af 2D       		.byte	0x2d
 688 00b0 68000000 		.4byte	0x68
 689 00b4 04       		.uleb128 0x4
 690 00b5 77000000 		.4byte	.LASF16
 691 00b9 04       		.byte	0x4
 692 00ba 39       		.byte	0x39
 693 00bb 81000000 		.4byte	0x81
 694 00bf 04       		.uleb128 0x4
 695 00c0 15070000 		.4byte	.LASF17
 696 00c4 05       		.byte	0x5
 697 00c5 39       		.byte	0x39
 698 00c6 A9000000 		.4byte	0xa9
 699 00ca 04       		.uleb128 0x4
 700 00cb B9070000 		.4byte	.LASF18
 701 00cf 05       		.byte	0x5
 702 00d0 3C       		.byte	0x3c
 703 00d1 93000000 		.4byte	0x93
 704 00d5 04       		.uleb128 0x4
 705 00d6 CA010000 		.4byte	.LASF19
 706 00da 05       		.byte	0x5
 707 00db 3D       		.byte	0x3d
 708 00dc 93000000 		.4byte	0x93
 709 00e0 04       		.uleb128 0x4
 710 00e1 68040000 		.4byte	.LASF20
 711 00e5 05       		.byte	0x5
 712 00e6 3E       		.byte	0x3e
 713 00e7 93000000 		.4byte	0x93
 714 00eb 04       		.uleb128 0x4
 715 00ec A7010000 		.4byte	.LASF21
 716 00f0 05       		.byte	0x5
 717 00f1 3F       		.byte	0x3f
 718 00f2 93000000 		.4byte	0x93
 719 00f6 04       		.uleb128 0x4
 720 00f7 87040000 		.4byte	.LASF22
 721 00fb 05       		.byte	0x5
 722 00fc 40       		.byte	0x40
 723 00fd A9000000 		.4byte	0xa9
 724 0101 04       		.uleb128 0x4
 725 0102 CA020000 		.4byte	.LASF23
 726 0106 05       		.byte	0x5
 727 0107 41       		.byte	0x41
 728 0108 9E000000 		.4byte	0x9e
 729 010c 04       		.uleb128 0x4
 730 010d 0C030000 		.4byte	.LASF24
 731 0111 05       		.byte	0x5
ARM GAS  /tmp/ccKPi6e1.s 			page 14


 732 0112 43       		.byte	0x43
 733 0113 A9000000 		.4byte	0xa9
 734 0117 04       		.uleb128 0x4
 735 0118 69020000 		.4byte	.LASF25
 736 011c 05       		.byte	0x5
 737 011d 45       		.byte	0x45
 738 011e 9E000000 		.4byte	0x9e
 739 0122 04       		.uleb128 0x4
 740 0123 9E060000 		.4byte	.LASF26
 741 0127 06       		.byte	0x6
 742 0128 33       		.byte	0x33
 743 0129 A9000000 		.4byte	0xa9
 744 012d 04       		.uleb128 0x4
 745 012e 8E060000 		.4byte	.LASF27
 746 0132 06       		.byte	0x6
 747 0133 3F       		.byte	0x3f
 748 0134 38010000 		.4byte	0x138
 749 0138 05       		.uleb128 0x5
 750 0139 A4020000 		.4byte	.LASF48
 751 013d 44       		.byte	0x44
 752 013e 07       		.byte	0x7
 753 013f C2       		.byte	0xc2
 754 0140 31020000 		.4byte	0x231
 755 0144 06       		.uleb128 0x6
 756 0145 FC040000 		.4byte	.LASF28
 757 0149 07       		.byte	0x7
 758 014a C3       		.byte	0xc3
 759 014b 3C020000 		.4byte	0x23c
 760 014f 00       		.byte	0
 761 0150 06       		.uleb128 0x6
 762 0151 80040000 		.4byte	.LASF29
 763 0155 07       		.byte	0x7
 764 0156 C5       		.byte	0xc5
 765 0157 3C020000 		.4byte	0x23c
 766 015b 04       		.byte	0x4
 767 015c 06       		.uleb128 0x6
 768 015d 54010000 		.4byte	.LASF30
 769 0161 07       		.byte	0x7
 770 0162 C7       		.byte	0xc7
 771 0163 F6000000 		.4byte	0xf6
 772 0167 08       		.byte	0x8
 773 0168 06       		.uleb128 0x6
 774 0169 FC070000 		.4byte	.LASF31
 775 016d 07       		.byte	0x7
 776 016e C8       		.byte	0xc8
 777 016f 91040000 		.4byte	0x491
 778 0173 0C       		.byte	0xc
 779 0174 06       		.uleb128 0x6
 780 0175 05020000 		.4byte	.LASF32
 781 0179 07       		.byte	0x7
 782 017a CA       		.byte	0xca
 783 017b 3C020000 		.4byte	0x23c
 784 017f 10       		.byte	0x10
 785 0180 06       		.uleb128 0x6
 786 0181 C8030000 		.4byte	.LASF33
 787 0185 07       		.byte	0x7
 788 0186 CB       		.byte	0xcb
ARM GAS  /tmp/ccKPi6e1.s 			page 15


 789 0187 3C020000 		.4byte	0x23c
 790 018b 14       		.byte	0x14
 791 018c 06       		.uleb128 0x6
 792 018d 98070000 		.4byte	.LASF34
 793 0191 07       		.byte	0x7
 794 0192 D2       		.byte	0xd2
 795 0193 10060000 		.4byte	0x610
 796 0197 18       		.byte	0x18
 797 0198 06       		.uleb128 0x6
 798 0199 DE040000 		.4byte	.LASF35
 799 019d 07       		.byte	0x7
 800 019e DD       		.byte	0xdd
 801 019f D5000000 		.4byte	0xd5
 802 01a3 1C       		.byte	0x1c
 803 01a4 06       		.uleb128 0x6
 804 01a5 03050000 		.4byte	.LASF36
 805 01a9 07       		.byte	0x7
 806 01aa E1       		.byte	0xe1
 807 01ab CA000000 		.4byte	0xca
 808 01af 1D       		.byte	0x1d
 809 01b0 06       		.uleb128 0x6
 810 01b1 46070000 		.4byte	.LASF37
 811 01b5 07       		.byte	0x7
 812 01b6 E6       		.byte	0xe6
 813 01b7 E0000000 		.4byte	0xe0
 814 01bb 1E       		.byte	0x1e
 815 01bc 06       		.uleb128 0x6
 816 01bd 3C040000 		.4byte	.LASF38
 817 01c1 07       		.byte	0x7
 818 01c2 EC       		.byte	0xec
 819 01c3 EB000000 		.4byte	0xeb
 820 01c7 1F       		.byte	0x1f
 821 01c8 07       		.uleb128 0x7
 822 01c9 705F7500 		.ascii	"p_u\000"
 823 01cd 07       		.byte	0x7
 824 01ce 3101     		.2byte	0x131
 825 01d0 4B050000 		.4byte	0x54b
 826 01d4 20       		.byte	0x20
 827 01d5 08       		.uleb128 0x8
 828 01d6 82030000 		.4byte	.LASF39
 829 01da 07       		.byte	0x7
 830 01db 3601     		.2byte	0x136
 831 01dd 42020000 		.4byte	0x242
 832 01e1 24       		.byte	0x24
 833 01e2 08       		.uleb128 0x8
 834 01e3 8B020000 		.4byte	.LASF40
 835 01e7 07       		.byte	0x7
 836 01e8 3C01     		.2byte	0x13c
 837 01ea 66020000 		.4byte	0x266
 838 01ee 28       		.byte	0x28
 839 01ef 08       		.uleb128 0x8
 840 01f0 DB070000 		.4byte	.LASF41
 841 01f4 07       		.byte	0x7
 842 01f5 4001     		.2byte	0x140
 843 01f7 01010000 		.4byte	0x101
 844 01fb 30       		.byte	0x30
 845 01fc 08       		.uleb128 0x8
ARM GAS  /tmp/ccKPi6e1.s 			page 16


 846 01fd 64050000 		.4byte	.LASF42
 847 0201 07       		.byte	0x7
 848 0202 4601     		.2byte	0x146
 849 0204 0C010000 		.4byte	0x10c
 850 0208 34       		.byte	0x34
 851 0209 08       		.uleb128 0x8
 852 020a CA040000 		.4byte	.LASF43
 853 020e 07       		.byte	0x7
 854 020f 4D01     		.2byte	0x14d
 855 0211 0A060000 		.4byte	0x60a
 856 0215 38       		.byte	0x38
 857 0216 08       		.uleb128 0x8
 858 0217 A8060000 		.4byte	.LASF44
 859 021b 07       		.byte	0x7
 860 021c 5101     		.2byte	0x151
 861 021e F6000000 		.4byte	0xf6
 862 0222 3C       		.byte	0x3c
 863 0223 08       		.uleb128 0x8
 864 0224 27020000 		.4byte	.LASF45
 865 0228 07       		.byte	0x7
 866 0229 5801     		.2byte	0x158
 867 022b 19030000 		.4byte	0x319
 868 022f 40       		.byte	0x40
 869 0230 00       		.byte	0
 870 0231 04       		.uleb128 0x4
 871 0232 95030000 		.4byte	.LASF46
 872 0236 06       		.byte	0x6
 873 0237 44       		.byte	0x44
 874 0238 3C020000 		.4byte	0x23c
 875 023c 09       		.uleb128 0x9
 876 023d 04       		.byte	0x4
 877 023e 2D010000 		.4byte	0x12d
 878 0242 04       		.uleb128 0x4
 879 0243 73030000 		.4byte	.LASF47
 880 0247 06       		.byte	0x6
 881 0248 49       		.byte	0x49
 882 0249 4D020000 		.4byte	0x24d
 883 024d 05       		.uleb128 0x5
 884 024e 95050000 		.4byte	.LASF49
 885 0252 04       		.byte	0x4
 886 0253 07       		.byte	0x7
 887 0254 B0       		.byte	0xb0
 888 0255 66020000 		.4byte	0x266
 889 0259 06       		.uleb128 0x6
 890 025a FC040000 		.4byte	.LASF28
 891 025e 07       		.byte	0x7
 892 025f B1       		.byte	0xb1
 893 0260 3C020000 		.4byte	0x23c
 894 0264 00       		.byte	0
 895 0265 00       		.byte	0
 896 0266 04       		.uleb128 0x4
 897 0267 2D070000 		.4byte	.LASF50
 898 026b 06       		.byte	0x6
 899 026c 50       		.byte	0x50
 900 026d 71020000 		.4byte	0x271
 901 0271 05       		.uleb128 0x5
 902 0272 AD000000 		.4byte	.LASF51
ARM GAS  /tmp/ccKPi6e1.s 			page 17


 903 0276 08       		.byte	0x8
 904 0277 07       		.byte	0x7
 905 0278 B7       		.byte	0xb7
 906 0279 96020000 		.4byte	0x296
 907 027d 06       		.uleb128 0x6
 908 027e FC040000 		.4byte	.LASF28
 909 0282 07       		.byte	0x7
 910 0283 B8       		.byte	0xb8
 911 0284 3C020000 		.4byte	0x23c
 912 0288 00       		.byte	0
 913 0289 06       		.uleb128 0x6
 914 028a 80040000 		.4byte	.LASF29
 915 028e 07       		.byte	0x7
 916 028f B9       		.byte	0xb9
 917 0290 3C020000 		.4byte	0x23c
 918 0294 04       		.byte	0x4
 919 0295 00       		.byte	0
 920 0296 04       		.uleb128 0x4
 921 0297 16000000 		.4byte	.LASF52
 922 029b 06       		.byte	0x6
 923 029c 57       		.byte	0x57
 924 029d A1020000 		.4byte	0x2a1
 925 02a1 0A       		.uleb128 0xa
 926 02a2 FE020000 		.4byte	.LASF53
 927 02a6 1C       		.byte	0x1c
 928 02a7 07       		.byte	0x7
 929 02a8 9001     		.2byte	0x190
 930 02aa FD020000 		.4byte	0x2fd
 931 02ae 08       		.uleb128 0x8
 932 02af 84050000 		.4byte	.LASF54
 933 02b3 07       		.byte	0x7
 934 02b4 9101     		.2byte	0x191
 935 02b6 66020000 		.4byte	0x266
 936 02ba 00       		.byte	0
 937 02bb 08       		.uleb128 0x8
 938 02bc EE040000 		.4byte	.LASF55
 939 02c0 07       		.byte	0x7
 940 02c1 9201     		.2byte	0x192
 941 02c3 F6000000 		.4byte	0xf6
 942 02c7 08       		.byte	0x8
 943 02c8 08       		.uleb128 0x8
 944 02c9 D7030000 		.4byte	.LASF56
 945 02cd 07       		.byte	0x7
 946 02ce 9401     		.2byte	0x194
 947 02d0 91040000 		.4byte	0x491
 948 02d4 0C       		.byte	0xc
 949 02d5 08       		.uleb128 0x8
 950 02d6 1F020000 		.4byte	.LASF57
 951 02da 07       		.byte	0x7
 952 02db 9701     		.2byte	0x197
 953 02dd 3C020000 		.4byte	0x23c
 954 02e1 10       		.byte	0x10
 955 02e2 08       		.uleb128 0x8
 956 02e3 34040000 		.4byte	.LASF58
 957 02e7 07       		.byte	0x7
 958 02e8 9801     		.2byte	0x198
 959 02ea 3C020000 		.4byte	0x23c
ARM GAS  /tmp/ccKPi6e1.s 			page 18


 960 02ee 14       		.byte	0x14
 961 02ef 08       		.uleb128 0x8
 962 02f0 2A040000 		.4byte	.LASF59
 963 02f4 07       		.byte	0x7
 964 02f5 9B01     		.2byte	0x19b
 965 02f7 3C020000 		.4byte	0x23c
 966 02fb 18       		.byte	0x18
 967 02fc 00       		.byte	0
 968 02fd 04       		.uleb128 0x4
 969 02fe B3060000 		.4byte	.LASF60
 970 0302 06       		.byte	0x6
 971 0303 5C       		.byte	0x5c
 972 0304 08030000 		.4byte	0x308
 973 0308 09       		.uleb128 0x9
 974 0309 04       		.byte	0x4
 975 030a 0E030000 		.4byte	0x30e
 976 030e 0B       		.uleb128 0xb
 977 030f 19030000 		.4byte	0x319
 978 0313 0C       		.uleb128 0xc
 979 0314 19030000 		.4byte	0x319
 980 0318 00       		.byte	0
 981 0319 0D       		.uleb128 0xd
 982 031a 04       		.byte	0x4
 983 031b 04       		.uleb128 0x4
 984 031c 70040000 		.4byte	.LASF61
 985 0320 06       		.byte	0x6
 986 0321 61       		.byte	0x61
 987 0322 26030000 		.4byte	0x326
 988 0326 0A       		.uleb128 0xa
 989 0327 41050000 		.4byte	.LASF62
 990 032b 14       		.byte	0x14
 991 032c 07       		.byte	0x7
 992 032d 6B01     		.2byte	0x16b
 993 032f 75030000 		.4byte	0x375
 994 0333 08       		.uleb128 0x8
 995 0334 7C020000 		.4byte	.LASF63
 996 0338 07       		.byte	0x7
 997 0339 6C01     		.2byte	0x16c
 998 033b 22060000 		.4byte	0x622
 999 033f 00       		.byte	0
 1000 0340 08       		.uleb128 0x8
 1001 0341 38020000 		.4byte	.LASF64
 1002 0345 07       		.byte	0x7
 1003 0346 6D01     		.2byte	0x16d
 1004 0348 22060000 		.4byte	0x622
 1005 034c 04       		.byte	0x4
 1006 034d 08       		.uleb128 0x8
 1007 034e 8C050000 		.4byte	.LASF65
 1008 0352 07       		.byte	0x7
 1009 0353 6E01     		.2byte	0x16e
 1010 0355 22010000 		.4byte	0x122
 1011 0359 08       		.byte	0x8
 1012 035a 08       		.uleb128 0x8
 1013 035b 02080000 		.4byte	.LASF66
 1014 035f 07       		.byte	0x7
 1015 0360 6F01     		.2byte	0x16f
 1016 0362 FD020000 		.4byte	0x2fd
ARM GAS  /tmp/ccKPi6e1.s 			page 19


 1017 0366 0C       		.byte	0xc
 1018 0367 08       		.uleb128 0x8
 1019 0368 1D070000 		.4byte	.LASF67
 1020 036c 07       		.byte	0x7
 1021 036d 7101     		.2byte	0x171
 1022 036f 19030000 		.4byte	0x319
 1023 0373 10       		.byte	0x10
 1024 0374 00       		.byte	0
 1025 0375 04       		.uleb128 0x4
 1026 0376 22010000 		.4byte	.LASF68
 1027 037a 06       		.byte	0x6
 1028 037b 66       		.byte	0x66
 1029 037c 80030000 		.4byte	0x380
 1030 0380 0A       		.uleb128 0xa
 1031 0381 A8030000 		.4byte	.LASF69
 1032 0385 10       		.byte	0x10
 1033 0386 07       		.byte	0x7
 1034 0387 7B01     		.2byte	0x17b
 1035 0389 C2030000 		.4byte	0x3c2
 1036 038d 08       		.uleb128 0x8
 1037 038e 7C020000 		.4byte	.LASF63
 1038 0392 07       		.byte	0x7
 1039 0393 7C01     		.2byte	0x17c
 1040 0395 22060000 		.4byte	0x622
 1041 0399 00       		.byte	0
 1042 039a 08       		.uleb128 0x8
 1043 039b 38020000 		.4byte	.LASF64
 1044 039f 07       		.byte	0x7
 1045 03a0 7E01     		.2byte	0x17e
 1046 03a2 22060000 		.4byte	0x622
 1047 03a6 04       		.byte	0x4
 1048 03a7 08       		.uleb128 0x8
 1049 03a8 8C050000 		.4byte	.LASF65
 1050 03ac 07       		.byte	0x7
 1051 03ad 8001     		.2byte	0x180
 1052 03af 22010000 		.4byte	0x122
 1053 03b3 08       		.byte	0x8
 1054 03b4 08       		.uleb128 0x8
 1055 03b5 9F070000 		.4byte	.LASF70
 1056 03b9 07       		.byte	0x7
 1057 03ba 8201     		.2byte	0x182
 1058 03bc 28060000 		.4byte	0x628
 1059 03c0 0C       		.byte	0xc
 1060 03c1 00       		.byte	0
 1061 03c2 04       		.uleb128 0x4
 1062 03c3 BE000000 		.4byte	.LASF71
 1063 03c7 06       		.byte	0x6
 1064 03c8 6B       		.byte	0x6b
 1065 03c9 CD030000 		.4byte	0x3cd
 1066 03cd 0A       		.uleb128 0xa
 1067 03ce 94040000 		.4byte	.LASF72
 1068 03d2 04       		.byte	0x4
 1069 03d3 07       		.byte	0x7
 1070 03d4 A201     		.2byte	0x1a2
 1071 03d6 E8030000 		.4byte	0x3e8
 1072 03da 08       		.uleb128 0x8
 1073 03db D5060000 		.4byte	.LASF73
ARM GAS  /tmp/ccKPi6e1.s 			page 20


 1074 03df 07       		.byte	0x7
 1075 03e0 AA01     		.2byte	0x1aa
 1076 03e2 2D060000 		.4byte	0x62d
 1077 03e6 00       		.byte	0
 1078 03e7 00       		.byte	0
 1079 03e8 04       		.uleb128 0x4
 1080 03e9 D0020000 		.4byte	.LASF74
 1081 03ed 06       		.byte	0x6
 1082 03ee 70       		.byte	0x70
 1083 03ef F3030000 		.4byte	0x3f3
 1084 03f3 0E       		.uleb128 0xe
 1085 03f4 B7010000 		.4byte	.LASF75
 1086 03f8 5001     		.2byte	0x150
 1087 03fa 07       		.byte	0x7
 1088 03fb C201     		.2byte	0x1c2
 1089 03fd 4F040000 		.4byte	0x44f
 1090 0401 08       		.uleb128 0x8
 1091 0402 F2020000 		.4byte	.LASF76
 1092 0406 07       		.byte	0x7
 1093 0407 C601     		.2byte	0x1c6
 1094 0409 96020000 		.4byte	0x296
 1095 040d 00       		.byte	0
 1096 040e 08       		.uleb128 0x8
 1097 040f 94010000 		.4byte	.LASF77
 1098 0413 07       		.byte	0x7
 1099 0414 CA01     		.2byte	0x1ca
 1100 0416 75030000 		.4byte	0x375
 1101 041a 1C       		.byte	0x1c
 1102 041b 07       		.uleb128 0x7
 1103 041c 64626700 		.ascii	"dbg\000"
 1104 0420 07       		.byte	0x7
 1105 0421 CE01     		.2byte	0x1ce
 1106 0423 C2030000 		.4byte	0x3c2
 1107 0427 2C       		.byte	0x2c
 1108 0428 08       		.uleb128 0x8
 1109 0429 0A010000 		.4byte	.LASF78
 1110 042d 07       		.byte	0x7
 1111 042e D201     		.2byte	0x1d2
 1112 0430 2D010000 		.4byte	0x12d
 1113 0434 30       		.byte	0x30
 1114 0435 07       		.uleb128 0x7
 1115 0436 746D00   		.ascii	"tm\000"
 1116 0439 07       		.byte	0x7
 1117 043a D701     		.2byte	0x1d7
 1118 043c 40050000 		.4byte	0x540
 1119 0440 74       		.byte	0x74
 1120 0441 08       		.uleb128 0x8
 1121 0442 5A020000 		.4byte	.LASF79
 1122 0446 07       		.byte	0x7
 1123 0447 E301     		.2byte	0x1e3
 1124 0449 32060000 		.4byte	0x632
 1125 044d 78       		.byte	0x78
 1126 044e 00       		.byte	0
 1127 044f 03       		.uleb128 0x3
 1128 0450 04       		.byte	0x4
 1129 0451 07       		.byte	0x7
 1130 0452 8C030000 		.4byte	.LASF80
ARM GAS  /tmp/ccKPi6e1.s 			page 21


 1131 0456 0F       		.uleb128 0xf
 1132 0457 A9000000 		.4byte	0xa9
 1133 045b 10       		.uleb128 0x10
 1134 045c A9000000 		.4byte	0xa9
 1135 0460 6B040000 		.4byte	0x46b
 1136 0464 11       		.uleb128 0x11
 1137 0465 4F040000 		.4byte	0x44f
 1138 0469 01       		.byte	0x1
 1139 046a 00       		.byte	0
 1140 046b 10       		.uleb128 0x10
 1141 046c A9000000 		.4byte	0xa9
 1142 0470 7B040000 		.4byte	0x47b
 1143 0474 11       		.uleb128 0x11
 1144 0475 4F040000 		.4byte	0x44f
 1145 0479 03       		.byte	0x3
 1146 047a 00       		.byte	0
 1147 047b 04       		.uleb128 0x4
 1148 047c 2F020000 		.4byte	.LASF81
 1149 0480 08       		.byte	0x8
 1150 0481 65       		.byte	0x65
 1151 0482 19030000 		.4byte	0x319
 1152 0486 04       		.uleb128 0x4
 1153 0487 53030000 		.4byte	.LASF82
 1154 048b 08       		.byte	0x8
 1155 048c 6D       		.byte	0x6d
 1156 048d B4000000 		.4byte	0xb4
 1157 0491 05       		.uleb128 0x5
 1158 0492 03070000 		.4byte	.LASF83
 1159 0496 04       		.byte	0x4
 1160 0497 08       		.byte	0x8
 1161 0498 89       		.byte	0x89
 1162 0499 AA040000 		.4byte	0x4aa
 1163 049d 12       		.uleb128 0x12
 1164 049e 72313300 		.ascii	"r13\000"
 1165 04a2 08       		.byte	0x8
 1166 04a3 8A       		.byte	0x8a
 1167 04a4 25050000 		.4byte	0x525
 1168 04a8 00       		.byte	0
 1169 04a9 00       		.byte	0
 1170 04aa 05       		.uleb128 0x5
 1171 04ab A1000000 		.4byte	.LASF84
 1172 04af 24       		.byte	0x24
 1173 04b0 09       		.byte	0x9
 1174 04b1 FD       		.byte	0xfd
 1175 04b2 25050000 		.4byte	0x525
 1176 04b6 07       		.uleb128 0x7
 1177 04b7 723400   		.ascii	"r4\000"
 1178 04ba 09       		.byte	0x9
 1179 04bb 1001     		.2byte	0x110
 1180 04bd 7B040000 		.4byte	0x47b
 1181 04c1 00       		.byte	0
 1182 04c2 07       		.uleb128 0x7
 1183 04c3 723500   		.ascii	"r5\000"
 1184 04c6 09       		.byte	0x9
 1185 04c7 1101     		.2byte	0x111
 1186 04c9 7B040000 		.4byte	0x47b
 1187 04cd 04       		.byte	0x4
ARM GAS  /tmp/ccKPi6e1.s 			page 22


 1188 04ce 07       		.uleb128 0x7
 1189 04cf 723600   		.ascii	"r6\000"
 1190 04d2 09       		.byte	0x9
 1191 04d3 1201     		.2byte	0x112
 1192 04d5 7B040000 		.4byte	0x47b
 1193 04d9 08       		.byte	0x8
 1194 04da 07       		.uleb128 0x7
 1195 04db 723700   		.ascii	"r7\000"
 1196 04de 09       		.byte	0x9
 1197 04df 1301     		.2byte	0x113
 1198 04e1 7B040000 		.4byte	0x47b
 1199 04e5 0C       		.byte	0xc
 1200 04e6 07       		.uleb128 0x7
 1201 04e7 723800   		.ascii	"r8\000"
 1202 04ea 09       		.byte	0x9
 1203 04eb 1401     		.2byte	0x114
 1204 04ed 7B040000 		.4byte	0x47b
 1205 04f1 10       		.byte	0x10
 1206 04f2 07       		.uleb128 0x7
 1207 04f3 723900   		.ascii	"r9\000"
 1208 04f6 09       		.byte	0x9
 1209 04f7 1501     		.2byte	0x115
 1210 04f9 7B040000 		.4byte	0x47b
 1211 04fd 14       		.byte	0x14
 1212 04fe 07       		.uleb128 0x7
 1213 04ff 72313000 		.ascii	"r10\000"
 1214 0503 09       		.byte	0x9
 1215 0504 1601     		.2byte	0x116
 1216 0506 7B040000 		.4byte	0x47b
 1217 050a 18       		.byte	0x18
 1218 050b 07       		.uleb128 0x7
 1219 050c 72313100 		.ascii	"r11\000"
 1220 0510 09       		.byte	0x9
 1221 0511 1701     		.2byte	0x117
 1222 0513 7B040000 		.4byte	0x47b
 1223 0517 1C       		.byte	0x1c
 1224 0518 07       		.uleb128 0x7
 1225 0519 6C7200   		.ascii	"lr\000"
 1226 051c 09       		.byte	0x9
 1227 051d 1801     		.2byte	0x118
 1228 051f 7B040000 		.4byte	0x47b
 1229 0523 20       		.byte	0x20
 1230 0524 00       		.byte	0
 1231 0525 09       		.uleb128 0x9
 1232 0526 04       		.byte	0x4
 1233 0527 AA040000 		.4byte	0x4aa
 1234 052b 13       		.uleb128 0x13
 1235 052c 04       		.byte	0x4
 1236 052d 0A       		.byte	0xa
 1237 052e 38       		.byte	0x38
 1238 052f 40050000 		.4byte	0x540
 1239 0533 06       		.uleb128 0x6
 1240 0534 DF060000 		.4byte	.LASF85
 1241 0538 0A       		.byte	0xa
 1242 0539 3C       		.byte	0x3c
 1243 053a BF000000 		.4byte	0xbf
 1244 053e 00       		.byte	0
ARM GAS  /tmp/ccKPi6e1.s 			page 23


 1245 053f 00       		.byte	0
 1246 0540 04       		.uleb128 0x4
 1247 0541 04040000 		.4byte	.LASF86
 1248 0545 0A       		.byte	0xa
 1249 0546 3D       		.byte	0x3d
 1250 0547 2B050000 		.4byte	0x52b
 1251 054b 14       		.uleb128 0x14
 1252 054c 04       		.byte	0x4
 1253 054d 07       		.byte	0x7
 1254 054e FA       		.byte	0xfa
 1255 054f A8050000 		.4byte	0x5a8
 1256 0553 15       		.uleb128 0x15
 1257 0554 D0030000 		.4byte	.LASF87
 1258 0558 07       		.byte	0x7
 1259 0559 0101     		.2byte	0x101
 1260 055b 01010000 		.4byte	0x101
 1261 055f 15       		.uleb128 0x15
 1262 0560 01010000 		.4byte	.LASF88
 1263 0564 07       		.byte	0x7
 1264 0565 0801     		.2byte	0x108
 1265 0567 01010000 		.4byte	0x101
 1266 056b 15       		.uleb128 0x15
 1267 056c 91070000 		.4byte	.LASF89
 1268 0570 07       		.byte	0x7
 1269 0571 0F01     		.2byte	0x10f
 1270 0573 19030000 		.4byte	0x319
 1271 0577 15       		.uleb128 0x15
 1272 0578 54000000 		.4byte	.LASF90
 1273 057c 07       		.byte	0x7
 1274 057d 1601     		.2byte	0x116
 1275 057f A8050000 		.4byte	0x5a8
 1276 0583 15       		.uleb128 0x15
 1277 0584 84020000 		.4byte	.LASF91
 1278 0588 07       		.byte	0x7
 1279 0589 1E01     		.2byte	0x11e
 1280 058b D3050000 		.4byte	0x5d3
 1281 058f 15       		.uleb128 0x15
 1282 0590 7D050000 		.4byte	.LASF92
 1283 0594 07       		.byte	0x7
 1284 0595 2701     		.2byte	0x127
 1285 0597 0A060000 		.4byte	0x60a
 1286 059b 15       		.uleb128 0x15
 1287 059c F5040000 		.4byte	.LASF93
 1288 05a0 07       		.byte	0x7
 1289 05a1 2F01     		.2byte	0x12f
 1290 05a3 0C010000 		.4byte	0x10c
 1291 05a7 00       		.byte	0
 1292 05a8 09       		.uleb128 0x9
 1293 05a9 04       		.byte	0x4
 1294 05aa 31020000 		.4byte	0x231
 1295 05ae 05       		.uleb128 0x5
 1296 05af 52050000 		.4byte	.LASF94
 1297 05b3 0C       		.byte	0xc
 1298 05b4 0B       		.byte	0xb
 1299 05b5 34       		.byte	0x34
 1300 05b6 D3050000 		.4byte	0x5d3
 1301 05ba 06       		.uleb128 0x6
ARM GAS  /tmp/ccKPi6e1.s 			page 24


 1302 05bb 0D020000 		.4byte	.LASF95
 1303 05bf 0B       		.byte	0xb
 1304 05c0 35       		.byte	0x35
 1305 05c1 66020000 		.4byte	0x266
 1306 05c5 00       		.byte	0
 1307 05c6 06       		.uleb128 0x6
 1308 05c7 B8020000 		.4byte	.LASF96
 1309 05cb 0B       		.byte	0xb
 1310 05cc 37       		.byte	0x37
 1311 05cd 17010000 		.4byte	0x117
 1312 05d1 08       		.byte	0x8
 1313 05d2 00       		.byte	0
 1314 05d3 09       		.uleb128 0x9
 1315 05d4 04       		.byte	0x4
 1316 05d5 AE050000 		.4byte	0x5ae
 1317 05d9 05       		.uleb128 0x5
 1318 05da 3D070000 		.4byte	.LASF97
 1319 05de 10       		.byte	0x10
 1320 05df 0C       		.byte	0xc
 1321 05e0 39       		.byte	0x39
 1322 05e1 0A060000 		.4byte	0x60a
 1323 05e5 06       		.uleb128 0x6
 1324 05e6 8C010000 		.4byte	.LASF98
 1325 05ea 0C       		.byte	0xc
 1326 05eb 3A       		.byte	0x3a
 1327 05ec 66020000 		.4byte	0x266
 1328 05f0 00       		.byte	0
 1329 05f1 06       		.uleb128 0x6
 1330 05f2 ED070000 		.4byte	.LASF99
 1331 05f6 0C       		.byte	0xc
 1332 05f7 3C       		.byte	0x3c
 1333 05f8 3C020000 		.4byte	0x23c
 1334 05fc 08       		.byte	0x8
 1335 05fd 06       		.uleb128 0x6
 1336 05fe 97060000 		.4byte	.LASF100
 1337 0602 0C       		.byte	0xc
 1338 0603 3E       		.byte	0x3e
 1339 0604 4D060000 		.4byte	0x64d
 1340 0608 0C       		.byte	0xc
 1341 0609 00       		.byte	0
 1342 060a 09       		.uleb128 0x9
 1343 060b 04       		.byte	0x4
 1344 060c D9050000 		.4byte	0x5d9
 1345 0610 09       		.uleb128 0x9
 1346 0611 04       		.byte	0x4
 1347 0612 16060000 		.4byte	0x616
 1348 0616 16       		.uleb128 0x16
 1349 0617 1B060000 		.4byte	0x61b
 1350 061b 03       		.uleb128 0x3
 1351 061c 01       		.byte	0x1
 1352 061d 08       		.byte	0x8
 1353 061e 73060000 		.4byte	.LASF101
 1354 0622 09       		.uleb128 0x9
 1355 0623 04       		.byte	0x4
 1356 0624 1B030000 		.4byte	0x31b
 1357 0628 0F       		.uleb128 0xf
 1358 0629 22010000 		.4byte	0x122
ARM GAS  /tmp/ccKPi6e1.s 			page 25


 1359 062d 0F       		.uleb128 0xf
 1360 062e 10060000 		.4byte	0x610
 1361 0632 10       		.uleb128 0x10
 1362 0633 86040000 		.4byte	0x486
 1363 0637 42060000 		.4byte	0x642
 1364 063b 11       		.uleb128 0x11
 1365 063c 4F040000 		.4byte	0x44f
 1366 0640 1A       		.byte	0x1a
 1367 0641 00       		.byte	0
 1368 0642 04       		.uleb128 0x4
 1369 0643 4C020000 		.4byte	.LASF102
 1370 0647 0C       		.byte	0xc
 1371 0648 34       		.byte	0x34
 1372 0649 D9050000 		.4byte	0x5d9
 1373 064d 09       		.uleb128 0x9
 1374 064e 04       		.byte	0x4
 1375 064f 42060000 		.4byte	0x642
 1376 0653 09       		.uleb128 0x9
 1377 0654 04       		.byte	0x4
 1378 0655 56040000 		.4byte	0x456
 1379 0659 03       		.uleb128 0x3
 1380 065a 01       		.byte	0x1
 1381 065b 02       		.byte	0x2
 1382 065c A4040000 		.4byte	.LASF103
 1383 0660 17       		.uleb128 0x17
 1384 0661 01       		.byte	0x1
 1385 0662 0D       		.byte	0xd
 1386 0663 31       		.byte	0x31
 1387 0664 87060000 		.4byte	0x687
 1388 0668 18       		.uleb128 0x18
 1389 0669 62070000 		.4byte	.LASF104
 1390 066d 00       		.sleb128 0
 1391 066e 18       		.uleb128 0x18
 1392 066f FB030000 		.4byte	.LASF105
 1393 0673 01       		.sleb128 1
 1394 0674 18       		.uleb128 0x18
 1395 0675 49030000 		.4byte	.LASF106
 1396 0679 02       		.sleb128 2
 1397 067a 18       		.uleb128 0x18
 1398 067b 80000000 		.4byte	.LASF107
 1399 067f 03       		.sleb128 3
 1400 0680 18       		.uleb128 0x18
 1401 0681 8C000000 		.4byte	.LASF108
 1402 0685 04       		.sleb128 4
 1403 0686 00       		.byte	0
 1404 0687 04       		.uleb128 0x4
 1405 0688 DF000000 		.4byte	.LASF109
 1406 068c 0D       		.byte	0xd
 1407 068d 37       		.byte	0x37
 1408 068e 60060000 		.4byte	0x660
 1409 0692 04       		.uleb128 0x4
 1410 0693 DC020000 		.4byte	.LASF110
 1411 0697 0D       		.byte	0xd
 1412 0698 3C       		.byte	0x3c
 1413 0699 9D060000 		.4byte	0x69d
 1414 069d 0A       		.uleb128 0xa
 1415 069e DC020000 		.4byte	.LASF110
ARM GAS  /tmp/ccKPi6e1.s 			page 26


 1416 06a2 18       		.byte	0x18
 1417 06a3 0E       		.byte	0xe
 1418 06a4 6B01     		.2byte	0x16b
 1419 06a6 F9060000 		.4byte	0x6f9
 1420 06aa 08       		.uleb128 0x8
 1421 06ab B1010000 		.4byte	.LASF111
 1422 06af 0E       		.byte	0xe
 1423 06b0 6F01     		.2byte	0x16f
 1424 06b2 87060000 		.4byte	0x687
 1425 06b6 00       		.byte	0
 1426 06b7 08       		.uleb128 0x8
 1427 06b8 82060000 		.4byte	.LASF112
 1428 06bc 0E       		.byte	0xe
 1429 06bd 7301     		.2byte	0x173
 1430 06bf FE080000 		.4byte	0x8fe
 1431 06c3 04       		.byte	0x4
 1432 06c4 08       		.uleb128 0x8
 1433 06c5 E1070000 		.4byte	.LASF113
 1434 06c9 0E       		.byte	0xe
 1435 06ca 7B01     		.2byte	0x17b
 1436 06cc A9000000 		.4byte	0xa9
 1437 06d0 08       		.byte	0x8
 1438 06d1 07       		.uleb128 0x7
 1439 06d2 74696D00 		.ascii	"tim\000"
 1440 06d6 0E       		.byte	0xe
 1441 06d7 7F01     		.2byte	0x17f
 1442 06d9 09090000 		.4byte	0x909
 1443 06dd 0C       		.byte	0xc
 1444 06de 08       		.uleb128 0x8
 1445 06df E7070000 		.4byte	.LASF114
 1446 06e3 0E       		.byte	0xe
 1447 06e4 8301     		.2byte	0x183
 1448 06e6 53060000 		.4byte	0x653
 1449 06ea 10       		.byte	0x10
 1450 06eb 08       		.uleb128 0x8
 1451 06ec F8020000 		.4byte	.LASF115
 1452 06f0 0E       		.byte	0xe
 1453 06f1 8701     		.2byte	0x187
 1454 06f3 53060000 		.4byte	0x653
 1455 06f7 14       		.byte	0x14
 1456 06f8 00       		.byte	0
 1457 06f9 04       		.uleb128 0x4
 1458 06fa 96020000 		.4byte	.LASF116
 1459 06fe 0D       		.byte	0xd
 1460 06ff 43       		.byte	0x43
 1461 0700 04070000 		.4byte	0x704
 1462 0704 09       		.uleb128 0x9
 1463 0705 04       		.byte	0x4
 1464 0706 0A070000 		.4byte	0x70a
 1465 070a 0B       		.uleb128 0xb
 1466 070b 15070000 		.4byte	0x715
 1467 070f 0C       		.uleb128 0xc
 1468 0710 15070000 		.4byte	0x715
 1469 0714 00       		.byte	0
 1470 0715 09       		.uleb128 0x9
 1471 0716 04       		.byte	0x4
 1472 0717 92060000 		.4byte	0x692
ARM GAS  /tmp/ccKPi6e1.s 			page 27


 1473 071b 19       		.uleb128 0x19
 1474 071c 60       		.byte	0x60
 1475 071d 0F       		.byte	0xf
 1476 071e A101     		.2byte	0x1a1
 1477 0720 27080000 		.4byte	0x827
 1478 0724 07       		.uleb128 0x7
 1479 0725 43523100 		.ascii	"CR1\000"
 1480 0729 0F       		.byte	0xf
 1481 072a A201     		.2byte	0x1a2
 1482 072c 56040000 		.4byte	0x456
 1483 0730 00       		.byte	0
 1484 0731 07       		.uleb128 0x7
 1485 0732 43523200 		.ascii	"CR2\000"
 1486 0736 0F       		.byte	0xf
 1487 0737 A301     		.2byte	0x1a3
 1488 0739 56040000 		.4byte	0x456
 1489 073d 04       		.byte	0x4
 1490 073e 08       		.uleb128 0x8
 1491 073f 7D060000 		.4byte	.LASF117
 1492 0743 0F       		.byte	0xf
 1493 0744 A401     		.2byte	0x1a4
 1494 0746 56040000 		.4byte	0x456
 1495 074a 08       		.byte	0x8
 1496 074b 08       		.uleb128 0x8
 1497 074c 23000000 		.4byte	.LASF118
 1498 0750 0F       		.byte	0xf
 1499 0751 A501     		.2byte	0x1a5
 1500 0753 56040000 		.4byte	0x456
 1501 0757 0C       		.byte	0xc
 1502 0758 07       		.uleb128 0x7
 1503 0759 535200   		.ascii	"SR\000"
 1504 075c 0F       		.byte	0xf
 1505 075d A601     		.2byte	0x1a6
 1506 075f 56040000 		.4byte	0x456
 1507 0763 10       		.byte	0x10
 1508 0764 07       		.uleb128 0x7
 1509 0765 45475200 		.ascii	"EGR\000"
 1510 0769 0F       		.byte	0xf
 1511 076a A701     		.2byte	0x1a7
 1512 076c 56040000 		.4byte	0x456
 1513 0770 14       		.byte	0x14
 1514 0771 08       		.uleb128 0x8
 1515 0772 6E010000 		.4byte	.LASF119
 1516 0776 0F       		.byte	0xf
 1517 0777 A801     		.2byte	0x1a8
 1518 0779 56040000 		.4byte	0x456
 1519 077d 18       		.byte	0x18
 1520 077e 08       		.uleb128 0x8
 1521 077f 74010000 		.4byte	.LASF120
 1522 0783 0F       		.byte	0xf
 1523 0784 A901     		.2byte	0x1a9
 1524 0786 56040000 		.4byte	0x456
 1525 078a 1C       		.byte	0x1c
 1526 078b 08       		.uleb128 0x8
 1527 078c D3010000 		.4byte	.LASF121
 1528 0790 0F       		.byte	0xf
 1529 0791 AA01     		.2byte	0x1aa
ARM GAS  /tmp/ccKPi6e1.s 			page 28


 1530 0793 56040000 		.4byte	0x456
 1531 0797 20       		.byte	0x20
 1532 0798 07       		.uleb128 0x7
 1533 0799 434E5400 		.ascii	"CNT\000"
 1534 079d 0F       		.byte	0xf
 1535 079e AB01     		.2byte	0x1ab
 1536 07a0 56040000 		.4byte	0x456
 1537 07a4 24       		.byte	0x24
 1538 07a5 07       		.uleb128 0x7
 1539 07a6 50534300 		.ascii	"PSC\000"
 1540 07aa 0F       		.byte	0xf
 1541 07ab AC01     		.2byte	0x1ac
 1542 07ad 56040000 		.4byte	0x456
 1543 07b1 28       		.byte	0x28
 1544 07b2 07       		.uleb128 0x7
 1545 07b3 41525200 		.ascii	"ARR\000"
 1546 07b7 0F       		.byte	0xf
 1547 07b8 AD01     		.2byte	0x1ad
 1548 07ba 56040000 		.4byte	0x456
 1549 07be 2C       		.byte	0x2c
 1550 07bf 07       		.uleb128 0x7
 1551 07c0 52435200 		.ascii	"RCR\000"
 1552 07c4 0F       		.byte	0xf
 1553 07c5 AE01     		.2byte	0x1ae
 1554 07c7 56040000 		.4byte	0x456
 1555 07cb 30       		.byte	0x30
 1556 07cc 07       		.uleb128 0x7
 1557 07cd 43435200 		.ascii	"CCR\000"
 1558 07d1 0F       		.byte	0xf
 1559 07d2 AF01     		.2byte	0x1af
 1560 07d4 27080000 		.4byte	0x827
 1561 07d8 34       		.byte	0x34
 1562 07d9 08       		.uleb128 0x8
 1563 07da 45010000 		.4byte	.LASF122
 1564 07de 0F       		.byte	0xf
 1565 07df B001     		.2byte	0x1b0
 1566 07e1 56040000 		.4byte	0x456
 1567 07e5 44       		.byte	0x44
 1568 07e6 07       		.uleb128 0x7
 1569 07e7 44435200 		.ascii	"DCR\000"
 1570 07eb 0F       		.byte	0xf
 1571 07ec B101     		.2byte	0x1b1
 1572 07ee 56040000 		.4byte	0x456
 1573 07f2 48       		.byte	0x48
 1574 07f3 08       		.uleb128 0x8
 1575 07f4 89060000 		.4byte	.LASF123
 1576 07f8 0F       		.byte	0xf
 1577 07f9 B201     		.2byte	0x1b2
 1578 07fb 56040000 		.4byte	0x456
 1579 07ff 4C       		.byte	0x4c
 1580 0800 07       		.uleb128 0x7
 1581 0801 4F5200   		.ascii	"OR\000"
 1582 0804 0F       		.byte	0xf
 1583 0805 B301     		.2byte	0x1b3
 1584 0807 56040000 		.4byte	0x456
 1585 080b 50       		.byte	0x50
 1586 080c 08       		.uleb128 0x8
ARM GAS  /tmp/ccKPi6e1.s 			page 29


 1587 080d 7A010000 		.4byte	.LASF124
 1588 0811 0F       		.byte	0xf
 1589 0812 B401     		.2byte	0x1b4
 1590 0814 56040000 		.4byte	0x456
 1591 0818 54       		.byte	0x54
 1592 0819 08       		.uleb128 0x8
 1593 081a 5F050000 		.4byte	.LASF125
 1594 081e 0F       		.byte	0xf
 1595 081f B501     		.2byte	0x1b5
 1596 0821 2C080000 		.4byte	0x82c
 1597 0825 58       		.byte	0x58
 1598 0826 00       		.byte	0
 1599 0827 0F       		.uleb128 0xf
 1600 0828 6B040000 		.4byte	0x46b
 1601 082c 0F       		.uleb128 0xf
 1602 082d 5B040000 		.4byte	0x45b
 1603 0831 1A       		.uleb128 0x1a
 1604 0832 E6020000 		.4byte	.LASF126
 1605 0836 0F       		.byte	0xf
 1606 0837 B601     		.2byte	0x1b6
 1607 0839 1B070000 		.4byte	0x71b
 1608 083d 1B       		.uleb128 0x1b
 1609 083e 01       		.byte	0x1
 1610 083f 0E       		.byte	0xe
 1611 0840 2801     		.2byte	0x128
 1612 0842 53080000 		.4byte	0x853
 1613 0846 18       		.uleb128 0x18
 1614 0847 00000000 		.4byte	.LASF127
 1615 084b 00       		.sleb128 0
 1616 084c 18       		.uleb128 0x18
 1617 084d 15040000 		.4byte	.LASF128
 1618 0851 01       		.sleb128 1
 1619 0852 00       		.byte	0
 1620 0853 1A       		.uleb128 0x1a
 1621 0854 C0040000 		.4byte	.LASF129
 1622 0858 0E       		.byte	0xe
 1623 0859 2B01     		.2byte	0x12b
 1624 085b 3D080000 		.4byte	0x83d
 1625 085f 1A       		.uleb128 0x1a
 1626 0860 0B070000 		.4byte	.LASF130
 1627 0864 0E       		.byte	0xe
 1628 0865 3001     		.2byte	0x130
 1629 0867 A9000000 		.4byte	0xa9
 1630 086b 1B       		.uleb128 0x1b
 1631 086c 01       		.byte	0x1
 1632 086d 0E       		.byte	0xe
 1633 086e 3501     		.2byte	0x135
 1634 0870 81080000 		.4byte	0x881
 1635 0874 18       		.uleb128 0x18
 1636 0875 6D070000 		.4byte	.LASF131
 1637 0879 00       		.sleb128 0
 1638 087a 18       		.uleb128 0x18
 1639 087b 7B070000 		.4byte	.LASF132
 1640 087f 01       		.sleb128 1
 1641 0880 00       		.byte	0
 1642 0881 1A       		.uleb128 0x1a
 1643 0882 2C050000 		.4byte	.LASF133
ARM GAS  /tmp/ccKPi6e1.s 			page 30


 1644 0886 0E       		.byte	0xe
 1645 0887 3801     		.2byte	0x138
 1646 0889 6B080000 		.4byte	0x86b
 1647 088d 19       		.uleb128 0x19
 1648 088e 1C       		.byte	0x1c
 1649 088f 0E       		.byte	0xe
 1650 0890 4301     		.2byte	0x143
 1651 0892 F2080000 		.4byte	0x8f2
 1652 0896 08       		.uleb128 0x8
 1653 0897 78060000 		.4byte	.LASF134
 1654 089b 0E       		.byte	0xe
 1655 089c 4701     		.2byte	0x147
 1656 089e 53080000 		.4byte	0x853
 1657 08a2 00       		.byte	0
 1658 08a3 08       		.uleb128 0x8
 1659 08a4 4A010000 		.4byte	.LASF135
 1660 08a8 0E       		.byte	0xe
 1661 08a9 4D01     		.2byte	0x14d
 1662 08ab 5F080000 		.4byte	0x85f
 1663 08af 04       		.byte	0x4
 1664 08b0 08       		.uleb128 0x8
 1665 08b1 BF030000 		.4byte	.LASF136
 1666 08b5 0E       		.byte	0xe
 1667 08b6 5101     		.2byte	0x151
 1668 08b8 F9060000 		.4byte	0x6f9
 1669 08bc 08       		.byte	0x8
 1670 08bd 08       		.uleb128 0x8
 1671 08be AE020000 		.4byte	.LASF137
 1672 08c2 0E       		.byte	0xe
 1673 08c3 5501     		.2byte	0x155
 1674 08c5 F9060000 		.4byte	0x6f9
 1675 08c9 0C       		.byte	0xc
 1676 08ca 08       		.uleb128 0x8
 1677 08cb BE020000 		.4byte	.LASF138
 1678 08cf 0E       		.byte	0xe
 1679 08d0 5901     		.2byte	0x159
 1680 08d2 F9060000 		.4byte	0x6f9
 1681 08d6 10       		.byte	0x10
 1682 08d7 08       		.uleb128 0x8
 1683 08d8 39050000 		.4byte	.LASF139
 1684 08dc 0E       		.byte	0xe
 1685 08dd 5F01     		.2byte	0x15f
 1686 08df 81080000 		.4byte	0x881
 1687 08e3 14       		.byte	0x14
 1688 08e4 08       		.uleb128 0x8
 1689 08e5 0A080000 		.4byte	.LASF140
 1690 08e9 0E       		.byte	0xe
 1691 08ea 6501     		.2byte	0x165
 1692 08ec A9000000 		.4byte	0xa9
 1693 08f0 18       		.byte	0x18
 1694 08f1 00       		.byte	0
 1695 08f2 1A       		.uleb128 0x1a
 1696 08f3 15020000 		.4byte	.LASF141
 1697 08f7 0E       		.byte	0xe
 1698 08f8 6601     		.2byte	0x166
 1699 08fa 8D080000 		.4byte	0x88d
 1700 08fe 09       		.uleb128 0x9
ARM GAS  /tmp/ccKPi6e1.s 			page 31


 1701 08ff 04       		.byte	0x4
 1702 0900 04090000 		.4byte	0x904
 1703 0904 16       		.uleb128 0x16
 1704 0905 F2080000 		.4byte	0x8f2
 1705 0909 09       		.uleb128 0x9
 1706 090a 04       		.byte	0x4
 1707 090b 31080000 		.4byte	0x831
 1708 090f 1C       		.uleb128 0x1c
 1709 0910 C7060000 		.4byte	.LASF145
 1710 0914 02       		.byte	0x2
 1711 0915 2202     		.2byte	0x222
 1712 0917 03       		.byte	0x3
 1713 0918 29090000 		.4byte	0x929
 1714 091c 1D       		.uleb128 0x1d
 1715 091d 54020000 		.4byte	.LASF167
 1716 0921 02       		.byte	0x2
 1717 0922 2202     		.2byte	0x222
 1718 0924 A9000000 		.4byte	0xa9
 1719 0928 00       		.byte	0
 1720 0929 1E       		.uleb128 0x1e
 1721 092a D5000000 		.4byte	.LASF142
 1722 092e 09       		.byte	0x9
 1723 092f C801     		.2byte	0x1c8
 1724 0931 03       		.byte	0x3
 1725 0932 1E       		.uleb128 0x1e
 1726 0933 9B010000 		.4byte	.LASF143
 1727 0937 09       		.byte	0x9
 1728 0938 E001     		.2byte	0x1e0
 1729 093a 03       		.byte	0x3
 1730 093b 1E       		.uleb128 0x1e
 1731 093c 14050000 		.4byte	.LASF144
 1732 0940 10       		.byte	0x10
 1733 0941 5A01     		.2byte	0x15a
 1734 0943 03       		.byte	0x3
 1735 0944 1C       		.uleb128 0x1c
 1736 0945 CF070000 		.4byte	.LASF146
 1737 0949 10       		.byte	0x10
 1738 094a 6601     		.2byte	0x166
 1739 094c 03       		.byte	0x3
 1740 094d 5F090000 		.4byte	0x95f
 1741 0951 1F       		.uleb128 0x1f
 1742 0952 0B050000 		.4byte	.LASF154
 1743 0956 6F090000 		.4byte	0x96f
 1744 095a CF070000 		.4byte	.LASF146
 1745 095e 00       		.byte	0
 1746 095f 10       		.uleb128 0x10
 1747 0960 1B060000 		.4byte	0x61b
 1748 0964 6F090000 		.4byte	0x96f
 1749 0968 11       		.uleb128 0x11
 1750 0969 4F040000 		.4byte	0x44f
 1751 096d 0B       		.byte	0xb
 1752 096e 00       		.byte	0
 1753 096f 16       		.uleb128 0x16
 1754 0970 5F090000 		.4byte	0x95f
 1755 0974 1E       		.uleb128 0x1e
 1756 0975 40020000 		.4byte	.LASF147
 1757 0979 11       		.byte	0x11
ARM GAS  /tmp/ccKPi6e1.s 			page 32


 1758 097a EB01     		.2byte	0x1eb
 1759 097c 03       		.byte	0x3
 1760 097d 1E       		.uleb128 0x1e
 1761 097e 1E050000 		.4byte	.LASF148
 1762 0982 11       		.byte	0x11
 1763 0983 F601     		.2byte	0x1f6
 1764 0985 03       		.byte	0x3
 1765 0986 20       		.uleb128 0x20
 1766 0987 CD000000 		.4byte	.LASF149
 1767 098b 01       		.byte	0x1
 1768 098c 38       		.byte	0x38
 1769 098d 00000000 		.4byte	.LFB207
 1770 0991 04000000 		.4byte	.LFE207-.LFB207
 1771 0995 01       		.uleb128 0x1
 1772 0996 9C       		.byte	0x9c
 1773 0997 A5090000 		.4byte	0x9a5
 1774 099b 21       		.uleb128 0x21
 1775 099c 04000000 		.4byte	.LVL0
 1776 09a0 D6100000 		.4byte	0x10d6
 1777 09a4 00       		.byte	0
 1778 09a5 20       		.uleb128 0x20
 1779 09a6 6F050000 		.4byte	.LASF150
 1780 09aa 01       		.byte	0x1
 1781 09ab 44       		.byte	0x44
 1782 09ac 00000000 		.4byte	.LFB208
 1783 09b0 0A000000 		.4byte	.LFE208-.LFB208
 1784 09b4 01       		.uleb128 0x1
 1785 09b5 9C       		.byte	0x9c
 1786 09b6 C8090000 		.4byte	0x9c8
 1787 09ba 22       		.uleb128 0x22
 1788 09bb 8F040000 		.4byte	.LASF152
 1789 09bf 01       		.byte	0x1
 1790 09c0 44       		.byte	0x44
 1791 09c1 15070000 		.4byte	0x715
 1792 09c5 01       		.uleb128 0x1
 1793 09c6 50       		.byte	0x50
 1794 09c7 00       		.byte	0
 1795 09c8 20       		.uleb128 0x20
 1796 09c9 FC010000 		.4byte	.LASF151
 1797 09cd 01       		.byte	0x1
 1798 09ce 52       		.byte	0x52
 1799 09cf 00000000 		.4byte	.LFB209
 1800 09d3 1C000000 		.4byte	.LFE209-.LFB209
 1801 09d7 01       		.uleb128 0x1
 1802 09d8 9C       		.byte	0x9c
 1803 09d9 BE0A0000 		.4byte	0xabe
 1804 09dd 23       		.uleb128 0x23
 1805 09de 8F040000 		.4byte	.LASF152
 1806 09e2 01       		.byte	0x1
 1807 09e3 52       		.byte	0x52
 1808 09e4 15070000 		.4byte	0x715
 1809 09e8 00000000 		.4byte	.LLST0
 1810 09ec 23       		.uleb128 0x23
 1811 09ed 82060000 		.4byte	.LASF112
 1812 09f1 01       		.byte	0x1
 1813 09f2 52       		.byte	0x52
 1814 09f3 FE080000 		.4byte	0x8fe
ARM GAS  /tmp/ccKPi6e1.s 			page 33


 1815 09f7 1E000000 		.4byte	.LLST1
 1816 09fb 24       		.uleb128 0x24
 1817 09fc 0B050000 		.4byte	.LASF154
 1818 0a00 CE0A0000 		.4byte	0xace
 1819 0a04 25       		.uleb128 0x25
 1820 0a05 74090000 		.4byte	0x974
 1821 0a09 02000000 		.4byte	.LBB115
 1822 0a0d 00000000 		.4byte	.Ldebug_ranges0+0
 1823 0a11 01       		.byte	0x1
 1824 0a12 56       		.byte	0x56
 1825 0a13 510A0000 		.4byte	0xa51
 1826 0a17 26       		.uleb128 0x26
 1827 0a18 3B090000 		.4byte	0x93b
 1828 0a1c 02000000 		.4byte	.LBB116
 1829 0a20 00000000 		.4byte	.Ldebug_ranges0+0
 1830 0a24 11       		.byte	0x11
 1831 0a25 ED01     		.2byte	0x1ed
 1832 0a27 26       		.uleb128 0x26
 1833 0a28 29090000 		.4byte	0x929
 1834 0a2c 02000000 		.4byte	.LBB117
 1835 0a30 00000000 		.4byte	.Ldebug_ranges0+0
 1836 0a34 10       		.byte	0x10
 1837 0a35 5C01     		.2byte	0x15c
 1838 0a37 26       		.uleb128 0x26
 1839 0a38 0F090000 		.4byte	0x90f
 1840 0a3c 02000000 		.4byte	.LBB118
 1841 0a40 00000000 		.4byte	.Ldebug_ranges0+0
 1842 0a44 09       		.byte	0x9
 1843 0a45 D001     		.2byte	0x1d0
 1844 0a47 27       		.uleb128 0x27
 1845 0a48 1C090000 		.4byte	0x91c
 1846 0a4c 20       		.byte	0x20
 1847 0a4d 00       		.byte	0
 1848 0a4e 00       		.byte	0
 1849 0a4f 00       		.byte	0
 1850 0a50 00       		.byte	0
 1851 0a51 28       		.uleb128 0x28
 1852 0a52 7D090000 		.4byte	0x97d
 1853 0a56 14000000 		.4byte	.LBB125
 1854 0a5a 08000000 		.4byte	.LBE125-.LBB125
 1855 0a5e 01       		.byte	0x1
 1856 0a5f 5C       		.byte	0x5c
 1857 0a60 AD0A0000 		.4byte	0xaad
 1858 0a64 29       		.uleb128 0x29
 1859 0a65 44090000 		.4byte	0x944
 1860 0a69 14000000 		.4byte	.LBB126
 1861 0a6d 08000000 		.4byte	.LBE126-.LBB126
 1862 0a71 11       		.byte	0x11
 1863 0a72 F801     		.2byte	0x1f8
 1864 0a74 2A       		.uleb128 0x2a
 1865 0a75 14000000 		.4byte	.LBB127
 1866 0a79 08000000 		.4byte	.LBE127-.LBB127
 1867 0a7d 2B       		.uleb128 0x2b
 1868 0a7e 51090000 		.4byte	0x951
 1869 0a82 29       		.uleb128 0x29
 1870 0a83 32090000 		.4byte	0x932
 1871 0a87 14000000 		.4byte	.LBB128
ARM GAS  /tmp/ccKPi6e1.s 			page 34


 1872 0a8b 08000000 		.4byte	.LBE128-.LBB128
 1873 0a8f 10       		.byte	0x10
 1874 0a90 7301     		.2byte	0x173
 1875 0a92 29       		.uleb128 0x29
 1876 0a93 0F090000 		.4byte	0x90f
 1877 0a97 14000000 		.4byte	.LBB129
 1878 0a9b 08000000 		.4byte	.LBE129-.LBB129
 1879 0a9f 09       		.byte	0x9
 1880 0aa0 E301     		.2byte	0x1e3
 1881 0aa2 27       		.uleb128 0x27
 1882 0aa3 1C090000 		.4byte	0x91c
 1883 0aa7 00       		.byte	0
 1884 0aa8 00       		.byte	0
 1885 0aa9 00       		.byte	0
 1886 0aaa 00       		.byte	0
 1887 0aab 00       		.byte	0
 1888 0aac 00       		.byte	0
 1889 0aad 2C       		.uleb128 0x2c
 1890 0aae 10000000 		.4byte	.LVL3
 1891 0ab2 DE100000 		.4byte	0x10de
 1892 0ab6 2D       		.uleb128 0x2d
 1893 0ab7 01       		.uleb128 0x1
 1894 0ab8 50       		.byte	0x50
 1895 0ab9 02       		.uleb128 0x2
 1896 0aba 74       		.byte	0x74
 1897 0abb 00       		.sleb128 0
 1898 0abc 00       		.byte	0
 1899 0abd 00       		.byte	0
 1900 0abe 10       		.uleb128 0x10
 1901 0abf 1B060000 		.4byte	0x61b
 1902 0ac3 CE0A0000 		.4byte	0xace
 1903 0ac7 11       		.uleb128 0x11
 1904 0ac8 4F040000 		.4byte	0x44f
 1905 0acc 08       		.byte	0x8
 1906 0acd 00       		.byte	0
 1907 0ace 16       		.uleb128 0x16
 1908 0acf BE0A0000 		.4byte	0xabe
 1909 0ad3 20       		.uleb128 0x20
 1910 0ad4 E6040000 		.4byte	.LASF153
 1911 0ad8 01       		.byte	0x1
 1912 0ad9 66       		.byte	0x66
 1913 0ada 00000000 		.4byte	.LFB210
 1914 0ade 1A000000 		.4byte	.LFE210-.LFB210
 1915 0ae2 01       		.uleb128 0x1
 1916 0ae3 9C       		.byte	0x9c
 1917 0ae4 BA0B0000 		.4byte	0xbba
 1918 0ae8 23       		.uleb128 0x23
 1919 0ae9 8F040000 		.4byte	.LASF152
 1920 0aed 01       		.byte	0x1
 1921 0aee 66       		.byte	0x66
 1922 0aef 15070000 		.4byte	0x715
 1923 0af3 3F000000 		.4byte	.LLST2
 1924 0af7 24       		.uleb128 0x24
 1925 0af8 0B050000 		.4byte	.LASF154
 1926 0afc CA0B0000 		.4byte	0xbca
 1927 0b00 25       		.uleb128 0x25
 1928 0b01 74090000 		.4byte	0x974
ARM GAS  /tmp/ccKPi6e1.s 			page 35


 1929 0b05 02000000 		.4byte	.LBB131
 1930 0b09 18000000 		.4byte	.Ldebug_ranges0+0x18
 1931 0b0d 01       		.byte	0x1
 1932 0b0e 6A       		.byte	0x6a
 1933 0b0f 4D0B0000 		.4byte	0xb4d
 1934 0b13 26       		.uleb128 0x26
 1935 0b14 3B090000 		.4byte	0x93b
 1936 0b18 02000000 		.4byte	.LBB132
 1937 0b1c 18000000 		.4byte	.Ldebug_ranges0+0x18
 1938 0b20 11       		.byte	0x11
 1939 0b21 ED01     		.2byte	0x1ed
 1940 0b23 26       		.uleb128 0x26
 1941 0b24 29090000 		.4byte	0x929
 1942 0b28 02000000 		.4byte	.LBB133
 1943 0b2c 18000000 		.4byte	.Ldebug_ranges0+0x18
 1944 0b30 10       		.byte	0x10
 1945 0b31 5C01     		.2byte	0x15c
 1946 0b33 26       		.uleb128 0x26
 1947 0b34 0F090000 		.4byte	0x90f
 1948 0b38 02000000 		.4byte	.LBB134
 1949 0b3c 18000000 		.4byte	.Ldebug_ranges0+0x18
 1950 0b40 09       		.byte	0x9
 1951 0b41 D001     		.2byte	0x1d0
 1952 0b43 27       		.uleb128 0x27
 1953 0b44 1C090000 		.4byte	0x91c
 1954 0b48 20       		.byte	0x20
 1955 0b49 00       		.byte	0
 1956 0b4a 00       		.byte	0
 1957 0b4b 00       		.byte	0
 1958 0b4c 00       		.byte	0
 1959 0b4d 28       		.uleb128 0x28
 1960 0b4e 7D090000 		.4byte	0x97d
 1961 0b52 12000000 		.4byte	.LBB141
 1962 0b56 08000000 		.4byte	.LBE141-.LBB141
 1963 0b5a 01       		.byte	0x1
 1964 0b5b 6F       		.byte	0x6f
 1965 0b5c A90B0000 		.4byte	0xba9
 1966 0b60 29       		.uleb128 0x29
 1967 0b61 44090000 		.4byte	0x944
 1968 0b65 12000000 		.4byte	.LBB142
 1969 0b69 08000000 		.4byte	.LBE142-.LBB142
 1970 0b6d 11       		.byte	0x11
 1971 0b6e F801     		.2byte	0x1f8
 1972 0b70 2A       		.uleb128 0x2a
 1973 0b71 12000000 		.4byte	.LBB143
 1974 0b75 08000000 		.4byte	.LBE143-.LBB143
 1975 0b79 2B       		.uleb128 0x2b
 1976 0b7a 51090000 		.4byte	0x951
 1977 0b7e 29       		.uleb128 0x29
 1978 0b7f 32090000 		.4byte	0x932
 1979 0b83 12000000 		.4byte	.LBB144
 1980 0b87 08000000 		.4byte	.LBE144-.LBB144
 1981 0b8b 10       		.byte	0x10
 1982 0b8c 7301     		.2byte	0x173
 1983 0b8e 29       		.uleb128 0x29
 1984 0b8f 0F090000 		.4byte	0x90f
 1985 0b93 12000000 		.4byte	.LBB145
ARM GAS  /tmp/ccKPi6e1.s 			page 36


 1986 0b97 08000000 		.4byte	.LBE145-.LBB145
 1987 0b9b 09       		.byte	0x9
 1988 0b9c E301     		.2byte	0x1e3
 1989 0b9e 27       		.uleb128 0x27
 1990 0b9f 1C090000 		.4byte	0x91c
 1991 0ba3 00       		.byte	0
 1992 0ba4 00       		.byte	0
 1993 0ba5 00       		.byte	0
 1994 0ba6 00       		.byte	0
 1995 0ba7 00       		.byte	0
 1996 0ba8 00       		.byte	0
 1997 0ba9 2C       		.uleb128 0x2c
 1998 0baa 0E000000 		.4byte	.LVL6
 1999 0bae F0100000 		.4byte	0x10f0
 2000 0bb2 2D       		.uleb128 0x2d
 2001 0bb3 01       		.uleb128 0x1
 2002 0bb4 50       		.byte	0x50
 2003 0bb5 02       		.uleb128 0x2
 2004 0bb6 74       		.byte	0x74
 2005 0bb7 00       		.sleb128 0
 2006 0bb8 00       		.byte	0
 2007 0bb9 00       		.byte	0
 2008 0bba 10       		.uleb128 0x10
 2009 0bbb 1B060000 		.4byte	0x61b
 2010 0bbf CA0B0000 		.4byte	0xbca
 2011 0bc3 11       		.uleb128 0x11
 2012 0bc4 4F040000 		.4byte	0x44f
 2013 0bc8 07       		.byte	0x7
 2014 0bc9 00       		.byte	0
 2015 0bca 16       		.uleb128 0x16
 2016 0bcb BA0B0000 		.4byte	0xbba
 2017 0bcf 20       		.uleb128 0x20
 2018 0bd0 E6060000 		.4byte	.LASF155
 2019 0bd4 01       		.byte	0x1
 2020 0bd5 79       		.byte	0x79
 2021 0bd6 00000000 		.4byte	.LFB211
 2022 0bda 1A000000 		.4byte	.LFE211-.LFB211
 2023 0bde 01       		.uleb128 0x1
 2024 0bdf 9C       		.byte	0x9c
 2025 0be0 B60C0000 		.4byte	0xcb6
 2026 0be4 23       		.uleb128 0x23
 2027 0be5 8F040000 		.4byte	.LASF152
 2028 0be9 01       		.byte	0x1
 2029 0bea 79       		.byte	0x79
 2030 0beb 15070000 		.4byte	0x715
 2031 0bef 5D000000 		.4byte	.LLST3
 2032 0bf3 24       		.uleb128 0x24
 2033 0bf4 0B050000 		.4byte	.LASF154
 2034 0bf8 C60C0000 		.4byte	0xcc6
 2035 0bfc 25       		.uleb128 0x25
 2036 0bfd 74090000 		.4byte	0x974
 2037 0c01 02000000 		.4byte	.LBB147
 2038 0c05 30000000 		.4byte	.Ldebug_ranges0+0x30
 2039 0c09 01       		.byte	0x1
 2040 0c0a 7D       		.byte	0x7d
 2041 0c0b 490C0000 		.4byte	0xc49
 2042 0c0f 26       		.uleb128 0x26
ARM GAS  /tmp/ccKPi6e1.s 			page 37


 2043 0c10 3B090000 		.4byte	0x93b
 2044 0c14 02000000 		.4byte	.LBB148
 2045 0c18 30000000 		.4byte	.Ldebug_ranges0+0x30
 2046 0c1c 11       		.byte	0x11
 2047 0c1d ED01     		.2byte	0x1ed
 2048 0c1f 26       		.uleb128 0x26
 2049 0c20 29090000 		.4byte	0x929
 2050 0c24 02000000 		.4byte	.LBB149
 2051 0c28 30000000 		.4byte	.Ldebug_ranges0+0x30
 2052 0c2c 10       		.byte	0x10
 2053 0c2d 5C01     		.2byte	0x15c
 2054 0c2f 26       		.uleb128 0x26
 2055 0c30 0F090000 		.4byte	0x90f
 2056 0c34 02000000 		.4byte	.LBB150
 2057 0c38 30000000 		.4byte	.Ldebug_ranges0+0x30
 2058 0c3c 09       		.byte	0x9
 2059 0c3d D001     		.2byte	0x1d0
 2060 0c3f 27       		.uleb128 0x27
 2061 0c40 1C090000 		.4byte	0x91c
 2062 0c44 20       		.byte	0x20
 2063 0c45 00       		.byte	0
 2064 0c46 00       		.byte	0
 2065 0c47 00       		.byte	0
 2066 0c48 00       		.byte	0
 2067 0c49 28       		.uleb128 0x28
 2068 0c4a 7D090000 		.4byte	0x97d
 2069 0c4e 12000000 		.4byte	.LBB157
 2070 0c52 08000000 		.4byte	.LBE157-.LBB157
 2071 0c56 01       		.byte	0x1
 2072 0c57 80       		.byte	0x80
 2073 0c58 A50C0000 		.4byte	0xca5
 2074 0c5c 29       		.uleb128 0x29
 2075 0c5d 44090000 		.4byte	0x944
 2076 0c61 12000000 		.4byte	.LBB158
 2077 0c65 08000000 		.4byte	.LBE158-.LBB158
 2078 0c69 11       		.byte	0x11
 2079 0c6a F801     		.2byte	0x1f8
 2080 0c6c 2A       		.uleb128 0x2a
 2081 0c6d 12000000 		.4byte	.LBB159
 2082 0c71 08000000 		.4byte	.LBE159-.LBB159
 2083 0c75 2B       		.uleb128 0x2b
 2084 0c76 51090000 		.4byte	0x951
 2085 0c7a 29       		.uleb128 0x29
 2086 0c7b 32090000 		.4byte	0x932
 2087 0c7f 12000000 		.4byte	.LBB160
 2088 0c83 08000000 		.4byte	.LBE160-.LBB160
 2089 0c87 10       		.byte	0x10
 2090 0c88 7301     		.2byte	0x173
 2091 0c8a 29       		.uleb128 0x29
 2092 0c8b 0F090000 		.4byte	0x90f
 2093 0c8f 12000000 		.4byte	.LBB161
 2094 0c93 08000000 		.4byte	.LBE161-.LBB161
 2095 0c97 09       		.byte	0x9
 2096 0c98 E301     		.2byte	0x1e3
 2097 0c9a 27       		.uleb128 0x27
 2098 0c9b 1C090000 		.4byte	0x91c
 2099 0c9f 00       		.byte	0
ARM GAS  /tmp/ccKPi6e1.s 			page 38


 2100 0ca0 00       		.byte	0
 2101 0ca1 00       		.byte	0
 2102 0ca2 00       		.byte	0
 2103 0ca3 00       		.byte	0
 2104 0ca4 00       		.byte	0
 2105 0ca5 2C       		.uleb128 0x2c
 2106 0ca6 0E000000 		.4byte	.LVL9
 2107 0caa 02110000 		.4byte	0x1102
 2108 0cae 2D       		.uleb128 0x2d
 2109 0caf 01       		.uleb128 0x1
 2110 0cb0 50       		.byte	0x50
 2111 0cb1 02       		.uleb128 0x2
 2112 0cb2 74       		.byte	0x74
 2113 0cb3 00       		.sleb128 0
 2114 0cb4 00       		.byte	0
 2115 0cb5 00       		.byte	0
 2116 0cb6 10       		.uleb128 0x10
 2117 0cb7 1B060000 		.4byte	0x61b
 2118 0cbb C60C0000 		.4byte	0xcc6
 2119 0cbf 11       		.uleb128 0x11
 2120 0cc0 4F040000 		.4byte	0x44f
 2121 0cc4 0F       		.byte	0xf
 2122 0cc5 00       		.byte	0
 2123 0cc6 16       		.uleb128 0x16
 2124 0cc7 B60C0000 		.4byte	0xcb6
 2125 0ccb 2E       		.uleb128 0x2e
 2126 0ccc 3A030000 		.4byte	.LASF168
 2127 0cd0 01       		.byte	0x1
 2128 0cd1 93       		.byte	0x93
 2129 0cd2 59060000 		.4byte	0x659
 2130 0cd6 00000000 		.4byte	.LFB212
 2131 0cda 20000000 		.4byte	.LFE212-.LFB212
 2132 0cde 01       		.uleb128 0x1
 2133 0cdf 9C       		.byte	0x9c
 2134 0ce0 BF0D0000 		.4byte	0xdbf
 2135 0ce4 23       		.uleb128 0x23
 2136 0ce5 8F040000 		.4byte	.LASF152
 2137 0ce9 01       		.byte	0x1
 2138 0cea 93       		.byte	0x93
 2139 0ceb 15070000 		.4byte	0x715
 2140 0cef 7B000000 		.4byte	.LLST4
 2141 0cf3 2F       		.uleb128 0x2f
 2142 0cf4 F5070000 		.4byte	.LASF169
 2143 0cf8 01       		.byte	0x1
 2144 0cf9 94       		.byte	0x94
 2145 0cfa 59060000 		.4byte	0x659
 2146 0cfe 01       		.uleb128 0x1
 2147 0cff 50       		.byte	0x50
 2148 0d00 24       		.uleb128 0x24
 2149 0d01 0B050000 		.4byte	.LASF154
 2150 0d05 CF0D0000 		.4byte	0xdcf
 2151 0d09 25       		.uleb128 0x25
 2152 0d0a 74090000 		.4byte	0x974
 2153 0d0e 02000000 		.4byte	.LBB163
 2154 0d12 48000000 		.4byte	.Ldebug_ranges0+0x48
 2155 0d16 01       		.byte	0x1
 2156 0d17 98       		.byte	0x98
ARM GAS  /tmp/ccKPi6e1.s 			page 39


 2157 0d18 560D0000 		.4byte	0xd56
 2158 0d1c 26       		.uleb128 0x26
 2159 0d1d 3B090000 		.4byte	0x93b
 2160 0d21 02000000 		.4byte	.LBB164
 2161 0d25 48000000 		.4byte	.Ldebug_ranges0+0x48
 2162 0d29 11       		.byte	0x11
 2163 0d2a ED01     		.2byte	0x1ed
 2164 0d2c 26       		.uleb128 0x26
 2165 0d2d 29090000 		.4byte	0x929
 2166 0d31 02000000 		.4byte	.LBB165
 2167 0d35 48000000 		.4byte	.Ldebug_ranges0+0x48
 2168 0d39 10       		.byte	0x10
 2169 0d3a 5C01     		.2byte	0x15c
 2170 0d3c 26       		.uleb128 0x26
 2171 0d3d 0F090000 		.4byte	0x90f
 2172 0d41 02000000 		.4byte	.LBB166
 2173 0d45 48000000 		.4byte	.Ldebug_ranges0+0x48
 2174 0d49 09       		.byte	0x9
 2175 0d4a D001     		.2byte	0x1d0
 2176 0d4c 27       		.uleb128 0x27
 2177 0d4d 1C090000 		.4byte	0x91c
 2178 0d51 20       		.byte	0x20
 2179 0d52 00       		.byte	0
 2180 0d53 00       		.byte	0
 2181 0d54 00       		.byte	0
 2182 0d55 00       		.byte	0
 2183 0d56 25       		.uleb128 0x25
 2184 0d57 7D090000 		.4byte	0x97d
 2185 0d5b 16000000 		.4byte	.LBB173
 2186 0d5f 60000000 		.4byte	.Ldebug_ranges0+0x60
 2187 0d63 01       		.byte	0x1
 2188 0d64 9F       		.byte	0x9f
 2189 0d65 AE0D0000 		.4byte	0xdae
 2190 0d69 26       		.uleb128 0x26
 2191 0d6a 44090000 		.4byte	0x944
 2192 0d6e 16000000 		.4byte	.LBB174
 2193 0d72 60000000 		.4byte	.Ldebug_ranges0+0x60
 2194 0d76 11       		.byte	0x11
 2195 0d77 F801     		.2byte	0x1f8
 2196 0d79 30       		.uleb128 0x30
 2197 0d7a 60000000 		.4byte	.Ldebug_ranges0+0x60
 2198 0d7e 2B       		.uleb128 0x2b
 2199 0d7f 51090000 		.4byte	0x951
 2200 0d83 26       		.uleb128 0x26
 2201 0d84 32090000 		.4byte	0x932
 2202 0d88 16000000 		.4byte	.LBB176
 2203 0d8c 60000000 		.4byte	.Ldebug_ranges0+0x60
 2204 0d90 10       		.byte	0x10
 2205 0d91 7301     		.2byte	0x173
 2206 0d93 26       		.uleb128 0x26
 2207 0d94 0F090000 		.4byte	0x90f
 2208 0d98 16000000 		.4byte	.LBB177
 2209 0d9c 60000000 		.4byte	.Ldebug_ranges0+0x60
 2210 0da0 09       		.byte	0x9
 2211 0da1 E301     		.2byte	0x1e3
 2212 0da3 27       		.uleb128 0x27
 2213 0da4 1C090000 		.4byte	0x91c
ARM GAS  /tmp/ccKPi6e1.s 			page 40


 2214 0da8 00       		.byte	0
 2215 0da9 00       		.byte	0
 2216 0daa 00       		.byte	0
 2217 0dab 00       		.byte	0
 2218 0dac 00       		.byte	0
 2219 0dad 00       		.byte	0
 2220 0dae 2C       		.uleb128 0x2c
 2221 0daf 0E000000 		.4byte	.LVL12
 2222 0db3 14110000 		.4byte	0x1114
 2223 0db7 2D       		.uleb128 0x2d
 2224 0db8 01       		.uleb128 0x1
 2225 0db9 50       		.byte	0x50
 2226 0dba 02       		.uleb128 0x2
 2227 0dbb 74       		.byte	0x74
 2228 0dbc 00       		.sleb128 0
 2229 0dbd 00       		.byte	0
 2230 0dbe 00       		.byte	0
 2231 0dbf 10       		.uleb128 0x10
 2232 0dc0 1B060000 		.4byte	0x61b
 2233 0dc4 CF0D0000 		.4byte	0xdcf
 2234 0dc8 11       		.uleb128 0x11
 2235 0dc9 4F040000 		.4byte	0x44f
 2236 0dcd 0E       		.byte	0xe
 2237 0dce 00       		.byte	0
 2238 0dcf 16       		.uleb128 0x16
 2239 0dd0 BF0D0000 		.4byte	0xdbf
 2240 0dd4 20       		.uleb128 0x20
 2241 0dd5 AA070000 		.4byte	.LASF156
 2242 0dd9 01       		.byte	0x1
 2243 0dda AB       		.byte	0xab
 2244 0ddb 00000000 		.4byte	.LFB213
 2245 0ddf 1A000000 		.4byte	.LFE213-.LFB213
 2246 0de3 01       		.uleb128 0x1
 2247 0de4 9C       		.byte	0x9c
 2248 0de5 BB0E0000 		.4byte	0xebb
 2249 0de9 23       		.uleb128 0x23
 2250 0dea 8F040000 		.4byte	.LASF152
 2251 0dee 01       		.byte	0x1
 2252 0def AB       		.byte	0xab
 2253 0df0 15070000 		.4byte	0x715
 2254 0df4 99000000 		.4byte	.LLST5
 2255 0df8 24       		.uleb128 0x24
 2256 0df9 0B050000 		.4byte	.LASF154
 2257 0dfd BB0E0000 		.4byte	0xebb
 2258 0e01 25       		.uleb128 0x25
 2259 0e02 74090000 		.4byte	0x974
 2260 0e06 02000000 		.4byte	.LBB185
 2261 0e0a 78000000 		.4byte	.Ldebug_ranges0+0x78
 2262 0e0e 01       		.byte	0x1
 2263 0e0f AF       		.byte	0xaf
 2264 0e10 4E0E0000 		.4byte	0xe4e
 2265 0e14 26       		.uleb128 0x26
 2266 0e15 3B090000 		.4byte	0x93b
 2267 0e19 02000000 		.4byte	.LBB186
 2268 0e1d 78000000 		.4byte	.Ldebug_ranges0+0x78
 2269 0e21 11       		.byte	0x11
 2270 0e22 ED01     		.2byte	0x1ed
ARM GAS  /tmp/ccKPi6e1.s 			page 41


 2271 0e24 26       		.uleb128 0x26
 2272 0e25 29090000 		.4byte	0x929
 2273 0e29 02000000 		.4byte	.LBB187
 2274 0e2d 78000000 		.4byte	.Ldebug_ranges0+0x78
 2275 0e31 10       		.byte	0x10
 2276 0e32 5C01     		.2byte	0x15c
 2277 0e34 26       		.uleb128 0x26
 2278 0e35 0F090000 		.4byte	0x90f
 2279 0e39 02000000 		.4byte	.LBB188
 2280 0e3d 78000000 		.4byte	.Ldebug_ranges0+0x78
 2281 0e41 09       		.byte	0x9
 2282 0e42 D001     		.2byte	0x1d0
 2283 0e44 27       		.uleb128 0x27
 2284 0e45 1C090000 		.4byte	0x91c
 2285 0e49 20       		.byte	0x20
 2286 0e4a 00       		.byte	0
 2287 0e4b 00       		.byte	0
 2288 0e4c 00       		.byte	0
 2289 0e4d 00       		.byte	0
 2290 0e4e 28       		.uleb128 0x28
 2291 0e4f 7D090000 		.4byte	0x97d
 2292 0e53 12000000 		.4byte	.LBB195
 2293 0e57 08000000 		.4byte	.LBE195-.LBB195
 2294 0e5b 01       		.byte	0x1
 2295 0e5c B4       		.byte	0xb4
 2296 0e5d AA0E0000 		.4byte	0xeaa
 2297 0e61 29       		.uleb128 0x29
 2298 0e62 44090000 		.4byte	0x944
 2299 0e66 12000000 		.4byte	.LBB196
 2300 0e6a 08000000 		.4byte	.LBE196-.LBB196
 2301 0e6e 11       		.byte	0x11
 2302 0e6f F801     		.2byte	0x1f8
 2303 0e71 2A       		.uleb128 0x2a
 2304 0e72 12000000 		.4byte	.LBB197
 2305 0e76 08000000 		.4byte	.LBE197-.LBB197
 2306 0e7a 2B       		.uleb128 0x2b
 2307 0e7b 51090000 		.4byte	0x951
 2308 0e7f 29       		.uleb128 0x29
 2309 0e80 32090000 		.4byte	0x932
 2310 0e84 12000000 		.4byte	.LBB198
 2311 0e88 08000000 		.4byte	.LBE198-.LBB198
 2312 0e8c 10       		.byte	0x10
 2313 0e8d 7301     		.2byte	0x173
 2314 0e8f 29       		.uleb128 0x29
 2315 0e90 0F090000 		.4byte	0x90f
 2316 0e94 12000000 		.4byte	.LBB199
 2317 0e98 08000000 		.4byte	.LBE199-.LBB199
 2318 0e9c 09       		.byte	0x9
 2319 0e9d E301     		.2byte	0x1e3
 2320 0e9f 27       		.uleb128 0x27
 2321 0ea0 1C090000 		.4byte	0x91c
 2322 0ea4 00       		.byte	0
 2323 0ea5 00       		.byte	0
 2324 0ea6 00       		.byte	0
 2325 0ea7 00       		.byte	0
 2326 0ea8 00       		.byte	0
 2327 0ea9 00       		.byte	0
ARM GAS  /tmp/ccKPi6e1.s 			page 42


 2328 0eaa 2C       		.uleb128 0x2c
 2329 0eab 0E000000 		.4byte	.LVL15
 2330 0eaf 2A110000 		.4byte	0x112a
 2331 0eb3 2D       		.uleb128 0x2d
 2332 0eb4 01       		.uleb128 0x1
 2333 0eb5 50       		.byte	0x50
 2334 0eb6 02       		.uleb128 0x2
 2335 0eb7 74       		.byte	0x74
 2336 0eb8 00       		.sleb128 0
 2337 0eb9 00       		.byte	0
 2338 0eba 00       		.byte	0
 2339 0ebb 16       		.uleb128 0x16
 2340 0ebc BF0D0000 		.4byte	0xdbf
 2341 0ec0 20       		.uleb128 0x20
 2342 0ec1 51040000 		.4byte	.LASF157
 2343 0ec5 01       		.byte	0x1
 2344 0ec6 C0       		.byte	0xc0
 2345 0ec7 00000000 		.4byte	.LFB214
 2346 0ecb 14000000 		.4byte	.LFE214-.LFB214
 2347 0ecf 01       		.uleb128 0x1
 2348 0ed0 9C       		.byte	0x9c
 2349 0ed1 A80F0000 		.4byte	0xfa8
 2350 0ed5 23       		.uleb128 0x23
 2351 0ed6 8F040000 		.4byte	.LASF152
 2352 0eda 01       		.byte	0x1
 2353 0edb C0       		.byte	0xc0
 2354 0edc 15070000 		.4byte	0x715
 2355 0ee0 B7000000 		.4byte	.LLST6
 2356 0ee4 24       		.uleb128 0x24
 2357 0ee5 0B050000 		.4byte	.LASF154
 2358 0ee9 B80F0000 		.4byte	0xfb8
 2359 0eed 28       		.uleb128 0x28
 2360 0eee 74090000 		.4byte	0x974
 2361 0ef2 02000000 		.4byte	.LBB201
 2362 0ef6 06000000 		.4byte	.LBE201-.LBB201
 2363 0efa 01       		.byte	0x1
 2364 0efb C4       		.byte	0xc4
 2365 0efc 3A0F0000 		.4byte	0xf3a
 2366 0f00 29       		.uleb128 0x29
 2367 0f01 3B090000 		.4byte	0x93b
 2368 0f05 02000000 		.4byte	.LBB202
 2369 0f09 06000000 		.4byte	.LBE202-.LBB202
 2370 0f0d 11       		.byte	0x11
 2371 0f0e ED01     		.2byte	0x1ed
 2372 0f10 29       		.uleb128 0x29
 2373 0f11 29090000 		.4byte	0x929
 2374 0f15 02000000 		.4byte	.LBB203
 2375 0f19 06000000 		.4byte	.LBE203-.LBB203
 2376 0f1d 10       		.byte	0x10
 2377 0f1e 5C01     		.2byte	0x15c
 2378 0f20 29       		.uleb128 0x29
 2379 0f21 0F090000 		.4byte	0x90f
 2380 0f25 02000000 		.4byte	.LBB204
 2381 0f29 06000000 		.4byte	.LBE204-.LBB204
 2382 0f2d 09       		.byte	0x9
 2383 0f2e D001     		.2byte	0x1d0
 2384 0f30 27       		.uleb128 0x27
ARM GAS  /tmp/ccKPi6e1.s 			page 43


 2385 0f31 1C090000 		.4byte	0x91c
 2386 0f35 20       		.byte	0x20
 2387 0f36 00       		.byte	0
 2388 0f37 00       		.byte	0
 2389 0f38 00       		.byte	0
 2390 0f39 00       		.byte	0
 2391 0f3a 28       		.uleb128 0x28
 2392 0f3b 7D090000 		.4byte	0x97d
 2393 0f3f 0C000000 		.4byte	.LBB206
 2394 0f43 08000000 		.4byte	.LBE206-.LBB206
 2395 0f47 01       		.byte	0x1
 2396 0f48 C8       		.byte	0xc8
 2397 0f49 960F0000 		.4byte	0xf96
 2398 0f4d 29       		.uleb128 0x29
 2399 0f4e 44090000 		.4byte	0x944
 2400 0f52 0C000000 		.4byte	.LBB207
 2401 0f56 08000000 		.4byte	.LBE207-.LBB207
 2402 0f5a 11       		.byte	0x11
 2403 0f5b F801     		.2byte	0x1f8
 2404 0f5d 2A       		.uleb128 0x2a
 2405 0f5e 0C000000 		.4byte	.LBB208
 2406 0f62 08000000 		.4byte	.LBE208-.LBB208
 2407 0f66 2B       		.uleb128 0x2b
 2408 0f67 51090000 		.4byte	0x951
 2409 0f6b 29       		.uleb128 0x29
 2410 0f6c 32090000 		.4byte	0x932
 2411 0f70 0C000000 		.4byte	.LBB209
 2412 0f74 08000000 		.4byte	.LBE209-.LBB209
 2413 0f78 10       		.byte	0x10
 2414 0f79 7301     		.2byte	0x173
 2415 0f7b 29       		.uleb128 0x29
 2416 0f7c 0F090000 		.4byte	0x90f
 2417 0f80 0C000000 		.4byte	.LBB210
 2418 0f84 08000000 		.4byte	.LBE210-.LBB210
 2419 0f88 09       		.byte	0x9
 2420 0f89 E301     		.2byte	0x1e3
 2421 0f8b 27       		.uleb128 0x27
 2422 0f8c 1C090000 		.4byte	0x91c
 2423 0f90 00       		.byte	0
 2424 0f91 00       		.byte	0
 2425 0f92 00       		.byte	0
 2426 0f93 00       		.byte	0
 2427 0f94 00       		.byte	0
 2428 0f95 00       		.byte	0
 2429 0f96 2C       		.uleb128 0x2c
 2430 0f97 0C000000 		.4byte	.LVL18
 2431 0f9b 3C110000 		.4byte	0x113c
 2432 0f9f 2D       		.uleb128 0x2d
 2433 0fa0 01       		.uleb128 0x1
 2434 0fa1 50       		.byte	0x50
 2435 0fa2 03       		.uleb128 0x3
 2436 0fa3 F3       		.byte	0xf3
 2437 0fa4 01       		.uleb128 0x1
 2438 0fa5 50       		.byte	0x50
 2439 0fa6 00       		.byte	0
 2440 0fa7 00       		.byte	0
 2441 0fa8 10       		.uleb128 0x10
ARM GAS  /tmp/ccKPi6e1.s 			page 44


 2442 0fa9 1B060000 		.4byte	0x61b
 2443 0fad B80F0000 		.4byte	0xfb8
 2444 0fb1 11       		.uleb128 0x11
 2445 0fb2 4F040000 		.4byte	0x44f
 2446 0fb6 16       		.byte	0x16
 2447 0fb7 00       		.byte	0
 2448 0fb8 16       		.uleb128 0x16
 2449 0fb9 A80F0000 		.4byte	0xfa8
 2450 0fbd 20       		.uleb128 0x20
 2451 0fbe 22030000 		.4byte	.LASF158
 2452 0fc2 01       		.byte	0x1
 2453 0fc3 D4       		.byte	0xd4
 2454 0fc4 00000000 		.4byte	.LFB215
 2455 0fc8 14000000 		.4byte	.LFE215-.LFB215
 2456 0fcc 01       		.uleb128 0x1
 2457 0fcd 9C       		.byte	0x9c
 2458 0fce A5100000 		.4byte	0x10a5
 2459 0fd2 23       		.uleb128 0x23
 2460 0fd3 8F040000 		.4byte	.LASF152
 2461 0fd7 01       		.byte	0x1
 2462 0fd8 D4       		.byte	0xd4
 2463 0fd9 15070000 		.4byte	0x715
 2464 0fdd D8000000 		.4byte	.LLST7
 2465 0fe1 24       		.uleb128 0x24
 2466 0fe2 0B050000 		.4byte	.LASF154
 2467 0fe6 B5100000 		.4byte	0x10b5
 2468 0fea 28       		.uleb128 0x28
 2469 0feb 74090000 		.4byte	0x974
 2470 0fef 02000000 		.4byte	.LBB212
 2471 0ff3 06000000 		.4byte	.LBE212-.LBB212
 2472 0ff7 01       		.byte	0x1
 2473 0ff8 D8       		.byte	0xd8
 2474 0ff9 37100000 		.4byte	0x1037
 2475 0ffd 29       		.uleb128 0x29
 2476 0ffe 3B090000 		.4byte	0x93b
 2477 1002 02000000 		.4byte	.LBB213
 2478 1006 06000000 		.4byte	.LBE213-.LBB213
 2479 100a 11       		.byte	0x11
 2480 100b ED01     		.2byte	0x1ed
 2481 100d 29       		.uleb128 0x29
 2482 100e 29090000 		.4byte	0x929
 2483 1012 02000000 		.4byte	.LBB214
 2484 1016 06000000 		.4byte	.LBE214-.LBB214
 2485 101a 10       		.byte	0x10
 2486 101b 5C01     		.2byte	0x15c
 2487 101d 29       		.uleb128 0x29
 2488 101e 0F090000 		.4byte	0x90f
 2489 1022 02000000 		.4byte	.LBB215
 2490 1026 06000000 		.4byte	.LBE215-.LBB215
 2491 102a 09       		.byte	0x9
 2492 102b D001     		.2byte	0x1d0
 2493 102d 27       		.uleb128 0x27
 2494 102e 1C090000 		.4byte	0x91c
 2495 1032 20       		.byte	0x20
 2496 1033 00       		.byte	0
 2497 1034 00       		.byte	0
 2498 1035 00       		.byte	0
ARM GAS  /tmp/ccKPi6e1.s 			page 45


 2499 1036 00       		.byte	0
 2500 1037 28       		.uleb128 0x28
 2501 1038 7D090000 		.4byte	0x97d
 2502 103c 0C000000 		.4byte	.LBB217
 2503 1040 08000000 		.4byte	.LBE217-.LBB217
 2504 1044 01       		.byte	0x1
 2505 1045 DC       		.byte	0xdc
 2506 1046 93100000 		.4byte	0x1093
 2507 104a 29       		.uleb128 0x29
 2508 104b 44090000 		.4byte	0x944
 2509 104f 0C000000 		.4byte	.LBB218
 2510 1053 08000000 		.4byte	.LBE218-.LBB218
 2511 1057 11       		.byte	0x11
 2512 1058 F801     		.2byte	0x1f8
 2513 105a 2A       		.uleb128 0x2a
 2514 105b 0C000000 		.4byte	.LBB219
 2515 105f 08000000 		.4byte	.LBE219-.LBB219
 2516 1063 2B       		.uleb128 0x2b
 2517 1064 51090000 		.4byte	0x951
 2518 1068 29       		.uleb128 0x29
 2519 1069 32090000 		.4byte	0x932
 2520 106d 0C000000 		.4byte	.LBB220
 2521 1071 08000000 		.4byte	.LBE220-.LBB220
 2522 1075 10       		.byte	0x10
 2523 1076 7301     		.2byte	0x173
 2524 1078 29       		.uleb128 0x29
 2525 1079 0F090000 		.4byte	0x90f
 2526 107d 0C000000 		.4byte	.LBB221
 2527 1081 08000000 		.4byte	.LBE221-.LBB221
 2528 1085 09       		.byte	0x9
 2529 1086 E301     		.2byte	0x1e3
 2530 1088 27       		.uleb128 0x27
 2531 1089 1C090000 		.4byte	0x91c
 2532 108d 00       		.byte	0
 2533 108e 00       		.byte	0
 2534 108f 00       		.byte	0
 2535 1090 00       		.byte	0
 2536 1091 00       		.byte	0
 2537 1092 00       		.byte	0
 2538 1093 2C       		.uleb128 0x2c
 2539 1094 0C000000 		.4byte	.LVL20
 2540 1098 4E110000 		.4byte	0x114e
 2541 109c 2D       		.uleb128 0x2d
 2542 109d 01       		.uleb128 0x1
 2543 109e 50       		.byte	0x50
 2544 109f 03       		.uleb128 0x3
 2545 10a0 F3       		.byte	0xf3
 2546 10a1 01       		.uleb128 0x1
 2547 10a2 50       		.byte	0x50
 2548 10a3 00       		.byte	0
 2549 10a4 00       		.byte	0
 2550 10a5 10       		.uleb128 0x10
 2551 10a6 1B060000 		.4byte	0x61b
 2552 10aa B5100000 		.4byte	0x10b5
 2553 10ae 11       		.uleb128 0x11
 2554 10af 4F040000 		.4byte	0x44f
 2555 10b3 17       		.byte	0x17
ARM GAS  /tmp/ccKPi6e1.s 			page 46


 2556 10b4 00       		.byte	0
 2557 10b5 16       		.uleb128 0x16
 2558 10b6 A5100000 		.4byte	0x10a5
 2559 10ba 31       		.uleb128 0x31
 2560 10bb 38010000 		.4byte	.LASF159
 2561 10bf 12       		.byte	0x12
 2562 10c0 5506     		.2byte	0x655
 2563 10c2 C6100000 		.4byte	0x10c6
 2564 10c6 0F       		.uleb128 0xf
 2565 10c7 9E000000 		.4byte	0x9e
 2566 10cb 32       		.uleb128 0x32
 2567 10cc 636800   		.ascii	"ch\000"
 2568 10cf 07       		.byte	0x7
 2569 10d0 0902     		.2byte	0x209
 2570 10d2 E8030000 		.4byte	0x3e8
 2571 10d6 33       		.uleb128 0x33
 2572 10d7 15010000 		.4byte	.LASF170
 2573 10db 0E       		.byte	0xe
 2574 10dc D601     		.2byte	0x1d6
 2575 10de 34       		.uleb128 0x34
 2576 10df C1070000 		.4byte	.LASF160
 2577 10e3 0E       		.byte	0xe
 2578 10e4 D701     		.2byte	0x1d7
 2579 10e6 F0100000 		.4byte	0x10f0
 2580 10ea 0C       		.uleb128 0xc
 2581 10eb 15070000 		.4byte	0x715
 2582 10ef 00       		.byte	0
 2583 10f0 34       		.uleb128 0x34
 2584 10f1 F6060000 		.4byte	.LASF161
 2585 10f5 0E       		.byte	0xe
 2586 10f6 D801     		.2byte	0x1d8
 2587 10f8 02110000 		.4byte	0x1102
 2588 10fc 0C       		.uleb128 0xc
 2589 10fd 15070000 		.4byte	0x715
 2590 1101 00       		.byte	0
 2591 1102 34       		.uleb128 0x34
 2592 1103 D8010000 		.4byte	.LASF162
 2593 1107 0E       		.byte	0xe
 2594 1108 D901     		.2byte	0x1d9
 2595 110a 14110000 		.4byte	0x1114
 2596 110e 0C       		.uleb128 0xc
 2597 110f 15070000 		.4byte	0x715
 2598 1113 00       		.byte	0
 2599 1114 35       		.uleb128 0x35
 2600 1115 4D070000 		.4byte	.LASF171
 2601 1119 0E       		.byte	0xe
 2602 111a DA01     		.2byte	0x1da
 2603 111c 59060000 		.4byte	0x659
 2604 1120 2A110000 		.4byte	0x112a
 2605 1124 0C       		.uleb128 0xc
 2606 1125 15070000 		.4byte	0x715
 2607 1129 00       		.byte	0
 2608 112a 34       		.uleb128 0x34
 2609 112b 5E030000 		.4byte	.LASF163
 2610 112f 0E       		.byte	0xe
 2611 1130 DB01     		.2byte	0x1db
 2612 1132 3C110000 		.4byte	0x113c
ARM GAS  /tmp/ccKPi6e1.s 			page 47


 2613 1136 0C       		.uleb128 0xc
 2614 1137 15070000 		.4byte	0x715
 2615 113b 00       		.byte	0
 2616 113c 34       		.uleb128 0x34
 2617 113d 5A000000 		.4byte	.LASF164
 2618 1141 0E       		.byte	0xe
 2619 1142 DC01     		.2byte	0x1dc
 2620 1144 4E110000 		.4byte	0x114e
 2621 1148 0C       		.uleb128 0xc
 2622 1149 15070000 		.4byte	0x715
 2623 114d 00       		.byte	0
 2624 114e 36       		.uleb128 0x36
 2625 114f DD030000 		.4byte	.LASF172
 2626 1153 0E       		.byte	0xe
 2627 1154 DD01     		.2byte	0x1dd
 2628 1156 0C       		.uleb128 0xc
 2629 1157 15070000 		.4byte	0x715
 2630 115b 00       		.byte	0
 2631 115c 00       		.byte	0
 2632              		.section	.debug_abbrev,"",%progbits
 2633              	.Ldebug_abbrev0:
 2634 0000 01       		.uleb128 0x1
 2635 0001 11       		.uleb128 0x11
 2636 0002 01       		.byte	0x1
 2637 0003 25       		.uleb128 0x25
 2638 0004 0E       		.uleb128 0xe
 2639 0005 13       		.uleb128 0x13
 2640 0006 0B       		.uleb128 0xb
 2641 0007 03       		.uleb128 0x3
 2642 0008 0E       		.uleb128 0xe
 2643 0009 55       		.uleb128 0x55
 2644 000a 17       		.uleb128 0x17
 2645 000b 11       		.uleb128 0x11
 2646 000c 01       		.uleb128 0x1
 2647 000d 10       		.uleb128 0x10
 2648 000e 17       		.uleb128 0x17
 2649 000f 00       		.byte	0
 2650 0010 00       		.byte	0
 2651 0011 02       		.uleb128 0x2
 2652 0012 24       		.uleb128 0x24
 2653 0013 00       		.byte	0
 2654 0014 0B       		.uleb128 0xb
 2655 0015 0B       		.uleb128 0xb
 2656 0016 3E       		.uleb128 0x3e
 2657 0017 0B       		.uleb128 0xb
 2658 0018 03       		.uleb128 0x3
 2659 0019 08       		.uleb128 0x8
 2660 001a 00       		.byte	0
 2661 001b 00       		.byte	0
 2662 001c 03       		.uleb128 0x3
 2663 001d 24       		.uleb128 0x24
 2664 001e 00       		.byte	0
 2665 001f 0B       		.uleb128 0xb
 2666 0020 0B       		.uleb128 0xb
 2667 0021 3E       		.uleb128 0x3e
 2668 0022 0B       		.uleb128 0xb
 2669 0023 03       		.uleb128 0x3
ARM GAS  /tmp/ccKPi6e1.s 			page 48


 2670 0024 0E       		.uleb128 0xe
 2671 0025 00       		.byte	0
 2672 0026 00       		.byte	0
 2673 0027 04       		.uleb128 0x4
 2674 0028 16       		.uleb128 0x16
 2675 0029 00       		.byte	0
 2676 002a 03       		.uleb128 0x3
 2677 002b 0E       		.uleb128 0xe
 2678 002c 3A       		.uleb128 0x3a
 2679 002d 0B       		.uleb128 0xb
 2680 002e 3B       		.uleb128 0x3b
 2681 002f 0B       		.uleb128 0xb
 2682 0030 49       		.uleb128 0x49
 2683 0031 13       		.uleb128 0x13
 2684 0032 00       		.byte	0
 2685 0033 00       		.byte	0
 2686 0034 05       		.uleb128 0x5
 2687 0035 13       		.uleb128 0x13
 2688 0036 01       		.byte	0x1
 2689 0037 03       		.uleb128 0x3
 2690 0038 0E       		.uleb128 0xe
 2691 0039 0B       		.uleb128 0xb
 2692 003a 0B       		.uleb128 0xb
 2693 003b 3A       		.uleb128 0x3a
 2694 003c 0B       		.uleb128 0xb
 2695 003d 3B       		.uleb128 0x3b
 2696 003e 0B       		.uleb128 0xb
 2697 003f 01       		.uleb128 0x1
 2698 0040 13       		.uleb128 0x13
 2699 0041 00       		.byte	0
 2700 0042 00       		.byte	0
 2701 0043 06       		.uleb128 0x6
 2702 0044 0D       		.uleb128 0xd
 2703 0045 00       		.byte	0
 2704 0046 03       		.uleb128 0x3
 2705 0047 0E       		.uleb128 0xe
 2706 0048 3A       		.uleb128 0x3a
 2707 0049 0B       		.uleb128 0xb
 2708 004a 3B       		.uleb128 0x3b
 2709 004b 0B       		.uleb128 0xb
 2710 004c 49       		.uleb128 0x49
 2711 004d 13       		.uleb128 0x13
 2712 004e 38       		.uleb128 0x38
 2713 004f 0B       		.uleb128 0xb
 2714 0050 00       		.byte	0
 2715 0051 00       		.byte	0
 2716 0052 07       		.uleb128 0x7
 2717 0053 0D       		.uleb128 0xd
 2718 0054 00       		.byte	0
 2719 0055 03       		.uleb128 0x3
 2720 0056 08       		.uleb128 0x8
 2721 0057 3A       		.uleb128 0x3a
 2722 0058 0B       		.uleb128 0xb
 2723 0059 3B       		.uleb128 0x3b
 2724 005a 05       		.uleb128 0x5
 2725 005b 49       		.uleb128 0x49
 2726 005c 13       		.uleb128 0x13
ARM GAS  /tmp/ccKPi6e1.s 			page 49


 2727 005d 38       		.uleb128 0x38
 2728 005e 0B       		.uleb128 0xb
 2729 005f 00       		.byte	0
 2730 0060 00       		.byte	0
 2731 0061 08       		.uleb128 0x8
 2732 0062 0D       		.uleb128 0xd
 2733 0063 00       		.byte	0
 2734 0064 03       		.uleb128 0x3
 2735 0065 0E       		.uleb128 0xe
 2736 0066 3A       		.uleb128 0x3a
 2737 0067 0B       		.uleb128 0xb
 2738 0068 3B       		.uleb128 0x3b
 2739 0069 05       		.uleb128 0x5
 2740 006a 49       		.uleb128 0x49
 2741 006b 13       		.uleb128 0x13
 2742 006c 38       		.uleb128 0x38
 2743 006d 0B       		.uleb128 0xb
 2744 006e 00       		.byte	0
 2745 006f 00       		.byte	0
 2746 0070 09       		.uleb128 0x9
 2747 0071 0F       		.uleb128 0xf
 2748 0072 00       		.byte	0
 2749 0073 0B       		.uleb128 0xb
 2750 0074 0B       		.uleb128 0xb
 2751 0075 49       		.uleb128 0x49
 2752 0076 13       		.uleb128 0x13
 2753 0077 00       		.byte	0
 2754 0078 00       		.byte	0
 2755 0079 0A       		.uleb128 0xa
 2756 007a 13       		.uleb128 0x13
 2757 007b 01       		.byte	0x1
 2758 007c 03       		.uleb128 0x3
 2759 007d 0E       		.uleb128 0xe
 2760 007e 0B       		.uleb128 0xb
 2761 007f 0B       		.uleb128 0xb
 2762 0080 3A       		.uleb128 0x3a
 2763 0081 0B       		.uleb128 0xb
 2764 0082 3B       		.uleb128 0x3b
 2765 0083 05       		.uleb128 0x5
 2766 0084 01       		.uleb128 0x1
 2767 0085 13       		.uleb128 0x13
 2768 0086 00       		.byte	0
 2769 0087 00       		.byte	0
 2770 0088 0B       		.uleb128 0xb
 2771 0089 15       		.uleb128 0x15
 2772 008a 01       		.byte	0x1
 2773 008b 27       		.uleb128 0x27
 2774 008c 19       		.uleb128 0x19
 2775 008d 01       		.uleb128 0x1
 2776 008e 13       		.uleb128 0x13
 2777 008f 00       		.byte	0
 2778 0090 00       		.byte	0
 2779 0091 0C       		.uleb128 0xc
 2780 0092 05       		.uleb128 0x5
 2781 0093 00       		.byte	0
 2782 0094 49       		.uleb128 0x49
 2783 0095 13       		.uleb128 0x13
ARM GAS  /tmp/ccKPi6e1.s 			page 50


 2784 0096 00       		.byte	0
 2785 0097 00       		.byte	0
 2786 0098 0D       		.uleb128 0xd
 2787 0099 0F       		.uleb128 0xf
 2788 009a 00       		.byte	0
 2789 009b 0B       		.uleb128 0xb
 2790 009c 0B       		.uleb128 0xb
 2791 009d 00       		.byte	0
 2792 009e 00       		.byte	0
 2793 009f 0E       		.uleb128 0xe
 2794 00a0 13       		.uleb128 0x13
 2795 00a1 01       		.byte	0x1
 2796 00a2 03       		.uleb128 0x3
 2797 00a3 0E       		.uleb128 0xe
 2798 00a4 0B       		.uleb128 0xb
 2799 00a5 05       		.uleb128 0x5
 2800 00a6 3A       		.uleb128 0x3a
 2801 00a7 0B       		.uleb128 0xb
 2802 00a8 3B       		.uleb128 0x3b
 2803 00a9 05       		.uleb128 0x5
 2804 00aa 01       		.uleb128 0x1
 2805 00ab 13       		.uleb128 0x13
 2806 00ac 00       		.byte	0
 2807 00ad 00       		.byte	0
 2808 00ae 0F       		.uleb128 0xf
 2809 00af 35       		.uleb128 0x35
 2810 00b0 00       		.byte	0
 2811 00b1 49       		.uleb128 0x49
 2812 00b2 13       		.uleb128 0x13
 2813 00b3 00       		.byte	0
 2814 00b4 00       		.byte	0
 2815 00b5 10       		.uleb128 0x10
 2816 00b6 01       		.uleb128 0x1
 2817 00b7 01       		.byte	0x1
 2818 00b8 49       		.uleb128 0x49
 2819 00b9 13       		.uleb128 0x13
 2820 00ba 01       		.uleb128 0x1
 2821 00bb 13       		.uleb128 0x13
 2822 00bc 00       		.byte	0
 2823 00bd 00       		.byte	0
 2824 00be 11       		.uleb128 0x11
 2825 00bf 21       		.uleb128 0x21
 2826 00c0 00       		.byte	0
 2827 00c1 49       		.uleb128 0x49
 2828 00c2 13       		.uleb128 0x13
 2829 00c3 2F       		.uleb128 0x2f
 2830 00c4 0B       		.uleb128 0xb
 2831 00c5 00       		.byte	0
 2832 00c6 00       		.byte	0
 2833 00c7 12       		.uleb128 0x12
 2834 00c8 0D       		.uleb128 0xd
 2835 00c9 00       		.byte	0
 2836 00ca 03       		.uleb128 0x3
 2837 00cb 08       		.uleb128 0x8
 2838 00cc 3A       		.uleb128 0x3a
 2839 00cd 0B       		.uleb128 0xb
 2840 00ce 3B       		.uleb128 0x3b
ARM GAS  /tmp/ccKPi6e1.s 			page 51


 2841 00cf 0B       		.uleb128 0xb
 2842 00d0 49       		.uleb128 0x49
 2843 00d1 13       		.uleb128 0x13
 2844 00d2 38       		.uleb128 0x38
 2845 00d3 0B       		.uleb128 0xb
 2846 00d4 00       		.byte	0
 2847 00d5 00       		.byte	0
 2848 00d6 13       		.uleb128 0x13
 2849 00d7 13       		.uleb128 0x13
 2850 00d8 01       		.byte	0x1
 2851 00d9 0B       		.uleb128 0xb
 2852 00da 0B       		.uleb128 0xb
 2853 00db 3A       		.uleb128 0x3a
 2854 00dc 0B       		.uleb128 0xb
 2855 00dd 3B       		.uleb128 0x3b
 2856 00de 0B       		.uleb128 0xb
 2857 00df 01       		.uleb128 0x1
 2858 00e0 13       		.uleb128 0x13
 2859 00e1 00       		.byte	0
 2860 00e2 00       		.byte	0
 2861 00e3 14       		.uleb128 0x14
 2862 00e4 17       		.uleb128 0x17
 2863 00e5 01       		.byte	0x1
 2864 00e6 0B       		.uleb128 0xb
 2865 00e7 0B       		.uleb128 0xb
 2866 00e8 3A       		.uleb128 0x3a
 2867 00e9 0B       		.uleb128 0xb
 2868 00ea 3B       		.uleb128 0x3b
 2869 00eb 0B       		.uleb128 0xb
 2870 00ec 01       		.uleb128 0x1
 2871 00ed 13       		.uleb128 0x13
 2872 00ee 00       		.byte	0
 2873 00ef 00       		.byte	0
 2874 00f0 15       		.uleb128 0x15
 2875 00f1 0D       		.uleb128 0xd
 2876 00f2 00       		.byte	0
 2877 00f3 03       		.uleb128 0x3
 2878 00f4 0E       		.uleb128 0xe
 2879 00f5 3A       		.uleb128 0x3a
 2880 00f6 0B       		.uleb128 0xb
 2881 00f7 3B       		.uleb128 0x3b
 2882 00f8 05       		.uleb128 0x5
 2883 00f9 49       		.uleb128 0x49
 2884 00fa 13       		.uleb128 0x13
 2885 00fb 00       		.byte	0
 2886 00fc 00       		.byte	0
 2887 00fd 16       		.uleb128 0x16
 2888 00fe 26       		.uleb128 0x26
 2889 00ff 00       		.byte	0
 2890 0100 49       		.uleb128 0x49
 2891 0101 13       		.uleb128 0x13
 2892 0102 00       		.byte	0
 2893 0103 00       		.byte	0
 2894 0104 17       		.uleb128 0x17
 2895 0105 04       		.uleb128 0x4
 2896 0106 01       		.byte	0x1
 2897 0107 0B       		.uleb128 0xb
ARM GAS  /tmp/ccKPi6e1.s 			page 52


 2898 0108 0B       		.uleb128 0xb
 2899 0109 3A       		.uleb128 0x3a
 2900 010a 0B       		.uleb128 0xb
 2901 010b 3B       		.uleb128 0x3b
 2902 010c 0B       		.uleb128 0xb
 2903 010d 01       		.uleb128 0x1
 2904 010e 13       		.uleb128 0x13
 2905 010f 00       		.byte	0
 2906 0110 00       		.byte	0
 2907 0111 18       		.uleb128 0x18
 2908 0112 28       		.uleb128 0x28
 2909 0113 00       		.byte	0
 2910 0114 03       		.uleb128 0x3
 2911 0115 0E       		.uleb128 0xe
 2912 0116 1C       		.uleb128 0x1c
 2913 0117 0D       		.uleb128 0xd
 2914 0118 00       		.byte	0
 2915 0119 00       		.byte	0
 2916 011a 19       		.uleb128 0x19
 2917 011b 13       		.uleb128 0x13
 2918 011c 01       		.byte	0x1
 2919 011d 0B       		.uleb128 0xb
 2920 011e 0B       		.uleb128 0xb
 2921 011f 3A       		.uleb128 0x3a
 2922 0120 0B       		.uleb128 0xb
 2923 0121 3B       		.uleb128 0x3b
 2924 0122 05       		.uleb128 0x5
 2925 0123 01       		.uleb128 0x1
 2926 0124 13       		.uleb128 0x13
 2927 0125 00       		.byte	0
 2928 0126 00       		.byte	0
 2929 0127 1A       		.uleb128 0x1a
 2930 0128 16       		.uleb128 0x16
 2931 0129 00       		.byte	0
 2932 012a 03       		.uleb128 0x3
 2933 012b 0E       		.uleb128 0xe
 2934 012c 3A       		.uleb128 0x3a
 2935 012d 0B       		.uleb128 0xb
 2936 012e 3B       		.uleb128 0x3b
 2937 012f 05       		.uleb128 0x5
 2938 0130 49       		.uleb128 0x49
 2939 0131 13       		.uleb128 0x13
 2940 0132 00       		.byte	0
 2941 0133 00       		.byte	0
 2942 0134 1B       		.uleb128 0x1b
 2943 0135 04       		.uleb128 0x4
 2944 0136 01       		.byte	0x1
 2945 0137 0B       		.uleb128 0xb
 2946 0138 0B       		.uleb128 0xb
 2947 0139 3A       		.uleb128 0x3a
 2948 013a 0B       		.uleb128 0xb
 2949 013b 3B       		.uleb128 0x3b
 2950 013c 05       		.uleb128 0x5
 2951 013d 01       		.uleb128 0x1
 2952 013e 13       		.uleb128 0x13
 2953 013f 00       		.byte	0
 2954 0140 00       		.byte	0
ARM GAS  /tmp/ccKPi6e1.s 			page 53


 2955 0141 1C       		.uleb128 0x1c
 2956 0142 2E       		.uleb128 0x2e
 2957 0143 01       		.byte	0x1
 2958 0144 03       		.uleb128 0x3
 2959 0145 0E       		.uleb128 0xe
 2960 0146 3A       		.uleb128 0x3a
 2961 0147 0B       		.uleb128 0xb
 2962 0148 3B       		.uleb128 0x3b
 2963 0149 05       		.uleb128 0x5
 2964 014a 27       		.uleb128 0x27
 2965 014b 19       		.uleb128 0x19
 2966 014c 20       		.uleb128 0x20
 2967 014d 0B       		.uleb128 0xb
 2968 014e 01       		.uleb128 0x1
 2969 014f 13       		.uleb128 0x13
 2970 0150 00       		.byte	0
 2971 0151 00       		.byte	0
 2972 0152 1D       		.uleb128 0x1d
 2973 0153 05       		.uleb128 0x5
 2974 0154 00       		.byte	0
 2975 0155 03       		.uleb128 0x3
 2976 0156 0E       		.uleb128 0xe
 2977 0157 3A       		.uleb128 0x3a
 2978 0158 0B       		.uleb128 0xb
 2979 0159 3B       		.uleb128 0x3b
 2980 015a 05       		.uleb128 0x5
 2981 015b 49       		.uleb128 0x49
 2982 015c 13       		.uleb128 0x13
 2983 015d 00       		.byte	0
 2984 015e 00       		.byte	0
 2985 015f 1E       		.uleb128 0x1e
 2986 0160 2E       		.uleb128 0x2e
 2987 0161 00       		.byte	0
 2988 0162 03       		.uleb128 0x3
 2989 0163 0E       		.uleb128 0xe
 2990 0164 3A       		.uleb128 0x3a
 2991 0165 0B       		.uleb128 0xb
 2992 0166 3B       		.uleb128 0x3b
 2993 0167 05       		.uleb128 0x5
 2994 0168 27       		.uleb128 0x27
 2995 0169 19       		.uleb128 0x19
 2996 016a 20       		.uleb128 0x20
 2997 016b 0B       		.uleb128 0xb
 2998 016c 00       		.byte	0
 2999 016d 00       		.byte	0
 3000 016e 1F       		.uleb128 0x1f
 3001 016f 34       		.uleb128 0x34
 3002 0170 00       		.byte	0
 3003 0171 03       		.uleb128 0x3
 3004 0172 0E       		.uleb128 0xe
 3005 0173 49       		.uleb128 0x49
 3006 0174 13       		.uleb128 0x13
 3007 0175 34       		.uleb128 0x34
 3008 0176 19       		.uleb128 0x19
 3009 0177 1C       		.uleb128 0x1c
 3010 0178 0E       		.uleb128 0xe
 3011 0179 00       		.byte	0
ARM GAS  /tmp/ccKPi6e1.s 			page 54


 3012 017a 00       		.byte	0
 3013 017b 20       		.uleb128 0x20
 3014 017c 2E       		.uleb128 0x2e
 3015 017d 01       		.byte	0x1
 3016 017e 3F       		.uleb128 0x3f
 3017 017f 19       		.uleb128 0x19
 3018 0180 03       		.uleb128 0x3
 3019 0181 0E       		.uleb128 0xe
 3020 0182 3A       		.uleb128 0x3a
 3021 0183 0B       		.uleb128 0xb
 3022 0184 3B       		.uleb128 0x3b
 3023 0185 0B       		.uleb128 0xb
 3024 0186 27       		.uleb128 0x27
 3025 0187 19       		.uleb128 0x19
 3026 0188 11       		.uleb128 0x11
 3027 0189 01       		.uleb128 0x1
 3028 018a 12       		.uleb128 0x12
 3029 018b 06       		.uleb128 0x6
 3030 018c 40       		.uleb128 0x40
 3031 018d 18       		.uleb128 0x18
 3032 018e 9742     		.uleb128 0x2117
 3033 0190 19       		.uleb128 0x19
 3034 0191 01       		.uleb128 0x1
 3035 0192 13       		.uleb128 0x13
 3036 0193 00       		.byte	0
 3037 0194 00       		.byte	0
 3038 0195 21       		.uleb128 0x21
 3039 0196 898201   		.uleb128 0x4109
 3040 0199 00       		.byte	0
 3041 019a 11       		.uleb128 0x11
 3042 019b 01       		.uleb128 0x1
 3043 019c 9542     		.uleb128 0x2115
 3044 019e 19       		.uleb128 0x19
 3045 019f 31       		.uleb128 0x31
 3046 01a0 13       		.uleb128 0x13
 3047 01a1 00       		.byte	0
 3048 01a2 00       		.byte	0
 3049 01a3 22       		.uleb128 0x22
 3050 01a4 05       		.uleb128 0x5
 3051 01a5 00       		.byte	0
 3052 01a6 03       		.uleb128 0x3
 3053 01a7 0E       		.uleb128 0xe
 3054 01a8 3A       		.uleb128 0x3a
 3055 01a9 0B       		.uleb128 0xb
 3056 01aa 3B       		.uleb128 0x3b
 3057 01ab 0B       		.uleb128 0xb
 3058 01ac 49       		.uleb128 0x49
 3059 01ad 13       		.uleb128 0x13
 3060 01ae 02       		.uleb128 0x2
 3061 01af 18       		.uleb128 0x18
 3062 01b0 00       		.byte	0
 3063 01b1 00       		.byte	0
 3064 01b2 23       		.uleb128 0x23
 3065 01b3 05       		.uleb128 0x5
 3066 01b4 00       		.byte	0
 3067 01b5 03       		.uleb128 0x3
 3068 01b6 0E       		.uleb128 0xe
ARM GAS  /tmp/ccKPi6e1.s 			page 55


 3069 01b7 3A       		.uleb128 0x3a
 3070 01b8 0B       		.uleb128 0xb
 3071 01b9 3B       		.uleb128 0x3b
 3072 01ba 0B       		.uleb128 0xb
 3073 01bb 49       		.uleb128 0x49
 3074 01bc 13       		.uleb128 0x13
 3075 01bd 02       		.uleb128 0x2
 3076 01be 17       		.uleb128 0x17
 3077 01bf 00       		.byte	0
 3078 01c0 00       		.byte	0
 3079 01c1 24       		.uleb128 0x24
 3080 01c2 34       		.uleb128 0x34
 3081 01c3 00       		.byte	0
 3082 01c4 03       		.uleb128 0x3
 3083 01c5 0E       		.uleb128 0xe
 3084 01c6 49       		.uleb128 0x49
 3085 01c7 13       		.uleb128 0x13
 3086 01c8 34       		.uleb128 0x34
 3087 01c9 19       		.uleb128 0x19
 3088 01ca 00       		.byte	0
 3089 01cb 00       		.byte	0
 3090 01cc 25       		.uleb128 0x25
 3091 01cd 1D       		.uleb128 0x1d
 3092 01ce 01       		.byte	0x1
 3093 01cf 31       		.uleb128 0x31
 3094 01d0 13       		.uleb128 0x13
 3095 01d1 52       		.uleb128 0x52
 3096 01d2 01       		.uleb128 0x1
 3097 01d3 55       		.uleb128 0x55
 3098 01d4 17       		.uleb128 0x17
 3099 01d5 58       		.uleb128 0x58
 3100 01d6 0B       		.uleb128 0xb
 3101 01d7 59       		.uleb128 0x59
 3102 01d8 0B       		.uleb128 0xb
 3103 01d9 01       		.uleb128 0x1
 3104 01da 13       		.uleb128 0x13
 3105 01db 00       		.byte	0
 3106 01dc 00       		.byte	0
 3107 01dd 26       		.uleb128 0x26
 3108 01de 1D       		.uleb128 0x1d
 3109 01df 01       		.byte	0x1
 3110 01e0 31       		.uleb128 0x31
 3111 01e1 13       		.uleb128 0x13
 3112 01e2 52       		.uleb128 0x52
 3113 01e3 01       		.uleb128 0x1
 3114 01e4 55       		.uleb128 0x55
 3115 01e5 17       		.uleb128 0x17
 3116 01e6 58       		.uleb128 0x58
 3117 01e7 0B       		.uleb128 0xb
 3118 01e8 59       		.uleb128 0x59
 3119 01e9 05       		.uleb128 0x5
 3120 01ea 00       		.byte	0
 3121 01eb 00       		.byte	0
 3122 01ec 27       		.uleb128 0x27
 3123 01ed 05       		.uleb128 0x5
 3124 01ee 00       		.byte	0
 3125 01ef 31       		.uleb128 0x31
ARM GAS  /tmp/ccKPi6e1.s 			page 56


 3126 01f0 13       		.uleb128 0x13
 3127 01f1 1C       		.uleb128 0x1c
 3128 01f2 0B       		.uleb128 0xb
 3129 01f3 00       		.byte	0
 3130 01f4 00       		.byte	0
 3131 01f5 28       		.uleb128 0x28
 3132 01f6 1D       		.uleb128 0x1d
 3133 01f7 01       		.byte	0x1
 3134 01f8 31       		.uleb128 0x31
 3135 01f9 13       		.uleb128 0x13
 3136 01fa 11       		.uleb128 0x11
 3137 01fb 01       		.uleb128 0x1
 3138 01fc 12       		.uleb128 0x12
 3139 01fd 06       		.uleb128 0x6
 3140 01fe 58       		.uleb128 0x58
 3141 01ff 0B       		.uleb128 0xb
 3142 0200 59       		.uleb128 0x59
 3143 0201 0B       		.uleb128 0xb
 3144 0202 01       		.uleb128 0x1
 3145 0203 13       		.uleb128 0x13
 3146 0204 00       		.byte	0
 3147 0205 00       		.byte	0
 3148 0206 29       		.uleb128 0x29
 3149 0207 1D       		.uleb128 0x1d
 3150 0208 01       		.byte	0x1
 3151 0209 31       		.uleb128 0x31
 3152 020a 13       		.uleb128 0x13
 3153 020b 11       		.uleb128 0x11
 3154 020c 01       		.uleb128 0x1
 3155 020d 12       		.uleb128 0x12
 3156 020e 06       		.uleb128 0x6
 3157 020f 58       		.uleb128 0x58
 3158 0210 0B       		.uleb128 0xb
 3159 0211 59       		.uleb128 0x59
 3160 0212 05       		.uleb128 0x5
 3161 0213 00       		.byte	0
 3162 0214 00       		.byte	0
 3163 0215 2A       		.uleb128 0x2a
 3164 0216 0B       		.uleb128 0xb
 3165 0217 01       		.byte	0x1
 3166 0218 11       		.uleb128 0x11
 3167 0219 01       		.uleb128 0x1
 3168 021a 12       		.uleb128 0x12
 3169 021b 06       		.uleb128 0x6
 3170 021c 00       		.byte	0
 3171 021d 00       		.byte	0
 3172 021e 2B       		.uleb128 0x2b
 3173 021f 34       		.uleb128 0x34
 3174 0220 00       		.byte	0
 3175 0221 31       		.uleb128 0x31
 3176 0222 13       		.uleb128 0x13
 3177 0223 00       		.byte	0
 3178 0224 00       		.byte	0
 3179 0225 2C       		.uleb128 0x2c
 3180 0226 898201   		.uleb128 0x4109
 3181 0229 01       		.byte	0x1
 3182 022a 11       		.uleb128 0x11
ARM GAS  /tmp/ccKPi6e1.s 			page 57


 3183 022b 01       		.uleb128 0x1
 3184 022c 31       		.uleb128 0x31
 3185 022d 13       		.uleb128 0x13
 3186 022e 00       		.byte	0
 3187 022f 00       		.byte	0
 3188 0230 2D       		.uleb128 0x2d
 3189 0231 8A8201   		.uleb128 0x410a
 3190 0234 00       		.byte	0
 3191 0235 02       		.uleb128 0x2
 3192 0236 18       		.uleb128 0x18
 3193 0237 9142     		.uleb128 0x2111
 3194 0239 18       		.uleb128 0x18
 3195 023a 00       		.byte	0
 3196 023b 00       		.byte	0
 3197 023c 2E       		.uleb128 0x2e
 3198 023d 2E       		.uleb128 0x2e
 3199 023e 01       		.byte	0x1
 3200 023f 3F       		.uleb128 0x3f
 3201 0240 19       		.uleb128 0x19
 3202 0241 03       		.uleb128 0x3
 3203 0242 0E       		.uleb128 0xe
 3204 0243 3A       		.uleb128 0x3a
 3205 0244 0B       		.uleb128 0xb
 3206 0245 3B       		.uleb128 0x3b
 3207 0246 0B       		.uleb128 0xb
 3208 0247 27       		.uleb128 0x27
 3209 0248 19       		.uleb128 0x19
 3210 0249 49       		.uleb128 0x49
 3211 024a 13       		.uleb128 0x13
 3212 024b 11       		.uleb128 0x11
 3213 024c 01       		.uleb128 0x1
 3214 024d 12       		.uleb128 0x12
 3215 024e 06       		.uleb128 0x6
 3216 024f 40       		.uleb128 0x40
 3217 0250 18       		.uleb128 0x18
 3218 0251 9742     		.uleb128 0x2117
 3219 0253 19       		.uleb128 0x19
 3220 0254 01       		.uleb128 0x1
 3221 0255 13       		.uleb128 0x13
 3222 0256 00       		.byte	0
 3223 0257 00       		.byte	0
 3224 0258 2F       		.uleb128 0x2f
 3225 0259 34       		.uleb128 0x34
 3226 025a 00       		.byte	0
 3227 025b 03       		.uleb128 0x3
 3228 025c 0E       		.uleb128 0xe
 3229 025d 3A       		.uleb128 0x3a
 3230 025e 0B       		.uleb128 0xb
 3231 025f 3B       		.uleb128 0x3b
 3232 0260 0B       		.uleb128 0xb
 3233 0261 49       		.uleb128 0x49
 3234 0262 13       		.uleb128 0x13
 3235 0263 02       		.uleb128 0x2
 3236 0264 18       		.uleb128 0x18
 3237 0265 00       		.byte	0
 3238 0266 00       		.byte	0
 3239 0267 30       		.uleb128 0x30
ARM GAS  /tmp/ccKPi6e1.s 			page 58


 3240 0268 0B       		.uleb128 0xb
 3241 0269 01       		.byte	0x1
 3242 026a 55       		.uleb128 0x55
 3243 026b 17       		.uleb128 0x17
 3244 026c 00       		.byte	0
 3245 026d 00       		.byte	0
 3246 026e 31       		.uleb128 0x31
 3247 026f 34       		.uleb128 0x34
 3248 0270 00       		.byte	0
 3249 0271 03       		.uleb128 0x3
 3250 0272 0E       		.uleb128 0xe
 3251 0273 3A       		.uleb128 0x3a
 3252 0274 0B       		.uleb128 0xb
 3253 0275 3B       		.uleb128 0x3b
 3254 0276 05       		.uleb128 0x5
 3255 0277 49       		.uleb128 0x49
 3256 0278 13       		.uleb128 0x13
 3257 0279 3F       		.uleb128 0x3f
 3258 027a 19       		.uleb128 0x19
 3259 027b 3C       		.uleb128 0x3c
 3260 027c 19       		.uleb128 0x19
 3261 027d 00       		.byte	0
 3262 027e 00       		.byte	0
 3263 027f 32       		.uleb128 0x32
 3264 0280 34       		.uleb128 0x34
 3265 0281 00       		.byte	0
 3266 0282 03       		.uleb128 0x3
 3267 0283 08       		.uleb128 0x8
 3268 0284 3A       		.uleb128 0x3a
 3269 0285 0B       		.uleb128 0xb
 3270 0286 3B       		.uleb128 0x3b
 3271 0287 05       		.uleb128 0x5
 3272 0288 49       		.uleb128 0x49
 3273 0289 13       		.uleb128 0x13
 3274 028a 3F       		.uleb128 0x3f
 3275 028b 19       		.uleb128 0x19
 3276 028c 3C       		.uleb128 0x3c
 3277 028d 19       		.uleb128 0x19
 3278 028e 00       		.byte	0
 3279 028f 00       		.byte	0
 3280 0290 33       		.uleb128 0x33
 3281 0291 2E       		.uleb128 0x2e
 3282 0292 00       		.byte	0
 3283 0293 3F       		.uleb128 0x3f
 3284 0294 19       		.uleb128 0x19
 3285 0295 03       		.uleb128 0x3
 3286 0296 0E       		.uleb128 0xe
 3287 0297 3A       		.uleb128 0x3a
 3288 0298 0B       		.uleb128 0xb
 3289 0299 3B       		.uleb128 0x3b
 3290 029a 05       		.uleb128 0x5
 3291 029b 27       		.uleb128 0x27
 3292 029c 19       		.uleb128 0x19
 3293 029d 3C       		.uleb128 0x3c
 3294 029e 19       		.uleb128 0x19
 3295 029f 00       		.byte	0
 3296 02a0 00       		.byte	0
ARM GAS  /tmp/ccKPi6e1.s 			page 59


 3297 02a1 34       		.uleb128 0x34
 3298 02a2 2E       		.uleb128 0x2e
 3299 02a3 01       		.byte	0x1
 3300 02a4 3F       		.uleb128 0x3f
 3301 02a5 19       		.uleb128 0x19
 3302 02a6 03       		.uleb128 0x3
 3303 02a7 0E       		.uleb128 0xe
 3304 02a8 3A       		.uleb128 0x3a
 3305 02a9 0B       		.uleb128 0xb
 3306 02aa 3B       		.uleb128 0x3b
 3307 02ab 05       		.uleb128 0x5
 3308 02ac 27       		.uleb128 0x27
 3309 02ad 19       		.uleb128 0x19
 3310 02ae 3C       		.uleb128 0x3c
 3311 02af 19       		.uleb128 0x19
 3312 02b0 01       		.uleb128 0x1
 3313 02b1 13       		.uleb128 0x13
 3314 02b2 00       		.byte	0
 3315 02b3 00       		.byte	0
 3316 02b4 35       		.uleb128 0x35
 3317 02b5 2E       		.uleb128 0x2e
 3318 02b6 01       		.byte	0x1
 3319 02b7 3F       		.uleb128 0x3f
 3320 02b8 19       		.uleb128 0x19
 3321 02b9 03       		.uleb128 0x3
 3322 02ba 0E       		.uleb128 0xe
 3323 02bb 3A       		.uleb128 0x3a
 3324 02bc 0B       		.uleb128 0xb
 3325 02bd 3B       		.uleb128 0x3b
 3326 02be 05       		.uleb128 0x5
 3327 02bf 27       		.uleb128 0x27
 3328 02c0 19       		.uleb128 0x19
 3329 02c1 49       		.uleb128 0x49
 3330 02c2 13       		.uleb128 0x13
 3331 02c3 3C       		.uleb128 0x3c
 3332 02c4 19       		.uleb128 0x19
 3333 02c5 01       		.uleb128 0x1
 3334 02c6 13       		.uleb128 0x13
 3335 02c7 00       		.byte	0
 3336 02c8 00       		.byte	0
 3337 02c9 36       		.uleb128 0x36
 3338 02ca 2E       		.uleb128 0x2e
 3339 02cb 01       		.byte	0x1
 3340 02cc 3F       		.uleb128 0x3f
 3341 02cd 19       		.uleb128 0x19
 3342 02ce 03       		.uleb128 0x3
 3343 02cf 0E       		.uleb128 0xe
 3344 02d0 3A       		.uleb128 0x3a
 3345 02d1 0B       		.uleb128 0xb
 3346 02d2 3B       		.uleb128 0x3b
 3347 02d3 05       		.uleb128 0x5
 3348 02d4 27       		.uleb128 0x27
 3349 02d5 19       		.uleb128 0x19
 3350 02d6 3C       		.uleb128 0x3c
 3351 02d7 19       		.uleb128 0x19
 3352 02d8 00       		.byte	0
 3353 02d9 00       		.byte	0
ARM GAS  /tmp/ccKPi6e1.s 			page 60


 3354 02da 00       		.byte	0
 3355              		.section	.debug_loc,"",%progbits
 3356              	.Ldebug_loc0:
 3357              	.LLST0:
 3358 0000 00000000 		.4byte	.LVL2
 3359 0004 0F000000 		.4byte	.LVL3-1
 3360 0008 0100     		.2byte	0x1
 3361 000a 50       		.byte	0x50
 3362 000b 0F000000 		.4byte	.LVL3-1
 3363 000f 1C000000 		.4byte	.LFE209
 3364 0013 0100     		.2byte	0x1
 3365 0015 54       		.byte	0x54
 3366 0016 00000000 		.4byte	0
 3367 001a 00000000 		.4byte	0
 3368              	.LLST1:
 3369 001e 00000000 		.4byte	.LVL2
 3370 0022 0F000000 		.4byte	.LVL3-1
 3371 0026 0100     		.2byte	0x1
 3372 0028 51       		.byte	0x51
 3373 0029 0F000000 		.4byte	.LVL3-1
 3374 002d 1C000000 		.4byte	.LFE209
 3375 0031 0400     		.2byte	0x4
 3376 0033 F3       		.byte	0xf3
 3377 0034 01       		.uleb128 0x1
 3378 0035 51       		.byte	0x51
 3379 0036 9F       		.byte	0x9f
 3380 0037 00000000 		.4byte	0
 3381 003b 00000000 		.4byte	0
 3382              	.LLST2:
 3383 003f 00000000 		.4byte	.LVL5
 3384 0043 0D000000 		.4byte	.LVL6-1
 3385 0047 0100     		.2byte	0x1
 3386 0049 50       		.byte	0x50
 3387 004a 0D000000 		.4byte	.LVL6-1
 3388 004e 1A000000 		.4byte	.LFE210
 3389 0052 0100     		.2byte	0x1
 3390 0054 54       		.byte	0x54
 3391 0055 00000000 		.4byte	0
 3392 0059 00000000 		.4byte	0
 3393              	.LLST3:
 3394 005d 00000000 		.4byte	.LVL8
 3395 0061 0D000000 		.4byte	.LVL9-1
 3396 0065 0100     		.2byte	0x1
 3397 0067 50       		.byte	0x50
 3398 0068 0D000000 		.4byte	.LVL9-1
 3399 006c 1A000000 		.4byte	.LFE211
 3400 0070 0100     		.2byte	0x1
 3401 0072 54       		.byte	0x54
 3402 0073 00000000 		.4byte	0
 3403 0077 00000000 		.4byte	0
 3404              	.LLST4:
 3405 007b 00000000 		.4byte	.LVL11
 3406 007f 0D000000 		.4byte	.LVL12-1
 3407 0083 0100     		.2byte	0x1
 3408 0085 50       		.byte	0x50
 3409 0086 0D000000 		.4byte	.LVL12-1
 3410 008a 20000000 		.4byte	.LFE212
ARM GAS  /tmp/ccKPi6e1.s 			page 61


 3411 008e 0100     		.2byte	0x1
 3412 0090 54       		.byte	0x54
 3413 0091 00000000 		.4byte	0
 3414 0095 00000000 		.4byte	0
 3415              	.LLST5:
 3416 0099 00000000 		.4byte	.LVL14
 3417 009d 0D000000 		.4byte	.LVL15-1
 3418 00a1 0100     		.2byte	0x1
 3419 00a3 50       		.byte	0x50
 3420 00a4 0D000000 		.4byte	.LVL15-1
 3421 00a8 1A000000 		.4byte	.LFE213
 3422 00ac 0100     		.2byte	0x1
 3423 00ae 54       		.byte	0x54
 3424 00af 00000000 		.4byte	0
 3425 00b3 00000000 		.4byte	0
 3426              	.LLST6:
 3427 00b7 00000000 		.4byte	.LVL17
 3428 00bb 0B000000 		.4byte	.LVL18-1
 3429 00bf 0100     		.2byte	0x1
 3430 00c1 50       		.byte	0x50
 3431 00c2 0B000000 		.4byte	.LVL18-1
 3432 00c6 14000000 		.4byte	.LFE214
 3433 00ca 0400     		.2byte	0x4
 3434 00cc F3       		.byte	0xf3
 3435 00cd 01       		.uleb128 0x1
 3436 00ce 50       		.byte	0x50
 3437 00cf 9F       		.byte	0x9f
 3438 00d0 00000000 		.4byte	0
 3439 00d4 00000000 		.4byte	0
 3440              	.LLST7:
 3441 00d8 00000000 		.4byte	.LVL19
 3442 00dc 0B000000 		.4byte	.LVL20-1
 3443 00e0 0100     		.2byte	0x1
 3444 00e2 50       		.byte	0x50
 3445 00e3 0B000000 		.4byte	.LVL20-1
 3446 00e7 14000000 		.4byte	.LFE215
 3447 00eb 0400     		.2byte	0x4
 3448 00ed F3       		.byte	0xf3
 3449 00ee 01       		.uleb128 0x1
 3450 00ef 50       		.byte	0x50
 3451 00f0 9F       		.byte	0x9f
 3452 00f1 00000000 		.4byte	0
 3453 00f5 00000000 		.4byte	0
 3454              		.section	.debug_aranges,"",%progbits
 3455 0000 5C000000 		.4byte	0x5c
 3456 0004 0200     		.2byte	0x2
 3457 0006 00000000 		.4byte	.Ldebug_info0
 3458 000a 04       		.byte	0x4
 3459 000b 00       		.byte	0
 3460 000c 0000     		.2byte	0
 3461 000e 0000     		.2byte	0
 3462 0010 00000000 		.4byte	.LFB207
 3463 0014 04000000 		.4byte	.LFE207-.LFB207
 3464 0018 00000000 		.4byte	.LFB208
 3465 001c 0A000000 		.4byte	.LFE208-.LFB208
 3466 0020 00000000 		.4byte	.LFB209
 3467 0024 1C000000 		.4byte	.LFE209-.LFB209
ARM GAS  /tmp/ccKPi6e1.s 			page 62


 3468 0028 00000000 		.4byte	.LFB210
 3469 002c 1A000000 		.4byte	.LFE210-.LFB210
 3470 0030 00000000 		.4byte	.LFB211
 3471 0034 1A000000 		.4byte	.LFE211-.LFB211
 3472 0038 00000000 		.4byte	.LFB212
 3473 003c 20000000 		.4byte	.LFE212-.LFB212
 3474 0040 00000000 		.4byte	.LFB213
 3475 0044 1A000000 		.4byte	.LFE213-.LFB213
 3476 0048 00000000 		.4byte	.LFB214
 3477 004c 14000000 		.4byte	.LFE214-.LFB214
 3478 0050 00000000 		.4byte	.LFB215
 3479 0054 14000000 		.4byte	.LFE215-.LFB215
 3480 0058 00000000 		.4byte	0
 3481 005c 00000000 		.4byte	0
 3482              		.section	.debug_ranges,"",%progbits
 3483              	.Ldebug_ranges0:
 3484 0000 02000000 		.4byte	.LBB115
 3485 0004 04000000 		.4byte	.LBE115
 3486 0008 06000000 		.4byte	.LBB124
 3487 000c 0A000000 		.4byte	.LBE124
 3488 0010 00000000 		.4byte	0
 3489 0014 00000000 		.4byte	0
 3490 0018 02000000 		.4byte	.LBB131
 3491 001c 04000000 		.4byte	.LBE131
 3492 0020 06000000 		.4byte	.LBB140
 3493 0024 0A000000 		.4byte	.LBE140
 3494 0028 00000000 		.4byte	0
 3495 002c 00000000 		.4byte	0
 3496 0030 02000000 		.4byte	.LBB147
 3497 0034 04000000 		.4byte	.LBE147
 3498 0038 06000000 		.4byte	.LBB156
 3499 003c 0A000000 		.4byte	.LBE156
 3500 0040 00000000 		.4byte	0
 3501 0044 00000000 		.4byte	0
 3502 0048 02000000 		.4byte	.LBB163
 3503 004c 04000000 		.4byte	.LBE163
 3504 0050 06000000 		.4byte	.LBB172
 3505 0054 0A000000 		.4byte	.LBE172
 3506 0058 00000000 		.4byte	0
 3507 005c 00000000 		.4byte	0
 3508 0060 16000000 		.4byte	.LBB173
 3509 0064 18000000 		.4byte	.LBE173
 3510 0068 1A000000 		.4byte	.LBB184
 3511 006c 1E000000 		.4byte	.LBE184
 3512 0070 00000000 		.4byte	0
 3513 0074 00000000 		.4byte	0
 3514 0078 02000000 		.4byte	.LBB185
 3515 007c 04000000 		.4byte	.LBE185
 3516 0080 06000000 		.4byte	.LBB194
 3517 0084 0A000000 		.4byte	.LBE194
 3518 0088 00000000 		.4byte	0
 3519 008c 00000000 		.4byte	0
 3520 0090 00000000 		.4byte	.LFB207
 3521 0094 04000000 		.4byte	.LFE207
 3522 0098 00000000 		.4byte	.LFB208
 3523 009c 0A000000 		.4byte	.LFE208
 3524 00a0 00000000 		.4byte	.LFB209
ARM GAS  /tmp/ccKPi6e1.s 			page 63


 3525 00a4 1C000000 		.4byte	.LFE209
 3526 00a8 00000000 		.4byte	.LFB210
 3527 00ac 1A000000 		.4byte	.LFE210
 3528 00b0 00000000 		.4byte	.LFB211
 3529 00b4 1A000000 		.4byte	.LFE211
 3530 00b8 00000000 		.4byte	.LFB212
 3531 00bc 20000000 		.4byte	.LFE212
 3532 00c0 00000000 		.4byte	.LFB213
 3533 00c4 1A000000 		.4byte	.LFE213
 3534 00c8 00000000 		.4byte	.LFB214
 3535 00cc 14000000 		.4byte	.LFE214
 3536 00d0 00000000 		.4byte	.LFB215
 3537 00d4 14000000 		.4byte	.LFE215
 3538 00d8 00000000 		.4byte	0
 3539 00dc 00000000 		.4byte	0
 3540              		.section	.debug_line,"",%progbits
 3541              	.Ldebug_line0:
 3542 0000 09040000 		.section	.debug_str,"MS",%progbits,1
 3542      02009F02 
 3542      00000201 
 3542      FB0E0D00 
 3542      01010101 
 3543              	.LASF127:
 3544 0000 4943555F 		.ascii	"ICU_INPUT_ACTIVE_HIGH\000"
 3544      494E5055 
 3544      545F4143 
 3544      54495645 
 3544      5F484947 
 3545              	.LASF52:
 3546 0016 72656164 		.ascii	"ready_list_t\000"
 3546      795F6C69 
 3546      73745F74 
 3546      00
 3547              	.LASF118:
 3548 0023 44494552 		.ascii	"DIER\000"
 3548      00
 3549              	.LASF166:
 3550 0028 2F686F6D 		.ascii	"/home/peter/ChibiOS_16.1.4/os/hal/src/icu.c\000"
 3550      652F7065 
 3550      7465722F 
 3550      43686962 
 3550      694F535F 
 3551              	.LASF90:
 3552 0054 77747472 		.ascii	"wttrp\000"
 3552      7000
 3553              	.LASF164:
 3554 005a 6963755F 		.ascii	"icu_lld_enable_notifications\000"
 3554      6C6C645F 
 3554      656E6162 
 3554      6C655F6E 
 3554      6F746966 
 3555              	.LASF16:
 3556 0077 75696E74 		.ascii	"uint64_t\000"
 3556      36345F74 
 3556      00
 3557              	.LASF107:
 3558 0080 4943555F 		.ascii	"ICU_WAITING\000"
ARM GAS  /tmp/ccKPi6e1.s 			page 64


 3558      57414954 
 3558      494E4700 
 3559              	.LASF108:
 3560 008c 4943555F 		.ascii	"ICU_ACTIVE\000"
 3560      41435449 
 3560      564500
 3561              	.LASF5:
 3562 0097 5F5F7569 		.ascii	"__uint8_t\000"
 3562      6E74385F 
 3562      7400
 3563              	.LASF84:
 3564 00a1 706F7274 		.ascii	"port_intctx\000"
 3564      5F696E74 
 3564      63747800 
 3565              	.LASF51:
 3566 00ad 63685F74 		.ascii	"ch_threads_queue\000"
 3566      68726561 
 3566      64735F71 
 3566      75657565 
 3566      00
 3567              	.LASF71:
 3568 00be 73797374 		.ascii	"system_debug_t\000"
 3568      656D5F64 
 3568      65627567 
 3568      5F7400
 3569              	.LASF149:
 3570 00cd 69637549 		.ascii	"icuInit\000"
 3570      6E697400 
 3571              	.LASF142:
 3572 00d5 706F7274 		.ascii	"port_lock\000"
 3572      5F6C6F63 
 3572      6B00
 3573              	.LASF109:
 3574 00df 69637573 		.ascii	"icustate_t\000"
 3574      74617465 
 3574      5F7400
 3575              	.LASF12:
 3576 00ea 6C6F6E67 		.ascii	"long long unsigned int\000"
 3576      206C6F6E 
 3576      6720756E 
 3576      7369676E 
 3576      65642069 
 3577              	.LASF88:
 3578 0101 65786974 		.ascii	"exitcode\000"
 3578      636F6465 
 3578      00
 3579              	.LASF78:
 3580 010a 6D61696E 		.ascii	"mainthread\000"
 3580      74687265 
 3580      616400
 3581              	.LASF170:
 3582 0115 6963755F 		.ascii	"icu_lld_init\000"
 3582      6C6C645F 
 3582      696E6974 
 3582      00
 3583              	.LASF68:
 3584 0122 76697274 		.ascii	"virtual_timers_list_t\000"
ARM GAS  /tmp/ccKPi6e1.s 			page 65


 3584      75616C5F 
 3584      74696D65 
 3584      72735F6C 
 3584      6973745F 
 3585              	.LASF159:
 3586 0138 49544D5F 		.ascii	"ITM_RxBuffer\000"
 3586      52784275 
 3586      66666572 
 3586      00
 3587              	.LASF122:
 3588 0145 42445452 		.ascii	"BDTR\000"
 3588      00
 3589              	.LASF135:
 3590 014a 66726571 		.ascii	"frequency\000"
 3590      75656E63 
 3590      7900
 3591              	.LASF30:
 3592 0154 705F7072 		.ascii	"p_prio\000"
 3592      696F00
 3593              	.LASF4:
 3594 015b 73686F72 		.ascii	"short unsigned int\000"
 3594      7420756E 
 3594      7369676E 
 3594      65642069 
 3594      6E7400
 3595              	.LASF119:
 3596 016e 43434D52 		.ascii	"CCMR1\000"
 3596      3100
 3597              	.LASF120:
 3598 0174 43434D52 		.ascii	"CCMR2\000"
 3598      3200
 3599              	.LASF124:
 3600 017a 43434D52 		.ascii	"CCMR3\000"
 3600      3300
 3601              	.LASF1:
 3602 0180 7369676E 		.ascii	"signed char\000"
 3602      65642063 
 3602      68617200 
 3603              	.LASF98:
 3604 018c 6D5F7175 		.ascii	"m_queue\000"
 3604      65756500 
 3605              	.LASF77:
 3606 0194 76746C69 		.ascii	"vtlist\000"
 3606      737400
 3607              	.LASF143:
 3608 019b 706F7274 		.ascii	"port_unlock\000"
 3608      5F756E6C 
 3608      6F636B00 
 3609              	.LASF21:
 3610 01a7 74736C69 		.ascii	"tslices_t\000"
 3610      6365735F 
 3610      7400
 3611              	.LASF111:
 3612 01b1 73746174 		.ascii	"state\000"
 3612      6500
 3613              	.LASF75:
 3614 01b7 63685F73 		.ascii	"ch_system\000"
ARM GAS  /tmp/ccKPi6e1.s 			page 66


 3614      79737465 
 3614      6D00
 3615              	.LASF7:
 3616 01c1 6C6F6E67 		.ascii	"long int\000"
 3616      20696E74 
 3616      00
 3617              	.LASF19:
 3618 01ca 74737461 		.ascii	"tstate_t\000"
 3618      74655F74 
 3618      00
 3619              	.LASF121:
 3620 01d3 43434552 		.ascii	"CCER\000"
 3620      00
 3621              	.LASF162:
 3622 01d8 6963755F 		.ascii	"icu_lld_start_capture\000"
 3622      6C6C645F 
 3622      73746172 
 3622      745F6361 
 3622      70747572 
 3623              	.LASF10:
 3624 01ee 6C6F6E67 		.ascii	"long long int\000"
 3624      206C6F6E 
 3624      6720696E 
 3624      7400
 3625              	.LASF151:
 3626 01fc 69637553 		.ascii	"icuStart\000"
 3626      74617274 
 3626      00
 3627              	.LASF32:
 3628 0205 705F6E65 		.ascii	"p_newer\000"
 3628      77657200 
 3629              	.LASF95:
 3630 020d 735F7175 		.ascii	"s_queue\000"
 3630      65756500 
 3631              	.LASF141:
 3632 0215 49435543 		.ascii	"ICUConfig\000"
 3632      6F6E6669 
 3632      6700
 3633              	.LASF57:
 3634 021f 725F6E65 		.ascii	"r_newer\000"
 3634      77657200 
 3635              	.LASF45:
 3636 0227 705F6D70 		.ascii	"p_mpool\000"
 3636      6F6F6C00 
 3637              	.LASF81:
 3638 022f 72656761 		.ascii	"regarm_t\000"
 3638      726D5F74 
 3638      00
 3639              	.LASF64:
 3640 0238 76745F70 		.ascii	"vt_prev\000"
 3640      72657600 
 3641              	.LASF147:
 3642 0240 6F73616C 		.ascii	"osalSysLock\000"
 3642      5379734C 
 3642      6F636B00 
 3643              	.LASF102:
 3644 024c 6D757465 		.ascii	"mutex_t\000"
ARM GAS  /tmp/ccKPi6e1.s 			page 67


 3644      785F7400 
 3645              	.LASF167:
 3646 0254 76616C75 		.ascii	"value\000"
 3646      6500
 3647              	.LASF79:
 3648 025a 69646C65 		.ascii	"idle_thread_wa\000"
 3648      5F746872 
 3648      6561645F 
 3648      776100
 3649              	.LASF25:
 3650 0269 636E745F 		.ascii	"cnt_t\000"
 3650      7400
 3651              	.LASF0:
 3652 026f 756E7369 		.ascii	"unsigned int\000"
 3652      676E6564 
 3652      20696E74 
 3652      00
 3653              	.LASF63:
 3654 027c 76745F6E 		.ascii	"vt_next\000"
 3654      65787400 
 3655              	.LASF91:
 3656 0284 77747365 		.ascii	"wtsemp\000"
 3656      6D7000
 3657              	.LASF40:
 3658 028b 705F6D73 		.ascii	"p_msgqueue\000"
 3658      67717565 
 3658      756500
 3659              	.LASF116:
 3660 0296 69637563 		.ascii	"icucallback_t\000"
 3660      616C6C62 
 3660      61636B5F 
 3660      7400
 3661              	.LASF48:
 3662 02a4 63685F74 		.ascii	"ch_thread\000"
 3662      68726561 
 3662      6400
 3663              	.LASF137:
 3664 02ae 70657269 		.ascii	"period_cb\000"
 3664      6F645F63 
 3664      6200
 3665              	.LASF96:
 3666 02b8 735F636E 		.ascii	"s_cnt\000"
 3666      7400
 3667              	.LASF138:
 3668 02be 6F766572 		.ascii	"overflow_cb\000"
 3668      666C6F77 
 3668      5F636200 
 3669              	.LASF23:
 3670 02ca 6D73675F 		.ascii	"msg_t\000"
 3670      7400
 3671              	.LASF74:
 3672 02d0 63685F73 		.ascii	"ch_system_t\000"
 3672      79737465 
 3672      6D5F7400 
 3673              	.LASF110:
 3674 02dc 49435544 		.ascii	"ICUDriver\000"
 3674      72697665 
ARM GAS  /tmp/ccKPi6e1.s 			page 68


 3674      7200
 3675              	.LASF126:
 3676 02e6 73746D33 		.ascii	"stm32_tim_t\000"
 3676      325F7469 
 3676      6D5F7400 
 3677              	.LASF76:
 3678 02f2 726C6973 		.ascii	"rlist\000"
 3678      7400
 3679              	.LASF115:
 3680 02f8 70636372 		.ascii	"pccrp\000"
 3680      7000
 3681              	.LASF53:
 3682 02fe 63685F72 		.ascii	"ch_ready_list\000"
 3682      65616479 
 3682      5F6C6973 
 3682      7400
 3683              	.LASF24:
 3684 030c 6576656E 		.ascii	"eventmask_t\000"
 3684      746D6173 
 3684      6B5F7400 
 3685              	.LASF6:
 3686 0318 5F5F696E 		.ascii	"__int32_t\000"
 3686      7433325F 
 3686      7400
 3687              	.LASF158:
 3688 0322 69637544 		.ascii	"icuDisableNotifications\000"
 3688      69736162 
 3688      6C654E6F 
 3688      74696669 
 3688      63617469 
 3689              	.LASF168:
 3690 033a 69637557 		.ascii	"icuWaitCapture\000"
 3690      61697443 
 3690      61707475 
 3690      726500
 3691              	.LASF106:
 3692 0349 4943555F 		.ascii	"ICU_READY\000"
 3692      52454144 
 3692      5900
 3693              	.LASF82:
 3694 0353 73746B61 		.ascii	"stkalign_t\000"
 3694      6C69676E 
 3694      5F7400
 3695              	.LASF163:
 3696 035e 6963755F 		.ascii	"icu_lld_stop_capture\000"
 3696      6C6C645F 
 3696      73746F70 
 3696      5F636170 
 3696      74757265 
 3697              	.LASF47:
 3698 0373 74687265 		.ascii	"threads_list_t\000"
 3698      6164735F 
 3698      6C697374 
 3698      5F7400
 3699              	.LASF39:
 3700 0382 705F7761 		.ascii	"p_waiting\000"
 3700      6974696E 
ARM GAS  /tmp/ccKPi6e1.s 			page 69


 3700      6700
 3701              	.LASF80:
 3702 038c 73697A65 		.ascii	"sizetype\000"
 3702      74797065 
 3702      00
 3703              	.LASF46:
 3704 0395 74687265 		.ascii	"thread_reference_t\000"
 3704      61645F72 
 3704      65666572 
 3704      656E6365 
 3704      5F7400
 3705              	.LASF69:
 3706 03a8 63685F76 		.ascii	"ch_virtual_timers_list\000"
 3706      69727475 
 3706      616C5F74 
 3706      696D6572 
 3706      735F6C69 
 3707              	.LASF136:
 3708 03bf 77696474 		.ascii	"width_cb\000"
 3708      685F6362 
 3708      00
 3709              	.LASF33:
 3710 03c8 705F6F6C 		.ascii	"p_older\000"
 3710      64657200 
 3711              	.LASF87:
 3712 03d0 7264796D 		.ascii	"rdymsg\000"
 3712      736700
 3713              	.LASF56:
 3714 03d7 725F6374 		.ascii	"r_ctx\000"
 3714      7800
 3715              	.LASF172:
 3716 03dd 6963755F 		.ascii	"icu_lld_disable_notifications\000"
 3716      6C6C645F 
 3716      64697361 
 3716      626C655F 
 3716      6E6F7469 
 3717              	.LASF105:
 3718 03fb 4943555F 		.ascii	"ICU_STOP\000"
 3718      53544F50 
 3718      00
 3719              	.LASF86:
 3720 0404 746D5F63 		.ascii	"tm_calibration_t\000"
 3720      616C6962 
 3720      72617469 
 3720      6F6E5F74 
 3720      00
 3721              	.LASF128:
 3722 0415 4943555F 		.ascii	"ICU_INPUT_ACTIVE_LOW\000"
 3722      494E5055 
 3722      545F4143 
 3722      54495645 
 3722      5F4C4F57 
 3723              	.LASF59:
 3724 042a 725F6375 		.ascii	"r_current\000"
 3724      7272656E 
 3724      7400
 3725              	.LASF58:
ARM GAS  /tmp/ccKPi6e1.s 			page 70


 3726 0434 725F6F6C 		.ascii	"r_older\000"
 3726      64657200 
 3727              	.LASF38:
 3728 043c 705F7072 		.ascii	"p_preempt\000"
 3728      65656D70 
 3728      7400
 3729              	.LASF11:
 3730 0446 5F5F7569 		.ascii	"__uint64_t\000"
 3730      6E743634 
 3730      5F7400
 3731              	.LASF157:
 3732 0451 69637545 		.ascii	"icuEnableNotifications\000"
 3732      6E61626C 
 3732      654E6F74 
 3732      69666963 
 3732      6174696F 
 3733              	.LASF20:
 3734 0468 74726566 		.ascii	"trefs_t\000"
 3734      735F7400 
 3735              	.LASF61:
 3736 0470 76697274 		.ascii	"virtual_timer_t\000"
 3736      75616C5F 
 3736      74696D65 
 3736      725F7400 
 3737              	.LASF29:
 3738 0480 705F7072 		.ascii	"p_prev\000"
 3738      657600
 3739              	.LASF22:
 3740 0487 74707269 		.ascii	"tprio_t\000"
 3740      6F5F7400 
 3741              	.LASF152:
 3742 048f 69637570 		.ascii	"icup\000"
 3742      00
 3743              	.LASF72:
 3744 0494 63685F73 		.ascii	"ch_system_debug\000"
 3744      79737465 
 3744      6D5F6465 
 3744      62756700 
 3745              	.LASF103:
 3746 04a4 5F426F6F 		.ascii	"_Bool\000"
 3746      6C00
 3747              	.LASF14:
 3748 04aa 696E7433 		.ascii	"int32_t\000"
 3748      325F7400 
 3749              	.LASF2:
 3750 04b2 756E7369 		.ascii	"unsigned char\000"
 3750      676E6564 
 3750      20636861 
 3750      7200
 3751              	.LASF129:
 3752 04c0 6963756D 		.ascii	"icumode_t\000"
 3752      6F64655F 
 3752      7400
 3753              	.LASF43:
 3754 04ca 705F6D74 		.ascii	"p_mtxlist\000"
 3754      786C6973 
 3754      7400
ARM GAS  /tmp/ccKPi6e1.s 			page 71


 3755              	.LASF3:
 3756 04d4 73686F72 		.ascii	"short int\000"
 3756      7420696E 
 3756      7400
 3757              	.LASF35:
 3758 04de 705F7374 		.ascii	"p_state\000"
 3758      61746500 
 3759              	.LASF153:
 3760 04e6 69637553 		.ascii	"icuStop\000"
 3760      746F7000 
 3761              	.LASF55:
 3762 04ee 725F7072 		.ascii	"r_prio\000"
 3762      696F00
 3763              	.LASF93:
 3764 04f5 65776D61 		.ascii	"ewmask\000"
 3764      736B00
 3765              	.LASF28:
 3766 04fc 705F6E65 		.ascii	"p_next\000"
 3766      787400
 3767              	.LASF36:
 3768 0503 705F666C 		.ascii	"p_flags\000"
 3768      61677300 
 3769              	.LASF154:
 3770 050b 5F5F6675 		.ascii	"__func__\000"
 3770      6E635F5F 
 3770      00
 3771              	.LASF144:
 3772 0514 63685379 		.ascii	"chSysLock\000"
 3772      734C6F63 
 3772      6B00
 3773              	.LASF148:
 3774 051e 6F73616C 		.ascii	"osalSysUnlock\000"
 3774      53797355 
 3774      6E6C6F63 
 3774      6B00
 3775              	.LASF133:
 3776 052c 69637563 		.ascii	"icuchannel_t\000"
 3776      68616E6E 
 3776      656C5F74 
 3776      00
 3777              	.LASF139:
 3778 0539 6368616E 		.ascii	"channel\000"
 3778      6E656C00 
 3779              	.LASF62:
 3780 0541 63685F76 		.ascii	"ch_virtual_timer\000"
 3780      69727475 
 3780      616C5F74 
 3780      696D6572 
 3780      00
 3781              	.LASF94:
 3782 0552 63685F73 		.ascii	"ch_semaphore\000"
 3782      656D6170 
 3782      686F7265 
 3782      00
 3783              	.LASF125:
 3784 055f 43435852 		.ascii	"CCXR\000"
 3784      00
ARM GAS  /tmp/ccKPi6e1.s 			page 72


 3785              	.LASF42:
 3786 0564 705F6570 		.ascii	"p_epending\000"
 3786      656E6469 
 3786      6E6700
 3787              	.LASF150:
 3788 056f 6963754F 		.ascii	"icuObjectInit\000"
 3788      626A6563 
 3788      74496E69 
 3788      7400
 3789              	.LASF92:
 3790 057d 77746D74 		.ascii	"wtmtxp\000"
 3790      787000
 3791              	.LASF54:
 3792 0584 725F7175 		.ascii	"r_queue\000"
 3792      65756500 
 3793              	.LASF65:
 3794 058c 76745F64 		.ascii	"vt_delta\000"
 3794      656C7461 
 3794      00
 3795              	.LASF49:
 3796 0595 63685F74 		.ascii	"ch_threads_list\000"
 3796      68726561 
 3796      64735F6C 
 3796      69737400 
 3797              	.LASF9:
 3798 05a5 6C6F6E67 		.ascii	"long unsigned int\000"
 3798      20756E73 
 3798      69676E65 
 3798      6420696E 
 3798      7400
 3799              	.LASF165:
 3800 05b7 474E5520 		.ascii	"GNU C 4.9.3 20150529 (prerelease) -mcpu=cortex-m3 -"
 3800      4320342E 
 3800      392E3320 
 3800      32303135 
 3800      30353239 
 3801 05ea 6D6E6F2D 		.ascii	"mno-thumb-interwork -mthumb -ggdb -O2 -std=c99 -fom"
 3801      7468756D 
 3801      622D696E 
 3801      74657277 
 3801      6F726B20 
 3802 061d 69742D66 		.ascii	"it-frame-pointer -falign-functions=16 -ffunction-se"
 3802      72616D65 
 3802      2D706F69 
 3802      6E746572 
 3802      202D6661 
 3803 0650 6374696F 		.ascii	"ctions -fdata-sections -fno-common\000"
 3803      6E73202D 
 3803      66646174 
 3803      612D7365 
 3803      6374696F 
 3804              	.LASF101:
 3805 0673 63686172 		.ascii	"char\000"
 3805      00
 3806              	.LASF134:
 3807 0678 6D6F6465 		.ascii	"mode\000"
 3807      00
ARM GAS  /tmp/ccKPi6e1.s 			page 73


 3808              	.LASF117:
 3809 067d 534D4352 		.ascii	"SMCR\000"
 3809      00
 3810              	.LASF112:
 3811 0682 636F6E66 		.ascii	"config\000"
 3811      696700
 3812              	.LASF123:
 3813 0689 444D4152 		.ascii	"DMAR\000"
 3813      00
 3814              	.LASF27:
 3815 068e 74687265 		.ascii	"thread_t\000"
 3815      61645F74 
 3815      00
 3816              	.LASF100:
 3817 0697 6D5F6E65 		.ascii	"m_next\000"
 3817      787400
 3818              	.LASF26:
 3819 069e 73797374 		.ascii	"systime_t\000"
 3819      696D655F 
 3819      7400
 3820              	.LASF44:
 3821 06a8 705F7265 		.ascii	"p_realprio\000"
 3821      616C7072 
 3821      696F00
 3822              	.LASF60:
 3823 06b3 76746675 		.ascii	"vtfunc_t\000"
 3823      6E635F74 
 3823      00
 3824              	.LASF8:
 3825 06bc 5F5F7569 		.ascii	"__uint32_t\000"
 3825      6E743332 
 3825      5F7400
 3826              	.LASF145:
 3827 06c7 5F5F7365 		.ascii	"__set_BASEPRI\000"
 3827      745F4241 
 3827      53455052 
 3827      4900
 3828              	.LASF73:
 3829 06d5 70616E69 		.ascii	"panic_msg\000"
 3829      635F6D73 
 3829      6700
 3830              	.LASF85:
 3831 06df 6F666673 		.ascii	"offset\000"
 3831      657400
 3832              	.LASF155:
 3833 06e6 69637553 		.ascii	"icuStartCapture\000"
 3833      74617274 
 3833      43617074 
 3833      75726500 
 3834              	.LASF161:
 3835 06f6 6963755F 		.ascii	"icu_lld_stop\000"
 3835      6C6C645F 
 3835      73746F70 
 3835      00
 3836              	.LASF83:
 3837 0703 636F6E74 		.ascii	"context\000"
 3837      65787400 
ARM GAS  /tmp/ccKPi6e1.s 			page 74


 3838              	.LASF130:
 3839 070b 69637566 		.ascii	"icufreq_t\000"
 3839      7265715F 
 3839      7400
 3840              	.LASF17:
 3841 0715 7274636E 		.ascii	"rtcnt_t\000"
 3841      745F7400 
 3842              	.LASF67:
 3843 071d 76745F70 		.ascii	"vt_par\000"
 3843      617200
 3844              	.LASF15:
 3845 0724 75696E74 		.ascii	"uint32_t\000"
 3845      33325F74 
 3845      00
 3846              	.LASF50:
 3847 072d 74687265 		.ascii	"threads_queue_t\000"
 3847      6164735F 
 3847      71756575 
 3847      655F7400 
 3848              	.LASF97:
 3849 073d 63685F6D 		.ascii	"ch_mutex\000"
 3849      75746578 
 3849      00
 3850              	.LASF37:
 3851 0746 705F7265 		.ascii	"p_refs\000"
 3851      667300
 3852              	.LASF171:
 3853 074d 6963755F 		.ascii	"icu_lld_wait_capture\000"
 3853      6C6C645F 
 3853      77616974 
 3853      5F636170 
 3853      74757265 
 3854              	.LASF104:
 3855 0762 4943555F 		.ascii	"ICU_UNINIT\000"
 3855      554E494E 
 3855      495400
 3856              	.LASF131:
 3857 076d 4943555F 		.ascii	"ICU_CHANNEL_1\000"
 3857      4348414E 
 3857      4E454C5F 
 3857      3100
 3858              	.LASF132:
 3859 077b 4943555F 		.ascii	"ICU_CHANNEL_2\000"
 3859      4348414E 
 3859      4E454C5F 
 3859      3200
 3860              	.LASF13:
 3861 0789 75696E74 		.ascii	"uint8_t\000"
 3861      385F7400 
 3862              	.LASF89:
 3863 0791 77746F62 		.ascii	"wtobjp\000"
 3863      6A7000
 3864              	.LASF34:
 3865 0798 705F6E61 		.ascii	"p_name\000"
 3865      6D6500
 3866              	.LASF70:
 3867 079f 76745F73 		.ascii	"vt_systime\000"
ARM GAS  /tmp/ccKPi6e1.s 			page 75


 3867      79737469 
 3867      6D6500
 3868              	.LASF156:
 3869 07aa 69637553 		.ascii	"icuStopCapture\000"
 3869      746F7043 
 3869      61707475 
 3869      726500
 3870              	.LASF18:
 3871 07b9 746D6F64 		.ascii	"tmode_t\000"
 3871      655F7400 
 3872              	.LASF160:
 3873 07c1 6963755F 		.ascii	"icu_lld_start\000"
 3873      6C6C645F 
 3873      73746172 
 3873      7400
 3874              	.LASF146:
 3875 07cf 63685379 		.ascii	"chSysUnlock\000"
 3875      73556E6C 
 3875      6F636B00 
 3876              	.LASF41:
 3877 07db 705F6D73 		.ascii	"p_msg\000"
 3877      6700
 3878              	.LASF113:
 3879 07e1 636C6F63 		.ascii	"clock\000"
 3879      6B00
 3880              	.LASF114:
 3881 07e7 77636372 		.ascii	"wccrp\000"
 3881      7000
 3882              	.LASF99:
 3883 07ed 6D5F6F77 		.ascii	"m_owner\000"
 3883      6E657200 
 3884              	.LASF169:
 3885 07f5 72657375 		.ascii	"result\000"
 3885      6C7400
 3886              	.LASF31:
 3887 07fc 705F6374 		.ascii	"p_ctx\000"
 3887      7800
 3888              	.LASF66:
 3889 0802 76745F66 		.ascii	"vt_func\000"
 3889      756E6300 
 3890              	.LASF140:
 3891 080a 64696572 		.ascii	"dier\000"
 3891      00
 3892              		.ident	"GCC: (15:4.9.3+svn227297-1) 4.9.3 20150529 (prerelease)"
ARM GAS  /tmp/ccKPi6e1.s 			page 76


DEFINED SYMBOLS
                            *ABS*:00000000 icu.c
     /tmp/ccKPi6e1.s:19     .text.icuInit:00000000 $t
     /tmp/ccKPi6e1.s:25     .text.icuInit:00000000 icuInit
     /tmp/ccKPi6e1.s:40     .text.icuObjectInit:00000000 $t
     /tmp/ccKPi6e1.s:46     .text.icuObjectInit:00000000 icuObjectInit
     /tmp/ccKPi6e1.s:67     .text.icuStart:00000000 $t
     /tmp/ccKPi6e1.s:73     .text.icuStart:00000000 icuStart
     /tmp/ccKPi6e1.s:146    .text.icuStop:00000000 $t
     /tmp/ccKPi6e1.s:152    .text.icuStop:00000000 icuStop
     /tmp/ccKPi6e1.s:222    .text.icuStartCapture:00000000 $t
     /tmp/ccKPi6e1.s:228    .text.icuStartCapture:00000000 icuStartCapture
     /tmp/ccKPi6e1.s:297    .text.icuWaitCapture:00000000 $t
     /tmp/ccKPi6e1.s:303    .text.icuWaitCapture:00000000 icuWaitCapture
     /tmp/ccKPi6e1.s:391    .text.icuStopCapture:00000000 $t
     /tmp/ccKPi6e1.s:397    .text.icuStopCapture:00000000 icuStopCapture
     /tmp/ccKPi6e1.s:466    .text.icuEnableNotifications:00000000 $t
     /tmp/ccKPi6e1.s:472    .text.icuEnableNotifications:00000000 icuEnableNotifications
     /tmp/ccKPi6e1.s:525    .text.icuDisableNotifications:00000000 $t
     /tmp/ccKPi6e1.s:531    .text.icuDisableNotifications:00000000 icuDisableNotifications
                     .debug_frame:00000010 $d

UNDEFINED SYMBOLS
icu_lld_init
icu_lld_start
icu_lld_stop
icu_lld_start_capture
icu_lld_wait_capture
icu_lld_stop_capture
icu_lld_enable_notifications
icu_lld_disable_notifications
