ARM GAS  /tmp/cc9Ao2VO.s 			page 1


   1              		.syntax unified
   2              		.cpu cortex-m3
   3              		.fpu softvfp
   4              		.eabi_attribute 20, 1
   5              		.eabi_attribute 21, 1
   6              		.eabi_attribute 23, 3
   7              		.eabi_attribute 24, 1
   8              		.eabi_attribute 25, 1
   9              		.eabi_attribute 26, 1
  10              		.eabi_attribute 30, 2
  11              		.eabi_attribute 34, 1
  12              		.eabi_attribute 18, 4
  13              		.thumb
  14              		.file	"icu_lld.c"
  15              		.text
  16              	.Ltext0:
  17              		.cfi_sections	.debug_frame
  18              		.section	.text.icu_lld_wait_edge.isra.0,"ax",%progbits
  19              		.align	2
  20              		.p2align 4,,15
  21              		.thumb
  22              		.thumb_func
  23              		.type	icu_lld_wait_edge.isra.0, %function
  24              	icu_lld_wait_edge.isra.0:
  25              	.LFB220:
  26              		.file 1 "/home/peter/ChibiOS_16.1.4/os/hal/ports/STM32/LLD/TIMv1/icu_lld.c"
  27              		.loc 1 105 0
  28              		.cfi_startproc
  29              		@ args = 0, pretend = 0, frame = 0
  30              		@ frame_needed = 0, uses_anonymous_args = 0
  31              		@ link register save eliminated.
  32              	.LVL0:
  33              	.LBB48:
  34              	.LBB49:
  35              	.LBB50:
  36              	.LBB51:
  37              	.LBB52:
  38              	.LBB53:
  39              		.file 2 "/home/peter/ChibiOS_16.1.4/os/ext/CMSIS/include/core_cmFunc.h"
  40              		.loc 2 548 0
  41 0000 0023     		movs	r3, #0
  42              	@ 548 "/home/peter/ChibiOS_16.1.4/os/ext/CMSIS/include/core_cmFunc.h" 1
  43 0002 83F31188 		MSR basepri, r3
  44              	@ 0 "" 2
  45              		.thumb
  46              	.LBE53:
  47              	.LBE52:
  48              	.LBE51:
  49              	.LBE50:
  50              	.LBE49:
  51              	.LBE48:
  52              		.loc 1 114 0
  53 0006 0368     		ldr	r3, [r0]
  54 0008 1B7D     		ldrb	r3, [r3, #20]	@ zero_extendqisi2
  55 000a 73B9     		cbnz	r3, .L2
  56 000c 0B68     		ldr	r3, [r1]
  57              	.L3:
ARM GAS  /tmp/cc9Ao2VO.s 			page 2


  58              		.loc 1 116 0
  59 000e 1869     		ldr	r0, [r3, #16]
  60              	.LVL1:
  61 0010 8207     		lsls	r2, r0, #30
  62 0012 FCD0     		beq	.L3
  63              	.L4:
  64              	.LVL2:
  65              	.LBB54:
  66              	.LBB55:
  67              	.LBB56:
  68              	.LBB57:
  69              	.LBB58:
  70              		.loc 2 548 0
  71 0014 2023     		movs	r3, #32
  72              	@ 548 "/home/peter/ChibiOS_16.1.4/os/ext/CMSIS/include/core_cmFunc.h" 1
  73 0016 83F31188 		MSR basepri, r3
  74              	@ 0 "" 2
  75              		.thumb
  76              	.LBE58:
  77              	.LBE57:
  78              	.LBE56:
  79              	.LBE55:
  80              	.LBE54:
  81              		.loc 1 134 0
  82 001a 0A68     		ldr	r2, [r1]
  83              		.loc 1 139 0
  84 001c 00F00100 		and	r0, r0, #1
  85              	.LVL3:
  86              		.loc 1 134 0
  87 0020 1369     		ldr	r3, [r2, #16]
  88 0022 23F00703 		bic	r3, r3, #7
  89 0026 1361     		str	r3, [r2, #16]
  90              		.loc 1 139 0
  91 0028 7047     		bx	lr
  92              	.LVL4:
  93              	.L2:
  94 002a 0B68     		ldr	r3, [r1]
  95              	.L5:
  96              		.loc 1 122 0
  97 002c 1869     		ldr	r0, [r3, #16]
  98              	.LVL5:
  99 002e 10F0050F 		tst	r0, #5
 100 0032 FBD0     		beq	.L5
 101 0034 EEE7     		b	.L4
 102              		.cfi_endproc
 103              	.LFE220:
 104              		.size	icu_lld_wait_edge.isra.0, .-icu_lld_wait_edge.isra.0
 105 0036 00BFAFF3 		.section	.text.icu_lld_init,"ax",%progbits
 105      0080AFF3 
 105      0080
 106              		.align	2
 107              		.p2align 4,,15
 108              		.global	icu_lld_init
 109              		.thumb
 110              		.thumb_func
 111              		.type	icu_lld_init, %function
 112              	icu_lld_init:
ARM GAS  /tmp/cc9Ao2VO.s 			page 3


 113              	.LFB211:
 114              		.loc 1 335 0
 115              		.cfi_startproc
 116              		@ args = 0, pretend = 0, frame = 0
 117              		@ frame_needed = 0, uses_anonymous_args = 0
 118 0000 38B5     		push	{r3, r4, r5, lr}
 119              		.cfi_def_cfa_offset 16
 120              		.cfi_offset 3, -16
 121              		.cfi_offset 4, -12
 122              		.cfi_offset 5, -8
 123              		.cfi_offset 14, -4
 124              		.loc 1 339 0
 125 0002 074D     		ldr	r5, .L13
 126              		.loc 1 345 0
 127 0004 074C     		ldr	r4, .L13+4
 128              		.loc 1 339 0
 129 0006 2846     		mov	r0, r5
 130 0008 FFF7FEFF 		bl	icuObjectInit
 131              	.LVL6:
 132              		.loc 1 340 0
 133 000c 064B     		ldr	r3, .L13+8
 134              		.loc 1 345 0
 135 000e 2046     		mov	r0, r4
 136              		.loc 1 340 0
 137 0010 EB60     		str	r3, [r5, #12]
 138              		.loc 1 345 0
 139 0012 FFF7FEFF 		bl	icuObjectInit
 140              	.LVL7:
 141              		.loc 1 346 0
 142 0016 4FF08043 		mov	r3, #1073741824
 143 001a E360     		str	r3, [r4, #12]
 144 001c 38BD     		pop	{r3, r4, r5, pc}
 145              	.L14:
 146 001e 00BF     		.align	2
 147              	.L13:
 148 0020 00000000 		.word	.LANCHOR0
 149 0024 00000000 		.word	.LANCHOR1
 150 0028 00000140 		.word	1073807360
 151              		.cfi_endproc
 152              	.LFE211:
 153              		.size	icu_lld_init, .-icu_lld_init
 154 002c AFF30080 		.section	.text.icu_lld_start,"ax",%progbits
 155              		.align	2
 156              		.p2align 4,,15
 157              		.global	icu_lld_start
 158              		.thumb
 159              		.thumb_func
 160              		.type	icu_lld_start, %function
 161              	icu_lld_start:
 162              	.LFB212:
 163              		.loc 1 387 0
 164              		.cfi_startproc
 165              		@ args = 0, pretend = 0, frame = 0
 166              		@ frame_needed = 0, uses_anonymous_args = 0
 167              	.LVL8:
 168 0000 F8B5     		push	{r3, r4, r5, r6, r7, lr}
 169              		.cfi_def_cfa_offset 24
ARM GAS  /tmp/cc9Ao2VO.s 			page 4


 170              		.cfi_offset 3, -24
 171              		.cfi_offset 4, -20
 172              		.cfi_offset 5, -16
 173              		.cfi_offset 6, -12
 174              		.cfi_offset 7, -8
 175              		.cfi_offset 14, -4
 176              		.loc 1 394 0
 177 0002 0378     		ldrb	r3, [r0]	@ zero_extendqisi2
 178              		.loc 1 387 0
 179 0004 0446     		mov	r4, r0
 180              		.loc 1 394 0
 181 0006 012B     		cmp	r3, #1
 182 0008 3BD0     		beq	.L27
 183              		.loc 1 505 0
 184 000a C368     		ldr	r3, [r0, #12]
 185 000c 0022     		movs	r2, #0
 186 000e 1A60     		str	r2, [r3]
 187              		.loc 1 506 0
 188 0010 5A63     		str	r2, [r3, #52]
 189              		.loc 1 507 0
 190 0012 9A63     		str	r2, [r3, #56]
 191              		.loc 1 508 0
 192 0014 5A62     		str	r2, [r3, #36]
 193              	.LVL9:
 194              	.L18:
 195              		.loc 1 513 0
 196 0016 6168     		ldr	r1, [r4, #4]
 197              		.loc 1 515 0
 198 0018 A268     		ldr	r2, [r4, #8]
 199 001a 4868     		ldr	r0, [r1, #4]
 200              		.loc 1 520 0
 201 001c 4FF6FF76 		movw	r6, #65535
 202              		.loc 1 515 0
 203 0020 B2FBF0F2 		udiv	r2, r2, r0
 204              		.loc 1 513 0
 205 0024 8869     		ldr	r0, [r1, #24]
 206              		.loc 1 522 0
 207 0026 0D7D     		ldrb	r5, [r1, #20]	@ zero_extendqisi2
 208              		.loc 1 515 0
 209 0028 013A     		subs	r2, r2, #1
 210              	.LVL10:
 211              		.loc 1 513 0
 212 002a 20F0FF00 		bic	r0, r0, #255
 213              		.loc 1 512 0
 214 002e 0027     		movs	r7, #0
 215 0030 1F61     		str	r7, [r3, #16]
 216              		.loc 1 513 0
 217 0032 D860     		str	r0, [r3, #12]
 218              		.loc 1 519 0
 219 0034 9A62     		str	r2, [r3, #40]
 220              		.loc 1 520 0
 221 0036 DE62     		str	r6, [r3, #44]
 222              		.loc 1 522 0
 223 0038 75B9     		cbnz	r5, .L20
 224              		.loc 1 526 0
 225 003a 40F20120 		movw	r0, #513
 226              		.loc 1 535 0
ARM GAS  /tmp/cc9Ao2VO.s 			page 5


 227 003e 0A78     		ldrb	r2, [r1]	@ zero_extendqisi2
 228              	.LVL11:
 229              		.loc 1 530 0
 230 0040 5421     		movs	r1, #84
 231              	.LVL12:
 232              		.loc 1 526 0
 233 0042 9861     		str	r0, [r3, #24]
 234              		.loc 1 530 0
 235 0044 9960     		str	r1, [r3, #8]
 236              		.loc 1 535 0
 237 0046 CAB1     		cbz	r2, .L28
 238              		.loc 1 539 0
 239 0048 1322     		movs	r2, #19
 240 004a 1A62     		str	r2, [r3, #32]
 241              	.LVL13:
 242              	.L22:
 243              		.loc 1 544 0
 244 004c 03F13802 		add	r2, r3, #56
 245              		.loc 1 545 0
 246 0050 3433     		adds	r3, r3, #52
 247              		.loc 1 544 0
 248 0052 2261     		str	r2, [r4, #16]
 249              		.loc 1 545 0
 250 0054 6361     		str	r3, [r4, #20]
 251 0056 F8BD     		pop	{r3, r4, r5, r6, r7, pc}
 252              	.LVL14:
 253              	.L20:
 254              		.loc 1 560 0
 255 0058 0A78     		ldrb	r2, [r1]	@ zero_extendqisi2
 256              	.LVL15:
 257              		.loc 1 551 0
 258 005a 4FF48170 		mov	r0, #258
 259              		.loc 1 555 0
 260 005e 6421     		movs	r1, #100
 261              	.LVL16:
 262              		.loc 1 551 0
 263 0060 9861     		str	r0, [r3, #24]
 264              		.loc 1 555 0
 265 0062 9960     		str	r1, [r3, #8]
 266              		.loc 1 560 0
 267 0064 3AB1     		cbz	r2, .L29
 268              		.loc 1 564 0
 269 0066 3122     		movs	r2, #49
 270 0068 1A62     		str	r2, [r3, #32]
 271              	.LVL17:
 272              	.L25:
 273              		.loc 1 569 0
 274 006a 03F13402 		add	r2, r3, #52
 275              		.loc 1 570 0
 276 006e 3833     		adds	r3, r3, #56
 277              		.loc 1 569 0
 278 0070 2261     		str	r2, [r4, #16]
 279              		.loc 1 570 0
 280 0072 6361     		str	r3, [r4, #20]
 281 0074 F8BD     		pop	{r3, r4, r5, r6, r7, pc}
 282              	.LVL18:
 283              	.L29:
ARM GAS  /tmp/cc9Ao2VO.s 			page 6


 284              		.loc 1 561 0
 285 0076 1322     		movs	r2, #19
 286 0078 1A62     		str	r2, [r3, #32]
 287              	.LVL19:
 288 007a F6E7     		b	.L25
 289              	.LVL20:
 290              	.L28:
 291              		.loc 1 536 0
 292 007c 3122     		movs	r2, #49
 293 007e 1A62     		str	r2, [r3, #32]
 294              	.LVL21:
 295 0080 E4E7     		b	.L22
 296              	.LVL22:
 297              	.L27:
 298              		.loc 1 397 0
 299 0082 194B     		ldr	r3, .L31
 300 0084 9842     		cmp	r0, r3
 301 0086 04D0     		beq	.L30
 302              		.loc 1 413 0
 303 0088 184B     		ldr	r3, .L31+4
 304 008a 9842     		cmp	r0, r3
 305 008c 18D0     		beq	.L19
 306 008e C368     		ldr	r3, [r0, #12]
 307 0090 C1E7     		b	.L18
 308              	.L30:
 309              		.loc 1 398 0
 310 0092 174B     		ldr	r3, .L31+8
 311              		.loc 1 399 0
 312 0094 0025     		movs	r5, #0
 313              		.loc 1 398 0
 314 0096 5A6C     		ldr	r2, [r3, #68]
 315              		.loc 1 401 0
 316 0098 1920     		movs	r0, #25
 317              	.LVL23:
 318              		.loc 1 398 0
 319 009a 42F00102 		orr	r2, r2, #1
 320 009e 5A64     		str	r2, [r3, #68]
 321              		.loc 1 399 0
 322 00a0 5A6A     		ldr	r2, [r3, #36]
 323              		.loc 1 401 0
 324 00a2 0721     		movs	r1, #7
 325              		.loc 1 399 0
 326 00a4 42F00102 		orr	r2, r2, #1
 327 00a8 5A62     		str	r2, [r3, #36]
 328 00aa 5D62     		str	r5, [r3, #36]
 329              		.loc 1 401 0
 330 00ac FFF7FEFF 		bl	nvicEnableVector
 331              	.LVL24:
 332              		.loc 1 402 0
 333 00b0 1B20     		movs	r0, #27
 334 00b2 0721     		movs	r1, #7
 335 00b4 FFF7FEFF 		bl	nvicEnableVector
 336              	.LVL25:
 337              		.loc 1 407 0
 338 00b8 0E4A     		ldr	r2, .L31+12
 339 00ba E368     		ldr	r3, [r4, #12]
 340 00bc A260     		str	r2, [r4, #8]
ARM GAS  /tmp/cc9Ao2VO.s 			page 7


 341 00be AAE7     		b	.L18
 342              	.LVL26:
 343              	.L19:
 344              		.loc 1 414 0
 345 00c0 0B4B     		ldr	r3, .L31+8
 346              		.loc 1 415 0
 347 00c2 0025     		movs	r5, #0
 348              		.loc 1 414 0
 349 00c4 1A6C     		ldr	r2, [r3, #64]
 350              		.loc 1 417 0
 351 00c6 1C20     		movs	r0, #28
 352              	.LVL27:
 353              		.loc 1 414 0
 354 00c8 42F00102 		orr	r2, r2, #1
 355 00cc 1A64     		str	r2, [r3, #64]
 356              		.loc 1 415 0
 357 00ce 1A6A     		ldr	r2, [r3, #32]
 358              		.loc 1 417 0
 359 00d0 0721     		movs	r1, #7
 360              		.loc 1 415 0
 361 00d2 42F00102 		orr	r2, r2, #1
 362 00d6 1A62     		str	r2, [r3, #32]
 363 00d8 1D62     		str	r5, [r3, #32]
 364              		.loc 1 417 0
 365 00da FFF7FEFF 		bl	nvicEnableVector
 366              	.LVL28:
 367              		.loc 1 422 0
 368 00de 064A     		ldr	r2, .L31+16
 369 00e0 E368     		ldr	r3, [r4, #12]
 370 00e2 A260     		str	r2, [r4, #8]
 371 00e4 97E7     		b	.L18
 372              	.L32:
 373 00e6 00BF     		.align	2
 374              	.L31:
 375 00e8 00000000 		.word	.LANCHOR0
 376 00ec 00000000 		.word	.LANCHOR1
 377 00f0 00380240 		.word	1073887232
 378 00f4 C0E1E400 		.word	15000000
 379 00f8 E0707200 		.word	7500000
 380              		.cfi_endproc
 381              	.LFE212:
 382              		.size	icu_lld_start, .-icu_lld_start
 383 00fc AFF30080 		.section	.text.icu_lld_stop,"ax",%progbits
 384              		.align	2
 385              		.p2align 4,,15
 386              		.global	icu_lld_stop
 387              		.thumb
 388              		.thumb_func
 389              		.type	icu_lld_stop, %function
 390              	icu_lld_stop:
 391              	.LFB213:
 392              		.loc 1 581 0
 393              		.cfi_startproc
 394              		@ args = 0, pretend = 0, frame = 0
 395              		@ frame_needed = 0, uses_anonymous_args = 0
 396              	.LVL29:
 397 0000 08B5     		push	{r3, lr}
ARM GAS  /tmp/cc9Ao2VO.s 			page 8


 398              		.cfi_def_cfa_offset 8
 399              		.cfi_offset 3, -8
 400              		.cfi_offset 14, -4
 401              		.loc 1 583 0
 402 0002 0378     		ldrb	r3, [r0]	@ zero_extendqisi2
 403 0004 022B     		cmp	r3, #2
 404 0006 00D0     		beq	.L39
 405              	.LVL30:
 406              	.L33:
 407 0008 08BD     		pop	{r3, pc}
 408              	.LVL31:
 409              	.L39:
 410              		.loc 1 590 0
 411 000a 1049     		ldr	r1, .L41
 412              		.loc 1 585 0
 413 000c C368     		ldr	r3, [r0, #12]
 414 000e 0022     		movs	r2, #0
 415              		.loc 1 590 0
 416 0010 8842     		cmp	r0, r1
 417              		.loc 1 585 0
 418 0012 1A60     		str	r2, [r3]
 419              		.loc 1 586 0
 420 0014 DA60     		str	r2, [r3, #12]
 421              		.loc 1 587 0
 422 0016 1A61     		str	r2, [r3, #16]
 423              		.loc 1 590 0
 424 0018 0BD0     		beq	.L40
 425              		.loc 1 600 0
 426 001a 0D4B     		ldr	r3, .L41+4
 427 001c 9842     		cmp	r0, r3
 428 001e F3D1     		bne	.L33
 429              		.loc 1 602 0
 430 0020 1C20     		movs	r0, #28
 431              	.LVL32:
 432 0022 FFF7FEFF 		bl	nvicDisableVector
 433              	.LVL33:
 434              		.loc 1 604 0
 435 0026 0B4A     		ldr	r2, .L41+8
 436 0028 136C     		ldr	r3, [r2, #64]
 437 002a 23F00103 		bic	r3, r3, #1
 438 002e 1364     		str	r3, [r2, #64]
 439 0030 EAE7     		b	.L33
 440              	.LVL34:
 441              	.L40:
 442              		.loc 1 592 0
 443 0032 1920     		movs	r0, #25
 444              	.LVL35:
 445 0034 FFF7FEFF 		bl	nvicDisableVector
 446              	.LVL36:
 447              		.loc 1 593 0
 448 0038 1B20     		movs	r0, #27
 449 003a FFF7FEFF 		bl	nvicDisableVector
 450              	.LVL37:
 451              		.loc 1 595 0
 452 003e 054A     		ldr	r2, .L41+8
 453 0040 536C     		ldr	r3, [r2, #68]
 454 0042 23F00103 		bic	r3, r3, #1
ARM GAS  /tmp/cc9Ao2VO.s 			page 9


 455 0046 5364     		str	r3, [r2, #68]
 456 0048 08BD     		pop	{r3, pc}
 457              	.L42:
 458 004a 00BF     		.align	2
 459              	.L41:
 460 004c 00000000 		.word	.LANCHOR0
 461 0050 00000000 		.word	.LANCHOR1
 462 0054 00380240 		.word	1073887232
 463              		.cfi_endproc
 464              	.LFE213:
 465              		.size	icu_lld_stop, .-icu_lld_stop
 466 0058 AFF30080 		.section	.text.icu_lld_start_capture,"ax",%progbits
 466      AFF30080 
 467              		.align	2
 468              		.p2align 4,,15
 469              		.global	icu_lld_start_capture
 470              		.thumb
 471              		.thumb_func
 472              		.type	icu_lld_start_capture, %function
 473              	icu_lld_start_capture:
 474              	.LFB214:
 475              		.loc 1 663 0
 476              		.cfi_startproc
 477              		@ args = 0, pretend = 0, frame = 0
 478              		@ frame_needed = 0, uses_anonymous_args = 0
 479              		@ link register save eliminated.
 480              	.LVL38:
 481              		.loc 1 666 0
 482 0000 C368     		ldr	r3, [r0, #12]
 483              		.loc 1 670 0
 484 0002 0521     		movs	r1, #5
 485              		.loc 1 666 0
 486 0004 5A69     		ldr	r2, [r3, #20]
 487              		.loc 1 667 0
 488 0006 0020     		movs	r0, #0
 489              	.LVL39:
 490              		.loc 1 666 0
 491 0008 42F00102 		orr	r2, r2, #1
 492 000c 5A61     		str	r2, [r3, #20]
 493              		.loc 1 667 0
 494 000e 1861     		str	r0, [r3, #16]
 495              		.loc 1 670 0
 496 0010 1960     		str	r1, [r3]
 497 0012 7047     		bx	lr
 498              		.cfi_endproc
 499              	.LFE214:
 500              		.size	icu_lld_start_capture, .-icu_lld_start_capture
 501 0014 AFF30080 		.section	.text.icu_lld_wait_capture,"ax",%progbits
 501      AFF30080 
 501      AFF30080 
 502              		.align	2
 503              		.p2align 4,,15
 504              		.global	icu_lld_wait_capture
 505              		.thumb
 506              		.thumb_func
 507              		.type	icu_lld_wait_capture, %function
 508              	icu_lld_wait_capture:
ARM GAS  /tmp/cc9Ao2VO.s 			page 10


 509              	.LFB215:
 510              		.loc 1 685 0
 511              		.cfi_startproc
 512              		@ args = 0, pretend = 0, frame = 0
 513              		@ frame_needed = 0, uses_anonymous_args = 0
 514              	.LVL40:
 515 0000 38B5     		push	{r3, r4, r5, lr}
 516              		.cfi_def_cfa_offset 16
 517              		.cfi_offset 3, -16
 518              		.cfi_offset 4, -12
 519              		.cfi_offset 5, -8
 520              		.cfi_offset 14, -4
 521              		.loc 1 689 0
 522 0002 0378     		ldrb	r3, [r0]	@ zero_extendqisi2
 523 0004 051D     		adds	r5, r0, #4
 524 0006 032B     		cmp	r3, #3
 525 0008 00F10C04 		add	r4, r0, #12
 526 000c 05D0     		beq	.L45
 527              	.LVL41:
 528              	.L46:
 529              		.loc 1 694 0
 530 000e 2846     		mov	r0, r5
 531 0010 2146     		mov	r1, r4
 532              		.loc 1 695 0
 533 0012 BDE83840 		pop	{r3, r4, r5, lr}
 534              		.cfi_remember_state
 535              		.cfi_restore 14
 536              		.cfi_restore 5
 537              		.cfi_restore 4
 538              		.cfi_restore 3
 539              		.cfi_def_cfa_offset 0
 540              	.LVL42:
 541              		.loc 1 694 0
 542 0016 FFF7FEBF 		b	icu_lld_wait_edge.isra.0
 543              	.LVL43:
 544              	.L45:
 545              		.cfi_restore_state
 546              		.loc 1 690 0
 547 001a 2846     		mov	r0, r5
 548              	.LVL44:
 549 001c 2146     		mov	r1, r4
 550 001e FFF7FEFF 		bl	icu_lld_wait_edge.isra.0
 551              	.LVL45:
 552 0022 0028     		cmp	r0, #0
 553 0024 F3D0     		beq	.L46
 554              		.loc 1 695 0
 555 0026 38BD     		pop	{r3, r4, r5, pc}
 556              		.cfi_endproc
 557              	.LFE215:
 558              		.size	icu_lld_wait_capture, .-icu_lld_wait_capture
 559 0028 AFF30080 		.section	.text.icu_lld_stop_capture,"ax",%progbits
 559      AFF30080 
 560              		.align	2
 561              		.p2align 4,,15
 562              		.global	icu_lld_stop_capture
 563              		.thumb
 564              		.thumb_func
ARM GAS  /tmp/cc9Ao2VO.s 			page 11


 565              		.type	icu_lld_stop_capture, %function
 566              	icu_lld_stop_capture:
 567              	.LFB216:
 568              		.loc 1 704 0
 569              		.cfi_startproc
 570              		@ args = 0, pretend = 0, frame = 0
 571              		@ frame_needed = 0, uses_anonymous_args = 0
 572              		@ link register save eliminated.
 573              	.LVL46:
 574              		.loc 1 707 0
 575 0000 C368     		ldr	r3, [r0, #12]
 576 0002 0022     		movs	r2, #0
 577 0004 1A60     		str	r2, [r3]
 578              		.loc 1 710 0
 579 0006 DA68     		ldr	r2, [r3, #12]
 580 0008 22F0FF02 		bic	r2, r2, #255
 581 000c DA60     		str	r2, [r3, #12]
 582 000e 7047     		bx	lr
 583              		.cfi_endproc
 584              	.LFE216:
 585              		.size	icu_lld_stop_capture, .-icu_lld_stop_capture
 586              		.section	.text.icu_lld_enable_notifications,"ax",%progbits
 587              		.align	2
 588              		.p2align 4,,15
 589              		.global	icu_lld_enable_notifications
 590              		.thumb
 591              		.thumb_func
 592              		.type	icu_lld_enable_notifications, %function
 593              	icu_lld_enable_notifications:
 594              	.LFB217:
 595              		.loc 1 722 0
 596              		.cfi_startproc
 597              		@ args = 0, pretend = 0, frame = 0
 598              		@ frame_needed = 0, uses_anonymous_args = 0
 599              		@ link register save eliminated.
 600              	.LVL47:
 601              		.loc 1 723 0
 602 0000 C268     		ldr	r2, [r0, #12]
 603              		.loc 1 722 0
 604 0002 10B4     		push	{r4}
 605              		.cfi_def_cfa_offset 4
 606              		.cfi_offset 4, -4
 607              		.loc 1 723 0
 608 0004 D368     		ldr	r3, [r2, #12]
 609              	.LVL48:
 610              		.loc 1 728 0
 611 0006 13F0FF04 		ands	r4, r3, #255
 612 000a 0CD1     		bne	.L52
 613              		.loc 1 732 0
 614 000c 4168     		ldr	r1, [r0, #4]
 615              		.loc 1 730 0
 616 000e 1461     		str	r4, [r2, #16]
 617              		.loc 1 732 0
 618 0010 087D     		ldrb	r0, [r1, #20]	@ zero_extendqisi2
 619              	.LVL49:
 620 0012 58B1     		cbz	r0, .L63
 621              	.LVL50:
ARM GAS  /tmp/cc9Ao2VO.s 			page 12


 622              		.loc 1 745 0
 623 0014 8868     		ldr	r0, [r1, #8]
 624 0016 78B1     		cbz	r0, .L64
 625              	.LVL51:
 626              	.L57:
 627              		.loc 1 746 0
 628 0018 43F00603 		orr	r3, r3, #6
 629              	.LVL52:
 630              	.L56:
 631              		.loc 1 751 0
 632 001c 0969     		ldr	r1, [r1, #16]
 633 001e 09B1     		cbz	r1, .L58
 634              		.loc 1 752 0
 635 0020 43F00103 		orr	r3, r3, #1
 636              	.LVL53:
 637              	.L58:
 638              		.loc 1 755 0
 639 0024 D360     		str	r3, [r2, #12]
 640              	.L52:
 641              		.loc 1 757 0
 642 0026 5DF8044B 		ldr	r4, [sp], #4
 643              		.cfi_remember_state
 644              		.cfi_restore 4
 645              		.cfi_def_cfa_offset 0
 646 002a 7047     		bx	lr
 647              	.L63:
 648              		.cfi_restore_state
 649              	.LVL54:
 650              		.loc 1 737 0
 651 002c 8868     		ldr	r0, [r1, #8]
 652 002e 0028     		cmp	r0, #0
 653 0030 F2D1     		bne	.L57
 654              		.loc 1 734 0
 655 0032 43F00203 		orr	r3, r3, #2
 656              	.LVL55:
 657 0036 F1E7     		b	.L56
 658              	.LVL56:
 659              	.L64:
 660              		.loc 1 742 0
 661 0038 43F00403 		orr	r3, r3, #4
 662              	.LVL57:
 663 003c EEE7     		b	.L56
 664              		.cfi_endproc
 665              	.LFE217:
 666              		.size	icu_lld_enable_notifications, .-icu_lld_enable_notifications
 667 003e 00BF     		.section	.text.icu_lld_disable_notifications,"ax",%progbits
 668              		.align	2
 669              		.p2align 4,,15
 670              		.global	icu_lld_disable_notifications
 671              		.thumb
 672              		.thumb_func
 673              		.type	icu_lld_disable_notifications, %function
 674              	icu_lld_disable_notifications:
 675              	.LFB218:
 676              		.loc 1 768 0
 677              		.cfi_startproc
 678              		@ args = 0, pretend = 0, frame = 0
ARM GAS  /tmp/cc9Ao2VO.s 			page 13


 679              		@ frame_needed = 0, uses_anonymous_args = 0
 680              		@ link register save eliminated.
 681              	.LVL58:
 682              		.loc 1 771 0
 683 0000 C268     		ldr	r2, [r0, #12]
 684 0002 D368     		ldr	r3, [r2, #12]
 685 0004 23F0FF03 		bic	r3, r3, #255
 686 0008 D360     		str	r3, [r2, #12]
 687 000a 7047     		bx	lr
 688              		.cfi_endproc
 689              	.LFE218:
 690              		.size	icu_lld_disable_notifications, .-icu_lld_disable_notifications
 691 000c AFF30080 		.section	.text.icu_lld_serve_interrupt,"ax",%progbits
 692              		.align	2
 693              		.p2align 4,,15
 694              		.global	icu_lld_serve_interrupt
 695              		.thumb
 696              		.thumb_func
 697              		.type	icu_lld_serve_interrupt, %function
 698              	icu_lld_serve_interrupt:
 699              	.LFB219:
 700              		.loc 1 781 0
 701              		.cfi_startproc
 702              		@ args = 0, pretend = 0, frame = 0
 703              		@ frame_needed = 0, uses_anonymous_args = 0
 704              	.LVL59:
 705              		.loc 1 784 0
 706 0000 C368     		ldr	r3, [r0, #12]
 707              		.loc 1 781 0
 708 0002 70B5     		push	{r4, r5, r6, lr}
 709              		.cfi_def_cfa_offset 16
 710              		.cfi_offset 4, -16
 711              		.cfi_offset 5, -12
 712              		.cfi_offset 6, -8
 713              		.cfi_offset 14, -4
 714              		.loc 1 784 0
 715 0004 1A69     		ldr	r2, [r3, #16]
 716              	.LVL60:
 717              		.loc 1 785 0
 718 0006 DC68     		ldr	r4, [r3, #12]
 719              		.loc 1 787 0
 720 0008 4168     		ldr	r1, [r0, #4]
 721 000a 1440     		ands	r4, r4, r2
 722              	.LVL61:
 723              		.loc 1 785 0
 724 000c E2B2     		uxtb	r2, r4
 725              		.loc 1 786 0
 726 000e D243     		mvns	r2, r2
 727              		.loc 1 787 0
 728 0010 0D7D     		ldrb	r5, [r1, #20]	@ zero_extendqisi2
 729              		.loc 1 781 0
 730 0012 0646     		mov	r6, r0
 731              		.loc 1 786 0
 732 0014 1A61     		str	r2, [r3, #16]
 733              		.loc 1 787 0
 734 0016 E5B9     		cbnz	r5, .L67
 735              		.loc 1 788 0
ARM GAS  /tmp/cc9Ao2VO.s 			page 14


 736 0018 6507     		lsls	r5, r4, #29
 737 001a 0AD5     		bpl	.L68
 738              		.loc 1 789 0
 739 001c 0378     		ldrb	r3, [r0]	@ zero_extendqisi2
 740 001e 042B     		cmp	r3, #4
 741 0020 04D0     		beq	.L108
 742              		.loc 1 790 0
 743 0022 A107     		lsls	r1, r4, #30
 744 0024 0AD4     		bmi	.L74
 745              	.LVL62:
 746              	.L72:
 747              		.loc 1 799 0
 748 0026 E407     		lsls	r4, r4, #31
 749              	.LVL63:
 750 0028 0CD4     		bmi	.L109
 751              	.L66:
 752 002a 70BD     		pop	{r4, r5, r6, pc}
 753              	.LVL64:
 754              	.L108:
 755              		.loc 1 789 0 discriminator 1
 756 002c 8B68     		ldr	r3, [r1, #8]
 757 002e 3BB3     		cbz	r3, .L70
 758              		.loc 1 789 0 is_stmt 0 discriminator 2
 759 0030 9847     		blx	r3
 760              	.LVL65:
 761              	.L68:
 762              		.loc 1 790 0 is_stmt 1
 763 0032 A207     		lsls	r2, r4, #30
 764 0034 F7D5     		bpl	.L72
 765              		.loc 1 791 0
 766 0036 3378     		ldrb	r3, [r6]	@ zero_extendqisi2
 767 0038 042B     		cmp	r3, #4
 768 003a 1AD0     		beq	.L110
 769              	.L74:
 770              		.loc 1 791 0 is_stmt 0 discriminator 5
 771 003c 0423     		movs	r3, #4
 772              		.loc 1 799 0 is_stmt 1 discriminator 5
 773 003e E407     		lsls	r4, r4, #31
 774              	.LVL66:
 775              		.loc 1 791 0 discriminator 5
 776 0040 3370     		strb	r3, [r6]
 777              		.loc 1 799 0 discriminator 5
 778 0042 F2D5     		bpl	.L66
 779              	.L109:
 780              		.loc 1 800 0
 781 0044 7368     		ldr	r3, [r6, #4]
 782 0046 3046     		mov	r0, r6
 783 0048 1B69     		ldr	r3, [r3, #16]
 784 004a 9847     		blx	r3
 785              	.LVL67:
 786 004c 0323     		movs	r3, #3
 787 004e 3370     		strb	r3, [r6]
 788 0050 70BD     		pop	{r4, r5, r6, pc}
 789              	.LVL68:
 790              	.L67:
 791              		.loc 1 794 0
 792 0052 A307     		lsls	r3, r4, #30
ARM GAS  /tmp/cc9Ao2VO.s 			page 15


 793 0054 08D5     		bpl	.L76
 794              		.loc 1 795 0
 795 0056 0378     		ldrb	r3, [r0]	@ zero_extendqisi2
 796 0058 042B     		cmp	r3, #4
 797 005a 02D0     		beq	.L111
 798              		.loc 1 796 0
 799 005c 6307     		lsls	r3, r4, #29
 800 005e EDD4     		bmi	.L74
 801 0060 E1E7     		b	.L72
 802              	.L111:
 803              		.loc 1 795 0 discriminator 1
 804 0062 8B68     		ldr	r3, [r1, #8]
 805 0064 7BB1     		cbz	r3, .L78
 806              		.loc 1 795 0 is_stmt 0 discriminator 2
 807 0066 9847     		blx	r3
 808              	.LVL69:
 809              	.L76:
 810              		.loc 1 796 0 is_stmt 1
 811 0068 6507     		lsls	r5, r4, #29
 812 006a DCD5     		bpl	.L72
 813              		.loc 1 791 0
 814 006c 3378     		ldrb	r3, [r6]	@ zero_extendqisi2
 815 006e 042B     		cmp	r3, #4
 816 0070 E4D1     		bne	.L74
 817              	.L110:
 818 0072 7168     		ldr	r1, [r6, #4]
 819              	.L81:
 820              		.loc 1 791 0 is_stmt 0 discriminator 1
 821 0074 CB68     		ldr	r3, [r1, #12]
 822 0076 002B     		cmp	r3, #0
 823 0078 E0D0     		beq	.L74
 824              		.loc 1 791 0 discriminator 3
 825 007a 3046     		mov	r0, r6
 826 007c 9847     		blx	r3
 827              	.LVL70:
 828 007e DDE7     		b	.L74
 829              	.LVL71:
 830              	.L70:
 831              		.loc 1 790 0 is_stmt 1
 832 0080 A007     		lsls	r0, r4, #30
 833              	.LVL72:
 834 0082 F7D4     		bmi	.L81
 835 0084 CFE7     		b	.L72
 836              	.LVL73:
 837              	.L78:
 838              		.loc 1 796 0
 839 0086 6207     		lsls	r2, r4, #29
 840 0088 F4D4     		bmi	.L81
 841 008a CCE7     		b	.L72
 842              		.cfi_endproc
 843              	.LFE219:
 844              		.size	icu_lld_serve_interrupt, .-icu_lld_serve_interrupt
 845 008c AFF30080 		.section	.text.VectorA4,"ax",%progbits
 846              		.align	2
 847              		.p2align 4,,15
 848              		.global	VectorA4
 849              		.thumb
ARM GAS  /tmp/cc9Ao2VO.s 			page 16


 850              		.thumb_func
 851              		.type	VectorA4, %function
 852              	VectorA4:
 853              	.LFB208:
 854              		.loc 1 155 0
 855              		.cfi_startproc
 856              		@ args = 0, pretend = 0, frame = 0
 857              		@ frame_needed = 0, uses_anonymous_args = 0
 858 0000 08B5     		push	{r3, lr}
 859              		.cfi_def_cfa_offset 8
 860              		.cfi_offset 3, -8
 861              		.cfi_offset 14, -4
 862              		.loc 1 159 0
 863 0002 0348     		ldr	r0, .L114
 864 0004 FFF7FEFF 		bl	icu_lld_serve_interrupt
 865              	.LVL74:
 866              		.loc 1 162 0
 867 0008 BDE80840 		pop	{r3, lr}
 868              		.cfi_restore 14
 869              		.cfi_restore 3
 870              		.cfi_def_cfa_offset 0
 871              		.loc 1 161 0
 872 000c FFF7FEBF 		b	_port_irq_epilogue
 873              	.LVL75:
 874              	.L115:
 875              		.align	2
 876              	.L114:
 877 0010 00000000 		.word	.LANCHOR0
 878              		.cfi_endproc
 879              	.LFE208:
 880              		.size	VectorA4, .-VectorA4
 881 0014 AFF30080 		.section	.text.VectorAC,"ax",%progbits
 881      AFF30080 
 881      AFF30080 
 882              		.align	2
 883              		.p2align 4,,15
 884              		.global	VectorAC
 885              		.thumb
 886              		.thumb_func
 887              		.type	VectorAC, %function
 888              	VectorAC:
 889              	.LFB209:
 890              		.loc 1 172 0
 891              		.cfi_startproc
 892              		@ args = 0, pretend = 0, frame = 0
 893              		@ frame_needed = 0, uses_anonymous_args = 0
 894 0000 08B5     		push	{r3, lr}
 895              		.cfi_def_cfa_offset 8
 896              		.cfi_offset 3, -8
 897              		.cfi_offset 14, -4
 898              		.loc 1 176 0
 899 0002 0348     		ldr	r0, .L118
 900 0004 FFF7FEFF 		bl	icu_lld_serve_interrupt
 901              	.LVL76:
 902              		.loc 1 179 0
 903 0008 BDE80840 		pop	{r3, lr}
 904              		.cfi_restore 14
ARM GAS  /tmp/cc9Ao2VO.s 			page 17


 905              		.cfi_restore 3
 906              		.cfi_def_cfa_offset 0
 907              		.loc 1 178 0
 908 000c FFF7FEBF 		b	_port_irq_epilogue
 909              	.LVL77:
 910              	.L119:
 911              		.align	2
 912              	.L118:
 913 0010 00000000 		.word	.LANCHOR0
 914              		.cfi_endproc
 915              	.LFE209:
 916              		.size	VectorAC, .-VectorAC
 917 0014 AFF30080 		.section	.text.VectorB0,"ax",%progbits
 917      AFF30080 
 917      AFF30080 
 918              		.align	2
 919              		.p2align 4,,15
 920              		.global	VectorB0
 921              		.thumb
 922              		.thumb_func
 923              		.type	VectorB0, %function
 924              	VectorB0:
 925              	.LFB210:
 926              		.loc 1 193 0
 927              		.cfi_startproc
 928              		@ args = 0, pretend = 0, frame = 0
 929              		@ frame_needed = 0, uses_anonymous_args = 0
 930 0000 08B5     		push	{r3, lr}
 931              		.cfi_def_cfa_offset 8
 932              		.cfi_offset 3, -8
 933              		.cfi_offset 14, -4
 934              		.loc 1 197 0
 935 0002 0348     		ldr	r0, .L122
 936 0004 FFF7FEFF 		bl	icu_lld_serve_interrupt
 937              	.LVL78:
 938              		.loc 1 200 0
 939 0008 BDE80840 		pop	{r3, lr}
 940              		.cfi_restore 14
 941              		.cfi_restore 3
 942              		.cfi_def_cfa_offset 0
 943              		.loc 1 199 0
 944 000c FFF7FEBF 		b	_port_irq_epilogue
 945              	.LVL79:
 946              	.L123:
 947              		.align	2
 948              	.L122:
 949 0010 00000000 		.word	.LANCHOR1
 950              		.cfi_endproc
 951              	.LFE210:
 952              		.size	VectorB0, .-VectorB0
 953              		.global	ICUD2
 954              		.global	ICUD1
 955 0014 AFF30080 		.section	.bss.ICUD2,"aw",%nobits
 955      AFF30080 
 955      AFF30080 
 956              		.align	2
 957              		.set	.LANCHOR1,. + 0
ARM GAS  /tmp/cc9Ao2VO.s 			page 18


 958              		.type	ICUD2, %object
 959              		.size	ICUD2, 24
 960              	ICUD2:
 961 0000 00000000 		.space	24
 961      00000000 
 961      00000000 
 961      00000000 
 961      00000000 
 962              		.section	.bss.ICUD1,"aw",%nobits
 963              		.align	2
 964              		.set	.LANCHOR0,. + 0
 965              		.type	ICUD1, %object
 966              		.size	ICUD1, 24
 967              	ICUD1:
 968 0000 00000000 		.space	24
 968      00000000 
 968      00000000 
 968      00000000 
 968      00000000 
 969              		.text
 970              	.Letext0:
 971              		.file 3 "/usr/lib/gcc/arm-none-eabi/4.9.3/include/stddef.h"
 972              		.file 4 "/usr/include/newlib/machine/_default_types.h"
 973              		.file 5 "/usr/include/newlib/stdint.h"
 974              		.file 6 "/home/peter/ChibiOS_16.1.4/os/rt/ports/ARMCMx/compilers/GCC/chtypes.h"
 975              		.file 7 "/home/peter/ChibiOS_16.1.4/os/rt/include/chsystypes.h"
 976              		.file 8 "/home/peter/ChibiOS_16.1.4/os/rt/include/chschd.h"
 977              		.file 9 "/home/peter/ChibiOS_16.1.4/os/ext/CMSIS/ST/STM32F2xx/stm32f205xx.h"
 978              		.file 10 "/home/peter/ChibiOS_16.1.4/os/rt/ports/ARMCMx/chcore.h"
 979              		.file 11 "/home/peter/ChibiOS_16.1.4/os/rt/ports/ARMCMx/chcore_v7m.h"
 980              		.file 12 "/home/peter/ChibiOS_16.1.4/os/rt/include/chtm.h"
 981              		.file 13 "/home/peter/ChibiOS_16.1.4/os/rt/include/chsem.h"
 982              		.file 14 "/home/peter/ChibiOS_16.1.4/os/rt/include/chmtx.h"
 983              		.file 15 "/home/peter/ChibiOS_16.1.4/os/hal/include/icu.h"
 984              		.file 16 "/home/peter/ChibiOS_16.1.4/os/hal/ports/STM32/LLD/TIMv1/icu_lld.h"
 985              		.file 17 "/home/peter/ChibiOS_16.1.4/os/hal/ports/STM32/LLD/TIMv1/stm32_tim.h"
 986              		.file 18 "/home/peter/ChibiOS_16.1.4/os/rt/include/chsys.h"
 987              		.file 19 "/home/peter/ChibiOS_16.1.4/os/hal/osal/rt/osal.h"
 988              		.file 20 "/home/peter/ChibiOS_16.1.4/os/ext/CMSIS/include/core_cm3.h"
 989              		.file 21 "/home/peter/ChibiOS_16.1.4/os/hal/ports/common/ARMCMx/nvic.h"