ARM GAS  /tmp/cc9Ao2VO.s 			page 1


   1              		.syntax unified
   2              		.cpu cortex-m3
   3              		.fpu softvfp
   4              		.eabi_attribute 20, 1
   5              		.eabi_attribute 21, 1
   6              		.eabi_attribute 23, 3
   7              		.eabi_attribute 24, 1
   8              		.eabi_attribute 25, 1
   9              		.eabi_attribute 26, 1
  10              		.eabi_attribute 30, 2
  11              		.eabi_attribute 34, 1
  12              		.eabi_attribute 18, 4
  13              		.thumb
  14              		.file	"icu_lld.c"
  15              		.text
  16              	.Ltext0:
  17              		.cfi_sections	.debug_frame
  18              		.section	.text.icu_lld_wait_edge.isra.0,"ax",%progbits
  19              		.align	2
  20              		.p2align 4,,15
  21              		.thumb
  22              		.thumb_func
  23              		.type	icu_lld_wait_edge.isra.0, %function
  24              	icu_lld_wait_edge.isra.0:
  25              	.LFB220:
  26              		.file 1 "/home/peter/ChibiOS_16.1.4/os/hal/ports/STM32/LLD/TIMv1/icu_lld.c"
  27              		.loc 1 105 0
  28              		.cfi_startproc
  29              		@ args = 0, pretend = 0, frame = 0
  30              		@ frame_needed = 0, uses_anonymous_args = 0
  31              		@ link register save eliminated.
  32              	.LVL0:
  33              	.LBB48:
  34              	.LBB49:
  35              	.LBB50:
  36              	.LBB51:
  37              	.LBB52:
  38              	.LBB53:
  39              		.file 2 "/home/peter/ChibiOS_16.1.4/os/ext/CMSIS/include/core_cmFunc.h"
  40              		.loc 2 548 0
  41 0000 0023     		movs	r3, #0
  42              	@ 548 "/home/peter/ChibiOS_16.1.4/os/ext/CMSIS/include/core_cmFunc.h" 1
  43 0002 83F31188 		MSR basepri, r3
  44              	@ 0 "" 2
  45              		.thumb
  46              	.LBE53:
  47              	.LBE52:
  48              	.LBE51:
  49              	.LBE50:
  50              	.LBE49:
  51              	.LBE48:
  52              		.loc 1 114 0
  53 0006 0368     		ldr	r3, [r0]
  54 0008 1B7D     		ldrb	r3, [r3, #20]	@ zero_extendqisi2
  55 000a 73B9     		cbnz	r3, .L2
  56 000c 0B68     		ldr	r3, [r1]
  57              	.L3:
ARM GAS  /tmp/cc9Ao2VO.s 			page 2


  58              		.loc 1 116 0
  59 000e 1869     		ldr	r0, [r3, #16]
  60              	.LVL1:
  61 0010 8207     		lsls	r2, r0, #30
  62 0012 FCD0     		beq	.L3
  63              	.L4:
  64              	.LVL2:
  65              	.LBB54:
  66              	.LBB55:
  67              	.LBB56:
  68              	.LBB57:
  69              	.LBB58:
  70              		.loc 2 548 0
  71 0014 2023     		movs	r3, #32
  72              	@ 548 "/home/peter/ChibiOS_16.1.4/os/ext/CMSIS/include/core_cmFunc.h" 1
  73 0016 83F31188 		MSR basepri, r3
  74              	@ 0 "" 2
  75              		.thumb
  76              	.LBE58:
  77              	.LBE57:
  78              	.LBE56:
  79              	.LBE55:
  80              	.LBE54:
  81              		.loc 1 134 0
  82 001a 0A68     		ldr	r2, [r1]
  83              		.loc 1 139 0
  84 001c 00F00100 		and	r0, r0, #1
  85              	.LVL3:
  86              		.loc 1 134 0
  87 0020 1369     		ldr	r3, [r2, #16]
  88 0022 23F00703 		bic	r3, r3, #7
  89 0026 1361     		str	r3, [r2, #16]
  90              		.loc 1 139 0
  91 0028 7047     		bx	lr
  92              	.LVL4:
  93              	.L2:
  94 002a 0B68     		ldr	r3, [r1]
  95              	.L5:
  96              		.loc 1 122 0
  97 002c 1869     		ldr	r0, [r3, #16]
  98              	.LVL5:
  99 002e 10F0050F 		tst	r0, #5
 100 0032 FBD0     		beq	.L5
 101 0034 EEE7     		b	.L4
 102              		.cfi_endproc
 103              	.LFE220:
 104              		.size	icu_lld_wait_edge.isra.0, .-icu_lld_wait_edge.isra.0
 105 0036 00BFAFF3 		.section	.text.icu_lld_init,"ax",%progbits
 105      0080AFF3 
 105      0080
 106              		.align	2
 107              		.p2align 4,,15
 108              		.global	icu_lld_init
 109              		.thumb
 110              		.thumb_func
 111              		.type	icu_lld_init, %function
 112              	icu_lld_init:
ARM GAS  /tmp/cc9Ao2VO.s 			page 3


 113              	.LFB211:
 114              		.loc 1 335 0
 115              		.cfi_startproc
 116              		@ args = 0, pretend = 0, frame = 0
 117              		@ frame_needed = 0, uses_anonymous_args = 0
 118 0000 38B5     		push	{r3, r4, r5, lr}
 119              		.cfi_def_cfa_offset 16
 120              		.cfi_offset 3, -16
 121              		.cfi_offset 4, -12
 122              		.cfi_offset 5, -8
 123              		.cfi_offset 14, -4
 124              		.loc 1 339 0
 125 0002 074D     		ldr	r5, .L13
 126              		.loc 1 345 0
 127 0004 074C     		ldr	r4, .L13+4
 128              		.loc 1 339 0
 129 0006 2846     		mov	r0, r5
 130 0008 FFF7FEFF 		bl	icuObjectInit
 131              	.LVL6:
 132              		.loc 1 340 0
 133 000c 064B     		ldr	r3, .L13+8
 134              		.loc 1 345 0
 135 000e 2046     		mov	r0, r4
 136              		.loc 1 340 0
 137 0010 EB60     		str	r3, [r5, #12]
 138              		.loc 1 345 0
 139 0012 FFF7FEFF 		bl	icuObjectInit
 140              	.LVL7:
 141              		.loc 1 346 0
 142 0016 4FF08043 		mov	r3, #1073741824
 143 001a E360     		str	r3, [r4, #12]
 144 001c 38BD     		pop	{r3, r4, r5, pc}
 145              	.L14:
 146 001e 00BF     		.align	2
 147              	.L13:
 148 0020 00000000 		.word	.LANCHOR0
 149 0024 00000000 		.word	.LANCHOR1
 150 0028 00000140 		.word	1073807360
 151              		.cfi_endproc
 152              	.LFE211:
 153              		.size	icu_lld_init, .-icu_lld_init
 154 002c AFF30080 		.section	.text.icu_lld_start,"ax",%progbits
 155              		.align	2
 156              		.p2align 4,,15
 157              		.global	icu_lld_start
 158              		.thumb
 159              		.thumb_func
 160              		.type	icu_lld_start, %function
 161              	icu_lld_start:
 162              	.LFB212:
 163              		.loc 1 387 0
 164              		.cfi_startproc
 165              		@ args = 0, pretend = 0, frame = 0
 166              		@ frame_needed = 0, uses_anonymous_args = 0
 167              	.LVL8:
 168 0000 F8B5     		push	{r3, r4, r5, r6, r7, lr}
 169              		.cfi_def_cfa_offset 24
ARM GAS  /tmp/cc9Ao2VO.s 			page 4


 170              		.cfi_offset 3, -24
 171              		.cfi_offset 4, -20
 172              		.cfi_offset 5, -16
 173              		.cfi_offset 6, -12
 174              		.cfi_offset 7, -8
 175              		.cfi_offset 14, -4
 176              		.loc 1 394 0
 177 0002 0378     		ldrb	r3, [r0]	@ zero_extendqisi2
 178              		.loc 1 387 0
 179 0004 0446     		mov	r4, r0
 180              		.loc 1 394 0
 181 0006 012B     		cmp	r3, #1
 182 0008 3BD0     		beq	.L27
 183              		.loc 1 505 0
 184 000a C368     		ldr	r3, [r0, #12]
 185 000c 0022     		movs	r2, #0
 186 000e 1A60     		str	r2, [r3]
 187              		.loc 1 506 0
 188 0010 5A63     		str	r2, [r3, #52]
 189              		.loc 1 507 0
 190 0012 9A63     		str	r2, [r3, #56]
 191              		.loc 1 508 0
 192 0014 5A62     		str	r2, [r3, #36]
 193              	.LVL9:
 194              	.L18:
 195              		.loc 1 513 0
 196 0016 6168     		ldr	r1, [r4, #4]
 197              		.loc 1 515 0
 198 0018 A268     		ldr	r2, [r4, #8]
 199 001a 4868     		ldr	r0, [r1, #4]
 200              		.loc 1 520 0
 201 001c 4FF6FF76 		movw	r6, #65535
 202              		.loc 1 515 0
 203 0020 B2FBF0F2 		udiv	r2, r2, r0
 204              		.loc 1 513 0
 205 0024 8869     		ldr	r0, [r1, #24]
 206              		.loc 1 522 0
 207 0026 0D7D     		ldrb	r5, [r1, #20]	@ zero_extendqisi2
 208              		.loc 1 515 0
 209 0028 013A     		subs	r2, r2, #1
 210              	.LVL10:
 211              		.loc 1 513 0
 212 002a 20F0FF00 		bic	r0, r0, #255
 213              		.loc 1 512 0
 214 002e 0027     		movs	r7, #0
 215 0030 1F61     		str	r7, [r3, #16]
 216              		.loc 1 513 0
 217 0032 D860     		str	r0, [r3, #12]
 218              		.loc 1 519 0
 219 0034 9A62     		str	r2, [r3, #40]
 220              		.loc 1 520 0
 221 0036 DE62     		str	r6, [r3, #44]
 222              		.loc 1 522 0
 223 0038 75B9     		cbnz	r5, .L20
 224              		.loc 1 526 0
 225 003a 40F20120 		movw	r0, #513
 226              		.loc 1 535 0
ARM GAS  /tmp/cc9Ao2VO.s 			page 5


 227 003e 0A78     		ldrb	r2, [r1]	@ zero_extendqisi2
 228              	.LVL11:
 229              		.loc 1 530 0
 230 0040 5421     		movs	r1, #84
 231              	.LVL12:
 232              		.loc 1 526 0
 233 0042 9861     		str	r0, [r3, #24]
 234              		.loc 1 530 0
 235 0044 9960     		str	r1, [r3, #8]
 236              		.loc 1 535 0
 237 0046 CAB1     		cbz	r2, .L28
 238              		.loc 1 539 0
 239 0048 1322     		movs	r2, #19
 240 004a 1A62     		str	r2, [r3, #32]
 241              	.LVL13:
 242              	.L22:
 243              		.loc 1 544 0
 244 004c 03F13802 		add	r2, r3, #56
 245              		.loc 1 545 0
 246 0050 3433     		adds	r3, r3, #52
 247              		.loc 1 544 0
 248 0052 2261     		str	r2, [r4, #16]
 249              		.loc 1 545 0
 250 0054 6361     		str	r3, [r4, #20]
 251 0056 F8BD     		pop	{r3, r4, r5, r6, r7, pc}
 252              	.LVL14:
 253              	.L20:
 254              		.loc 1 560 0
 255 0058 0A78     		ldrb	r2, [r1]	@ zero_extendqisi2
 256              	.LVL15:
 257              		.loc 1 551 0
 258 005a 4FF48170 		mov	r0, #258
 259              		.loc 1 555 0
 260 005e 6421     		movs	r1, #100
 261              	.LVL16:
 262              		.loc 1 551 0
 263 0060 9861     		str	r0, [r3, #24]
 264              		.loc 1 555 0
 265 0062 9960     		str	r1, [r3, #8]
 266              		.loc 1 560 0
 267 0064 3AB1     		cbz	r2, .L29
 268              		.loc 1 564 0
 269 0066 3122     		movs	r2, #49
 270 0068 1A62     		str	r2, [r3, #32]
 271              	.LVL17:
 272              	.L25:
 273              		.loc 1 569 0
 274 006a 03F13402 		add	r2, r3, #52
 275              		.loc 1 570 0
 276 006e 3833     		adds	r3, r3, #56
 277              		.loc 1 569 0
 278 0070 2261     		str	r2, [r4, #16]
 279              		.loc 1 570 0
 280 0072 6361     		str	r3, [r4, #20]
 281 0074 F8BD     		pop	{r3, r4, r5, r6, r7, pc}
 282              	.LVL18:
 283              	.L29:
ARM GAS  /tmp/cc9Ao2VO.s 			page 6


 284              		.loc 1 561 0
 285 0076 1322     		movs	r2, #19
 286 0078 1A62     		str	r2, [r3, #32]
 287              	.LVL19:
 288 007a F6E7     		b	.L25
 289              	.LVL20:
 290              	.L28:
 291              		.loc 1 536 0
 292 007c 3122     		movs	r2, #49
 293 007e 1A62     		str	r2, [r3, #32]
 294              	.LVL21:
 295 0080 E4E7     		b	.L22
 296              	.LVL22:
 297              	.L27:
 298              		.loc 1 397 0
 299 0082 194B     		ldr	r3, .L31
 300 0084 9842     		cmp	r0, r3
 301 0086 04D0     		beq	.L30
 302              		.loc 1 413 0
 303 0088 184B     		ldr	r3, .L31+4
 304 008a 9842     		cmp	r0, r3
 305 008c 18D0     		beq	.L19
 306 008e C368     		ldr	r3, [r0, #12]
 307 0090 C1E7     		b	.L18
 308              	.L30:
 309              		.loc 1 398 0
 310 0092 174B     		ldr	r3, .L31+8
 311              		.loc 1 399 0
 312 0094 0025     		movs	r5, #0
 313              		.loc 1 398 0
 314 0096 5A6C     		ldr	r2, [r3, #68]
 315              		.loc 1 401 0
 316 0098 1920     		movs	r0, #25
 317              	.LVL23:
 318              		.loc 1 398 0
 319 009a 42F00102 		orr	r2, r2, #1
 320 009e 5A64     		str	r2, [r3, #68]
 321              		.loc 1 399 0
 322 00a0 5A6A     		ldr	r2, [r3, #36]
 323              		.loc 1 401 0
 324 00a2 0721     		movs	r1, #7
 325              		.loc 1 399 0
 326 00a4 42F00102 		orr	r2, r2, #1
 327 00a8 5A62     		str	r2, [r3, #36]
 328 00aa 5D62     		str	r5, [r3, #36]
 329              		.loc 1 401 0
 330 00ac FFF7FEFF 		bl	nvicEnableVector
 331              	.LVL24:
 332              		.loc 1 402 0
 333 00b0 1B20     		movs	r0, #27
 334 00b2 0721     		movs	r1, #7
 335 00b4 FFF7FEFF 		bl	nvicEnableVector
 336              	.LVL25:
 337              		.loc 1 407 0
 338 00b8 0E4A     		ldr	r2, .L31+12
 339 00ba E368     		ldr	r3, [r4, #12]
 340 00bc A260     		str	r2, [r4, #8]
ARM GAS  /tmp/cc9Ao2VO.s 			page 7


 341 00be AAE7     		b	.L18
 342              	.LVL26:
 343              	.L19:
 344              		.loc 1 414 0
 345 00c0 0B4B     		ldr	r3, .L31+8
 346              		.loc 1 415 0
 347 00c2 0025     		movs	r5, #0
 348              		.loc 1 414 0
 349 00c4 1A6C     		ldr	r2, [r3, #64]
 350              		.loc 1 417 0
 351 00c6 1C20     		movs	r0, #28
 352              	.LVL27:
 353              		.loc 1 414 0
 354 00c8 42F00102 		orr	r2, r2, #1
 355 00cc 1A64     		str	r2, [r3, #64]
 356              		.loc 1 415 0
 357 00ce 1A6A     		ldr	r2, [r3, #32]
 358              		.loc 1 417 0
 359 00d0 0721     		movs	r1, #7
 360              		.loc 1 415 0
 361 00d2 42F00102 		orr	r2, r2, #1
 362 00d6 1A62     		str	r2, [r3, #32]
 363 00d8 1D62     		str	r5, [r3, #32]
 364              		.loc 1 417 0
 365 00da FFF7FEFF 		bl	nvicEnableVector
 366              	.LVL28:
 367              		.loc 1 422 0
 368 00de 064A     		ldr	r2, .L31+16
 369 00e0 E368     		ldr	r3, [r4, #12]
 370 00e2 A260     		str	r2, [r4, #8]
 371 00e4 97E7     		b	.L18
 372              	.L32:
 373 00e6 00BF     		.align	2
 374              	.L31:
 375 00e8 00000000 		.word	.LANCHOR0
 376 00ec 00000000 		.word	.LANCHOR1
 377 00f0 00380240 		.word	1073887232
 378 00f4 C0E1E400 		.word	15000000
 379 00f8 E0707200 		.word	7500000
 380              		.cfi_endproc
 381              	.LFE212:
 382              		.size	icu_lld_start, .-icu_lld_start
 383 00fc AFF30080 		.section	.text.icu_lld_stop,"ax",%progbits
 384              		.align	2
 385              		.p2align 4,,15
 386              		.global	icu_lld_stop
 387              		.thumb
 388              		.thumb_func
 389              		.type	icu_lld_stop, %function
 390              	icu_lld_stop:
 391              	.LFB213:
 392              		.loc 1 581 0
 393              		.cfi_startproc
 394              		@ args = 0, pretend = 0, frame = 0
 395              		@ frame_needed = 0, uses_anonymous_args = 0
 396              	.LVL29:
 397 0000 08B5     		push	{r3, lr}
ARM GAS  /tmp/cc9Ao2VO.s 			page 8


 398              		.cfi_def_cfa_offset 8
 399              		.cfi_offset 3, -8
 400              		.cfi_offset 14, -4
 401              		.loc 1 583 0
 402 0002 0378     		ldrb	r3, [r0]	@ zero_extendqisi2
 403 0004 022B     		cmp	r3, #2
 404 0006 00D0     		beq	.L39
 405              	.LVL30:
 406              	.L33:
 407 0008 08BD     		pop	{r3, pc}
 408              	.LVL31:
 409              	.L39:
 410              		.loc 1 590 0
 411 000a 1049     		ldr	r1, .L41
 412              		.loc 1 585 0
 413 000c C368     		ldr	r3, [r0, #12]
 414 000e 0022     		movs	r2, #0
 415              		.loc 1 590 0
 416 0010 8842     		cmp	r0, r1
 417              		.loc 1 585 0
 418 0012 1A60     		str	r2, [r3]
 419              		.loc 1 586 0
 420 0014 DA60     		str	r2, [r3, #12]
 421              		.loc 1 587 0
 422 0016 1A61     		str	r2, [r3, #16]
 423              		.loc 1 590 0
 424 0018 0BD0     		beq	.L40
 425              		.loc 1 600 0
 426 001a 0D4B     		ldr	r3, .L41+4
 427 001c 9842     		cmp	r0, r3
 428 001e F3D1     		bne	.L33
 429              		.loc 1 602 0
 430 0020 1C20     		movs	r0, #28
 431              	.LVL32:
 432 0022 FFF7FEFF 		bl	nvicDisableVector
 433              	.LVL33:
 434              		.loc 1 604 0
 435 0026 0B4A     		ldr	r2, .L41+8
 436 0028 136C     		ldr	r3, [r2, #64]
 437 002a 23F00103 		bic	r3, r3, #1
 438 002e 1364     		str	r3, [r2, #64]
 439 0030 EAE7     		b	.L33
 440              	.LVL34:
 441              	.L40:
 442              		.loc 1 592 0
 443 0032 1920     		movs	r0, #25
 444              	.LVL35:
 445 0034 FFF7FEFF 		bl	nvicDisableVector
 446              	.LVL36:
 447              		.loc 1 593 0
 448 0038 1B20     		movs	r0, #27
 449 003a FFF7FEFF 		bl	nvicDisableVector
 450              	.LVL37:
 451              		.loc 1 595 0
 452 003e 054A     		ldr	r2, .L41+8
 453 0040 536C     		ldr	r3, [r2, #68]
 454 0042 23F00103 		bic	r3, r3, #1
ARM GAS  /tmp/cc9Ao2VO.s 			page 9


 455 0046 5364     		str	r3, [r2, #68]
 456 0048 08BD     		pop	{r3, pc}
 457              	.L42:
 458 004a 00BF     		.align	2
 459              	.L41:
 460 004c 00000000 		.word	.LANCHOR0
 461 0050 00000000 		.word	.LANCHOR1
 462 0054 00380240 		.word	1073887232
 463              		.cfi_endproc
 464              	.LFE213:
 465              		.size	icu_lld_stop, .-icu_lld_stop
 466 0058 AFF30080 		.section	.text.icu_lld_start_capture,"ax",%progbits
 466      AFF30080 
 467              		.align	2
 468              		.p2align 4,,15
 469              		.global	icu_lld_start_capture
 470              		.thumb
 471              		.thumb_func
 472              		.type	icu_lld_start_capture, %function
 473              	icu_lld_start_capture:
 474              	.LFB214:
 475              		.loc 1 663 0
 476              		.cfi_startproc
 477              		@ args = 0, pretend = 0, frame = 0
 478              		@ frame_needed = 0, uses_anonymous_args = 0
 479              		@ link register save eliminated.
 480              	.LVL38:
 481              		.loc 1 666 0
 482 0000 C368     		ldr	r3, [r0, #12]
 483              		.loc 1 670 0
 484 0002 0521     		movs	r1, #5
 485              		.loc 1 666 0
 486 0004 5A69     		ldr	r2, [r3, #20]
 487              		.loc 1 667 0
 488 0006 0020     		movs	r0, #0
 489              	.LVL39:
 490              		.loc 1 666 0
 491 0008 42F00102 		orr	r2, r2, #1
 492 000c 5A61     		str	r2, [r3, #20]
 493              		.loc 1 667 0
 494 000e 1861     		str	r0, [r3, #16]
 495              		.loc 1 670 0
 496 0010 1960     		str	r1, [r3]
 497 0012 7047     		bx	lr
 498              		.cfi_endproc
 499              	.LFE214:
 500              		.size	icu_lld_start_capture, .-icu_lld_start_capture
 501 0014 AFF30080 		.section	.text.icu_lld_wait_capture,"ax",%progbits
 501      AFF30080 
 501      AFF30080 
 502              		.align	2
 503              		.p2align 4,,15
 504              		.global	icu_lld_wait_capture
 505              		.thumb
 506              		.thumb_func
 507              		.type	icu_lld_wait_capture, %function
 508              	icu_lld_wait_capture:
ARM GAS  /tmp/cc9Ao2VO.s 			page 10


 509              	.LFB215:
 510              		.loc 1 685 0
 511              		.cfi_startproc
 512              		@ args = 0, pretend = 0, frame = 0
 513              		@ frame_needed = 0, uses_anonymous_args = 0
 514              	.LVL40:
 515 0000 38B5     		push	{r3, r4, r5, lr}
 516              		.cfi_def_cfa_offset 16
 517              		.cfi_offset 3, -16
 518              		.cfi_offset 4, -12
 519              		.cfi_offset 5, -8
 520              		.cfi_offset 14, -4
 521              		.loc 1 689 0
 522 0002 0378     		ldrb	r3, [r0]	@ zero_extendqisi2
 523 0004 051D     		adds	r5, r0, #4
 524 0006 032B     		cmp	r3, #3
 525 0008 00F10C04 		add	r4, r0, #12
 526 000c 05D0     		beq	.L45
 527              	.LVL41:
 528              	.L46:
 529              		.loc 1 694 0
 530 000e 2846     		mov	r0, r5
 531 0010 2146     		mov	r1, r4
 532              		.loc 1 695 0
 533 0012 BDE83840 		pop	{r3, r4, r5, lr}
 534              		.cfi_remember_state
 535              		.cfi_restore 14
 536              		.cfi_restore 5
 537              		.cfi_restore 4
 538              		.cfi_restore 3
 539              		.cfi_def_cfa_offset 0
 540              	.LVL42:
 541              		.loc 1 694 0
 542 0016 FFF7FEBF 		b	icu_lld_wait_edge.isra.0
 543              	.LVL43:
 544              	.L45:
 545              		.cfi_restore_state
 546              		.loc 1 690 0
 547 001a 2846     		mov	r0, r5
 548              	.LVL44:
 549 001c 2146     		mov	r1, r4
 550 001e FFF7FEFF 		bl	icu_lld_wait_edge.isra.0
 551              	.LVL45:
 552 0022 0028     		cmp	r0, #0
 553 0024 F3D0     		beq	.L46
 554              		.loc 1 695 0
 555 0026 38BD     		pop	{r3, r4, r5, pc}
 556              		.cfi_endproc
 557              	.LFE215:
 558              		.size	icu_lld_wait_capture, .-icu_lld_wait_capture
 559 0028 AFF30080 		.section	.text.icu_lld_stop_capture,"ax",%progbits
 559      AFF30080 
 560              		.align	2
 561              		.p2align 4,,15
 562              		.global	icu_lld_stop_capture
 563              		.thumb
 564              		.thumb_func
ARM GAS  /tmp/cc9Ao2VO.s 			page 11


 565              		.type	icu_lld_stop_capture, %function
 566              	icu_lld_stop_capture:
 567              	.LFB216:
 568              		.loc 1 704 0
 569              		.cfi_startproc
 570              		@ args = 0, pretend = 0, frame = 0
 571              		@ frame_needed = 0, uses_anonymous_args = 0
 572              		@ link register save eliminated.
 573              	.LVL46:
 574              		.loc 1 707 0
 575 0000 C368     		ldr	r3, [r0, #12]
 576 0002 0022     		movs	r2, #0
 577 0004 1A60     		str	r2, [r3]
 578              		.loc 1 710 0
 579 0006 DA68     		ldr	r2, [r3, #12]
 580 0008 22F0FF02 		bic	r2, r2, #255
 581 000c DA60     		str	r2, [r3, #12]
 582 000e 7047     		bx	lr
 583              		.cfi_endproc
 584              	.LFE216:
 585              		.size	icu_lld_stop_capture, .-icu_lld_stop_capture
 586              		.section	.text.icu_lld_enable_notifications,"ax",%progbits
 587              		.align	2
 588              		.p2align 4,,15
 589              		.global	icu_lld_enable_notifications
 590              		.thumb
 591              		.thumb_func
 592              		.type	icu_lld_enable_notifications, %function
 593              	icu_lld_enable_notifications:
 594              	.LFB217:
 595              		.loc 1 722 0
 596              		.cfi_startproc
 597              		@ args = 0, pretend = 0, frame = 0
 598              		@ frame_needed = 0, uses_anonymous_args = 0
 599              		@ link register save eliminated.
 600              	.LVL47:
 601              		.loc 1 723 0
 602 0000 C268     		ldr	r2, [r0, #12]
 603              		.loc 1 722 0
 604 0002 10B4     		push	{r4}
 605              		.cfi_def_cfa_offset 4
 606              		.cfi_offset 4, -4
 607              		.loc 1 723 0
 608 0004 D368     		ldr	r3, [r2, #12]
 609              	.LVL48:
 610              		.loc 1 728 0
 611 0006 13F0FF04 		ands	r4, r3, #255
 612 000a 0CD1     		bne	.L52
 613              		.loc 1 732 0
 614 000c 4168     		ldr	r1, [r0, #4]
 615              		.loc 1 730 0
 616 000e 1461     		str	r4, [r2, #16]
 617              		.loc 1 732 0
 618 0010 087D     		ldrb	r0, [r1, #20]	@ zero_extendqisi2
 619              	.LVL49:
 620 0012 58B1     		cbz	r0, .L63
 621              	.LVL50:
ARM GAS  /tmp/cc9Ao2VO.s 			page 12


 622              		.loc 1 745 0
 623 0014 8868     		ldr	r0, [r1, #8]
 624 0016 78B1     		cbz	r0, .L64
 625              	.LVL51:
 626              	.L57:
 627              		.loc 1 746 0
 628 0018 43F00603 		orr	r3, r3, #6
 629              	.LVL52:
 630              	.L56:
 631              		.loc 1 751 0
 632 001c 0969     		ldr	r1, [r1, #16]
 633 001e 09B1     		cbz	r1, .L58
 634              		.loc 1 752 0
 635 0020 43F00103 		orr	r3, r3, #1
 636              	.LVL53:
 637              	.L58:
 638              		.loc 1 755 0
 639 0024 D360     		str	r3, [r2, #12]
 640              	.L52:
 641              		.loc 1 757 0
 642 0026 5DF8044B 		ldr	r4, [sp], #4
 643              		.cfi_remember_state
 644              		.cfi_restore 4
 645              		.cfi_def_cfa_offset 0
 646 002a 7047     		bx	lr
 647              	.L63:
 648              		.cfi_restore_state
 649              	.LVL54:
 650              		.loc 1 737 0
 651 002c 8868     		ldr	r0, [r1, #8]
 652 002e 0028     		cmp	r0, #0
 653 0030 F2D1     		bne	.L57
 654              		.loc 1 734 0
 655 0032 43F00203 		orr	r3, r3, #2
 656              	.LVL55:
 657 0036 F1E7     		b	.L56
 658              	.LVL56:
 659              	.L64:
 660              		.loc 1 742 0
 661 0038 43F00403 		orr	r3, r3, #4
 662              	.LVL57:
 663 003c EEE7     		b	.L56
 664              		.cfi_endproc
 665              	.LFE217:
 666              		.size	icu_lld_enable_notifications, .-icu_lld_enable_notifications
 667 003e 00BF     		.section	.text.icu_lld_disable_notifications,"ax",%progbits
 668              		.align	2
 669              		.p2align 4,,15
 670              		.global	icu_lld_disable_notifications
 671              		.thumb
 672              		.thumb_func
 673              		.type	icu_lld_disable_notifications, %function
 674              	icu_lld_disable_notifications:
 675              	.LFB218:
 676              		.loc 1 768 0
 677              		.cfi_startproc
 678              		@ args = 0, pretend = 0, frame = 0
ARM GAS  /tmp/cc9Ao2VO.s 			page 13


 679              		@ frame_needed = 0, uses_anonymous_args = 0
 680              		@ link register save eliminated.
 681              	.LVL58:
 682              		.loc 1 771 0
 683 0000 C268     		ldr	r2, [r0, #12]
 684 0002 D368     		ldr	r3, [r2, #12]
 685 0004 23F0FF03 		bic	r3, r3, #255
 686 0008 D360     		str	r3, [r2, #12]
 687 000a 7047     		bx	lr
 688              		.cfi_endproc
 689              	.LFE218:
 690              		.size	icu_lld_disable_notifications, .-icu_lld_disable_notifications
 691 000c AFF30080 		.section	.text.icu_lld_serve_interrupt,"ax",%progbits
 692              		.align	2
 693              		.p2align 4,,15
 694              		.global	icu_lld_serve_interrupt
 695              		.thumb
 696              		.thumb_func
 697              		.type	icu_lld_serve_interrupt, %function
 698              	icu_lld_serve_interrupt:
 699              	.LFB219:
 700              		.loc 1 781 0
 701              		.cfi_startproc
 702              		@ args = 0, pretend = 0, frame = 0
 703              		@ frame_needed = 0, uses_anonymous_args = 0
 704              	.LVL59:
 705              		.loc 1 784 0
 706 0000 C368     		ldr	r3, [r0, #12]
 707              		.loc 1 781 0
 708 0002 70B5     		push	{r4, r5, r6, lr}
 709              		.cfi_def_cfa_offset 16
 710              		.cfi_offset 4, -16
 711              		.cfi_offset 5, -12
 712              		.cfi_offset 6, -8
 713              		.cfi_offset 14, -4
 714              		.loc 1 784 0
 715 0004 1A69     		ldr	r2, [r3, #16]
 716              	.LVL60:
 717              		.loc 1 785 0
 718 0006 DC68     		ldr	r4, [r3, #12]
 719              		.loc 1 787 0
 720 0008 4168     		ldr	r1, [r0, #4]
 721 000a 1440     		ands	r4, r4, r2
 722              	.LVL61:
 723              		.loc 1 785 0
 724 000c E2B2     		uxtb	r2, r4
 725              		.loc 1 786 0
 726 000e D243     		mvns	r2, r2
 727              		.loc 1 787 0
 728 0010 0D7D     		ldrb	r5, [r1, #20]	@ zero_extendqisi2
 729              		.loc 1 781 0
 730 0012 0646     		mov	r6, r0
 731              		.loc 1 786 0
 732 0014 1A61     		str	r2, [r3, #16]
 733              		.loc 1 787 0
 734 0016 E5B9     		cbnz	r5, .L67
 735              		.loc 1 788 0
ARM GAS  /tmp/cc9Ao2VO.s 			page 14


 736 0018 6507     		lsls	r5, r4, #29
 737 001a 0AD5     		bpl	.L68
 738              		.loc 1 789 0
 739 001c 0378     		ldrb	r3, [r0]	@ zero_extendqisi2
 740 001e 042B     		cmp	r3, #4
 741 0020 04D0     		beq	.L108
 742              		.loc 1 790 0
 743 0022 A107     		lsls	r1, r4, #30
 744 0024 0AD4     		bmi	.L74
 745              	.LVL62:
 746              	.L72:
 747              		.loc 1 799 0
 748 0026 E407     		lsls	r4, r4, #31
 749              	.LVL63:
 750 0028 0CD4     		bmi	.L109
 751              	.L66:
 752 002a 70BD     		pop	{r4, r5, r6, pc}
 753              	.LVL64:
 754              	.L108:
 755              		.loc 1 789 0 discriminator 1
 756 002c 8B68     		ldr	r3, [r1, #8]
 757 002e 3BB3     		cbz	r3, .L70
 758              		.loc 1 789 0 is_stmt 0 discriminator 2
 759 0030 9847     		blx	r3
 760              	.LVL65:
 761              	.L68:
 762              		.loc 1 790 0 is_stmt 1
 763 0032 A207     		lsls	r2, r4, #30
 764 0034 F7D5     		bpl	.L72
 765              		.loc 1 791 0
 766 0036 3378     		ldrb	r3, [r6]	@ zero_extendqisi2
 767 0038 042B     		cmp	r3, #4
 768 003a 1AD0     		beq	.L110
 769              	.L74:
 770              		.loc 1 791 0 is_stmt 0 discriminator 5
 771 003c 0423     		movs	r3, #4
 772              		.loc 1 799 0 is_stmt 1 discriminator 5
 773 003e E407     		lsls	r4, r4, #31
 774              	.LVL66:
 775              		.loc 1 791 0 discriminator 5
 776 0040 3370     		strb	r3, [r6]
 777              		.loc 1 799 0 discriminator 5
 778 0042 F2D5     		bpl	.L66
 779              	.L109:
 780              		.loc 1 800 0
 781 0044 7368     		ldr	r3, [r6, #4]
 782 0046 3046     		mov	r0, r6
 783 0048 1B69     		ldr	r3, [r3, #16]
 784 004a 9847     		blx	r3
 785              	.LVL67:
 786 004c 0323     		movs	r3, #3
 787 004e 3370     		strb	r3, [r6]
 788 0050 70BD     		pop	{r4, r5, r6, pc}
 789              	.LVL68:
 790              	.L67:
 791              		.loc 1 794 0
 792 0052 A307     		lsls	r3, r4, #30
ARM GAS  /tmp/cc9Ao2VO.s 			page 15


 793 0054 08D5     		bpl	.L76
 794              		.loc 1 795 0
 795 0056 0378     		ldrb	r3, [r0]	@ zero_extendqisi2
 796 0058 042B     		cmp	r3, #4
 797 005a 02D0     		beq	.L111
 798              		.loc 1 796 0
 799 005c 6307     		lsls	r3, r4, #29
 800 005e EDD4     		bmi	.L74
 801 0060 E1E7     		b	.L72
 802              	.L111:
 803              		.loc 1 795 0 discriminator 1
 804 0062 8B68     		ldr	r3, [r1, #8]
 805 0064 7BB1     		cbz	r3, .L78
 806              		.loc 1 795 0 is_stmt 0 discriminator 2
 807 0066 9847     		blx	r3
 808              	.LVL69:
 809              	.L76:
 810              		.loc 1 796 0 is_stmt 1
 811 0068 6507     		lsls	r5, r4, #29
 812 006a DCD5     		bpl	.L72
 813              		.loc 1 791 0
 814 006c 3378     		ldrb	r3, [r6]	@ zero_extendqisi2
 815 006e 042B     		cmp	r3, #4
 816 0070 E4D1     		bne	.L74
 817              	.L110:
 818 0072 7168     		ldr	r1, [r6, #4]
 819              	.L81:
 820              		.loc 1 791 0 is_stmt 0 discriminator 1
 821 0074 CB68     		ldr	r3, [r1, #12]
 822 0076 002B     		cmp	r3, #0
 823 0078 E0D0     		beq	.L74
 824              		.loc 1 791 0 discriminator 3
 825 007a 3046     		mov	r0, r6
 826 007c 9847     		blx	r3
 827              	.LVL70:
 828 007e DDE7     		b	.L74
 829              	.LVL71:
 830              	.L70:
 831              		.loc 1 790 0 is_stmt 1
 832 0080 A007     		lsls	r0, r4, #30
 833              	.LVL72:
 834 0082 F7D4     		bmi	.L81
 835 0084 CFE7     		b	.L72
 836              	.LVL73:
 837              	.L78:
 838              		.loc 1 796 0
 839 0086 6207     		lsls	r2, r4, #29
 840 0088 F4D4     		bmi	.L81
 841 008a CCE7     		b	.L72
 842              		.cfi_endproc
 843              	.LFE219:
 844              		.size	icu_lld_serve_interrupt, .-icu_lld_serve_interrupt
 845 008c AFF30080 		.section	.text.VectorA4,"ax",%progbits
 846              		.align	2
 847              		.p2align 4,,15
 848              		.global	VectorA4
 849              		.thumb
ARM GAS  /tmp/cc9Ao2VO.s 			page 16


 850              		.thumb_func
 851              		.type	VectorA4, %function
 852              	VectorA4:
 853              	.LFB208:
 854              		.loc 1 155 0
 855              		.cfi_startproc
 856              		@ args = 0, pretend = 0, frame = 0
 857              		@ frame_needed = 0, uses_anonymous_args = 0
 858 0000 08B5     		push	{r3, lr}
 859              		.cfi_def_cfa_offset 8
 860              		.cfi_offset 3, -8
 861              		.cfi_offset 14, -4
 862              		.loc 1 159 0
 863 0002 0348     		ldr	r0, .L114
 864 0004 FFF7FEFF 		bl	icu_lld_serve_interrupt
 865              	.LVL74:
 866              		.loc 1 162 0
 867 0008 BDE80840 		pop	{r3, lr}
 868              		.cfi_restore 14
 869              		.cfi_restore 3
 870              		.cfi_def_cfa_offset 0
 871              		.loc 1 161 0
 872 000c FFF7FEBF 		b	_port_irq_epilogue
 873              	.LVL75:
 874              	.L115:
 875              		.align	2
 876              	.L114:
 877 0010 00000000 		.word	.LANCHOR0
 878              		.cfi_endproc
 879              	.LFE208:
 880              		.size	VectorA4, .-VectorA4
 881 0014 AFF30080 		.section	.text.VectorAC,"ax",%progbits
 881      AFF30080 
 881      AFF30080 
 882              		.align	2
 883              		.p2align 4,,15
 884              		.global	VectorAC
 885              		.thumb
 886              		.thumb_func
 887              		.type	VectorAC, %function
 888              	VectorAC:
 889              	.LFB209:
 890              		.loc 1 172 0
 891              		.cfi_startproc
 892              		@ args = 0, pretend = 0, frame = 0
 893              		@ frame_needed = 0, uses_anonymous_args = 0
 894 0000 08B5     		push	{r3, lr}
 895              		.cfi_def_cfa_offset 8
 896              		.cfi_offset 3, -8
 897              		.cfi_offset 14, -4
 898              		.loc 1 176 0
 899 0002 0348     		ldr	r0, .L118
 900 0004 FFF7FEFF 		bl	icu_lld_serve_interrupt
 901              	.LVL76:
 902              		.loc 1 179 0
 903 0008 BDE80840 		pop	{r3, lr}
 904              		.cfi_restore 14
ARM GAS  /tmp/cc9Ao2VO.s 			page 17


 905              		.cfi_restore 3
 906              		.cfi_def_cfa_offset 0
 907              		.loc 1 178 0
 908 000c FFF7FEBF 		b	_port_irq_epilogue
 909              	.LVL77:
 910              	.L119:
 911              		.align	2
 912              	.L118:
 913 0010 00000000 		.word	.LANCHOR0
 914              		.cfi_endproc
 915              	.LFE209:
 916              		.size	VectorAC, .-VectorAC
 917 0014 AFF30080 		.section	.text.VectorB0,"ax",%progbits
 917      AFF30080 
 917      AFF30080 
 918              		.align	2
 919              		.p2align 4,,15
 920              		.global	VectorB0
 921              		.thumb
 922              		.thumb_func
 923              		.type	VectorB0, %function
 924              	VectorB0:
 925              	.LFB210:
 926              		.loc 1 193 0
 927              		.cfi_startproc
 928              		@ args = 0, pretend = 0, frame = 0
 929              		@ frame_needed = 0, uses_anonymous_args = 0
 930 0000 08B5     		push	{r3, lr}
 931              		.cfi_def_cfa_offset 8
 932              		.cfi_offset 3, -8
 933              		.cfi_offset 14, -4
 934              		.loc 1 197 0
 935 0002 0348     		ldr	r0, .L122
 936 0004 FFF7FEFF 		bl	icu_lld_serve_interrupt
 937              	.LVL78:
 938              		.loc 1 200 0
 939 0008 BDE80840 		pop	{r3, lr}
 940              		.cfi_restore 14
 941              		.cfi_restore 3
 942              		.cfi_def_cfa_offset 0
 943              		.loc 1 199 0
 944 000c FFF7FEBF 		b	_port_irq_epilogue
 945              	.LVL79:
 946              	.L123:
 947              		.align	2
 948              	.L122:
 949 0010 00000000 		.word	.LANCHOR1
 950              		.cfi_endproc
 951              	.LFE210:
 952              		.size	VectorB0, .-VectorB0
 953              		.global	ICUD2
 954              		.global	ICUD1
 955 0014 AFF30080 		.section	.bss.ICUD2,"aw",%nobits
 955      AFF30080 
 955      AFF30080 
 956              		.align	2
 957              		.set	.LANCHOR1,. + 0
ARM GAS  /tmp/cc9Ao2VO.s 			page 18


 958              		.type	ICUD2, %object
 959              		.size	ICUD2, 24
 960              	ICUD2:
 961 0000 00000000 		.space	24
 961      00000000 
 961      00000000 
 961      00000000 
 961      00000000 
 962              		.section	.bss.ICUD1,"aw",%nobits
 963              		.align	2
 964              		.set	.LANCHOR0,. + 0
 965              		.type	ICUD1, %object
 966              		.size	ICUD1, 24
 967              	ICUD1:
 968 0000 00000000 		.space	24
 968      00000000 
 968      00000000 
 968      00000000 
 968      00000000 
 969              		.text
 970              	.Letext0:
 971              		.file 3 "/usr/lib/gcc/arm-none-eabi/4.9.3/include/stddef.h"
 972              		.file 4 "/usr/include/newlib/machine/_default_types.h"
 973              		.file 5 "/usr/include/newlib/stdint.h"
 974              		.file 6 "/home/peter/ChibiOS_16.1.4/os/rt/ports/ARMCMx/compilers/GCC/chtypes.h"
 975              		.file 7 "/home/peter/ChibiOS_16.1.4/os/rt/include/chsystypes.h"
 976              		.file 8 "/home/peter/ChibiOS_16.1.4/os/rt/include/chschd.h"
 977              		.file 9 "/home/peter/ChibiOS_16.1.4/os/ext/CMSIS/ST/STM32F2xx/stm32f205xx.h"
 978              		.file 10 "/home/peter/ChibiOS_16.1.4/os/rt/ports/ARMCMx/chcore.h"
 979              		.file 11 "/home/peter/ChibiOS_16.1.4/os/rt/ports/ARMCMx/chcore_v7m.h"
 980              		.file 12 "/home/peter/ChibiOS_16.1.4/os/rt/include/chtm.h"
 981              		.file 13 "/home/peter/ChibiOS_16.1.4/os/rt/include/chsem.h"
 982              		.file 14 "/home/peter/ChibiOS_16.1.4/os/rt/include/chmtx.h"
 983              		.file 15 "/home/peter/ChibiOS_16.1.4/os/hal/include/icu.h"
 984              		.file 16 "/home/peter/ChibiOS_16.1.4/os/hal/ports/STM32/LLD/TIMv1/icu_lld.h"
 985              		.file 17 "/home/peter/ChibiOS_16.1.4/os/hal/ports/STM32/LLD/TIMv1/stm32_tim.h"
 986              		.file 18 "/home/peter/ChibiOS_16.1.4/os/rt/include/chsys.h"
 987              		.file 19 "/home/peter/ChibiOS_16.1.4/os/hal/osal/rt/osal.h"
 988              		.file 20 "/home/peter/ChibiOS_16.1.4/os/ext/CMSIS/include/core_cm3.h"
 989              		.file 21 "/home/peter/ChibiOS_16.1.4/os/hal/ports/common/ARMCMx/nvic.h"
 990              		.section	.debug_info,"",%progbits
 991              	.Ldebug_info0:
 992 0000 FC0F0000 		.4byte	0xffc
 993 0004 0400     		.2byte	0x4
 994 0006 00000000 		.4byte	.Ldebug_abbrev0
 995 000a 04       		.byte	0x4
 996 000b 01       		.uleb128 0x1
 997 000c B3060000 		.4byte	.LASF199
 998 0010 01       		.byte	0x1
 999 0011 14030000 		.4byte	.LASF200
 1000 0015 00000000 		.4byte	.Ldebug_ranges0+0
 1001 0019 00000000 		.4byte	0
 1002 001d 00000000 		.4byte	.Ldebug_line0
 1003 0021 02       		.uleb128 0x2
 1004 0022 04       		.byte	0x4
 1005 0023 07       		.byte	0x7
 1006 0024 84020000 		.4byte	.LASF0
ARM GAS  /tmp/cc9Ao2VO.s 			page 19


 1007 0028 03       		.uleb128 0x3
 1008 0029 04       		.byte	0x4
 1009 002a 05       		.byte	0x5
 1010 002b 696E7400 		.ascii	"int\000"
 1011 002f 04       		.uleb128 0x4
 1012 0030 28000000 		.4byte	.LASF2
 1013 0034 03       		.byte	0x3
 1014 0035 D4       		.byte	0xd4
 1015 0036 21000000 		.4byte	0x21
 1016 003a 02       		.uleb128 0x2
 1017 003b 01       		.byte	0x1
 1018 003c 06       		.byte	0x6
 1019 003d 79010000 		.4byte	.LASF1
 1020 0041 04       		.uleb128 0x4
 1021 0042 6C000000 		.4byte	.LASF3
 1022 0046 04       		.byte	0x4
 1023 0047 1D       		.byte	0x1d
 1024 0048 4C000000 		.4byte	0x4c
 1025 004c 02       		.uleb128 0x2
 1026 004d 01       		.byte	0x1
 1027 004e 08       		.byte	0x8
 1028 004f 8B050000 		.4byte	.LASF4
 1029 0053 02       		.uleb128 0x2
 1030 0054 02       		.byte	0x2
 1031 0055 05       		.byte	0x5
 1032 0056 B3050000 		.4byte	.LASF5
 1033 005a 02       		.uleb128 0x2
 1034 005b 02       		.byte	0x2
 1035 005c 07       		.byte	0x7
 1036 005d 43010000 		.4byte	.LASF6
 1037 0061 04       		.uleb128 0x4
 1038 0062 D7030000 		.4byte	.LASF7
 1039 0066 04       		.byte	0x4
 1040 0067 3F       		.byte	0x3f
 1041 0068 6C000000 		.4byte	0x6c
 1042 006c 02       		.uleb128 0x2
 1043 006d 04       		.byte	0x4
 1044 006e 05       		.byte	0x5
 1045 006f C5010000 		.4byte	.LASF8
 1046 0073 04       		.uleb128 0x4
 1047 0074 C1070000 		.4byte	.LASF9
 1048 0078 04       		.byte	0x4
 1049 0079 41       		.byte	0x41
 1050 007a 7E000000 		.4byte	0x7e
 1051 007e 02       		.uleb128 0x2
 1052 007f 04       		.byte	0x4
 1053 0080 07       		.byte	0x7
 1054 0081 A1060000 		.4byte	.LASF10
 1055 0085 02       		.uleb128 0x2
 1056 0086 08       		.byte	0x8
 1057 0087 05       		.byte	0x5
 1058 0088 05020000 		.4byte	.LASF11
 1059 008c 04       		.uleb128 0x4
 1060 008d 04050000 		.4byte	.LASF12
 1061 0091 04       		.byte	0x4
 1062 0092 5B       		.byte	0x5b
 1063 0093 97000000 		.4byte	0x97
ARM GAS  /tmp/cc9Ao2VO.s 			page 20


 1064 0097 02       		.uleb128 0x2
 1065 0098 08       		.byte	0x8
 1066 0099 07       		.byte	0x7
 1067 009a C0000000 		.4byte	.LASF13
 1068 009e 04       		.uleb128 0x4
 1069 009f A5080000 		.4byte	.LASF14
 1070 00a3 05       		.byte	0x5
 1071 00a4 15       		.byte	0x15
 1072 00a5 41000000 		.4byte	0x41
 1073 00a9 04       		.uleb128 0x4
 1074 00aa 83050000 		.4byte	.LASF15
 1075 00ae 05       		.byte	0x5
 1076 00af 2C       		.byte	0x2c
 1077 00b0 61000000 		.4byte	0x61
 1078 00b4 04       		.uleb128 0x4
 1079 00b5 35080000 		.4byte	.LASF16
 1080 00b9 05       		.byte	0x5
 1081 00ba 2D       		.byte	0x2d
 1082 00bb 73000000 		.4byte	0x73
 1083 00bf 04       		.uleb128 0x4
 1084 00c0 4C000000 		.4byte	.LASF17
 1085 00c4 05       		.byte	0x5
 1086 00c5 39       		.byte	0x39
 1087 00c6 8C000000 		.4byte	0x8c
 1088 00ca 04       		.uleb128 0x4
 1089 00cb 26080000 		.4byte	.LASF18
 1090 00cf 06       		.byte	0x6
 1091 00d0 39       		.byte	0x39
 1092 00d1 B4000000 		.4byte	0xb4
 1093 00d5 04       		.uleb128 0x4
 1094 00d6 C8080000 		.4byte	.LASF19
 1095 00da 06       		.byte	0x6
 1096 00db 3C       		.byte	0x3c
 1097 00dc 9E000000 		.4byte	0x9e
 1098 00e0 04       		.uleb128 0x4
 1099 00e1 E1010000 		.4byte	.LASF20
 1100 00e5 06       		.byte	0x6
 1101 00e6 3D       		.byte	0x3d
 1102 00e7 9E000000 		.4byte	0x9e
 1103 00eb 04       		.uleb128 0x4
 1104 00ec 0F050000 		.4byte	.LASF21
 1105 00f0 06       		.byte	0x6
 1106 00f1 3E       		.byte	0x3e
 1107 00f2 9E000000 		.4byte	0x9e
 1108 00f6 04       		.uleb128 0x4
 1109 00f7 AB010000 		.4byte	.LASF22
 1110 00fb 06       		.byte	0x6
 1111 00fc 3F       		.byte	0x3f
 1112 00fd 9E000000 		.4byte	0x9e
 1113 0101 04       		.uleb128 0x4
 1114 0102 60050000 		.4byte	.LASF23
 1115 0106 06       		.byte	0x6
 1116 0107 40       		.byte	0x40
 1117 0108 B4000000 		.4byte	0xb4
 1118 010c 04       		.uleb128 0x4
 1119 010d 6D030000 		.4byte	.LASF24
 1120 0111 06       		.byte	0x6
ARM GAS  /tmp/cc9Ao2VO.s 			page 21


 1121 0112 41       		.byte	0x41
 1122 0113 A9000000 		.4byte	0xa9
 1123 0117 04       		.uleb128 0x4
 1124 0118 CB030000 		.4byte	.LASF25
 1125 011c 06       		.byte	0x6
 1126 011d 43       		.byte	0x43
 1127 011e B4000000 		.4byte	0xb4
 1128 0122 04       		.uleb128 0x4
 1129 0123 7E020000 		.4byte	.LASF26
 1130 0127 06       		.byte	0x6
 1131 0128 45       		.byte	0x45
 1132 0129 A9000000 		.4byte	0xa9
 1133 012d 04       		.uleb128 0x4
 1134 012e A3070000 		.4byte	.LASF27
 1135 0132 07       		.byte	0x7
 1136 0133 33       		.byte	0x33
 1137 0134 B4000000 		.4byte	0xb4
 1138 0138 04       		.uleb128 0x4
 1139 0139 93070000 		.4byte	.LASF28
 1140 013d 07       		.byte	0x7
 1141 013e 3F       		.byte	0x3f
 1142 013f 43010000 		.4byte	0x143
 1143 0143 05       		.uleb128 0x5
 1144 0144 E8020000 		.4byte	.LASF49
 1145 0148 44       		.byte	0x44
 1146 0149 08       		.byte	0x8
 1147 014a C2       		.byte	0xc2
 1148 014b 3C020000 		.4byte	0x23c
 1149 014f 06       		.uleb128 0x6
 1150 0150 8B040000 		.4byte	.LASF29
 1151 0154 08       		.byte	0x8
 1152 0155 C3       		.byte	0xc3
 1153 0156 47020000 		.4byte	0x247
 1154 015a 00       		.byte	0
 1155 015b 06       		.uleb128 0x6
 1156 015c 49050000 		.4byte	.LASF30
 1157 0160 08       		.byte	0x8
 1158 0161 C5       		.byte	0xc5
 1159 0162 47020000 		.4byte	0x247
 1160 0166 04       		.byte	0x4
 1161 0167 06       		.uleb128 0x6
 1162 0168 3C010000 		.4byte	.LASF31
 1163 016c 08       		.byte	0x8
 1164 016d C7       		.byte	0xc7
 1165 016e 01010000 		.4byte	0x101
 1166 0172 08       		.byte	0x8
 1167 0173 06       		.uleb128 0x6
 1168 0174 1D090000 		.4byte	.LASF32
 1169 0178 08       		.byte	0x8
 1170 0179 C8       		.byte	0xc8
 1171 017a 37060000 		.4byte	0x637
 1172 017e 0C       		.byte	0xc
 1173 017f 06       		.uleb128 0x6
 1174 0180 13020000 		.4byte	.LASF33
 1175 0184 08       		.byte	0x8
 1176 0185 CA       		.byte	0xca
 1177 0186 47020000 		.4byte	0x247
ARM GAS  /tmp/cc9Ao2VO.s 			page 22


 1178 018a 10       		.byte	0x10
 1179 018b 06       		.uleb128 0x6
 1180 018c A3040000 		.4byte	.LASF34
 1181 0190 08       		.byte	0x8
 1182 0191 CB       		.byte	0xcb
 1183 0192 47020000 		.4byte	0x247
 1184 0196 14       		.byte	0x14
 1185 0197 06       		.uleb128 0x6
 1186 0198 B4080000 		.4byte	.LASF35
 1187 019c 08       		.byte	0x8
 1188 019d D2       		.byte	0xd2
 1189 019e B6070000 		.4byte	0x7b6
 1190 01a2 18       		.byte	0x18
 1191 01a3 06       		.uleb128 0x6
 1192 01a4 BD050000 		.4byte	.LASF36
 1193 01a8 08       		.byte	0x8
 1194 01a9 DD       		.byte	0xdd
 1195 01aa E0000000 		.4byte	0xe0
 1196 01ae 1C       		.byte	0x1c
 1197 01af 06       		.uleb128 0x6
 1198 01b0 E7050000 		.4byte	.LASF37
 1199 01b4 08       		.byte	0x8
 1200 01b5 E1       		.byte	0xe1
 1201 01b6 D5000000 		.4byte	0xd5
 1202 01ba 1D       		.byte	0x1d
 1203 01bb 06       		.uleb128 0x6
 1204 01bc 5D080000 		.4byte	.LASF38
 1205 01c0 08       		.byte	0x8
 1206 01c1 E6       		.byte	0xe6
 1207 01c2 EB000000 		.4byte	0xeb
 1208 01c6 1E       		.byte	0x1e
 1209 01c7 06       		.uleb128 0x6
 1210 01c8 C5050000 		.4byte	.LASF39
 1211 01cc 08       		.byte	0x8
 1212 01cd EC       		.byte	0xec
 1213 01ce F6000000 		.4byte	0xf6
 1214 01d2 1F       		.byte	0x1f
 1215 01d3 07       		.uleb128 0x7
 1216 01d4 705F7500 		.ascii	"p_u\000"
 1217 01d8 08       		.byte	0x8
 1218 01d9 3101     		.2byte	0x131
 1219 01db F1060000 		.4byte	0x6f1
 1220 01df 20       		.byte	0x20
 1221 01e0 08       		.uleb128 0x8
 1222 01e1 2A040000 		.4byte	.LASF40
 1223 01e5 08       		.byte	0x8
 1224 01e6 3601     		.2byte	0x136
 1225 01e8 4D020000 		.4byte	0x24d
 1226 01ec 24       		.byte	0x24
 1227 01ed 08       		.uleb128 0x8
 1228 01ee C3020000 		.4byte	.LASF41
 1229 01f2 08       		.byte	0x8
 1230 01f3 3C01     		.2byte	0x13c
 1231 01f5 71020000 		.4byte	0x271
 1232 01f9 28       		.byte	0x28
 1233 01fa 08       		.uleb128 0x8
 1234 01fb EA080000 		.4byte	.LASF42
ARM GAS  /tmp/cc9Ao2VO.s 			page 23


 1235 01ff 08       		.byte	0x8
 1236 0200 4001     		.2byte	0x140
 1237 0202 0C010000 		.4byte	0x10c
 1238 0206 30       		.byte	0x30
 1239 0207 08       		.uleb128 0x8
 1240 0208 56060000 		.4byte	.LASF43
 1241 020c 08       		.byte	0x8
 1242 020d 4601     		.2byte	0x146
 1243 020f 17010000 		.4byte	0x117
 1244 0213 34       		.byte	0x34
 1245 0214 08       		.uleb128 0x8
 1246 0215 A9050000 		.4byte	.LASF44
 1247 0219 08       		.byte	0x8
 1248 021a 4D01     		.2byte	0x14d
 1249 021c B0070000 		.4byte	0x7b0
 1250 0220 38       		.byte	0x38
 1251 0221 08       		.uleb128 0x8
 1252 0222 AD070000 		.4byte	.LASF45
 1253 0226 08       		.byte	0x8
 1254 0227 5101     		.2byte	0x151
 1255 0229 01010000 		.4byte	0x101
 1256 022d 3C       		.byte	0x3c
 1257 022e 08       		.uleb128 0x8
 1258 022f 35020000 		.4byte	.LASF46
 1259 0233 08       		.byte	0x8
 1260 0234 5801     		.2byte	0x158
 1261 0236 24030000 		.4byte	0x324
 1262 023a 40       		.byte	0x40
 1263 023b 00       		.byte	0
 1264 023c 04       		.uleb128 0x4
 1265 023d 3D040000 		.4byte	.LASF47
 1266 0241 07       		.byte	0x7
 1267 0242 44       		.byte	0x44
 1268 0243 47020000 		.4byte	0x247
 1269 0247 09       		.uleb128 0x9
 1270 0248 04       		.byte	0x4
 1271 0249 38010000 		.4byte	0x138
 1272 024d 04       		.uleb128 0x4
 1273 024e 0B040000 		.4byte	.LASF48
 1274 0252 07       		.byte	0x7
 1275 0253 49       		.byte	0x49
 1276 0254 58020000 		.4byte	0x258
 1277 0258 05       		.uleb128 0x5
 1278 0259 91060000 		.4byte	.LASF50
 1279 025d 04       		.byte	0x4
 1280 025e 08       		.byte	0x8
 1281 025f B0       		.byte	0xb0
 1282 0260 71020000 		.4byte	0x271
 1283 0264 06       		.uleb128 0x6
 1284 0265 8B040000 		.4byte	.LASF29
 1285 0269 08       		.byte	0x8
 1286 026a B1       		.byte	0xb1
 1287 026b 47020000 		.4byte	0x247
 1288 026f 00       		.byte	0
 1289 0270 00       		.byte	0
 1290 0271 04       		.uleb128 0x4
 1291 0272 44080000 		.4byte	.LASF51
ARM GAS  /tmp/cc9Ao2VO.s 			page 24


 1292 0276 07       		.byte	0x7
 1293 0277 50       		.byte	0x50
 1294 0278 7C020000 		.4byte	0x27c
 1295 027c 05       		.uleb128 0x5
 1296 027d 82000000 		.4byte	.LASF52
 1297 0281 08       		.byte	0x8
 1298 0282 08       		.byte	0x8
 1299 0283 B7       		.byte	0xb7
 1300 0284 A1020000 		.4byte	0x2a1
 1301 0288 06       		.uleb128 0x6
 1302 0289 8B040000 		.4byte	.LASF29
 1303 028d 08       		.byte	0x8
 1304 028e B8       		.byte	0xb8
 1305 028f 47020000 		.4byte	0x247
 1306 0293 00       		.byte	0
 1307 0294 06       		.uleb128 0x6
 1308 0295 49050000 		.4byte	.LASF30
 1309 0299 08       		.byte	0x8
 1310 029a B9       		.byte	0xb9
 1311 029b 47020000 		.4byte	0x247
 1312 029f 04       		.byte	0x4
 1313 02a0 00       		.byte	0
 1314 02a1 04       		.uleb128 0x4
 1315 02a2 16000000 		.4byte	.LASF53
 1316 02a6 07       		.byte	0x7
 1317 02a7 57       		.byte	0x57
 1318 02a8 AC020000 		.4byte	0x2ac
 1319 02ac 0A       		.uleb128 0xa
 1320 02ad BD030000 		.4byte	.LASF54
 1321 02b1 1C       		.byte	0x1c
 1322 02b2 08       		.byte	0x8
 1323 02b3 9001     		.2byte	0x190
 1324 02b5 08030000 		.4byte	0x308
 1325 02b9 08       		.uleb128 0x8
 1326 02ba 80060000 		.4byte	.LASF55
 1327 02be 08       		.byte	0x8
 1328 02bf 9101     		.2byte	0x191
 1329 02c1 71020000 		.4byte	0x271
 1330 02c5 00       		.byte	0
 1331 02c6 08       		.uleb128 0x8
 1332 02c7 D9050000 		.4byte	.LASF56
 1333 02cb 08       		.byte	0x8
 1334 02cc 9201     		.2byte	0x192
 1335 02ce 01010000 		.4byte	0x101
 1336 02d2 08       		.byte	0x8
 1337 02d3 08       		.uleb128 0x8
 1338 02d4 B2040000 		.4byte	.LASF57
 1339 02d8 08       		.byte	0x8
 1340 02d9 9401     		.2byte	0x194
 1341 02db 37060000 		.4byte	0x637
 1342 02df 0C       		.byte	0xc
 1343 02e0 08       		.uleb128 0x8
 1344 02e1 2D020000 		.4byte	.LASF58
 1345 02e5 08       		.byte	0x8
 1346 02e6 9701     		.2byte	0x197
 1347 02e8 47020000 		.4byte	0x247
 1348 02ec 10       		.byte	0x10
ARM GAS  /tmp/cc9Ao2VO.s 			page 25


 1349 02ed 08       		.uleb128 0x8
 1350 02ee 08080000 		.4byte	.LASF59
 1351 02f2 08       		.byte	0x8
 1352 02f3 9801     		.2byte	0x198
 1353 02f5 47020000 		.4byte	0x247
 1354 02f9 14       		.byte	0x14
 1355 02fa 08       		.uleb128 0x8
 1356 02fb F1040000 		.4byte	.LASF60
 1357 02ff 08       		.byte	0x8
 1358 0300 9B01     		.2byte	0x19b
 1359 0302 47020000 		.4byte	0x247
 1360 0306 18       		.byte	0x18
 1361 0307 00       		.byte	0
 1362 0308 04       		.uleb128 0x4
 1363 0309 B8070000 		.4byte	.LASF61
 1364 030d 07       		.byte	0x7
 1365 030e 5C       		.byte	0x5c
 1366 030f 13030000 		.4byte	0x313
 1367 0313 09       		.uleb128 0x9
 1368 0314 04       		.byte	0x4
 1369 0315 19030000 		.4byte	0x319
 1370 0319 0B       		.uleb128 0xb
 1371 031a 24030000 		.4byte	0x324
 1372 031e 0C       		.uleb128 0xc
 1373 031f 24030000 		.4byte	0x324
 1374 0323 00       		.byte	0
 1375 0324 0D       		.uleb128 0xd
 1376 0325 04       		.byte	0x4
 1377 0326 04       		.uleb128 0x4
 1378 0327 1A040000 		.4byte	.LASF62
 1379 032b 07       		.byte	0x7
 1380 032c 61       		.byte	0x61
 1381 032d 31030000 		.4byte	0x331
 1382 0331 0A       		.uleb128 0xa
 1383 0332 33060000 		.4byte	.LASF63
 1384 0336 14       		.byte	0x14
 1385 0337 08       		.byte	0x8
 1386 0338 6B01     		.2byte	0x16b
 1387 033a 80030000 		.4byte	0x380
 1388 033e 08       		.uleb128 0x8
 1389 033f 91020000 		.4byte	.LASF64
 1390 0343 08       		.byte	0x8
 1391 0344 6C01     		.2byte	0x16c
 1392 0346 C8070000 		.4byte	0x7c8
 1393 034a 00       		.byte	0
 1394 034b 08       		.uleb128 0x8
 1395 034c 46020000 		.4byte	.LASF65
 1396 0350 08       		.byte	0x8
 1397 0351 6D01     		.2byte	0x16d
 1398 0353 C8070000 		.4byte	0x7c8
 1399 0357 04       		.byte	0x4
 1400 0358 08       		.uleb128 0x8
 1401 0359 88060000 		.4byte	.LASF66
 1402 035d 08       		.byte	0x8
 1403 035e 6E01     		.2byte	0x16e
 1404 0360 2D010000 		.4byte	0x12d
 1405 0364 08       		.byte	0x8
ARM GAS  /tmp/cc9Ao2VO.s 			page 26


 1406 0365 08       		.uleb128 0x8
 1407 0366 23090000 		.4byte	.LASF67
 1408 036a 08       		.byte	0x8
 1409 036b 6F01     		.2byte	0x16f
 1410 036d 08030000 		.4byte	0x308
 1411 0371 0C       		.byte	0xc
 1412 0372 08       		.uleb128 0x8
 1413 0373 2E080000 		.4byte	.LASF68
 1414 0377 08       		.byte	0x8
 1415 0378 7101     		.2byte	0x171
 1416 037a 24030000 		.4byte	0x324
 1417 037e 10       		.byte	0x10
 1418 037f 00       		.byte	0
 1419 0380 04       		.uleb128 0x4
 1420 0381 00010000 		.4byte	.LASF69
 1421 0385 07       		.byte	0x7
 1422 0386 66       		.byte	0x66
 1423 0387 8B030000 		.4byte	0x38b
 1424 038b 0A       		.uleb128 0xa
 1425 038c 50040000 		.4byte	.LASF70
 1426 0390 10       		.byte	0x10
 1427 0391 08       		.byte	0x8
 1428 0392 7B01     		.2byte	0x17b
 1429 0394 CD030000 		.4byte	0x3cd
 1430 0398 08       		.uleb128 0x8
 1431 0399 91020000 		.4byte	.LASF64
 1432 039d 08       		.byte	0x8
 1433 039e 7C01     		.2byte	0x17c
 1434 03a0 C8070000 		.4byte	0x7c8
 1435 03a4 00       		.byte	0
 1436 03a5 08       		.uleb128 0x8
 1437 03a6 46020000 		.4byte	.LASF65
 1438 03aa 08       		.byte	0x8
 1439 03ab 7E01     		.2byte	0x17e
 1440 03ad C8070000 		.4byte	0x7c8
 1441 03b1 04       		.byte	0x4
 1442 03b2 08       		.uleb128 0x8
 1443 03b3 88060000 		.4byte	.LASF66
 1444 03b7 08       		.byte	0x8
 1445 03b8 8001     		.2byte	0x180
 1446 03ba 2D010000 		.4byte	0x12d
 1447 03be 08       		.byte	0x8
 1448 03bf 08       		.uleb128 0x8
 1449 03c0 B8020000 		.4byte	.LASF71
 1450 03c4 08       		.byte	0x8
 1451 03c5 8201     		.2byte	0x182
 1452 03c7 CE070000 		.4byte	0x7ce
 1453 03cb 0C       		.byte	0xc
 1454 03cc 00       		.byte	0
 1455 03cd 04       		.uleb128 0x4
 1456 03ce 93000000 		.4byte	.LASF72
 1457 03d2 07       		.byte	0x7
 1458 03d3 6B       		.byte	0x6b
 1459 03d4 D8030000 		.4byte	0x3d8
 1460 03d8 0A       		.uleb128 0xa
 1461 03d9 6D050000 		.4byte	.LASF73
 1462 03dd 04       		.byte	0x4
ARM GAS  /tmp/cc9Ao2VO.s 			page 27


 1463 03de 08       		.byte	0x8
 1464 03df A201     		.2byte	0x1a2
 1465 03e1 F3030000 		.4byte	0x3f3
 1466 03e5 08       		.uleb128 0x8
 1467 03e6 DA070000 		.4byte	.LASF74
 1468 03ea 08       		.byte	0x8
 1469 03eb AA01     		.2byte	0x1aa
 1470 03ed D3070000 		.4byte	0x7d3
 1471 03f1 00       		.byte	0
 1472 03f2 00       		.byte	0
 1473 03f3 04       		.uleb128 0x4
 1474 03f4 10080000 		.4byte	.LASF75
 1475 03f8 07       		.byte	0x7
 1476 03f9 70       		.byte	0x70
 1477 03fa FE030000 		.4byte	0x3fe
 1478 03fe 0E       		.uleb128 0xe
 1479 03ff BB010000 		.4byte	.LASF76
 1480 0403 5001     		.2byte	0x150
 1481 0405 08       		.byte	0x8
 1482 0406 C201     		.2byte	0x1c2
 1483 0408 5A040000 		.4byte	0x45a
 1484 040c 08       		.uleb128 0x8
 1485 040d 18060000 		.4byte	.LASF77
 1486 0411 08       		.byte	0x8
 1487 0412 C601     		.2byte	0x1c6
 1488 0414 A1020000 		.4byte	0x2a1
 1489 0418 00       		.byte	0
 1490 0419 08       		.uleb128 0x8
 1491 041a 4E020000 		.4byte	.LASF78
 1492 041e 08       		.byte	0x8
 1493 041f CA01     		.2byte	0x1ca
 1494 0421 80030000 		.4byte	0x380
 1495 0425 1C       		.byte	0x1c
 1496 0426 07       		.uleb128 0x7
 1497 0427 64626700 		.ascii	"dbg\000"
 1498 042b 08       		.byte	0x8
 1499 042c CE01     		.2byte	0x1ce
 1500 042e CD030000 		.4byte	0x3cd
 1501 0432 2C       		.byte	0x2c
 1502 0433 08       		.uleb128 0x8
 1503 0434 E8000000 		.4byte	.LASF79
 1504 0438 08       		.byte	0x8
 1505 0439 D201     		.2byte	0x1d2
 1506 043b 38010000 		.4byte	0x138
 1507 043f 30       		.byte	0x30
 1508 0440 07       		.uleb128 0x7
 1509 0441 746D00   		.ascii	"tm\000"
 1510 0444 08       		.byte	0x8
 1511 0445 D701     		.2byte	0x1d7
 1512 0447 E6060000 		.4byte	0x6e6
 1513 044b 74       		.byte	0x74
 1514 044c 08       		.uleb128 0x8
 1515 044d 6F020000 		.4byte	.LASF80
 1516 0451 08       		.byte	0x8
 1517 0452 E301     		.2byte	0x1e3
 1518 0454 D8070000 		.4byte	0x7d8
 1519 0458 78       		.byte	0x78
ARM GAS  /tmp/cc9Ao2VO.s 			page 28


 1520 0459 00       		.byte	0
 1521 045a 02       		.uleb128 0x2
 1522 045b 04       		.byte	0x4
 1523 045c 07       		.byte	0x7
 1524 045d 34040000 		.4byte	.LASF81
 1525 0461 0F       		.uleb128 0xf
 1526 0462 B4000000 		.4byte	0xb4
 1527 0466 10       		.uleb128 0x10
 1528 0467 B4000000 		.4byte	0xb4
 1529 046b 76040000 		.4byte	0x476
 1530 046f 11       		.uleb128 0x11
 1531 0470 5A040000 		.4byte	0x45a
 1532 0474 01       		.byte	0x1
 1533 0475 00       		.byte	0
 1534 0476 10       		.uleb128 0x10
 1535 0477 B4000000 		.4byte	0xb4
 1536 047b 86040000 		.4byte	0x486
 1537 047f 11       		.uleb128 0x11
 1538 0480 5A040000 		.4byte	0x45a
 1539 0484 03       		.byte	0x3
 1540 0485 00       		.byte	0
 1541 0486 12       		.uleb128 0x12
 1542 0487 88       		.byte	0x88
 1543 0488 09       		.byte	0x9
 1544 0489 0302     		.2byte	0x203
 1545 048b 15060000 		.4byte	0x615
 1546 048f 07       		.uleb128 0x7
 1547 0490 435200   		.ascii	"CR\000"
 1548 0493 09       		.byte	0x9
 1549 0494 0502     		.2byte	0x205
 1550 0496 61040000 		.4byte	0x461
 1551 049a 00       		.byte	0
 1552 049b 08       		.uleb128 0x8
 1553 049c 1B020000 		.4byte	.LASF82
 1554 04a0 09       		.byte	0x9
 1555 04a1 0602     		.2byte	0x206
 1556 04a3 61040000 		.4byte	0x461
 1557 04a7 04       		.byte	0x4
 1558 04a8 08       		.uleb128 0x8
 1559 04a9 C3080000 		.4byte	.LASF83
 1560 04ad 09       		.byte	0x9
 1561 04ae 0702     		.2byte	0x207
 1562 04b0 61040000 		.4byte	0x461
 1563 04b4 08       		.byte	0x8
 1564 04b5 07       		.uleb128 0x7
 1565 04b6 43495200 		.ascii	"CIR\000"
 1566 04ba 09       		.byte	0x9
 1567 04bb 0802     		.2byte	0x208
 1568 04bd 61040000 		.4byte	0x461
 1569 04c1 0C       		.byte	0xc
 1570 04c2 08       		.uleb128 0x8
 1571 04c3 85010000 		.4byte	.LASF84
 1572 04c7 09       		.byte	0x9
 1573 04c8 0902     		.2byte	0x209
 1574 04ca 61040000 		.4byte	0x461
 1575 04ce 10       		.byte	0x10
 1576 04cf 08       		.uleb128 0x8
ARM GAS  /tmp/cc9Ao2VO.s 			page 29


 1577 04d0 8A070000 		.4byte	.LASF85
 1578 04d4 09       		.byte	0x9
 1579 04d5 0A02     		.2byte	0x20a
 1580 04d7 61040000 		.4byte	0x461
 1581 04db 14       		.byte	0x14
 1582 04dc 08       		.uleb128 0x8
 1583 04dd 73030000 		.4byte	.LASF86
 1584 04e1 09       		.byte	0x9
 1585 04e2 0B02     		.2byte	0x20b
 1586 04e4 61040000 		.4byte	0x461
 1587 04e8 18       		.byte	0x18
 1588 04e9 08       		.uleb128 0x8
 1589 04ea 17050000 		.4byte	.LASF87
 1590 04ee 09       		.byte	0x9
 1591 04ef 0C02     		.2byte	0x20c
 1592 04f1 B4000000 		.4byte	0xb4
 1593 04f5 1C       		.byte	0x1c
 1594 04f6 08       		.uleb128 0x8
 1595 04f7 FB040000 		.4byte	.LASF88
 1596 04fb 09       		.byte	0x9
 1597 04fc 0D02     		.2byte	0x20d
 1598 04fe 61040000 		.4byte	0x461
 1599 0502 20       		.byte	0x20
 1600 0503 08       		.uleb128 0x8
 1601 0504 CE010000 		.4byte	.LASF89
 1602 0508 09       		.byte	0x9
 1603 0509 0E02     		.2byte	0x20e
 1604 050b 61040000 		.4byte	0x461
 1605 050f 24       		.byte	0x24
 1606 0510 08       		.uleb128 0x8
 1607 0511 21050000 		.4byte	.LASF90
 1608 0515 09       		.byte	0x9
 1609 0516 0F02     		.2byte	0x20f
 1610 0518 66040000 		.4byte	0x466
 1611 051c 28       		.byte	0x28
 1612 051d 08       		.uleb128 0x8
 1613 051e BB080000 		.4byte	.LASF91
 1614 0522 09       		.byte	0x9
 1615 0523 1002     		.2byte	0x210
 1616 0525 61040000 		.4byte	0x461
 1617 0529 30       		.byte	0x30
 1618 052a 08       		.uleb128 0x8
 1619 052b 99030000 		.4byte	.LASF92
 1620 052f 09       		.byte	0x9
 1621 0530 1102     		.2byte	0x211
 1622 0532 61040000 		.4byte	0x461
 1623 0536 34       		.byte	0x34
 1624 0537 08       		.uleb128 0x8
 1625 0538 9B040000 		.4byte	.LASF93
 1626 053c 09       		.byte	0x9
 1627 053d 1202     		.2byte	0x212
 1628 053f 61040000 		.4byte	0x461
 1629 0543 38       		.byte	0x38
 1630 0544 08       		.uleb128 0x8
 1631 0545 2B050000 		.4byte	.LASF94
 1632 0549 09       		.byte	0x9
 1633 054a 1302     		.2byte	0x213
ARM GAS  /tmp/cc9Ao2VO.s 			page 30


 1634 054c B4000000 		.4byte	0xb4
 1635 0550 3C       		.byte	0x3c
 1636 0551 08       		.uleb128 0x8
 1637 0552 EB070000 		.4byte	.LASF95
 1638 0556 09       		.byte	0x9
 1639 0557 1402     		.2byte	0x214
 1640 0559 61040000 		.4byte	0x461
 1641 055d 40       		.byte	0x40
 1642 055e 08       		.uleb128 0x8
 1643 055f 10060000 		.4byte	.LASF96
 1644 0563 09       		.byte	0x9
 1645 0564 1502     		.2byte	0x215
 1646 0566 61040000 		.4byte	0x461
 1647 056a 44       		.byte	0x44
 1648 056b 08       		.uleb128 0x8
 1649 056c 35050000 		.4byte	.LASF97
 1650 0570 09       		.byte	0x9
 1651 0571 1602     		.2byte	0x216
 1652 0573 66040000 		.4byte	0x466
 1653 0577 48       		.byte	0x48
 1654 0578 08       		.uleb128 0x8
 1655 0579 32010000 		.4byte	.LASF98
 1656 057d 09       		.byte	0x9
 1657 057e 1702     		.2byte	0x217
 1658 0580 61040000 		.4byte	0x461
 1659 0584 50       		.byte	0x50
 1660 0585 08       		.uleb128 0x8
 1661 0586 B8040000 		.4byte	.LASF99
 1662 058a 09       		.byte	0x9
 1663 058b 1802     		.2byte	0x218
 1664 058d 61040000 		.4byte	0x461
 1665 0591 54       		.byte	0x54
 1666 0592 08       		.uleb128 0x8
 1667 0593 CF050000 		.4byte	.LASF100
 1668 0597 09       		.byte	0x9
 1669 0598 1902     		.2byte	0x219
 1670 059a 61040000 		.4byte	0x461
 1671 059e 58       		.byte	0x58
 1672 059f 08       		.uleb128 0x8
 1673 05a0 3F050000 		.4byte	.LASF101
 1674 05a4 09       		.byte	0x9
 1675 05a5 1A02     		.2byte	0x21a
 1676 05a7 B4000000 		.4byte	0xb4
 1677 05ab 5C       		.byte	0x5c
 1678 05ac 08       		.uleb128 0x8
 1679 05ad D7010000 		.4byte	.LASF102
 1680 05b1 09       		.byte	0x9
 1681 05b2 1B02     		.2byte	0x21b
 1682 05b4 61040000 		.4byte	0x461
 1683 05b8 60       		.byte	0x60
 1684 05b9 08       		.uleb128 0x8
 1685 05ba AD030000 		.4byte	.LASF103
 1686 05be 09       		.byte	0x9
 1687 05bf 1C02     		.2byte	0x21c
 1688 05c1 61040000 		.4byte	0x461
 1689 05c5 64       		.byte	0x64
 1690 05c6 08       		.uleb128 0x8
ARM GAS  /tmp/cc9Ao2VO.s 			page 31


 1691 05c7 61060000 		.4byte	.LASF104
 1692 05cb 09       		.byte	0x9
 1693 05cc 1D02     		.2byte	0x21d
 1694 05ce 66040000 		.4byte	0x466
 1695 05d2 68       		.byte	0x68
 1696 05d3 08       		.uleb128 0x8
 1697 05d4 79080000 		.4byte	.LASF105
 1698 05d8 09       		.byte	0x9
 1699 05d9 1E02     		.2byte	0x21e
 1700 05db 61040000 		.4byte	0x461
 1701 05df 70       		.byte	0x70
 1702 05e0 07       		.uleb128 0x7
 1703 05e1 43535200 		.ascii	"CSR\000"
 1704 05e5 09       		.byte	0x9
 1705 05e6 1F02     		.2byte	0x21f
 1706 05e8 61040000 		.4byte	0x461
 1707 05ec 74       		.byte	0x74
 1708 05ed 08       		.uleb128 0x8
 1709 05ee 50050000 		.4byte	.LASF106
 1710 05f2 09       		.byte	0x9
 1711 05f3 2002     		.2byte	0x220
 1712 05f5 66040000 		.4byte	0x466
 1713 05f9 78       		.byte	0x78
 1714 05fa 08       		.uleb128 0x8
 1715 05fb 3E080000 		.4byte	.LASF107
 1716 05ff 09       		.byte	0x9
 1717 0600 2102     		.2byte	0x221
 1718 0602 61040000 		.4byte	0x461
 1719 0606 80       		.byte	0x80
 1720 0607 08       		.uleb128 0x8
 1721 0608 62030000 		.4byte	.LASF108
 1722 060c 09       		.byte	0x9
 1723 060d 2202     		.2byte	0x222
 1724 060f 61040000 		.4byte	0x461
 1725 0613 84       		.byte	0x84
 1726 0614 00       		.byte	0
 1727 0615 13       		.uleb128 0x13
 1728 0616 DC020000 		.4byte	.LASF109
 1729 061a 09       		.byte	0x9
 1730 061b 2402     		.2byte	0x224
 1731 061d 86040000 		.4byte	0x486
 1732 0621 04       		.uleb128 0x4
 1733 0622 3D020000 		.4byte	.LASF110
 1734 0626 0A       		.byte	0xa
 1735 0627 65       		.byte	0x65
 1736 0628 24030000 		.4byte	0x324
 1737 062c 04       		.uleb128 0x4
 1738 062d EB030000 		.4byte	.LASF111
 1739 0631 0A       		.byte	0xa
 1740 0632 6D       		.byte	0x6d
 1741 0633 BF000000 		.4byte	0xbf
 1742 0637 05       		.uleb128 0x5
 1743 0638 00080000 		.4byte	.LASF112
 1744 063c 04       		.byte	0x4
 1745 063d 0A       		.byte	0xa
 1746 063e 89       		.byte	0x89
 1747 063f 50060000 		.4byte	0x650
ARM GAS  /tmp/cc9Ao2VO.s 			page 32


 1748 0643 14       		.uleb128 0x14
 1749 0644 72313300 		.ascii	"r13\000"
 1750 0648 0A       		.byte	0xa
 1751 0649 8A       		.byte	0x8a
 1752 064a CB060000 		.4byte	0x6cb
 1753 064e 00       		.byte	0
 1754 064f 00       		.byte	0
 1755 0650 05       		.uleb128 0x5
 1756 0651 76000000 		.4byte	.LASF113
 1757 0655 24       		.byte	0x24
 1758 0656 0B       		.byte	0xb
 1759 0657 FD       		.byte	0xfd
 1760 0658 CB060000 		.4byte	0x6cb
 1761 065c 07       		.uleb128 0x7
 1762 065d 723400   		.ascii	"r4\000"
 1763 0660 0B       		.byte	0xb
 1764 0661 1001     		.2byte	0x110
 1765 0663 21060000 		.4byte	0x621
 1766 0667 00       		.byte	0
 1767 0668 07       		.uleb128 0x7
 1768 0669 723500   		.ascii	"r5\000"
 1769 066c 0B       		.byte	0xb
 1770 066d 1101     		.2byte	0x111
 1771 066f 21060000 		.4byte	0x621
 1772 0673 04       		.byte	0x4
 1773 0674 07       		.uleb128 0x7
 1774 0675 723600   		.ascii	"r6\000"
 1775 0678 0B       		.byte	0xb
 1776 0679 1201     		.2byte	0x112
 1777 067b 21060000 		.4byte	0x621
 1778 067f 08       		.byte	0x8
 1779 0680 07       		.uleb128 0x7
 1780 0681 723700   		.ascii	"r7\000"
 1781 0684 0B       		.byte	0xb
 1782 0685 1301     		.2byte	0x113
 1783 0687 21060000 		.4byte	0x621
 1784 068b 0C       		.byte	0xc
 1785 068c 07       		.uleb128 0x7
 1786 068d 723800   		.ascii	"r8\000"
 1787 0690 0B       		.byte	0xb
 1788 0691 1401     		.2byte	0x114
 1789 0693 21060000 		.4byte	0x621
 1790 0697 10       		.byte	0x10
 1791 0698 07       		.uleb128 0x7
 1792 0699 723900   		.ascii	"r9\000"
 1793 069c 0B       		.byte	0xb
 1794 069d 1501     		.2byte	0x115
 1795 069f 21060000 		.4byte	0x621
 1796 06a3 14       		.byte	0x14
 1797 06a4 07       		.uleb128 0x7
 1798 06a5 72313000 		.ascii	"r10\000"
 1799 06a9 0B       		.byte	0xb
 1800 06aa 1601     		.2byte	0x116
 1801 06ac 21060000 		.4byte	0x621
 1802 06b0 18       		.byte	0x18
 1803 06b1 07       		.uleb128 0x7
 1804 06b2 72313100 		.ascii	"r11\000"
ARM GAS  /tmp/cc9Ao2VO.s 			page 33


 1805 06b6 0B       		.byte	0xb
 1806 06b7 1701     		.2byte	0x117
 1807 06b9 21060000 		.4byte	0x621
 1808 06bd 1C       		.byte	0x1c
 1809 06be 07       		.uleb128 0x7
 1810 06bf 6C7200   		.ascii	"lr\000"
 1811 06c2 0B       		.byte	0xb
 1812 06c3 1801     		.2byte	0x118
 1813 06c5 21060000 		.4byte	0x621
 1814 06c9 20       		.byte	0x20
 1815 06ca 00       		.byte	0
 1816 06cb 09       		.uleb128 0x9
 1817 06cc 04       		.byte	0x4
 1818 06cd 50060000 		.4byte	0x650
 1819 06d1 15       		.uleb128 0x15
 1820 06d2 04       		.byte	0x4
 1821 06d3 0C       		.byte	0xc
 1822 06d4 38       		.byte	0x38
 1823 06d5 E6060000 		.4byte	0x6e6
 1824 06d9 06       		.uleb128 0x6
 1825 06da E4070000 		.4byte	.LASF114
 1826 06de 0C       		.byte	0xc
 1827 06df 3C       		.byte	0x3c
 1828 06e0 CA000000 		.4byte	0xca
 1829 06e4 00       		.byte	0
 1830 06e5 00       		.byte	0
 1831 06e6 04       		.uleb128 0x4
 1832 06e7 CB040000 		.4byte	.LASF115
 1833 06eb 0C       		.byte	0xc
 1834 06ec 3D       		.byte	0x3d
 1835 06ed D1060000 		.4byte	0x6d1
 1836 06f1 16       		.uleb128 0x16
 1837 06f2 04       		.byte	0x4
 1838 06f3 08       		.byte	0x8
 1839 06f4 FA       		.byte	0xfa
 1840 06f5 4E070000 		.4byte	0x74e
 1841 06f9 17       		.uleb128 0x17
 1842 06fa AB040000 		.4byte	.LASF116
 1843 06fe 08       		.byte	0x8
 1844 06ff 0101     		.2byte	0x101
 1845 0701 0C010000 		.4byte	0x10c
 1846 0705 17       		.uleb128 0x17
 1847 0706 DF000000 		.4byte	.LASF117
 1848 070a 08       		.byte	0x8
 1849 070b 0801     		.2byte	0x108
 1850 070d 0C010000 		.4byte	0x10c
 1851 0711 17       		.uleb128 0x17
 1852 0712 AD080000 		.4byte	.LASF118
 1853 0716 08       		.byte	0x8
 1854 0717 0F01     		.2byte	0x10f
 1855 0719 24030000 		.4byte	0x324
 1856 071d 17       		.uleb128 0x17
 1857 071e 67040000 		.4byte	.LASF119
 1858 0722 08       		.byte	0x8
 1859 0723 1601     		.2byte	0x116
 1860 0725 4E070000 		.4byte	0x74e
 1861 0729 17       		.uleb128 0x17
ARM GAS  /tmp/cc9Ao2VO.s 			page 34


 1862 072a B1020000 		.4byte	.LASF120
 1863 072e 08       		.byte	0x8
 1864 072f 1E01     		.2byte	0x11e
 1865 0731 79070000 		.4byte	0x779
 1866 0735 17       		.uleb128 0x17
 1867 0736 79060000 		.4byte	.LASF121
 1868 073a 08       		.byte	0x8
 1869 073b 2701     		.2byte	0x127
 1870 073d B0070000 		.4byte	0x7b0
 1871 0741 17       		.uleb128 0x17
 1872 0742 E0050000 		.4byte	.LASF122
 1873 0746 08       		.byte	0x8
 1874 0747 2F01     		.2byte	0x12f
 1875 0749 17010000 		.4byte	0x117
 1876 074d 00       		.byte	0
 1877 074e 09       		.uleb128 0x9
 1878 074f 04       		.byte	0x4
 1879 0750 3C020000 		.4byte	0x23c
 1880 0754 05       		.uleb128 0x5
 1881 0755 44060000 		.4byte	.LASF123
 1882 0759 0C       		.byte	0xc
 1883 075a 0D       		.byte	0xd
 1884 075b 34       		.byte	0x34
 1885 075c 79070000 		.4byte	0x779
 1886 0760 06       		.uleb128 0x6
 1887 0761 D7000000 		.4byte	.LASF124
 1888 0765 0D       		.byte	0xd
 1889 0766 35       		.byte	0x35
 1890 0767 71020000 		.4byte	0x271
 1891 076b 00       		.byte	0
 1892 076c 06       		.uleb128 0x6
 1893 076d A3050000 		.4byte	.LASF125
 1894 0771 0D       		.byte	0xd
 1895 0772 37       		.byte	0x37
 1896 0773 22010000 		.4byte	0x122
 1897 0777 08       		.byte	0x8
 1898 0778 00       		.byte	0
 1899 0779 09       		.uleb128 0x9
 1900 077a 04       		.byte	0x4
 1901 077b 54070000 		.4byte	0x754
 1902 077f 05       		.uleb128 0x5
 1903 0780 54080000 		.4byte	.LASF126
 1904 0784 10       		.byte	0x10
 1905 0785 0E       		.byte	0xe
 1906 0786 39       		.byte	0x39
 1907 0787 B0070000 		.4byte	0x7b0
 1908 078b 06       		.uleb128 0x6
 1909 078c 8E010000 		.4byte	.LASF127
 1910 0790 0E       		.byte	0xe
 1911 0791 3A       		.byte	0x3a
 1912 0792 71020000 		.4byte	0x271
 1913 0796 00       		.byte	0
 1914 0797 06       		.uleb128 0x6
 1915 0798 0E090000 		.4byte	.LASF128
 1916 079c 0E       		.byte	0xe
 1917 079d 3C       		.byte	0x3c
 1918 079e 47020000 		.4byte	0x247
ARM GAS  /tmp/cc9Ao2VO.s 			page 35


 1919 07a2 08       		.byte	0x8
 1920 07a3 06       		.uleb128 0x6
 1921 07a4 9C070000 		.4byte	.LASF129
 1922 07a8 0E       		.byte	0xe
 1923 07a9 3E       		.byte	0x3e
 1924 07aa F3070000 		.4byte	0x7f3
 1925 07ae 0C       		.byte	0xc
 1926 07af 00       		.byte	0
 1927 07b0 09       		.uleb128 0x9
 1928 07b1 04       		.byte	0x4
 1929 07b2 7F070000 		.4byte	0x77f
 1930 07b6 09       		.uleb128 0x9
 1931 07b7 04       		.byte	0x4
 1932 07b8 BC070000 		.4byte	0x7bc
 1933 07bc 18       		.uleb128 0x18
 1934 07bd C1070000 		.4byte	0x7c1
 1935 07c1 02       		.uleb128 0x2
 1936 07c2 01       		.byte	0x1
 1937 07c3 08       		.byte	0x8
 1938 07c4 6F070000 		.4byte	.LASF130
 1939 07c8 09       		.uleb128 0x9
 1940 07c9 04       		.byte	0x4
 1941 07ca 26030000 		.4byte	0x326
 1942 07ce 0F       		.uleb128 0xf
 1943 07cf 2D010000 		.4byte	0x12d
 1944 07d3 0F       		.uleb128 0xf
 1945 07d4 B6070000 		.4byte	0x7b6
 1946 07d8 10       		.uleb128 0x10
 1947 07d9 2C060000 		.4byte	0x62c
 1948 07dd E8070000 		.4byte	0x7e8
 1949 07e1 11       		.uleb128 0x11
 1950 07e2 5A040000 		.4byte	0x45a
 1951 07e6 1A       		.byte	0x1a
 1952 07e7 00       		.byte	0
 1953 07e8 04       		.uleb128 0x4
 1954 07e9 61020000 		.4byte	.LASF131
 1955 07ed 0E       		.byte	0xe
 1956 07ee 34       		.byte	0x34
 1957 07ef 7F070000 		.4byte	0x77f
 1958 07f3 09       		.uleb128 0x9
 1959 07f4 04       		.byte	0x4
 1960 07f5 E8070000 		.4byte	0x7e8
 1961 07f9 09       		.uleb128 0x9
 1962 07fa 04       		.byte	0x4
 1963 07fb 61040000 		.4byte	0x461
 1964 07ff 02       		.uleb128 0x2
 1965 0800 01       		.byte	0x1
 1966 0801 02       		.byte	0x2
 1967 0802 7D050000 		.4byte	.LASF132
 1968 0806 19       		.uleb128 0x19
 1969 0807 01       		.byte	0x1
 1970 0808 0F       		.byte	0xf
 1971 0809 31       		.byte	0x31
 1972 080a 2D080000 		.4byte	0x82d
 1973 080e 1A       		.uleb128 0x1a
 1974 080f 7E080000 		.4byte	.LASF133
 1975 0813 00       		.sleb128 0
ARM GAS  /tmp/cc9Ao2VO.s 			page 36


 1976 0814 1A       		.uleb128 0x1a
 1977 0815 C2040000 		.4byte	.LASF134
 1978 0819 01       		.sleb128 1
 1979 081a 1A       		.uleb128 0x1a
 1980 081b E1030000 		.4byte	.LASF135
 1981 081f 02       		.sleb128 2
 1982 0820 1A       		.uleb128 0x1a
 1983 0821 55000000 		.4byte	.LASF136
 1984 0825 03       		.sleb128 3
 1985 0826 1A       		.uleb128 0x1a
 1986 0827 61000000 		.4byte	.LASF137
 1987 082b 04       		.sleb128 4
 1988 082c 00       		.byte	0
 1989 082d 04       		.uleb128 0x4
 1990 082e B5000000 		.4byte	.LASF138
 1991 0832 0F       		.byte	0xf
 1992 0833 37       		.byte	0x37
 1993 0834 06080000 		.4byte	0x806
 1994 0838 04       		.uleb128 0x4
 1995 0839 8F030000 		.4byte	.LASF139
 1996 083d 0F       		.byte	0xf
 1997 083e 3C       		.byte	0x3c
 1998 083f 43080000 		.4byte	0x843
 1999 0843 0A       		.uleb128 0xa
 2000 0844 8F030000 		.4byte	.LASF139
 2001 0848 18       		.byte	0x18
 2002 0849 10       		.byte	0x10
 2003 084a 6B01     		.2byte	0x16b
 2004 084c 9F080000 		.4byte	0x89f
 2005 0850 08       		.uleb128 0x8
 2006 0851 B5010000 		.4byte	.LASF140
 2007 0855 10       		.byte	0x10
 2008 0856 6F01     		.2byte	0x16f
 2009 0858 2D080000 		.4byte	0x82d
 2010 085c 00       		.byte	0
 2011 085d 08       		.uleb128 0x8
 2012 085e 7E070000 		.4byte	.LASF141
 2013 0862 10       		.byte	0x10
 2014 0863 7301     		.2byte	0x173
 2015 0865 A40A0000 		.4byte	0xaa4
 2016 0869 04       		.byte	0x4
 2017 086a 08       		.uleb128 0x8
 2018 086b F0080000 		.4byte	.LASF142
 2019 086f 10       		.byte	0x10
 2020 0870 7B01     		.2byte	0x17b
 2021 0872 B4000000 		.4byte	0xb4
 2022 0876 08       		.byte	0x8
 2023 0877 07       		.uleb128 0x7
 2024 0878 74696D00 		.ascii	"tim\000"
 2025 087c 10       		.byte	0x10
 2026 087d 7F01     		.2byte	0x17f
 2027 087f AF0A0000 		.4byte	0xaaf
 2028 0883 0C       		.byte	0xc
 2029 0884 08       		.uleb128 0x8
 2030 0885 08090000 		.4byte	.LASF143
 2031 0889 10       		.byte	0x10
 2032 088a 8301     		.2byte	0x183
ARM GAS  /tmp/cc9Ao2VO.s 			page 37


 2033 088c F9070000 		.4byte	0x7f9
 2034 0890 10       		.byte	0x10
 2035 0891 08       		.uleb128 0x8
 2036 0892 B7030000 		.4byte	.LASF144
 2037 0896 10       		.byte	0x10
 2038 0897 8701     		.2byte	0x187
 2039 0899 F9070000 		.4byte	0x7f9
 2040 089d 14       		.byte	0x14
 2041 089e 00       		.byte	0
 2042 089f 04       		.uleb128 0x4
 2043 08a0 CE020000 		.4byte	.LASF145
 2044 08a4 0F       		.byte	0xf
 2045 08a5 43       		.byte	0x43
 2046 08a6 AA080000 		.4byte	0x8aa
 2047 08aa 09       		.uleb128 0x9
 2048 08ab 04       		.byte	0x4
 2049 08ac B0080000 		.4byte	0x8b0
 2050 08b0 0B       		.uleb128 0xb
 2051 08b1 BB080000 		.4byte	0x8bb
 2052 08b5 0C       		.uleb128 0xc
 2053 08b6 BB080000 		.4byte	0x8bb
 2054 08ba 00       		.byte	0
 2055 08bb 09       		.uleb128 0x9
 2056 08bc 04       		.byte	0x4
 2057 08bd 38080000 		.4byte	0x838
 2058 08c1 12       		.uleb128 0x12
 2059 08c2 60       		.byte	0x60
 2060 08c3 11       		.byte	0x11
 2061 08c4 A101     		.2byte	0x1a1
 2062 08c6 CD090000 		.4byte	0x9cd
 2063 08ca 07       		.uleb128 0x7
 2064 08cb 43523100 		.ascii	"CR1\000"
 2065 08cf 11       		.byte	0x11
 2066 08d0 A201     		.2byte	0x1a2
 2067 08d2 61040000 		.4byte	0x461
 2068 08d6 00       		.byte	0
 2069 08d7 07       		.uleb128 0x7
 2070 08d8 43523200 		.ascii	"CR2\000"
 2071 08dc 11       		.byte	0x11
 2072 08dd A301     		.2byte	0x1a3
 2073 08df 61040000 		.4byte	0x461
 2074 08e3 04       		.byte	0x4
 2075 08e4 08       		.uleb128 0x8
 2076 08e5 79070000 		.4byte	.LASF146
 2077 08e9 11       		.byte	0x11
 2078 08ea A401     		.2byte	0x1a4
 2079 08ec 61040000 		.4byte	0x461
 2080 08f0 08       		.byte	0x8
 2081 08f1 08       		.uleb128 0x8
 2082 08f2 23000000 		.4byte	.LASF147
 2083 08f6 11       		.byte	0x11
 2084 08f7 A501     		.2byte	0x1a5
 2085 08f9 61040000 		.4byte	0x461
 2086 08fd 0C       		.byte	0xc
 2087 08fe 07       		.uleb128 0x7
 2088 08ff 535200   		.ascii	"SR\000"
 2089 0902 11       		.byte	0x11
ARM GAS  /tmp/cc9Ao2VO.s 			page 38


 2090 0903 A601     		.2byte	0x1a6
 2091 0905 61040000 		.4byte	0x461
 2092 0909 10       		.byte	0x10
 2093 090a 07       		.uleb128 0x7
 2094 090b 45475200 		.ascii	"EGR\000"
 2095 090f 11       		.byte	0x11
 2096 0910 A701     		.2byte	0x1a7
 2097 0912 61040000 		.4byte	0x461
 2098 0916 14       		.byte	0x14
 2099 0917 08       		.uleb128 0x8
 2100 0918 67010000 		.4byte	.LASF148
 2101 091c 11       		.byte	0x11
 2102 091d A801     		.2byte	0x1a8
 2103 091f 61040000 		.4byte	0x461
 2104 0923 18       		.byte	0x18
 2105 0924 08       		.uleb128 0x8
 2106 0925 6D010000 		.4byte	.LASF149
 2107 0929 11       		.byte	0x11
 2108 092a A901     		.2byte	0x1a9
 2109 092c 61040000 		.4byte	0x461
 2110 0930 1C       		.byte	0x1c
 2111 0931 08       		.uleb128 0x8
 2112 0932 EA010000 		.4byte	.LASF150
 2113 0936 11       		.byte	0x11
 2114 0937 AA01     		.2byte	0x1aa
 2115 0939 61040000 		.4byte	0x461
 2116 093d 20       		.byte	0x20
 2117 093e 07       		.uleb128 0x7
 2118 093f 434E5400 		.ascii	"CNT\000"
 2119 0943 11       		.byte	0x11
 2120 0944 AB01     		.2byte	0x1ab
 2121 0946 61040000 		.4byte	0x461
 2122 094a 24       		.byte	0x24
 2123 094b 07       		.uleb128 0x7
 2124 094c 50534300 		.ascii	"PSC\000"
 2125 0950 11       		.byte	0x11
 2126 0951 AC01     		.2byte	0x1ac
 2127 0953 61040000 		.4byte	0x461
 2128 0957 28       		.byte	0x28
 2129 0958 07       		.uleb128 0x7
 2130 0959 41525200 		.ascii	"ARR\000"
 2131 095d 11       		.byte	0x11
 2132 095e AD01     		.2byte	0x1ad
 2133 0960 61040000 		.4byte	0x461
 2134 0964 2C       		.byte	0x2c
 2135 0965 07       		.uleb128 0x7
 2136 0966 52435200 		.ascii	"RCR\000"
 2137 096a 11       		.byte	0x11
 2138 096b AE01     		.2byte	0x1ae
 2139 096d 61040000 		.4byte	0x461
 2140 0971 30       		.byte	0x30
 2141 0972 07       		.uleb128 0x7
 2142 0973 43435200 		.ascii	"CCR\000"
 2143 0977 11       		.byte	0x11
 2144 0978 AF01     		.2byte	0x1af
 2145 097a CD090000 		.4byte	0x9cd
 2146 097e 34       		.byte	0x34
ARM GAS  /tmp/cc9Ao2VO.s 			page 39


 2147 097f 08       		.uleb128 0x8
 2148 0980 23010000 		.4byte	.LASF151
 2149 0984 11       		.byte	0x11
 2150 0985 B001     		.2byte	0x1b0
 2151 0987 61040000 		.4byte	0x461
 2152 098b 44       		.byte	0x44
 2153 098c 07       		.uleb128 0x7
 2154 098d 44435200 		.ascii	"DCR\000"
 2155 0991 11       		.byte	0x11
 2156 0992 B101     		.2byte	0x1b1
 2157 0994 61040000 		.4byte	0x461
 2158 0998 48       		.byte	0x48
 2159 0999 08       		.uleb128 0x8
 2160 099a 85070000 		.4byte	.LASF152
 2161 099e 11       		.byte	0x11
 2162 099f B201     		.2byte	0x1b2
 2163 09a1 61040000 		.4byte	0x461
 2164 09a5 4C       		.byte	0x4c
 2165 09a6 07       		.uleb128 0x7
 2166 09a7 4F5200   		.ascii	"OR\000"
 2167 09aa 11       		.byte	0x11
 2168 09ab B301     		.2byte	0x1b3
 2169 09ad 61040000 		.4byte	0x461
 2170 09b1 50       		.byte	0x50
 2171 09b2 08       		.uleb128 0x8
 2172 09b3 73010000 		.4byte	.LASF153
 2173 09b7 11       		.byte	0x11
 2174 09b8 B401     		.2byte	0x1b4
 2175 09ba 61040000 		.4byte	0x461
 2176 09be 54       		.byte	0x54
 2177 09bf 08       		.uleb128 0x8
 2178 09c0 51060000 		.4byte	.LASF154
 2179 09c4 11       		.byte	0x11
 2180 09c5 B501     		.2byte	0x1b5
 2181 09c7 D2090000 		.4byte	0x9d2
 2182 09cb 58       		.byte	0x58
 2183 09cc 00       		.byte	0
 2184 09cd 0F       		.uleb128 0xf
 2185 09ce 76040000 		.4byte	0x476
 2186 09d2 0F       		.uleb128 0xf
 2187 09d3 66040000 		.4byte	0x466
 2188 09d7 13       		.uleb128 0x13
 2189 09d8 A1030000 		.4byte	.LASF155
 2190 09dc 11       		.byte	0x11
 2191 09dd B601     		.2byte	0x1b6
 2192 09df C1080000 		.4byte	0x8c1
 2193 09e3 1B       		.uleb128 0x1b
 2194 09e4 01       		.byte	0x1
 2195 09e5 10       		.byte	0x10
 2196 09e6 2801     		.2byte	0x128
 2197 09e8 F9090000 		.4byte	0x9f9
 2198 09ec 1A       		.uleb128 0x1a
 2199 09ed 00000000 		.4byte	.LASF156
 2200 09f1 00       		.sleb128 0
 2201 09f2 1A       		.uleb128 0x1a
 2202 09f3 DC040000 		.4byte	.LASF157
 2203 09f7 01       		.sleb128 1
ARM GAS  /tmp/cc9Ao2VO.s 			page 40


 2204 09f8 00       		.byte	0
 2205 09f9 13       		.uleb128 0x13
 2206 09fa 99050000 		.4byte	.LASF158
 2207 09fe 10       		.byte	0x10
 2208 09ff 2B01     		.2byte	0x12b
 2209 0a01 E3090000 		.4byte	0x9e3
 2210 0a05 13       		.uleb128 0x13
 2211 0a06 1C080000 		.4byte	.LASF159
 2212 0a0a 10       		.byte	0x10
 2213 0a0b 3001     		.2byte	0x130
 2214 0a0d B4000000 		.4byte	0xb4
 2215 0a11 1B       		.uleb128 0x1b
 2216 0a12 01       		.byte	0x1
 2217 0a13 10       		.byte	0x10
 2218 0a14 3501     		.2byte	0x135
 2219 0a16 270A0000 		.4byte	0xa27
 2220 0a1a 1A       		.uleb128 0x1a
 2221 0a1b 89080000 		.4byte	.LASF160
 2222 0a1f 00       		.sleb128 0
 2223 0a20 1A       		.uleb128 0x1a
 2224 0a21 97080000 		.4byte	.LASF161
 2225 0a25 01       		.sleb128 1
 2226 0a26 00       		.byte	0
 2227 0a27 13       		.uleb128 0x13
 2228 0a28 1E060000 		.4byte	.LASF162
 2229 0a2c 10       		.byte	0x10
 2230 0a2d 3801     		.2byte	0x138
 2231 0a2f 110A0000 		.4byte	0xa11
 2232 0a33 12       		.uleb128 0x12
 2233 0a34 1C       		.byte	0x1c
 2234 0a35 10       		.byte	0x10
 2235 0a36 4301     		.2byte	0x143
 2236 0a38 980A0000 		.4byte	0xa98
 2237 0a3c 08       		.uleb128 0x8
 2238 0a3d 74070000 		.4byte	.LASF163
 2239 0a41 10       		.byte	0x10
 2240 0a42 4701     		.2byte	0x147
 2241 0a44 F9090000 		.4byte	0x9f9
 2242 0a48 00       		.byte	0
 2243 0a49 08       		.uleb128 0x8
 2244 0a4a 28010000 		.4byte	.LASF164
 2245 0a4e 10       		.byte	0x10
 2246 0a4f 4D01     		.2byte	0x14d
 2247 0a51 050A0000 		.4byte	0xa05
 2248 0a55 04       		.byte	0x4
 2249 0a56 08       		.uleb128 0x8
 2250 0a57 92040000 		.4byte	.LASF165
 2251 0a5b 10       		.byte	0x10
 2252 0a5c 5101     		.2byte	0x151
 2253 0a5e 9F080000 		.4byte	0x89f
 2254 0a62 08       		.byte	0x8
 2255 0a63 08       		.uleb128 0x8
 2256 0a64 F2020000 		.4byte	.LASF166
 2257 0a68 10       		.byte	0x10
 2258 0a69 5501     		.2byte	0x155
 2259 0a6b 9F080000 		.4byte	0x89f
 2260 0a6f 0C       		.byte	0xc
ARM GAS  /tmp/cc9Ao2VO.s 			page 41


 2261 0a70 08       		.uleb128 0x8
 2262 0a71 56030000 		.4byte	.LASF167
 2263 0a75 10       		.byte	0x10
 2264 0a76 5901     		.2byte	0x159
 2265 0a78 9F080000 		.4byte	0x89f
 2266 0a7c 10       		.byte	0x10
 2267 0a7d 08       		.uleb128 0x8
 2268 0a7e 2B060000 		.4byte	.LASF168
 2269 0a82 10       		.byte	0x10
 2270 0a83 5F01     		.2byte	0x15f
 2271 0a85 270A0000 		.4byte	0xa27
 2272 0a89 14       		.byte	0x14
 2273 0a8a 08       		.uleb128 0x8
 2274 0a8b 34090000 		.4byte	.LASF169
 2275 0a8f 10       		.byte	0x10
 2276 0a90 6501     		.2byte	0x165
 2277 0a92 B4000000 		.4byte	0xb4
 2278 0a96 18       		.byte	0x18
 2279 0a97 00       		.byte	0
 2280 0a98 13       		.uleb128 0x13
 2281 0a99 23020000 		.4byte	.LASF170
 2282 0a9d 10       		.byte	0x10
 2283 0a9e 6601     		.2byte	0x166
 2284 0aa0 330A0000 		.4byte	0xa33
 2285 0aa4 09       		.uleb128 0x9
 2286 0aa5 04       		.byte	0x4
 2287 0aa6 AA0A0000 		.4byte	0xaaa
 2288 0aaa 18       		.uleb128 0x18
 2289 0aab 980A0000 		.4byte	0xa98
 2290 0aaf 09       		.uleb128 0x9
 2291 0ab0 04       		.byte	0x4
 2292 0ab1 D7090000 		.4byte	0x9d7
 2293 0ab5 1C       		.uleb128 0x1c
 2294 0ab6 CC070000 		.4byte	.LASF174
 2295 0aba 02       		.byte	0x2
 2296 0abb 2202     		.2byte	0x222
 2297 0abd 03       		.byte	0x3
 2298 0abe CF0A0000 		.4byte	0xacf
 2299 0ac2 1D       		.uleb128 0x1d
 2300 0ac3 69020000 		.4byte	.LASF178
 2301 0ac7 02       		.byte	0x2
 2302 0ac8 2202     		.2byte	0x222
 2303 0aca B4000000 		.4byte	0xb4
 2304 0ace 00       		.byte	0
 2305 0acf 1E       		.uleb128 0x1e
 2306 0ad0 A2000000 		.4byte	.LASF171
 2307 0ad4 0B       		.byte	0xb
 2308 0ad5 C801     		.2byte	0x1c8
 2309 0ad7 03       		.byte	0x3
 2310 0ad8 1E       		.uleb128 0x1e
 2311 0ad9 9F010000 		.4byte	.LASF172
 2312 0add 0B       		.byte	0xb
 2313 0ade E001     		.2byte	0x1e0
 2314 0ae0 03       		.byte	0x3
 2315 0ae1 1E       		.uleb128 0x1e
 2316 0ae2 F8050000 		.4byte	.LASF173
 2317 0ae6 12       		.byte	0x12
ARM GAS  /tmp/cc9Ao2VO.s 			page 42


 2318 0ae7 5A01     		.2byte	0x15a
 2319 0ae9 03       		.byte	0x3
 2320 0aea 1C       		.uleb128 0x1c
 2321 0aeb DE080000 		.4byte	.LASF175
 2322 0aef 12       		.byte	0x12
 2323 0af0 6601     		.2byte	0x166
 2324 0af2 03       		.byte	0x3
 2325 0af3 050B0000 		.4byte	0xb05
 2326 0af7 1F       		.uleb128 0x1f
 2327 0af8 EF050000 		.4byte	.LASF180
 2328 0afc 150B0000 		.4byte	0xb15
 2329 0b00 DE080000 		.4byte	.LASF175
 2330 0b04 00       		.byte	0
 2331 0b05 10       		.uleb128 0x10
 2332 0b06 C1070000 		.4byte	0x7c1
 2333 0b0a 150B0000 		.4byte	0xb15
 2334 0b0e 11       		.uleb128 0x11
 2335 0b0f 5A040000 		.4byte	0x45a
 2336 0b13 0B       		.byte	0xb
 2337 0b14 00       		.byte	0
 2338 0b15 18       		.uleb128 0x18
 2339 0b16 050B0000 		.4byte	0xb05
 2340 0b1a 1E       		.uleb128 0x1e
 2341 0b1b 02060000 		.4byte	.LASF176
 2342 0b1f 13       		.byte	0x13
 2343 0b20 F601     		.2byte	0x1f6
 2344 0b22 03       		.byte	0x3
 2345 0b23 1E       		.uleb128 0x1e
 2346 0b24 55020000 		.4byte	.LASF177
 2347 0b28 13       		.byte	0x13
 2348 0b29 EB01     		.2byte	0x1eb
 2349 0b2b 03       		.byte	0x3
 2350 0b2c 20       		.uleb128 0x20
 2351 0b2d F6080000 		.4byte	.LASF201
 2352 0b31 01       		.byte	0x1
 2353 0b32 69       		.byte	0x69
 2354 0b33 FF070000 		.4byte	0x7ff
 2355 0b37 01       		.byte	0x1
 2356 0b38 5D0B0000 		.4byte	0xb5d
 2357 0b3c 21       		.uleb128 0x21
 2358 0b3d 68050000 		.4byte	.LASF179
 2359 0b41 01       		.byte	0x1
 2360 0b42 69       		.byte	0x69
 2361 0b43 BB080000 		.4byte	0x8bb
 2362 0b47 22       		.uleb128 0x22
 2363 0b48 737200   		.ascii	"sr\000"
 2364 0b4b 01       		.byte	0x1
 2365 0b4c 6A       		.byte	0x6a
 2366 0b4d B4000000 		.4byte	0xb4
 2367 0b51 23       		.uleb128 0x23
 2368 0b52 16090000 		.4byte	.LASF181
 2369 0b56 01       		.byte	0x1
 2370 0b57 6B       		.byte	0x6b
 2371 0b58 FF070000 		.4byte	0x7ff
 2372 0b5c 00       		.byte	0
 2373 0b5d 24       		.uleb128 0x24
 2374 0b5e 2C0B0000 		.4byte	0xb2c
ARM GAS  /tmp/cc9Ao2VO.s 			page 43


 2375 0b62 00000000 		.4byte	.LFB220
 2376 0b66 36000000 		.4byte	.LFE220-.LFB220
 2377 0b6a 01       		.uleb128 0x1
 2378 0b6b 9C       		.byte	0x9c
 2379 0b6c 430C0000 		.4byte	0xc43
 2380 0b70 25       		.uleb128 0x25
 2381 0b71 3C0B0000 		.4byte	0xb3c
 2382 0b75 06       		.uleb128 0x6
 2383 0b76 FA       		.byte	0xfa
 2384 0b77 3C0B0000 		.4byte	0xb3c
 2385 0b7b 9F       		.byte	0x9f
 2386 0b7c 25       		.uleb128 0x25
 2387 0b7d 3C0B0000 		.4byte	0xb3c
 2388 0b81 06       		.uleb128 0x6
 2389 0b82 FA       		.byte	0xfa
 2390 0b83 3C0B0000 		.4byte	0xb3c
 2391 0b87 9F       		.byte	0x9f
 2392 0b88 26       		.uleb128 0x26
 2393 0b89 470B0000 		.4byte	0xb47
 2394 0b8d 00000000 		.4byte	.LLST0
 2395 0b91 26       		.uleb128 0x26
 2396 0b92 510B0000 		.4byte	0xb51
 2397 0b96 1E000000 		.4byte	.LLST1
 2398 0b9a 27       		.uleb128 0x27
 2399 0b9b 1A0B0000 		.4byte	0xb1a
 2400 0b9f 00000000 		.4byte	.LBB48
 2401 0ba3 06000000 		.4byte	.LBE48-.LBB48
 2402 0ba7 01       		.byte	0x1
 2403 0ba8 6F       		.byte	0x6f
 2404 0ba9 F60B0000 		.4byte	0xbf6
 2405 0bad 28       		.uleb128 0x28
 2406 0bae EA0A0000 		.4byte	0xaea
 2407 0bb2 00000000 		.4byte	.LBB49
 2408 0bb6 06000000 		.4byte	.LBE49-.LBB49
 2409 0bba 13       		.byte	0x13
 2410 0bbb F801     		.2byte	0x1f8
 2411 0bbd 29       		.uleb128 0x29
 2412 0bbe 00000000 		.4byte	.LBB50
 2413 0bc2 06000000 		.4byte	.LBE50-.LBB50
 2414 0bc6 2A       		.uleb128 0x2a
 2415 0bc7 F70A0000 		.4byte	0xaf7
 2416 0bcb 28       		.uleb128 0x28
 2417 0bcc D80A0000 		.4byte	0xad8
 2418 0bd0 00000000 		.4byte	.LBB51
 2419 0bd4 06000000 		.4byte	.LBE51-.LBB51
 2420 0bd8 12       		.byte	0x12
 2421 0bd9 7301     		.2byte	0x173
 2422 0bdb 28       		.uleb128 0x28
 2423 0bdc B50A0000 		.4byte	0xab5
 2424 0be0 00000000 		.4byte	.LBB52
 2425 0be4 06000000 		.4byte	.LBE52-.LBB52
 2426 0be8 0B       		.byte	0xb
 2427 0be9 E301     		.2byte	0x1e3
 2428 0beb 2B       		.uleb128 0x2b
 2429 0bec C20A0000 		.4byte	0xac2
 2430 0bf0 00       		.byte	0
 2431 0bf1 00       		.byte	0
ARM GAS  /tmp/cc9Ao2VO.s 			page 44


 2432 0bf2 00       		.byte	0
 2433 0bf3 00       		.byte	0
 2434 0bf4 00       		.byte	0
 2435 0bf5 00       		.byte	0
 2436 0bf6 2C       		.uleb128 0x2c
 2437 0bf7 230B0000 		.4byte	0xb23
 2438 0bfb 14000000 		.4byte	.LBB54
 2439 0bff 06000000 		.4byte	.LBE54-.LBB54
 2440 0c03 01       		.byte	0x1
 2441 0c04 83       		.byte	0x83
 2442 0c05 28       		.uleb128 0x28
 2443 0c06 E10A0000 		.4byte	0xae1
 2444 0c0a 14000000 		.4byte	.LBB55
 2445 0c0e 06000000 		.4byte	.LBE55-.LBB55
 2446 0c12 13       		.byte	0x13
 2447 0c13 ED01     		.2byte	0x1ed
 2448 0c15 28       		.uleb128 0x28
 2449 0c16 CF0A0000 		.4byte	0xacf
 2450 0c1a 14000000 		.4byte	.LBB56
 2451 0c1e 06000000 		.4byte	.LBE56-.LBB56
 2452 0c22 12       		.byte	0x12
 2453 0c23 5C01     		.2byte	0x15c
 2454 0c25 28       		.uleb128 0x28
 2455 0c26 B50A0000 		.4byte	0xab5
 2456 0c2a 14000000 		.4byte	.LBB57
 2457 0c2e 06000000 		.4byte	.LBE57-.LBB57
 2458 0c32 0B       		.byte	0xb
 2459 0c33 D001     		.2byte	0x1d0
 2460 0c35 2D       		.uleb128 0x2d
 2461 0c36 C20A0000 		.4byte	0xac2
 2462 0c3a 31000000 		.4byte	.LLST2
 2463 0c3e 00       		.byte	0
 2464 0c3f 00       		.byte	0
 2465 0c40 00       		.byte	0
 2466 0c41 00       		.byte	0
 2467 0c42 00       		.byte	0
 2468 0c43 2E       		.uleb128 0x2e
 2469 0c44 F3000000 		.4byte	.LASF182
 2470 0c48 01       		.byte	0x1
 2471 0c49 4F01     		.2byte	0x14f
 2472 0c4b 00000000 		.4byte	.LFB211
 2473 0c4f 2C000000 		.4byte	.LFE211-.LFB211
 2474 0c53 01       		.uleb128 0x1
 2475 0c54 9C       		.byte	0x9c
 2476 0c55 7E0C0000 		.4byte	0xc7e
 2477 0c59 2F       		.uleb128 0x2f
 2478 0c5a 0C000000 		.4byte	.LVL6
 2479 0c5e BF0F0000 		.4byte	0xfbf
 2480 0c62 6D0C0000 		.4byte	0xc6d
 2481 0c66 30       		.uleb128 0x30
 2482 0c67 01       		.uleb128 0x1
 2483 0c68 50       		.byte	0x50
 2484 0c69 02       		.uleb128 0x2
 2485 0c6a 75       		.byte	0x75
 2486 0c6b 00       		.sleb128 0
 2487 0c6c 00       		.byte	0
 2488 0c6d 31       		.uleb128 0x31
ARM GAS  /tmp/cc9Ao2VO.s 			page 45


 2489 0c6e 16000000 		.4byte	.LVL7
 2490 0c72 BF0F0000 		.4byte	0xfbf
 2491 0c76 30       		.uleb128 0x30
 2492 0c77 01       		.uleb128 0x1
 2493 0c78 50       		.byte	0x50
 2494 0c79 02       		.uleb128 0x2
 2495 0c7a 74       		.byte	0x74
 2496 0c7b 00       		.sleb128 0
 2497 0c7c 00       		.byte	0
 2498 0c7d 00       		.byte	0
 2499 0c7e 2E       		.uleb128 0x2e
 2500 0c7f D0080000 		.4byte	.LASF183
 2501 0c83 01       		.byte	0x1
 2502 0c84 8301     		.2byte	0x183
 2503 0c86 00000000 		.4byte	.LFB212
 2504 0c8a FC000000 		.4byte	.LFE212-.LFB212
 2505 0c8e 01       		.uleb128 0x1
 2506 0c8f 9C       		.byte	0x9c
 2507 0c90 020D0000 		.4byte	0xd02
 2508 0c94 32       		.uleb128 0x32
 2509 0c95 68050000 		.4byte	.LASF179
 2510 0c99 01       		.byte	0x1
 2511 0c9a 8301     		.2byte	0x183
 2512 0c9c BB080000 		.4byte	0x8bb
 2513 0ca0 46000000 		.4byte	.LLST3
 2514 0ca4 33       		.uleb128 0x33
 2515 0ca5 70736300 		.ascii	"psc\000"
 2516 0ca9 01       		.byte	0x1
 2517 0caa 8401     		.2byte	0x184
 2518 0cac B4000000 		.4byte	0xb4
 2519 0cb0 90000000 		.4byte	.LLST4
 2520 0cb4 34       		.uleb128 0x34
 2521 0cb5 EF050000 		.4byte	.LASF180
 2522 0cb9 120D0000 		.4byte	0xd12
 2523 0cbd 2F       		.uleb128 0x2f
 2524 0cbe B0000000 		.4byte	.LVL24
 2525 0cc2 D00F0000 		.4byte	0xfd0
 2526 0cc6 D50C0000 		.4byte	0xcd5
 2527 0cca 30       		.uleb128 0x30
 2528 0ccb 01       		.uleb128 0x1
 2529 0ccc 51       		.byte	0x51
 2530 0ccd 01       		.uleb128 0x1
 2531 0cce 37       		.byte	0x37
 2532 0ccf 30       		.uleb128 0x30
 2533 0cd0 01       		.uleb128 0x1
 2534 0cd1 50       		.byte	0x50
 2535 0cd2 01       		.uleb128 0x1
 2536 0cd3 49       		.byte	0x49
 2537 0cd4 00       		.byte	0
 2538 0cd5 2F       		.uleb128 0x2f
 2539 0cd6 B8000000 		.4byte	.LVL25
 2540 0cda D00F0000 		.4byte	0xfd0
 2541 0cde ED0C0000 		.4byte	0xced
 2542 0ce2 30       		.uleb128 0x30
 2543 0ce3 01       		.uleb128 0x1
 2544 0ce4 51       		.byte	0x51
 2545 0ce5 01       		.uleb128 0x1
ARM GAS  /tmp/cc9Ao2VO.s 			page 46


 2546 0ce6 37       		.byte	0x37
 2547 0ce7 30       		.uleb128 0x30
 2548 0ce8 01       		.uleb128 0x1
 2549 0ce9 50       		.byte	0x50
 2550 0cea 01       		.uleb128 0x1
 2551 0ceb 4B       		.byte	0x4b
 2552 0cec 00       		.byte	0
 2553 0ced 31       		.uleb128 0x31
 2554 0cee DE000000 		.4byte	.LVL28
 2555 0cf2 D00F0000 		.4byte	0xfd0
 2556 0cf6 30       		.uleb128 0x30
 2557 0cf7 01       		.uleb128 0x1
 2558 0cf8 51       		.byte	0x51
 2559 0cf9 01       		.uleb128 0x1
 2560 0cfa 37       		.byte	0x37
 2561 0cfb 30       		.uleb128 0x30
 2562 0cfc 01       		.uleb128 0x1
 2563 0cfd 50       		.byte	0x50
 2564 0cfe 01       		.uleb128 0x1
 2565 0cff 4C       		.byte	0x4c
 2566 0d00 00       		.byte	0
 2567 0d01 00       		.byte	0
 2568 0d02 10       		.uleb128 0x10
 2569 0d03 C1070000 		.4byte	0x7c1
 2570 0d07 120D0000 		.4byte	0xd12
 2571 0d0b 11       		.uleb128 0x11
 2572 0d0c 5A040000 		.4byte	0x45a
 2573 0d10 0D       		.byte	0xd
 2574 0d11 00       		.byte	0
 2575 0d12 18       		.uleb128 0x18
 2576 0d13 020D0000 		.4byte	0xd02
 2577 0d17 2E       		.uleb128 0x2e
 2578 0d18 F3070000 		.4byte	.LASF184
 2579 0d1c 01       		.byte	0x1
 2580 0d1d 4502     		.2byte	0x245
 2581 0d1f 00000000 		.4byte	.LFB213
 2582 0d23 58000000 		.4byte	.LFE213-.LFB213
 2583 0d27 01       		.uleb128 0x1
 2584 0d28 9C       		.byte	0x9c
 2585 0d29 730D0000 		.4byte	0xd73
 2586 0d2d 32       		.uleb128 0x32
 2587 0d2e 68050000 		.4byte	.LASF179
 2588 0d32 01       		.byte	0x1
 2589 0d33 4502     		.2byte	0x245
 2590 0d35 BB080000 		.4byte	0x8bb
 2591 0d39 56010000 		.4byte	.LLST5
 2592 0d3d 2F       		.uleb128 0x2f
 2593 0d3e 26000000 		.4byte	.LVL33
 2594 0d42 E60F0000 		.4byte	0xfe6
 2595 0d46 500D0000 		.4byte	0xd50
 2596 0d4a 30       		.uleb128 0x30
 2597 0d4b 01       		.uleb128 0x1
 2598 0d4c 50       		.byte	0x50
 2599 0d4d 01       		.uleb128 0x1
 2600 0d4e 4C       		.byte	0x4c
 2601 0d4f 00       		.byte	0
 2602 0d50 2F       		.uleb128 0x2f
ARM GAS  /tmp/cc9Ao2VO.s 			page 47


 2603 0d51 38000000 		.4byte	.LVL36
 2604 0d55 E60F0000 		.4byte	0xfe6
 2605 0d59 630D0000 		.4byte	0xd63
 2606 0d5d 30       		.uleb128 0x30
 2607 0d5e 01       		.uleb128 0x1
 2608 0d5f 50       		.byte	0x50
 2609 0d60 01       		.uleb128 0x1
 2610 0d61 49       		.byte	0x49
 2611 0d62 00       		.byte	0
 2612 0d63 31       		.uleb128 0x31
 2613 0d64 3E000000 		.4byte	.LVL37
 2614 0d68 E60F0000 		.4byte	0xfe6
 2615 0d6c 30       		.uleb128 0x30
 2616 0d6d 01       		.uleb128 0x1
 2617 0d6e 50       		.byte	0x50
 2618 0d6f 01       		.uleb128 0x1
 2619 0d70 4B       		.byte	0x4b
 2620 0d71 00       		.byte	0
 2621 0d72 00       		.byte	0
 2622 0d73 2E       		.uleb128 0x2e
 2623 0d74 EF010000 		.4byte	.LASF185
 2624 0d78 01       		.byte	0x1
 2625 0d79 9702     		.2byte	0x297
 2626 0d7b 00000000 		.4byte	.LFB214
 2627 0d7f 14000000 		.4byte	.LFE214-.LFB214
 2628 0d83 01       		.uleb128 0x1
 2629 0d84 9C       		.byte	0x9c
 2630 0d85 9A0D0000 		.4byte	0xd9a
 2631 0d89 32       		.uleb128 0x32
 2632 0d8a 68050000 		.4byte	.LASF179
 2633 0d8e 01       		.byte	0x1
 2634 0d8f 9702     		.2byte	0x297
 2635 0d91 BB080000 		.4byte	0x8bb
 2636 0d95 A9010000 		.4byte	.LLST6
 2637 0d99 00       		.byte	0
 2638 0d9a 35       		.uleb128 0x35
 2639 0d9b 64080000 		.4byte	.LASF202
 2640 0d9f 01       		.byte	0x1
 2641 0da0 AD02     		.2byte	0x2ad
 2642 0da2 FF070000 		.4byte	0x7ff
 2643 0da6 00000000 		.4byte	.LFB215
 2644 0daa 28000000 		.4byte	.LFE215-.LFB215
 2645 0dae 01       		.uleb128 0x1
 2646 0daf 9C       		.byte	0x9c
 2647 0db0 0C0E0000 		.4byte	0xe0c
 2648 0db4 32       		.uleb128 0x32
 2649 0db5 68050000 		.4byte	.LASF179
 2650 0db9 01       		.byte	0x1
 2651 0dba AD02     		.2byte	0x2ad
 2652 0dbc BB080000 		.4byte	0x8bb
 2653 0dc0 CA010000 		.4byte	.LLST7
 2654 0dc4 36       		.uleb128 0x36
 2655 0dc5 1A000000 		.4byte	.LVL43
 2656 0dc9 5D0B0000 		.4byte	0xb5d
 2657 0dcd ED0D0000 		.4byte	0xded
 2658 0dd1 30       		.uleb128 0x30
 2659 0dd2 01       		.uleb128 0x1
ARM GAS  /tmp/cc9Ao2VO.s 			page 48


 2660 0dd3 51       		.byte	0x51
 2661 0dd4 05       		.uleb128 0x5
 2662 0dd5 F3       		.byte	0xf3
 2663 0dd6 01       		.uleb128 0x1
 2664 0dd7 50       		.byte	0x50
 2665 0dd8 23       		.byte	0x23
 2666 0dd9 0C       		.uleb128 0xc
 2667 0dda 30       		.uleb128 0x30
 2668 0ddb 01       		.uleb128 0x1
 2669 0ddc 50       		.byte	0x50
 2670 0ddd 05       		.uleb128 0x5
 2671 0dde F3       		.byte	0xf3
 2672 0ddf 01       		.uleb128 0x1
 2673 0de0 50       		.byte	0x50
 2674 0de1 23       		.byte	0x23
 2675 0de2 04       		.uleb128 0x4
 2676 0de3 37       		.uleb128 0x37
 2677 0de4 3C0B0000 		.4byte	0xb3c
 2678 0de8 03       		.uleb128 0x3
 2679 0de9 F3       		.byte	0xf3
 2680 0dea 01       		.uleb128 0x1
 2681 0deb 50       		.byte	0x50
 2682 0dec 00       		.byte	0
 2683 0ded 31       		.uleb128 0x31
 2684 0dee 22000000 		.4byte	.LVL45
 2685 0df2 5D0B0000 		.4byte	0xb5d
 2686 0df6 30       		.uleb128 0x30
 2687 0df7 01       		.uleb128 0x1
 2688 0df8 51       		.byte	0x51
 2689 0df9 02       		.uleb128 0x2
 2690 0dfa 74       		.byte	0x74
 2691 0dfb 00       		.sleb128 0
 2692 0dfc 30       		.uleb128 0x30
 2693 0dfd 01       		.uleb128 0x1
 2694 0dfe 50       		.byte	0x50
 2695 0dff 02       		.uleb128 0x2
 2696 0e00 75       		.byte	0x75
 2697 0e01 00       		.sleb128 0
 2698 0e02 37       		.uleb128 0x37
 2699 0e03 3C0B0000 		.4byte	0xb3c
 2700 0e07 02       		.uleb128 0x2
 2701 0e08 74       		.byte	0x74
 2702 0e09 74       		.sleb128 -12
 2703 0e0a 00       		.byte	0
 2704 0e0b 00       		.byte	0
 2705 0e0c 2E       		.uleb128 0x2e
 2706 0e0d F6030000 		.4byte	.LASF186
 2707 0e11 01       		.byte	0x1
 2708 0e12 C002     		.2byte	0x2c0
 2709 0e14 00000000 		.4byte	.LFB216
 2710 0e18 10000000 		.4byte	.LFE216-.LFB216
 2711 0e1c 01       		.uleb128 0x1
 2712 0e1d 9C       		.byte	0x9c
 2713 0e1e 310E0000 		.4byte	0xe31
 2714 0e22 38       		.uleb128 0x38
 2715 0e23 68050000 		.4byte	.LASF179
 2716 0e27 01       		.byte	0x1
ARM GAS  /tmp/cc9Ao2VO.s 			page 49


 2717 0e28 C002     		.2byte	0x2c0
 2718 0e2a BB080000 		.4byte	0x8bb
 2719 0e2e 01       		.uleb128 0x1
 2720 0e2f 50       		.byte	0x50
 2721 0e30 00       		.byte	0
 2722 0e31 2E       		.uleb128 0x2e
 2723 0e32 2F000000 		.4byte	.LASF187
 2724 0e36 01       		.byte	0x1
 2725 0e37 D202     		.2byte	0x2d2
 2726 0e39 00000000 		.4byte	.LFB217
 2727 0e3d 3E000000 		.4byte	.LFE217-.LFB217
 2728 0e41 01       		.uleb128 0x1
 2729 0e42 9C       		.byte	0x9c
 2730 0e43 680E0000 		.4byte	0xe68
 2731 0e47 32       		.uleb128 0x32
 2732 0e48 68050000 		.4byte	.LASF179
 2733 0e4c 01       		.byte	0x1
 2734 0e4d D202     		.2byte	0x2d2
 2735 0e4f BB080000 		.4byte	0x8bb
 2736 0e53 1D020000 		.4byte	.LLST8
 2737 0e57 39       		.uleb128 0x39
 2738 0e58 34090000 		.4byte	.LASF169
 2739 0e5c 01       		.byte	0x1
 2740 0e5d D302     		.2byte	0x2d3
 2741 0e5f B4000000 		.4byte	0xb4
 2742 0e63 3E020000 		.4byte	.LLST9
 2743 0e67 00       		.byte	0
 2744 0e68 2E       		.uleb128 0x2e
 2745 0e69 6D040000 		.4byte	.LASF188
 2746 0e6d 01       		.byte	0x1
 2747 0e6e 0003     		.2byte	0x300
 2748 0e70 00000000 		.4byte	.LFB218
 2749 0e74 0C000000 		.4byte	.LFE218-.LFB218
 2750 0e78 01       		.uleb128 0x1
 2751 0e79 9C       		.byte	0x9c
 2752 0e7a 8D0E0000 		.4byte	0xe8d
 2753 0e7e 38       		.uleb128 0x38
 2754 0e7f 68050000 		.4byte	.LASF179
 2755 0e83 01       		.byte	0x1
 2756 0e84 0003     		.2byte	0x300
 2757 0e86 BB080000 		.4byte	0x8bb
 2758 0e8a 01       		.uleb128 0x1
 2759 0e8b 50       		.byte	0x50
 2760 0e8c 00       		.byte	0
 2761 0e8d 3A       		.uleb128 0x3a
 2762 0e8e FC020000 		.4byte	.LASF189
 2763 0e92 01       		.byte	0x1
 2764 0e93 0D03     		.2byte	0x30d
 2765 0e95 00000000 		.4byte	.LFB219
 2766 0e99 8C000000 		.4byte	.LFE219-.LFB219
 2767 0e9d 01       		.uleb128 0x1
 2768 0e9e 9C       		.byte	0x9c
 2769 0e9f DF0E0000 		.4byte	0xedf
 2770 0ea3 32       		.uleb128 0x32
 2771 0ea4 68050000 		.4byte	.LASF179
 2772 0ea8 01       		.byte	0x1
 2773 0ea9 0D03     		.2byte	0x30d
ARM GAS  /tmp/cc9Ao2VO.s 			page 50


 2774 0eab BB080000 		.4byte	0x8bb
 2775 0eaf 94020000 		.4byte	.LLST10
 2776 0eb3 33       		.uleb128 0x33
 2777 0eb4 737200   		.ascii	"sr\000"
 2778 0eb7 01       		.byte	0x1
 2779 0eb8 0E03     		.2byte	0x30e
 2780 0eba B4000000 		.4byte	0xb4
 2781 0ebe FF020000 		.4byte	.LLST11
 2782 0ec2 3B       		.uleb128 0x3b
 2783 0ec3 4C000000 		.4byte	.LVL67
 2784 0ec7 D20E0000 		.4byte	0xed2
 2785 0ecb 30       		.uleb128 0x30
 2786 0ecc 01       		.uleb128 0x1
 2787 0ecd 50       		.byte	0x50
 2788 0ece 02       		.uleb128 0x2
 2789 0ecf 76       		.byte	0x76
 2790 0ed0 00       		.sleb128 0
 2791 0ed1 00       		.byte	0
 2792 0ed2 3C       		.uleb128 0x3c
 2793 0ed3 7E000000 		.4byte	.LVL70
 2794 0ed7 30       		.uleb128 0x30
 2795 0ed8 01       		.uleb128 0x1
 2796 0ed9 50       		.byte	0x50
 2797 0eda 02       		.uleb128 0x2
 2798 0edb 76       		.byte	0x76
 2799 0edc 00       		.sleb128 0
 2800 0edd 00       		.byte	0
 2801 0ede 00       		.byte	0
 2802 0edf 3D       		.uleb128 0x3d
 2803 0ee0 2B090000 		.4byte	.LASF190
 2804 0ee4 01       		.byte	0x1
 2805 0ee5 9B       		.byte	0x9b
 2806 0ee6 00000000 		.4byte	.LFB208
 2807 0eea 14000000 		.4byte	.LFE208-.LFB208
 2808 0eee 01       		.uleb128 0x1
 2809 0eef 9C       		.byte	0x9c
 2810 0ef0 150F0000 		.4byte	0xf15
 2811 0ef4 2F       		.uleb128 0x2f
 2812 0ef5 08000000 		.4byte	.LVL74
 2813 0ef9 8D0E0000 		.4byte	0xe8d
 2814 0efd 0B0F0000 		.4byte	0xf0b
 2815 0f01 30       		.uleb128 0x30
 2816 0f02 01       		.uleb128 0x1
 2817 0f03 50       		.byte	0x50
 2818 0f04 05       		.uleb128 0x5
 2819 0f05 03       		.byte	0x3
 2820 0f06 00000000 		.4byte	.LANCHOR0
 2821 0f0a 00       		.byte	0
 2822 0f0b 3E       		.uleb128 0x3e
 2823 0f0c 10000000 		.4byte	.LVL75
 2824 0f10 F70F0000 		.4byte	0xff7
 2825 0f14 00       		.byte	0
 2826 0f15 3D       		.uleb128 0x3d
 2827 0f16 AC000000 		.4byte	.LASF191
 2828 0f1a 01       		.byte	0x1
 2829 0f1b AC       		.byte	0xac
 2830 0f1c 00000000 		.4byte	.LFB209
ARM GAS  /tmp/cc9Ao2VO.s 			page 51


 2831 0f20 14000000 		.4byte	.LFE209-.LFB209
 2832 0f24 01       		.uleb128 0x1
 2833 0f25 9C       		.byte	0x9c
 2834 0f26 4B0F0000 		.4byte	0xf4b
 2835 0f2a 2F       		.uleb128 0x2f
 2836 0f2b 08000000 		.4byte	.LVL76
 2837 0f2f 8D0E0000 		.4byte	0xe8d
 2838 0f33 410F0000 		.4byte	0xf41
 2839 0f37 30       		.uleb128 0x30
 2840 0f38 01       		.uleb128 0x1
 2841 0f39 50       		.byte	0x50
 2842 0f3a 05       		.uleb128 0x5
 2843 0f3b 03       		.byte	0x3
 2844 0f3c 00000000 		.4byte	.LANCHOR0
 2845 0f40 00       		.byte	0
 2846 0f41 3E       		.uleb128 0x3e
 2847 0f42 10000000 		.4byte	.LVL77
 2848 0f46 F70F0000 		.4byte	0xff7
 2849 0f4a 00       		.byte	0
 2850 0f4b 3D       		.uleb128 0x3d
 2851 0f4c 96010000 		.4byte	.LASF192
 2852 0f50 01       		.byte	0x1
 2853 0f51 C1       		.byte	0xc1
 2854 0f52 00000000 		.4byte	.LFB210
 2855 0f56 14000000 		.4byte	.LFE210-.LFB210
 2856 0f5a 01       		.uleb128 0x1
 2857 0f5b 9C       		.byte	0x9c
 2858 0f5c 810F0000 		.4byte	0xf81
 2859 0f60 2F       		.uleb128 0x2f
 2860 0f61 08000000 		.4byte	.LVL78
 2861 0f65 8D0E0000 		.4byte	0xe8d
 2862 0f69 770F0000 		.4byte	0xf77
 2863 0f6d 30       		.uleb128 0x30
 2864 0f6e 01       		.uleb128 0x1
 2865 0f6f 50       		.byte	0x50
 2866 0f70 05       		.uleb128 0x5
 2867 0f71 03       		.byte	0x3
 2868 0f72 00000000 		.4byte	.LANCHOR1
 2869 0f76 00       		.byte	0
 2870 0f77 3E       		.uleb128 0x3e
 2871 0f78 10000000 		.4byte	.LVL79
 2872 0f7c F70F0000 		.4byte	0xff7
 2873 0f80 00       		.byte	0
 2874 0f81 3F       		.uleb128 0x3f
 2875 0f82 16010000 		.4byte	.LASF193
 2876 0f86 14       		.byte	0x14
 2877 0f87 5506     		.2byte	0x655
 2878 0f89 8D0F0000 		.4byte	0xf8d
 2879 0f8d 0F       		.uleb128 0xf
 2880 0f8e A9000000 		.4byte	0xa9
 2881 0f92 40       		.uleb128 0x40
 2882 0f93 636800   		.ascii	"ch\000"
 2883 0f96 08       		.byte	0x8
 2884 0f97 0902     		.2byte	0x209
 2885 0f99 F3030000 		.4byte	0x3f3
 2886 0f9d 41       		.uleb128 0x41
 2887 0f9e 99020000 		.4byte	.LASF194
ARM GAS  /tmp/cc9Ao2VO.s 			page 52


 2888 0fa2 01       		.byte	0x1
 2889 0fa3 2E       		.byte	0x2e
 2890 0fa4 38080000 		.4byte	0x838
 2891 0fa8 05       		.uleb128 0x5
 2892 0fa9 03       		.byte	0x3
 2893 0faa 00000000 		.4byte	ICUD1
 2894 0fae 41       		.uleb128 0x41
 2895 0faf 5A050000 		.4byte	.LASF195
 2896 0fb3 01       		.byte	0x1
 2897 0fb4 36       		.byte	0x36
 2898 0fb5 38080000 		.4byte	0x838
 2899 0fb9 05       		.uleb128 0x5
 2900 0fba 03       		.byte	0x3
 2901 0fbb 00000000 		.4byte	ICUD2
 2902 0fbf 42       		.uleb128 0x42
 2903 0fc0 6B060000 		.4byte	.LASF196
 2904 0fc4 0F       		.byte	0xf
 2905 0fc5 DE       		.byte	0xde
 2906 0fc6 D00F0000 		.4byte	0xfd0
 2907 0fca 0C       		.uleb128 0xc
 2908 0fcb BB080000 		.4byte	0x8bb
 2909 0fcf 00       		.byte	0
 2910 0fd0 42       		.uleb128 0x42
 2911 0fd1 56010000 		.4byte	.LASF197
 2912 0fd5 15       		.byte	0x15
 2913 0fd6 4E       		.byte	0x4e
 2914 0fd7 E60F0000 		.4byte	0xfe6
 2915 0fdb 0C       		.uleb128 0xc
 2916 0fdc B4000000 		.4byte	0xb4
 2917 0fe0 0C       		.uleb128 0xc
 2918 0fe1 B4000000 		.4byte	0xb4
 2919 0fe5 00       		.byte	0
 2920 0fe6 42       		.uleb128 0x42
 2921 0fe7 9F020000 		.4byte	.LASF198
 2922 0feb 15       		.byte	0x15
 2923 0fec 4F       		.byte	0x4f
 2924 0fed F70F0000 		.4byte	0xff7
 2925 0ff1 0C       		.uleb128 0xc
 2926 0ff2 B4000000 		.4byte	0xb4
 2927 0ff6 00       		.byte	0
 2928 0ff7 43       		.uleb128 0x43
 2929 0ff8 7C030000 		.4byte	.LASF203
 2930 0ffc 0B       		.byte	0xb
 2931 0ffd 6F01     		.2byte	0x16f
 2932 0fff 00       		.byte	0
 2933              		.section	.debug_abbrev,"",%progbits
 2934              	.Ldebug_abbrev0:
 2935 0000 01       		.uleb128 0x1
 2936 0001 11       		.uleb128 0x11
 2937 0002 01       		.byte	0x1
 2938 0003 25       		.uleb128 0x25
 2939 0004 0E       		.uleb128 0xe
 2940 0005 13       		.uleb128 0x13
 2941 0006 0B       		.uleb128 0xb
 2942 0007 03       		.uleb128 0x3
 2943 0008 0E       		.uleb128 0xe
 2944 0009 55       		.uleb128 0x55
ARM GAS  /tmp/cc9Ao2VO.s 			page 53


 2945 000a 17       		.uleb128 0x17
 2946 000b 11       		.uleb128 0x11
 2947 000c 01       		.uleb128 0x1
 2948 000d 10       		.uleb128 0x10
 2949 000e 17       		.uleb128 0x17
 2950 000f 00       		.byte	0
 2951 0010 00       		.byte	0
 2952 0011 02       		.uleb128 0x2
 2953 0012 24       		.uleb128 0x24
 2954 0013 00       		.byte	0
 2955 0014 0B       		.uleb128 0xb
 2956 0015 0B       		.uleb128 0xb
 2957 0016 3E       		.uleb128 0x3e
 2958 0017 0B       		.uleb128 0xb
 2959 0018 03       		.uleb128 0x3
 2960 0019 0E       		.uleb128 0xe
 2961 001a 00       		.byte	0
 2962 001b 00       		.byte	0
 2963 001c 03       		.uleb128 0x3
 2964 001d 24       		.uleb128 0x24
 2965 001e 00       		.byte	0
 2966 001f 0B       		.uleb128 0xb
 2967 0020 0B       		.uleb128 0xb
 2968 0021 3E       		.uleb128 0x3e
 2969 0022 0B       		.uleb128 0xb
 2970 0023 03       		.uleb128 0x3
 2971 0024 08       		.uleb128 0x8
 2972 0025 00       		.byte	0
 2973 0026 00       		.byte	0
 2974 0027 04       		.uleb128 0x4
 2975 0028 16       		.uleb128 0x16
 2976 0029 00       		.byte	0
 2977 002a 03       		.uleb128 0x3
 2978 002b 0E       		.uleb128 0xe
 2979 002c 3A       		.uleb128 0x3a
 2980 002d 0B       		.uleb128 0xb
 2981 002e 3B       		.uleb128 0x3b
 2982 002f 0B       		.uleb128 0xb
 2983 0030 49       		.uleb128 0x49
 2984 0031 13       		.uleb128 0x13
 2985 0032 00       		.byte	0
 2986 0033 00       		.byte	0
 2987 0034 05       		.uleb128 0x5
 2988 0035 13       		.uleb128 0x13
 2989 0036 01       		.byte	0x1
 2990 0037 03       		.uleb128 0x3
 2991 0038 0E       		.uleb128 0xe
 2992 0039 0B       		.uleb128 0xb
 2993 003a 0B       		.uleb128 0xb
 2994 003b 3A       		.uleb128 0x3a
 2995 003c 0B       		.uleb128 0xb
 2996 003d 3B       		.uleb128 0x3b
 2997 003e 0B       		.uleb128 0xb
 2998 003f 01       		.uleb128 0x1
 2999 0040 13       		.uleb128 0x13
 3000 0041 00       		.byte	0
 3001 0042 00       		.byte	0
ARM GAS  /tmp/cc9Ao2VO.s 			page 54


 3002 0043 06       		.uleb128 0x6
 3003 0044 0D       		.uleb128 0xd
 3004 0045 00       		.byte	0
 3005 0046 03       		.uleb128 0x3
 3006 0047 0E       		.uleb128 0xe
 3007 0048 3A       		.uleb128 0x3a
 3008 0049 0B       		.uleb128 0xb
 3009 004a 3B       		.uleb128 0x3b
 3010 004b 0B       		.uleb128 0xb
 3011 004c 49       		.uleb128 0x49
 3012 004d 13       		.uleb128 0x13
 3013 004e 38       		.uleb128 0x38
 3014 004f 0B       		.uleb128 0xb
 3015 0050 00       		.byte	0
 3016 0051 00       		.byte	0
 3017 0052 07       		.uleb128 0x7
 3018 0053 0D       		.uleb128 0xd
 3019 0054 00       		.byte	0
 3020 0055 03       		.uleb128 0x3
 3021 0056 08       		.uleb128 0x8
 3022 0057 3A       		.uleb128 0x3a
 3023 0058 0B       		.uleb128 0xb
 3024 0059 3B       		.uleb128 0x3b
 3025 005a 05       		.uleb128 0x5
 3026 005b 49       		.uleb128 0x49
 3027 005c 13       		.uleb128 0x13
 3028 005d 38       		.uleb128 0x38
 3029 005e 0B       		.uleb128 0xb
 3030 005f 00       		.byte	0
 3031 0060 00       		.byte	0
 3032 0061 08       		.uleb128 0x8
 3033 0062 0D       		.uleb128 0xd
 3034 0063 00       		.byte	0
 3035 0064 03       		.uleb128 0x3
 3036 0065 0E       		.uleb128 0xe
 3037 0066 3A       		.uleb128 0x3a
 3038 0067 0B       		.uleb128 0xb
 3039 0068 3B       		.uleb128 0x3b
 3040 0069 05       		.uleb128 0x5
 3041 006a 49       		.uleb128 0x49
 3042 006b 13       		.uleb128 0x13
 3043 006c 38       		.uleb128 0x38
 3044 006d 0B       		.uleb128 0xb
 3045 006e 00       		.byte	0
 3046 006f 00       		.byte	0
 3047 0070 09       		.uleb128 0x9
 3048 0071 0F       		.uleb128 0xf
 3049 0072 00       		.byte	0
 3050 0073 0B       		.uleb128 0xb
 3051 0074 0B       		.uleb128 0xb
 3052 0075 49       		.uleb128 0x49
 3053 0076 13       		.uleb128 0x13
 3054 0077 00       		.byte	0
 3055 0078 00       		.byte	0
 3056 0079 0A       		.uleb128 0xa
 3057 007a 13       		.uleb128 0x13
 3058 007b 01       		.byte	0x1
ARM GAS  /tmp/cc9Ao2VO.s 			page 55


 3059 007c 03       		.uleb128 0x3
 3060 007d 0E       		.uleb128 0xe
 3061 007e 0B       		.uleb128 0xb
 3062 007f 0B       		.uleb128 0xb
 3063 0080 3A       		.uleb128 0x3a
 3064 0081 0B       		.uleb128 0xb
 3065 0082 3B       		.uleb128 0x3b
 3066 0083 05       		.uleb128 0x5
 3067 0084 01       		.uleb128 0x1
 3068 0085 13       		.uleb128 0x13
 3069 0086 00       		.byte	0
 3070 0087 00       		.byte	0
 3071 0088 0B       		.uleb128 0xb
 3072 0089 15       		.uleb128 0x15
 3073 008a 01       		.byte	0x1
 3074 008b 27       		.uleb128 0x27
 3075 008c 19       		.uleb128 0x19
 3076 008d 01       		.uleb128 0x1
 3077 008e 13       		.uleb128 0x13
 3078 008f 00       		.byte	0
 3079 0090 00       		.byte	0
 3080 0091 0C       		.uleb128 0xc
 3081 0092 05       		.uleb128 0x5
 3082 0093 00       		.byte	0
 3083 0094 49       		.uleb128 0x49
 3084 0095 13       		.uleb128 0x13
 3085 0096 00       		.byte	0
 3086 0097 00       		.byte	0
 3087 0098 0D       		.uleb128 0xd
 3088 0099 0F       		.uleb128 0xf
 3089 009a 00       		.byte	0
 3090 009b 0B       		.uleb128 0xb
 3091 009c 0B       		.uleb128 0xb
 3092 009d 00       		.byte	0
 3093 009e 00       		.byte	0
 3094 009f 0E       		.uleb128 0xe
 3095 00a0 13       		.uleb128 0x13
 3096 00a1 01       		.byte	0x1
 3097 00a2 03       		.uleb128 0x3
 3098 00a3 0E       		.uleb128 0xe
 3099 00a4 0B       		.uleb128 0xb
 3100 00a5 05       		.uleb128 0x5
 3101 00a6 3A       		.uleb128 0x3a
 3102 00a7 0B       		.uleb128 0xb
 3103 00a8 3B       		.uleb128 0x3b
 3104 00a9 05       		.uleb128 0x5
 3105 00aa 01       		.uleb128 0x1
 3106 00ab 13       		.uleb128 0x13
 3107 00ac 00       		.byte	0
 3108 00ad 00       		.byte	0
 3109 00ae 0F       		.uleb128 0xf
 3110 00af 35       		.uleb128 0x35
 3111 00b0 00       		.byte	0
 3112 00b1 49       		.uleb128 0x49
 3113 00b2 13       		.uleb128 0x13
 3114 00b3 00       		.byte	0
 3115 00b4 00       		.byte	0
ARM GAS  /tmp/cc9Ao2VO.s 			page 56


 3116 00b5 10       		.uleb128 0x10
 3117 00b6 01       		.uleb128 0x1
 3118 00b7 01       		.byte	0x1
 3119 00b8 49       		.uleb128 0x49
 3120 00b9 13       		.uleb128 0x13
 3121 00ba 01       		.uleb128 0x1
 3122 00bb 13       		.uleb128 0x13
 3123 00bc 00       		.byte	0
 3124 00bd 00       		.byte	0
 3125 00be 11       		.uleb128 0x11
 3126 00bf 21       		.uleb128 0x21
 3127 00c0 00       		.byte	0
 3128 00c1 49       		.uleb128 0x49
 3129 00c2 13       		.uleb128 0x13
 3130 00c3 2F       		.uleb128 0x2f
 3131 00c4 0B       		.uleb128 0xb
 3132 00c5 00       		.byte	0
 3133 00c6 00       		.byte	0
 3134 00c7 12       		.uleb128 0x12
 3135 00c8 13       		.uleb128 0x13
 3136 00c9 01       		.byte	0x1
 3137 00ca 0B       		.uleb128 0xb
 3138 00cb 0B       		.uleb128 0xb
 3139 00cc 3A       		.uleb128 0x3a
 3140 00cd 0B       		.uleb128 0xb
 3141 00ce 3B       		.uleb128 0x3b
 3142 00cf 05       		.uleb128 0x5
 3143 00d0 01       		.uleb128 0x1
 3144 00d1 13       		.uleb128 0x13
 3145 00d2 00       		.byte	0
 3146 00d3 00       		.byte	0
 3147 00d4 13       		.uleb128 0x13
 3148 00d5 16       		.uleb128 0x16
 3149 00d6 00       		.byte	0
 3150 00d7 03       		.uleb128 0x3
 3151 00d8 0E       		.uleb128 0xe
 3152 00d9 3A       		.uleb128 0x3a
 3153 00da 0B       		.uleb128 0xb
 3154 00db 3B       		.uleb128 0x3b
 3155 00dc 05       		.uleb128 0x5
 3156 00dd 49       		.uleb128 0x49
 3157 00de 13       		.uleb128 0x13
 3158 00df 00       		.byte	0
 3159 00e0 00       		.byte	0
 3160 00e1 14       		.uleb128 0x14
 3161 00e2 0D       		.uleb128 0xd
 3162 00e3 00       		.byte	0
 3163 00e4 03       		.uleb128 0x3
 3164 00e5 08       		.uleb128 0x8
 3165 00e6 3A       		.uleb128 0x3a
 3166 00e7 0B       		.uleb128 0xb
 3167 00e8 3B       		.uleb128 0x3b
 3168 00e9 0B       		.uleb128 0xb
 3169 00ea 49       		.uleb128 0x49
 3170 00eb 13       		.uleb128 0x13
 3171 00ec 38       		.uleb128 0x38
 3172 00ed 0B       		.uleb128 0xb
ARM GAS  /tmp/cc9Ao2VO.s 			page 57


 3173 00ee 00       		.byte	0
 3174 00ef 00       		.byte	0
 3175 00f0 15       		.uleb128 0x15
 3176 00f1 13       		.uleb128 0x13
 3177 00f2 01       		.byte	0x1
 3178 00f3 0B       		.uleb128 0xb
 3179 00f4 0B       		.uleb128 0xb
 3180 00f5 3A       		.uleb128 0x3a
 3181 00f6 0B       		.uleb128 0xb
 3182 00f7 3B       		.uleb128 0x3b
 3183 00f8 0B       		.uleb128 0xb
 3184 00f9 01       		.uleb128 0x1
 3185 00fa 13       		.uleb128 0x13
 3186 00fb 00       		.byte	0
 3187 00fc 00       		.byte	0
 3188 00fd 16       		.uleb128 0x16
 3189 00fe 17       		.uleb128 0x17
 3190 00ff 01       		.byte	0x1
 3191 0100 0B       		.uleb128 0xb
 3192 0101 0B       		.uleb128 0xb
 3193 0102 3A       		.uleb128 0x3a
 3194 0103 0B       		.uleb128 0xb
 3195 0104 3B       		.uleb128 0x3b
 3196 0105 0B       		.uleb128 0xb
 3197 0106 01       		.uleb128 0x1
 3198 0107 13       		.uleb128 0x13
 3199 0108 00       		.byte	0
 3200 0109 00       		.byte	0
 3201 010a 17       		.uleb128 0x17
 3202 010b 0D       		.uleb128 0xd
 3203 010c 00       		.byte	0
 3204 010d 03       		.uleb128 0x3
 3205 010e 0E       		.uleb128 0xe
 3206 010f 3A       		.uleb128 0x3a
 3207 0110 0B       		.uleb128 0xb
 3208 0111 3B       		.uleb128 0x3b
 3209 0112 05       		.uleb128 0x5
 3210 0113 49       		.uleb128 0x49
 3211 0114 13       		.uleb128 0x13
 3212 0115 00       		.byte	0
 3213 0116 00       		.byte	0
 3214 0117 18       		.uleb128 0x18
 3215 0118 26       		.uleb128 0x26
 3216 0119 00       		.byte	0
 3217 011a 49       		.uleb128 0x49
 3218 011b 13       		.uleb128 0x13
 3219 011c 00       		.byte	0
 3220 011d 00       		.byte	0
 3221 011e 19       		.uleb128 0x19
 3222 011f 04       		.uleb128 0x4
 3223 0120 01       		.byte	0x1
 3224 0121 0B       		.uleb128 0xb
 3225 0122 0B       		.uleb128 0xb
 3226 0123 3A       		.uleb128 0x3a
 3227 0124 0B       		.uleb128 0xb
 3228 0125 3B       		.uleb128 0x3b
 3229 0126 0B       		.uleb128 0xb
ARM GAS  /tmp/cc9Ao2VO.s 			page 58


 3230 0127 01       		.uleb128 0x1
 3231 0128 13       		.uleb128 0x13
 3232 0129 00       		.byte	0
 3233 012a 00       		.byte	0
 3234 012b 1A       		.uleb128 0x1a
 3235 012c 28       		.uleb128 0x28
 3236 012d 00       		.byte	0
 3237 012e 03       		.uleb128 0x3
 3238 012f 0E       		.uleb128 0xe
 3239 0130 1C       		.uleb128 0x1c
 3240 0131 0D       		.uleb128 0xd
 3241 0132 00       		.byte	0
 3242 0133 00       		.byte	0
 3243 0134 1B       		.uleb128 0x1b
 3244 0135 04       		.uleb128 0x4
 3245 0136 01       		.byte	0x1
 3246 0137 0B       		.uleb128 0xb
 3247 0138 0B       		.uleb128 0xb
 3248 0139 3A       		.uleb128 0x3a
 3249 013a 0B       		.uleb128 0xb
 3250 013b 3B       		.uleb128 0x3b
 3251 013c 05       		.uleb128 0x5
 3252 013d 01       		.uleb128 0x1
 3253 013e 13       		.uleb128 0x13
 3254 013f 00       		.byte	0
 3255 0140 00       		.byte	0
 3256 0141 1C       		.uleb128 0x1c
 3257 0142 2E       		.uleb128 0x2e
 3258 0143 01       		.byte	0x1
 3259 0144 03       		.uleb128 0x3
 3260 0145 0E       		.uleb128 0xe
 3261 0146 3A       		.uleb128 0x3a
 3262 0147 0B       		.uleb128 0xb
 3263 0148 3B       		.uleb128 0x3b
 3264 0149 05       		.uleb128 0x5
 3265 014a 27       		.uleb128 0x27
 3266 014b 19       		.uleb128 0x19
 3267 014c 20       		.uleb128 0x20
 3268 014d 0B       		.uleb128 0xb
 3269 014e 01       		.uleb128 0x1
 3270 014f 13       		.uleb128 0x13
 3271 0150 00       		.byte	0
 3272 0151 00       		.byte	0
 3273 0152 1D       		.uleb128 0x1d
 3274 0153 05       		.uleb128 0x5
 3275 0154 00       		.byte	0
 3276 0155 03       		.uleb128 0x3
 3277 0156 0E       		.uleb128 0xe
 3278 0157 3A       		.uleb128 0x3a
 3279 0158 0B       		.uleb128 0xb
 3280 0159 3B       		.uleb128 0x3b
 3281 015a 05       		.uleb128 0x5
 3282 015b 49       		.uleb128 0x49
 3283 015c 13       		.uleb128 0x13
 3284 015d 00       		.byte	0
 3285 015e 00       		.byte	0
 3286 015f 1E       		.uleb128 0x1e
ARM GAS  /tmp/cc9Ao2VO.s 			page 59


 3287 0160 2E       		.uleb128 0x2e
 3288 0161 00       		.byte	0
 3289 0162 03       		.uleb128 0x3
 3290 0163 0E       		.uleb128 0xe
 3291 0164 3A       		.uleb128 0x3a
 3292 0165 0B       		.uleb128 0xb
 3293 0166 3B       		.uleb128 0x3b
 3294 0167 05       		.uleb128 0x5
 3295 0168 27       		.uleb128 0x27
 3296 0169 19       		.uleb128 0x19
 3297 016a 20       		.uleb128 0x20
 3298 016b 0B       		.uleb128 0xb
 3299 016c 00       		.byte	0
 3300 016d 00       		.byte	0
 3301 016e 1F       		.uleb128 0x1f
 3302 016f 34       		.uleb128 0x34
 3303 0170 00       		.byte	0
 3304 0171 03       		.uleb128 0x3
 3305 0172 0E       		.uleb128 0xe
 3306 0173 49       		.uleb128 0x49
 3307 0174 13       		.uleb128 0x13
 3308 0175 34       		.uleb128 0x34
 3309 0176 19       		.uleb128 0x19
 3310 0177 1C       		.uleb128 0x1c
 3311 0178 0E       		.uleb128 0xe
 3312 0179 00       		.byte	0
 3313 017a 00       		.byte	0
 3314 017b 20       		.uleb128 0x20
 3315 017c 2E       		.uleb128 0x2e
 3316 017d 01       		.byte	0x1
 3317 017e 03       		.uleb128 0x3
 3318 017f 0E       		.uleb128 0xe
 3319 0180 3A       		.uleb128 0x3a
 3320 0181 0B       		.uleb128 0xb
 3321 0182 3B       		.uleb128 0x3b
 3322 0183 0B       		.uleb128 0xb
 3323 0184 27       		.uleb128 0x27
 3324 0185 19       		.uleb128 0x19
 3325 0186 49       		.uleb128 0x49
 3326 0187 13       		.uleb128 0x13
 3327 0188 20       		.uleb128 0x20
 3328 0189 0B       		.uleb128 0xb
 3329 018a 01       		.uleb128 0x1
 3330 018b 13       		.uleb128 0x13
 3331 018c 00       		.byte	0
 3332 018d 00       		.byte	0
 3333 018e 21       		.uleb128 0x21
 3334 018f 05       		.uleb128 0x5
 3335 0190 00       		.byte	0
 3336 0191 03       		.uleb128 0x3
 3337 0192 0E       		.uleb128 0xe
 3338 0193 3A       		.uleb128 0x3a
 3339 0194 0B       		.uleb128 0xb
 3340 0195 3B       		.uleb128 0x3b
 3341 0196 0B       		.uleb128 0xb
 3342 0197 49       		.uleb128 0x49
 3343 0198 13       		.uleb128 0x13
ARM GAS  /tmp/cc9Ao2VO.s 			page 60


 3344 0199 00       		.byte	0
 3345 019a 00       		.byte	0
 3346 019b 22       		.uleb128 0x22
 3347 019c 34       		.uleb128 0x34
 3348 019d 00       		.byte	0
 3349 019e 03       		.uleb128 0x3
 3350 019f 08       		.uleb128 0x8
 3351 01a0 3A       		.uleb128 0x3a
 3352 01a1 0B       		.uleb128 0xb
 3353 01a2 3B       		.uleb128 0x3b
 3354 01a3 0B       		.uleb128 0xb
 3355 01a4 49       		.uleb128 0x49
 3356 01a5 13       		.uleb128 0x13
 3357 01a6 00       		.byte	0
 3358 01a7 00       		.byte	0
 3359 01a8 23       		.uleb128 0x23
 3360 01a9 34       		.uleb128 0x34
 3361 01aa 00       		.byte	0
 3362 01ab 03       		.uleb128 0x3
 3363 01ac 0E       		.uleb128 0xe
 3364 01ad 3A       		.uleb128 0x3a
 3365 01ae 0B       		.uleb128 0xb
 3366 01af 3B       		.uleb128 0x3b
 3367 01b0 0B       		.uleb128 0xb
 3368 01b1 49       		.uleb128 0x49
 3369 01b2 13       		.uleb128 0x13
 3370 01b3 00       		.byte	0
 3371 01b4 00       		.byte	0
 3372 01b5 24       		.uleb128 0x24
 3373 01b6 2E       		.uleb128 0x2e
 3374 01b7 01       		.byte	0x1
 3375 01b8 31       		.uleb128 0x31
 3376 01b9 13       		.uleb128 0x13
 3377 01ba 11       		.uleb128 0x11
 3378 01bb 01       		.uleb128 0x1
 3379 01bc 12       		.uleb128 0x12
 3380 01bd 06       		.uleb128 0x6
 3381 01be 40       		.uleb128 0x40
 3382 01bf 18       		.uleb128 0x18
 3383 01c0 9742     		.uleb128 0x2117
 3384 01c2 19       		.uleb128 0x19
 3385 01c3 01       		.uleb128 0x1
 3386 01c4 13       		.uleb128 0x13
 3387 01c5 00       		.byte	0
 3388 01c6 00       		.byte	0
 3389 01c7 25       		.uleb128 0x25
 3390 01c8 05       		.uleb128 0x5
 3391 01c9 00       		.byte	0
 3392 01ca 31       		.uleb128 0x31
 3393 01cb 13       		.uleb128 0x13
 3394 01cc 02       		.uleb128 0x2
 3395 01cd 18       		.uleb128 0x18
 3396 01ce 00       		.byte	0
 3397 01cf 00       		.byte	0
 3398 01d0 26       		.uleb128 0x26
 3399 01d1 34       		.uleb128 0x34
 3400 01d2 00       		.byte	0
ARM GAS  /tmp/cc9Ao2VO.s 			page 61


 3401 01d3 31       		.uleb128 0x31
 3402 01d4 13       		.uleb128 0x13
 3403 01d5 02       		.uleb128 0x2
 3404 01d6 17       		.uleb128 0x17
 3405 01d7 00       		.byte	0
 3406 01d8 00       		.byte	0
 3407 01d9 27       		.uleb128 0x27
 3408 01da 1D       		.uleb128 0x1d
 3409 01db 01       		.byte	0x1
 3410 01dc 31       		.uleb128 0x31
 3411 01dd 13       		.uleb128 0x13
 3412 01de 11       		.uleb128 0x11
 3413 01df 01       		.uleb128 0x1
 3414 01e0 12       		.uleb128 0x12
 3415 01e1 06       		.uleb128 0x6
 3416 01e2 58       		.uleb128 0x58
 3417 01e3 0B       		.uleb128 0xb
 3418 01e4 59       		.uleb128 0x59
 3419 01e5 0B       		.uleb128 0xb
 3420 01e6 01       		.uleb128 0x1
 3421 01e7 13       		.uleb128 0x13
 3422 01e8 00       		.byte	0
 3423 01e9 00       		.byte	0
 3424 01ea 28       		.uleb128 0x28
 3425 01eb 1D       		.uleb128 0x1d
 3426 01ec 01       		.byte	0x1
 3427 01ed 31       		.uleb128 0x31
 3428 01ee 13       		.uleb128 0x13
 3429 01ef 11       		.uleb128 0x11
 3430 01f0 01       		.uleb128 0x1
 3431 01f1 12       		.uleb128 0x12
 3432 01f2 06       		.uleb128 0x6
 3433 01f3 58       		.uleb128 0x58
 3434 01f4 0B       		.uleb128 0xb
 3435 01f5 59       		.uleb128 0x59
 3436 01f6 05       		.uleb128 0x5
 3437 01f7 00       		.byte	0
 3438 01f8 00       		.byte	0
 3439 01f9 29       		.uleb128 0x29
 3440 01fa 0B       		.uleb128 0xb
 3441 01fb 01       		.byte	0x1
 3442 01fc 11       		.uleb128 0x11
 3443 01fd 01       		.uleb128 0x1
 3444 01fe 12       		.uleb128 0x12
 3445 01ff 06       		.uleb128 0x6
 3446 0200 00       		.byte	0
 3447 0201 00       		.byte	0
 3448 0202 2A       		.uleb128 0x2a
 3449 0203 34       		.uleb128 0x34
 3450 0204 00       		.byte	0
 3451 0205 31       		.uleb128 0x31
 3452 0206 13       		.uleb128 0x13
 3453 0207 00       		.byte	0
 3454 0208 00       		.byte	0
 3455 0209 2B       		.uleb128 0x2b
 3456 020a 05       		.uleb128 0x5
 3457 020b 00       		.byte	0
ARM GAS  /tmp/cc9Ao2VO.s 			page 62


 3458 020c 31       		.uleb128 0x31
 3459 020d 13       		.uleb128 0x13
 3460 020e 1C       		.uleb128 0x1c
 3461 020f 0B       		.uleb128 0xb
 3462 0210 00       		.byte	0
 3463 0211 00       		.byte	0
 3464 0212 2C       		.uleb128 0x2c
 3465 0213 1D       		.uleb128 0x1d
 3466 0214 01       		.byte	0x1
 3467 0215 31       		.uleb128 0x31
 3468 0216 13       		.uleb128 0x13
 3469 0217 11       		.uleb128 0x11
 3470 0218 01       		.uleb128 0x1
 3471 0219 12       		.uleb128 0x12
 3472 021a 06       		.uleb128 0x6
 3473 021b 58       		.uleb128 0x58
 3474 021c 0B       		.uleb128 0xb
 3475 021d 59       		.uleb128 0x59
 3476 021e 0B       		.uleb128 0xb
 3477 021f 00       		.byte	0
 3478 0220 00       		.byte	0
 3479 0221 2D       		.uleb128 0x2d
 3480 0222 05       		.uleb128 0x5
 3481 0223 00       		.byte	0
 3482 0224 31       		.uleb128 0x31
 3483 0225 13       		.uleb128 0x13
 3484 0226 02       		.uleb128 0x2
 3485 0227 17       		.uleb128 0x17
 3486 0228 00       		.byte	0
 3487 0229 00       		.byte	0
 3488 022a 2E       		.uleb128 0x2e
 3489 022b 2E       		.uleb128 0x2e
 3490 022c 01       		.byte	0x1
 3491 022d 3F       		.uleb128 0x3f
 3492 022e 19       		.uleb128 0x19
 3493 022f 03       		.uleb128 0x3
 3494 0230 0E       		.uleb128 0xe
 3495 0231 3A       		.uleb128 0x3a
 3496 0232 0B       		.uleb128 0xb
 3497 0233 3B       		.uleb128 0x3b
 3498 0234 05       		.uleb128 0x5
 3499 0235 27       		.uleb128 0x27
 3500 0236 19       		.uleb128 0x19
 3501 0237 11       		.uleb128 0x11
 3502 0238 01       		.uleb128 0x1
 3503 0239 12       		.uleb128 0x12
 3504 023a 06       		.uleb128 0x6
 3505 023b 40       		.uleb128 0x40
 3506 023c 18       		.uleb128 0x18
 3507 023d 9742     		.uleb128 0x2117
 3508 023f 19       		.uleb128 0x19
 3509 0240 01       		.uleb128 0x1
 3510 0241 13       		.uleb128 0x13
 3511 0242 00       		.byte	0
 3512 0243 00       		.byte	0
 3513 0244 2F       		.uleb128 0x2f
 3514 0245 898201   		.uleb128 0x4109
ARM GAS  /tmp/cc9Ao2VO.s 			page 63


 3515 0248 01       		.byte	0x1
 3516 0249 11       		.uleb128 0x11
 3517 024a 01       		.uleb128 0x1
 3518 024b 31       		.uleb128 0x31
 3519 024c 13       		.uleb128 0x13
 3520 024d 01       		.uleb128 0x1
 3521 024e 13       		.uleb128 0x13
 3522 024f 00       		.byte	0
 3523 0250 00       		.byte	0
 3524 0251 30       		.uleb128 0x30
 3525 0252 8A8201   		.uleb128 0x410a
 3526 0255 00       		.byte	0
 3527 0256 02       		.uleb128 0x2
 3528 0257 18       		.uleb128 0x18
 3529 0258 9142     		.uleb128 0x2111
 3530 025a 18       		.uleb128 0x18
 3531 025b 00       		.byte	0
 3532 025c 00       		.byte	0
 3533 025d 31       		.uleb128 0x31
 3534 025e 898201   		.uleb128 0x4109
 3535 0261 01       		.byte	0x1
 3536 0262 11       		.uleb128 0x11
 3537 0263 01       		.uleb128 0x1
 3538 0264 31       		.uleb128 0x31
 3539 0265 13       		.uleb128 0x13
 3540 0266 00       		.byte	0
 3541 0267 00       		.byte	0
 3542 0268 32       		.uleb128 0x32
 3543 0269 05       		.uleb128 0x5
 3544 026a 00       		.byte	0
 3545 026b 03       		.uleb128 0x3
 3546 026c 0E       		.uleb128 0xe
 3547 026d 3A       		.uleb128 0x3a
 3548 026e 0B       		.uleb128 0xb
 3549 026f 3B       		.uleb128 0x3b
 3550 0270 05       		.uleb128 0x5
 3551 0271 49       		.uleb128 0x49
 3552 0272 13       		.uleb128 0x13
 3553 0273 02       		.uleb128 0x2
 3554 0274 17       		.uleb128 0x17
 3555 0275 00       		.byte	0
 3556 0276 00       		.byte	0
 3557 0277 33       		.uleb128 0x33
 3558 0278 34       		.uleb128 0x34
 3559 0279 00       		.byte	0
 3560 027a 03       		.uleb128 0x3
 3561 027b 08       		.uleb128 0x8
 3562 027c 3A       		.uleb128 0x3a
 3563 027d 0B       		.uleb128 0xb
 3564 027e 3B       		.uleb128 0x3b
 3565 027f 05       		.uleb128 0x5
 3566 0280 49       		.uleb128 0x49
 3567 0281 13       		.uleb128 0x13
 3568 0282 02       		.uleb128 0x2
 3569 0283 17       		.uleb128 0x17
 3570 0284 00       		.byte	0
 3571 0285 00       		.byte	0
ARM GAS  /tmp/cc9Ao2VO.s 			page 64


 3572 0286 34       		.uleb128 0x34
 3573 0287 34       		.uleb128 0x34
 3574 0288 00       		.byte	0
 3575 0289 03       		.uleb128 0x3
 3576 028a 0E       		.uleb128 0xe
 3577 028b 49       		.uleb128 0x49
 3578 028c 13       		.uleb128 0x13
 3579 028d 34       		.uleb128 0x34
 3580 028e 19       		.uleb128 0x19
 3581 028f 00       		.byte	0
 3582 0290 00       		.byte	0
 3583 0291 35       		.uleb128 0x35
 3584 0292 2E       		.uleb128 0x2e
 3585 0293 01       		.byte	0x1
 3586 0294 3F       		.uleb128 0x3f
 3587 0295 19       		.uleb128 0x19
 3588 0296 03       		.uleb128 0x3
 3589 0297 0E       		.uleb128 0xe
 3590 0298 3A       		.uleb128 0x3a
 3591 0299 0B       		.uleb128 0xb
 3592 029a 3B       		.uleb128 0x3b
 3593 029b 05       		.uleb128 0x5
 3594 029c 27       		.uleb128 0x27
 3595 029d 19       		.uleb128 0x19
 3596 029e 49       		.uleb128 0x49
 3597 029f 13       		.uleb128 0x13
 3598 02a0 11       		.uleb128 0x11
 3599 02a1 01       		.uleb128 0x1
 3600 02a2 12       		.uleb128 0x12
 3601 02a3 06       		.uleb128 0x6
 3602 02a4 40       		.uleb128 0x40
 3603 02a5 18       		.uleb128 0x18
 3604 02a6 9742     		.uleb128 0x2117
 3605 02a8 19       		.uleb128 0x19
 3606 02a9 01       		.uleb128 0x1
 3607 02aa 13       		.uleb128 0x13
 3608 02ab 00       		.byte	0
 3609 02ac 00       		.byte	0
 3610 02ad 36       		.uleb128 0x36
 3611 02ae 898201   		.uleb128 0x4109
 3612 02b1 01       		.byte	0x1
 3613 02b2 11       		.uleb128 0x11
 3614 02b3 01       		.uleb128 0x1
 3615 02b4 9542     		.uleb128 0x2115
 3616 02b6 19       		.uleb128 0x19
 3617 02b7 31       		.uleb128 0x31
 3618 02b8 13       		.uleb128 0x13
 3619 02b9 01       		.uleb128 0x1
 3620 02ba 13       		.uleb128 0x13
 3621 02bb 00       		.byte	0
 3622 02bc 00       		.byte	0
 3623 02bd 37       		.uleb128 0x37
 3624 02be 8A8201   		.uleb128 0x410a
 3625 02c1 00       		.byte	0
 3626 02c2 31       		.uleb128 0x31
 3627 02c3 13       		.uleb128 0x13
 3628 02c4 9142     		.uleb128 0x2111
ARM GAS  /tmp/cc9Ao2VO.s 			page 65


 3629 02c6 18       		.uleb128 0x18
 3630 02c7 00       		.byte	0
 3631 02c8 00       		.byte	0
 3632 02c9 38       		.uleb128 0x38
 3633 02ca 05       		.uleb128 0x5
 3634 02cb 00       		.byte	0
 3635 02cc 03       		.uleb128 0x3
 3636 02cd 0E       		.uleb128 0xe
 3637 02ce 3A       		.uleb128 0x3a
 3638 02cf 0B       		.uleb128 0xb
 3639 02d0 3B       		.uleb128 0x3b
 3640 02d1 05       		.uleb128 0x5
 3641 02d2 49       		.uleb128 0x49
 3642 02d3 13       		.uleb128 0x13
 3643 02d4 02       		.uleb128 0x2
 3644 02d5 18       		.uleb128 0x18
 3645 02d6 00       		.byte	0
 3646 02d7 00       		.byte	0
 3647 02d8 39       		.uleb128 0x39
 3648 02d9 34       		.uleb128 0x34
 3649 02da 00       		.byte	0
 3650 02db 03       		.uleb128 0x3
 3651 02dc 0E       		.uleb128 0xe
 3652 02dd 3A       		.uleb128 0x3a
 3653 02de 0B       		.uleb128 0xb
 3654 02df 3B       		.uleb128 0x3b
 3655 02e0 05       		.uleb128 0x5
 3656 02e1 49       		.uleb128 0x49
 3657 02e2 13       		.uleb128 0x13
 3658 02e3 02       		.uleb128 0x2
 3659 02e4 17       		.uleb128 0x17
 3660 02e5 00       		.byte	0
 3661 02e6 00       		.byte	0
 3662 02e7 3A       		.uleb128 0x3a
 3663 02e8 2E       		.uleb128 0x2e
 3664 02e9 01       		.byte	0x1
 3665 02ea 3F       		.uleb128 0x3f
 3666 02eb 19       		.uleb128 0x19
 3667 02ec 03       		.uleb128 0x3
 3668 02ed 0E       		.uleb128 0xe
 3669 02ee 3A       		.uleb128 0x3a
 3670 02ef 0B       		.uleb128 0xb
 3671 02f0 3B       		.uleb128 0x3b
 3672 02f1 05       		.uleb128 0x5
 3673 02f2 27       		.uleb128 0x27
 3674 02f3 19       		.uleb128 0x19
 3675 02f4 11       		.uleb128 0x11
 3676 02f5 01       		.uleb128 0x1
 3677 02f6 12       		.uleb128 0x12
 3678 02f7 06       		.uleb128 0x6
 3679 02f8 40       		.uleb128 0x40
 3680 02f9 18       		.uleb128 0x18
 3681 02fa 9642     		.uleb128 0x2116
 3682 02fc 19       		.uleb128 0x19
 3683 02fd 01       		.uleb128 0x1
 3684 02fe 13       		.uleb128 0x13
 3685 02ff 00       		.byte	0
ARM GAS  /tmp/cc9Ao2VO.s 			page 66


 3686 0300 00       		.byte	0
 3687 0301 3B       		.uleb128 0x3b
 3688 0302 898201   		.uleb128 0x4109
 3689 0305 01       		.byte	0x1
 3690 0306 11       		.uleb128 0x11
 3691 0307 01       		.uleb128 0x1
 3692 0308 01       		.uleb128 0x1
 3693 0309 13       		.uleb128 0x13
 3694 030a 00       		.byte	0
 3695 030b 00       		.byte	0
 3696 030c 3C       		.uleb128 0x3c
 3697 030d 898201   		.uleb128 0x4109
 3698 0310 01       		.byte	0x1
 3699 0311 11       		.uleb128 0x11
 3700 0312 01       		.uleb128 0x1
 3701 0313 00       		.byte	0
 3702 0314 00       		.byte	0
 3703 0315 3D       		.uleb128 0x3d
 3704 0316 2E       		.uleb128 0x2e
 3705 0317 01       		.byte	0x1
 3706 0318 3F       		.uleb128 0x3f
 3707 0319 19       		.uleb128 0x19
 3708 031a 03       		.uleb128 0x3
 3709 031b 0E       		.uleb128 0xe
 3710 031c 3A       		.uleb128 0x3a
 3711 031d 0B       		.uleb128 0xb
 3712 031e 3B       		.uleb128 0x3b
 3713 031f 0B       		.uleb128 0xb
 3714 0320 27       		.uleb128 0x27
 3715 0321 19       		.uleb128 0x19
 3716 0322 11       		.uleb128 0x11
 3717 0323 01       		.uleb128 0x1
 3718 0324 12       		.uleb128 0x12
 3719 0325 06       		.uleb128 0x6
 3720 0326 40       		.uleb128 0x40
 3721 0327 18       		.uleb128 0x18
 3722 0328 9742     		.uleb128 0x2117
 3723 032a 19       		.uleb128 0x19
 3724 032b 01       		.uleb128 0x1
 3725 032c 13       		.uleb128 0x13
 3726 032d 00       		.byte	0
 3727 032e 00       		.byte	0
 3728 032f 3E       		.uleb128 0x3e
 3729 0330 898201   		.uleb128 0x4109
 3730 0333 00       		.byte	0
 3731 0334 11       		.uleb128 0x11
 3732 0335 01       		.uleb128 0x1
 3733 0336 9542     		.uleb128 0x2115
 3734 0338 19       		.uleb128 0x19
 3735 0339 31       		.uleb128 0x31
 3736 033a 13       		.uleb128 0x13
 3737 033b 00       		.byte	0
 3738 033c 00       		.byte	0
 3739 033d 3F       		.uleb128 0x3f
 3740 033e 34       		.uleb128 0x34
 3741 033f 00       		.byte	0
 3742 0340 03       		.uleb128 0x3
ARM GAS  /tmp/cc9Ao2VO.s 			page 67


 3743 0341 0E       		.uleb128 0xe
 3744 0342 3A       		.uleb128 0x3a
 3745 0343 0B       		.uleb128 0xb
 3746 0344 3B       		.uleb128 0x3b
 3747 0345 05       		.uleb128 0x5
 3748 0346 49       		.uleb128 0x49
 3749 0347 13       		.uleb128 0x13
 3750 0348 3F       		.uleb128 0x3f
 3751 0349 19       		.uleb128 0x19
 3752 034a 3C       		.uleb128 0x3c
 3753 034b 19       		.uleb128 0x19
 3754 034c 00       		.byte	0
 3755 034d 00       		.byte	0
 3756 034e 40       		.uleb128 0x40
 3757 034f 34       		.uleb128 0x34
 3758 0350 00       		.byte	0
 3759 0351 03       		.uleb128 0x3
 3760 0352 08       		.uleb128 0x8
 3761 0353 3A       		.uleb128 0x3a
 3762 0354 0B       		.uleb128 0xb
 3763 0355 3B       		.uleb128 0x3b
 3764 0356 05       		.uleb128 0x5
 3765 0357 49       		.uleb128 0x49
 3766 0358 13       		.uleb128 0x13
 3767 0359 3F       		.uleb128 0x3f
 3768 035a 19       		.uleb128 0x19
 3769 035b 3C       		.uleb128 0x3c
 3770 035c 19       		.uleb128 0x19
 3771 035d 00       		.byte	0
 3772 035e 00       		.byte	0
 3773 035f 41       		.uleb128 0x41
 3774 0360 34       		.uleb128 0x34
 3775 0361 00       		.byte	0
 3776 0362 03       		.uleb128 0x3
 3777 0363 0E       		.uleb128 0xe
 3778 0364 3A       		.uleb128 0x3a
 3779 0365 0B       		.uleb128 0xb
 3780 0366 3B       		.uleb128 0x3b
 3781 0367 0B       		.uleb128 0xb
 3782 0368 49       		.uleb128 0x49
 3783 0369 13       		.uleb128 0x13
 3784 036a 3F       		.uleb128 0x3f
 3785 036b 19       		.uleb128 0x19
 3786 036c 02       		.uleb128 0x2
 3787 036d 18       		.uleb128 0x18
 3788 036e 00       		.byte	0
 3789 036f 00       		.byte	0
 3790 0370 42       		.uleb128 0x42
 3791 0371 2E       		.uleb128 0x2e
 3792 0372 01       		.byte	0x1
 3793 0373 3F       		.uleb128 0x3f
 3794 0374 19       		.uleb128 0x19
 3795 0375 03       		.uleb128 0x3
 3796 0376 0E       		.uleb128 0xe
 3797 0377 3A       		.uleb128 0x3a
 3798 0378 0B       		.uleb128 0xb
 3799 0379 3B       		.uleb128 0x3b
ARM GAS  /tmp/cc9Ao2VO.s 			page 68


 3800 037a 0B       		.uleb128 0xb
 3801 037b 27       		.uleb128 0x27
 3802 037c 19       		.uleb128 0x19
 3803 037d 3C       		.uleb128 0x3c
 3804 037e 19       		.uleb128 0x19
 3805 037f 01       		.uleb128 0x1
 3806 0380 13       		.uleb128 0x13
 3807 0381 00       		.byte	0
 3808 0382 00       		.byte	0
 3809 0383 43       		.uleb128 0x43
 3810 0384 2E       		.uleb128 0x2e
 3811 0385 00       		.byte	0
 3812 0386 3F       		.uleb128 0x3f
 3813 0387 19       		.uleb128 0x19
 3814 0388 03       		.uleb128 0x3
 3815 0389 0E       		.uleb128 0xe
 3816 038a 3A       		.uleb128 0x3a
 3817 038b 0B       		.uleb128 0xb
 3818 038c 3B       		.uleb128 0x3b
 3819 038d 05       		.uleb128 0x5
 3820 038e 27       		.uleb128 0x27
 3821 038f 19       		.uleb128 0x19
 3822 0390 3C       		.uleb128 0x3c
 3823 0391 19       		.uleb128 0x19
 3824 0392 00       		.byte	0
 3825 0393 00       		.byte	0
 3826 0394 00       		.byte	0
 3827              		.section	.debug_loc,"",%progbits
 3828              	.Ldebug_loc0:
 3829              	.LLST0:
 3830 0000 10000000 		.4byte	.LVL1
 3831 0004 20000000 		.4byte	.LVL3
 3832 0008 0100     		.2byte	0x1
 3833 000a 50       		.byte	0x50
 3834 000b 2E000000 		.4byte	.LVL5
 3835 000f 36000000 		.4byte	.LFE220
 3836 0013 0100     		.2byte	0x1
 3837 0015 50       		.byte	0x50
 3838 0016 00000000 		.4byte	0
 3839 001a 00000000 		.4byte	0
 3840              	.LLST1:
 3841 001e 14000000 		.4byte	.LVL2
 3842 0022 20000000 		.4byte	.LVL3
 3843 0026 0100     		.2byte	0x1
 3844 0028 50       		.byte	0x50
 3845 0029 00000000 		.4byte	0
 3846 002d 00000000 		.4byte	0
 3847              	.LLST2:
 3848 0031 14000000 		.4byte	.LVL2
 3849 0035 2A000000 		.4byte	.LVL4
 3850 0039 0300     		.2byte	0x3
 3851 003b 08       		.byte	0x8
 3852 003c 20       		.byte	0x20
 3853 003d 9F       		.byte	0x9f
 3854 003e 00000000 		.4byte	0
 3855 0042 00000000 		.4byte	0
 3856              	.LLST3:
ARM GAS  /tmp/cc9Ao2VO.s 			page 69


 3857 0046 00000000 		.4byte	.LVL8
 3858 004a 16000000 		.4byte	.LVL9
 3859 004e 0100     		.2byte	0x1
 3860 0050 50       		.byte	0x50
 3861 0051 16000000 		.4byte	.LVL9
 3862 0055 82000000 		.4byte	.LVL22
 3863 0059 0100     		.2byte	0x1
 3864 005b 54       		.byte	0x54
 3865 005c 82000000 		.4byte	.LVL22
 3866 0060 9A000000 		.4byte	.LVL23
 3867 0064 0100     		.2byte	0x1
 3868 0066 50       		.byte	0x50
 3869 0067 9A000000 		.4byte	.LVL23
 3870 006b C0000000 		.4byte	.LVL26
 3871 006f 0100     		.2byte	0x1
 3872 0071 54       		.byte	0x54
 3873 0072 C0000000 		.4byte	.LVL26
 3874 0076 C8000000 		.4byte	.LVL27
 3875 007a 0100     		.2byte	0x1
 3876 007c 50       		.byte	0x50
 3877 007d C8000000 		.4byte	.LVL27
 3878 0081 FC000000 		.4byte	.LFE212
 3879 0085 0100     		.2byte	0x1
 3880 0087 54       		.byte	0x54
 3881 0088 00000000 		.4byte	0
 3882 008c 00000000 		.4byte	0
 3883              	.LLST4:
 3884 0090 2A000000 		.4byte	.LVL10
 3885 0094 40000000 		.4byte	.LVL11
 3886 0098 0100     		.2byte	0x1
 3887 009a 52       		.byte	0x52
 3888 009b 40000000 		.4byte	.LVL11
 3889 009f 42000000 		.4byte	.LVL12
 3890 00a3 1000     		.2byte	0x10
 3891 00a5 74       		.byte	0x74
 3892 00a6 08       		.sleb128 8
 3893 00a7 06       		.byte	0x6
 3894 00a8 F7       		.byte	0xf7
 3895 00a9 21       		.uleb128 0x21
 3896 00aa 71       		.byte	0x71
 3897 00ab 04       		.sleb128 4
 3898 00ac 06       		.byte	0x6
 3899 00ad F7       		.byte	0xf7
 3900 00ae 21       		.uleb128 0x21
 3901 00af 1B       		.byte	0x1b
 3902 00b0 F7       		.byte	0xf7
 3903 00b1 00       		.uleb128 0
 3904 00b2 31       		.byte	0x31
 3905 00b3 1C       		.byte	0x1c
 3906 00b4 9F       		.byte	0x9f
 3907 00b5 42000000 		.4byte	.LVL12
 3908 00b9 4C000000 		.4byte	.LVL13
 3909 00bd 1300     		.2byte	0x13
 3910 00bf 74       		.byte	0x74
 3911 00c0 08       		.sleb128 8
 3912 00c1 06       		.byte	0x6
 3913 00c2 F7       		.byte	0xf7
ARM GAS  /tmp/cc9Ao2VO.s 			page 70


 3914 00c3 21       		.uleb128 0x21
 3915 00c4 74       		.byte	0x74
 3916 00c5 04       		.sleb128 4
 3917 00c6 06       		.byte	0x6
 3918 00c7 23       		.byte	0x23
 3919 00c8 04       		.uleb128 0x4
 3920 00c9 06       		.byte	0x6
 3921 00ca F7       		.byte	0xf7
 3922 00cb 21       		.uleb128 0x21
 3923 00cc 1B       		.byte	0x1b
 3924 00cd F7       		.byte	0xf7
 3925 00ce 00       		.uleb128 0
 3926 00cf 31       		.byte	0x31
 3927 00d0 1C       		.byte	0x1c
 3928 00d1 9F       		.byte	0x9f
 3929 00d2 58000000 		.4byte	.LVL14
 3930 00d6 5A000000 		.4byte	.LVL15
 3931 00da 0100     		.2byte	0x1
 3932 00dc 52       		.byte	0x52
 3933 00dd 5A000000 		.4byte	.LVL15
 3934 00e1 60000000 		.4byte	.LVL16
 3935 00e5 1000     		.2byte	0x10
 3936 00e7 74       		.byte	0x74
 3937 00e8 08       		.sleb128 8
 3938 00e9 06       		.byte	0x6
 3939 00ea F7       		.byte	0xf7
 3940 00eb 21       		.uleb128 0x21
 3941 00ec 71       		.byte	0x71
 3942 00ed 04       		.sleb128 4
 3943 00ee 06       		.byte	0x6
 3944 00ef F7       		.byte	0xf7
 3945 00f0 21       		.uleb128 0x21
 3946 00f1 1B       		.byte	0x1b
 3947 00f2 F7       		.byte	0xf7
 3948 00f3 00       		.uleb128 0
 3949 00f4 31       		.byte	0x31
 3950 00f5 1C       		.byte	0x1c
 3951 00f6 9F       		.byte	0x9f
 3952 00f7 60000000 		.4byte	.LVL16
 3953 00fb 6A000000 		.4byte	.LVL17
 3954 00ff 1300     		.2byte	0x13
 3955 0101 74       		.byte	0x74
 3956 0102 08       		.sleb128 8
 3957 0103 06       		.byte	0x6
 3958 0104 F7       		.byte	0xf7
 3959 0105 21       		.uleb128 0x21
 3960 0106 74       		.byte	0x74
 3961 0107 04       		.sleb128 4
 3962 0108 06       		.byte	0x6
 3963 0109 23       		.byte	0x23
 3964 010a 04       		.uleb128 0x4
 3965 010b 06       		.byte	0x6
 3966 010c F7       		.byte	0xf7
 3967 010d 21       		.uleb128 0x21
 3968 010e 1B       		.byte	0x1b
 3969 010f F7       		.byte	0xf7
 3970 0110 00       		.uleb128 0
ARM GAS  /tmp/cc9Ao2VO.s 			page 71


 3971 0111 31       		.byte	0x31
 3972 0112 1C       		.byte	0x1c
 3973 0113 9F       		.byte	0x9f
 3974 0114 76000000 		.4byte	.LVL18
 3975 0118 7A000000 		.4byte	.LVL19
 3976 011c 1300     		.2byte	0x13
 3977 011e 74       		.byte	0x74
 3978 011f 08       		.sleb128 8
 3979 0120 06       		.byte	0x6
 3980 0121 F7       		.byte	0xf7
 3981 0122 21       		.uleb128 0x21
 3982 0123 74       		.byte	0x74
 3983 0124 04       		.sleb128 4
 3984 0125 06       		.byte	0x6
 3985 0126 23       		.byte	0x23
 3986 0127 04       		.uleb128 0x4
 3987 0128 06       		.byte	0x6
 3988 0129 F7       		.byte	0xf7
 3989 012a 21       		.uleb128 0x21
 3990 012b 1B       		.byte	0x1b
 3991 012c F7       		.byte	0xf7
 3992 012d 00       		.uleb128 0
 3993 012e 31       		.byte	0x31
 3994 012f 1C       		.byte	0x1c
 3995 0130 9F       		.byte	0x9f
 3996 0131 7C000000 		.4byte	.LVL20
 3997 0135 80000000 		.4byte	.LVL21
 3998 0139 1300     		.2byte	0x13
 3999 013b 74       		.byte	0x74
 4000 013c 08       		.sleb128 8
 4001 013d 06       		.byte	0x6
 4002 013e F7       		.byte	0xf7
 4003 013f 21       		.uleb128 0x21
 4004 0140 74       		.byte	0x74
 4005 0141 04       		.sleb128 4
 4006 0142 06       		.byte	0x6
 4007 0143 23       		.byte	0x23
 4008 0144 04       		.uleb128 0x4
 4009 0145 06       		.byte	0x6
 4010 0146 F7       		.byte	0xf7
 4011 0147 21       		.uleb128 0x21
 4012 0148 1B       		.byte	0x1b
 4013 0149 F7       		.byte	0xf7
 4014 014a 00       		.uleb128 0
 4015 014b 31       		.byte	0x31
 4016 014c 1C       		.byte	0x1c
 4017 014d 9F       		.byte	0x9f
 4018 014e 00000000 		.4byte	0
 4019 0152 00000000 		.4byte	0
 4020              	.LLST5:
 4021 0156 00000000 		.4byte	.LVL29
 4022 015a 08000000 		.4byte	.LVL30
 4023 015e 0100     		.2byte	0x1
 4024 0160 50       		.byte	0x50
 4025 0161 08000000 		.4byte	.LVL30
 4026 0165 0A000000 		.4byte	.LVL31
 4027 0169 0400     		.2byte	0x4
ARM GAS  /tmp/cc9Ao2VO.s 			page 72


 4028 016b F3       		.byte	0xf3
 4029 016c 01       		.uleb128 0x1
 4030 016d 50       		.byte	0x50
 4031 016e 9F       		.byte	0x9f
 4032 016f 0A000000 		.4byte	.LVL31
 4033 0173 22000000 		.4byte	.LVL32
 4034 0177 0100     		.2byte	0x1
 4035 0179 50       		.byte	0x50
 4036 017a 22000000 		.4byte	.LVL32
 4037 017e 32000000 		.4byte	.LVL34
 4038 0182 0400     		.2byte	0x4
 4039 0184 F3       		.byte	0xf3
 4040 0185 01       		.uleb128 0x1
 4041 0186 50       		.byte	0x50
 4042 0187 9F       		.byte	0x9f
 4043 0188 32000000 		.4byte	.LVL34
 4044 018c 34000000 		.4byte	.LVL35
 4045 0190 0100     		.2byte	0x1
 4046 0192 50       		.byte	0x50
 4047 0193 34000000 		.4byte	.LVL35
 4048 0197 58000000 		.4byte	.LFE213
 4049 019b 0400     		.2byte	0x4
 4050 019d F3       		.byte	0xf3
 4051 019e 01       		.uleb128 0x1
 4052 019f 50       		.byte	0x50
 4053 01a0 9F       		.byte	0x9f
 4054 01a1 00000000 		.4byte	0
 4055 01a5 00000000 		.4byte	0
 4056              	.LLST6:
 4057 01a9 00000000 		.4byte	.LVL38
 4058 01ad 08000000 		.4byte	.LVL39
 4059 01b1 0100     		.2byte	0x1
 4060 01b3 50       		.byte	0x50
 4061 01b4 08000000 		.4byte	.LVL39
 4062 01b8 14000000 		.4byte	.LFE214
 4063 01bc 0400     		.2byte	0x4
 4064 01be F3       		.byte	0xf3
 4065 01bf 01       		.uleb128 0x1
 4066 01c0 50       		.byte	0x50
 4067 01c1 9F       		.byte	0x9f
 4068 01c2 00000000 		.4byte	0
 4069 01c6 00000000 		.4byte	0
 4070              	.LLST7:
 4071 01ca 00000000 		.4byte	.LVL40
 4072 01ce 0E000000 		.4byte	.LVL41
 4073 01d2 0100     		.2byte	0x1
 4074 01d4 50       		.byte	0x50
 4075 01d5 0E000000 		.4byte	.LVL41
 4076 01d9 16000000 		.4byte	.LVL42
 4077 01dd 0300     		.2byte	0x3
 4078 01df 74       		.byte	0x74
 4079 01e0 74       		.sleb128 -12
 4080 01e1 9F       		.byte	0x9f
 4081 01e2 16000000 		.4byte	.LVL42
 4082 01e6 19000000 		.4byte	.LVL43-1
 4083 01ea 0300     		.2byte	0x3
 4084 01ec 71       		.byte	0x71
ARM GAS  /tmp/cc9Ao2VO.s 			page 73


 4085 01ed 74       		.sleb128 -12
 4086 01ee 9F       		.byte	0x9f
 4087 01ef 19000000 		.4byte	.LVL43-1
 4088 01f3 1A000000 		.4byte	.LVL43
 4089 01f7 0400     		.2byte	0x4
 4090 01f9 F3       		.byte	0xf3
 4091 01fa 01       		.uleb128 0x1
 4092 01fb 50       		.byte	0x50
 4093 01fc 9F       		.byte	0x9f
 4094 01fd 1A000000 		.4byte	.LVL43
 4095 0201 1C000000 		.4byte	.LVL44
 4096 0205 0100     		.2byte	0x1
 4097 0207 50       		.byte	0x50
 4098 0208 1C000000 		.4byte	.LVL44
 4099 020c 28000000 		.4byte	.LFE215
 4100 0210 0300     		.2byte	0x3
 4101 0212 74       		.byte	0x74
 4102 0213 74       		.sleb128 -12
 4103 0214 9F       		.byte	0x9f
 4104 0215 00000000 		.4byte	0
 4105 0219 00000000 		.4byte	0
 4106              	.LLST8:
 4107 021d 00000000 		.4byte	.LVL47
 4108 0221 12000000 		.4byte	.LVL49
 4109 0225 0100     		.2byte	0x1
 4110 0227 50       		.byte	0x50
 4111 0228 12000000 		.4byte	.LVL49
 4112 022c 3E000000 		.4byte	.LFE217
 4113 0230 0400     		.2byte	0x4
 4114 0232 F3       		.byte	0xf3
 4115 0233 01       		.uleb128 0x1
 4116 0234 50       		.byte	0x50
 4117 0235 9F       		.byte	0x9f
 4118 0236 00000000 		.4byte	0
 4119 023a 00000000 		.4byte	0
 4120              	.LLST9:
 4121 023e 06000000 		.4byte	.LVL48
 4122 0242 14000000 		.4byte	.LVL50
 4123 0246 0100     		.2byte	0x1
 4124 0248 53       		.byte	0x53
 4125 0249 14000000 		.4byte	.LVL50
 4126 024d 18000000 		.4byte	.LVL51
 4127 0251 0500     		.2byte	0x5
 4128 0253 73       		.byte	0x73
 4129 0254 00       		.sleb128 0
 4130 0255 34       		.byte	0x34
 4131 0256 21       		.byte	0x21
 4132 0257 9F       		.byte	0x9f
 4133 0258 1C000000 		.4byte	.LVL52
 4134 025c 2C000000 		.4byte	.LVL54
 4135 0260 0100     		.2byte	0x1
 4136 0262 53       		.byte	0x53
 4137 0263 2C000000 		.4byte	.LVL54
 4138 0267 36000000 		.4byte	.LVL55
 4139 026b 0500     		.2byte	0x5
 4140 026d 73       		.byte	0x73
 4141 026e 00       		.sleb128 0
ARM GAS  /tmp/cc9Ao2VO.s 			page 74


 4142 026f 32       		.byte	0x32
 4143 0270 21       		.byte	0x21
 4144 0271 9F       		.byte	0x9f
 4145 0272 36000000 		.4byte	.LVL55
 4146 0276 38000000 		.4byte	.LVL56
 4147 027a 0100     		.2byte	0x1
 4148 027c 53       		.byte	0x53
 4149 027d 38000000 		.4byte	.LVL56
 4150 0281 3C000000 		.4byte	.LVL57
 4151 0285 0500     		.2byte	0x5
 4152 0287 73       		.byte	0x73
 4153 0288 00       		.sleb128 0
 4154 0289 34       		.byte	0x34
 4155 028a 21       		.byte	0x21
 4156 028b 9F       		.byte	0x9f
 4157 028c 00000000 		.4byte	0
 4158 0290 00000000 		.4byte	0
 4159              	.LLST10:
 4160 0294 00000000 		.4byte	.LVL59
 4161 0298 26000000 		.4byte	.LVL62
 4162 029c 0100     		.2byte	0x1
 4163 029e 50       		.byte	0x50
 4164 029f 26000000 		.4byte	.LVL62
 4165 02a3 2C000000 		.4byte	.LVL64
 4166 02a7 0100     		.2byte	0x1
 4167 02a9 56       		.byte	0x56
 4168 02aa 2C000000 		.4byte	.LVL64
 4169 02ae 31000000 		.4byte	.LVL65-1
 4170 02b2 0100     		.2byte	0x1
 4171 02b4 50       		.byte	0x50
 4172 02b5 31000000 		.4byte	.LVL65-1
 4173 02b9 52000000 		.4byte	.LVL68
 4174 02bd 0100     		.2byte	0x1
 4175 02bf 56       		.byte	0x56
 4176 02c0 52000000 		.4byte	.LVL68
 4177 02c4 67000000 		.4byte	.LVL69-1
 4178 02c8 0100     		.2byte	0x1
 4179 02ca 50       		.byte	0x50
 4180 02cb 67000000 		.4byte	.LVL69-1
 4181 02cf 80000000 		.4byte	.LVL71
 4182 02d3 0100     		.2byte	0x1
 4183 02d5 56       		.byte	0x56
 4184 02d6 80000000 		.4byte	.LVL71
 4185 02da 82000000 		.4byte	.LVL72
 4186 02de 0100     		.2byte	0x1
 4187 02e0 50       		.byte	0x50
 4188 02e1 82000000 		.4byte	.LVL72
 4189 02e5 86000000 		.4byte	.LVL73
 4190 02e9 0100     		.2byte	0x1
 4191 02eb 56       		.byte	0x56
 4192 02ec 86000000 		.4byte	.LVL73
 4193 02f0 8C000000 		.4byte	.LFE219
 4194 02f4 0100     		.2byte	0x1
 4195 02f6 50       		.byte	0x50
 4196 02f7 00000000 		.4byte	0
 4197 02fb 00000000 		.4byte	0
 4198              	.LLST11:
ARM GAS  /tmp/cc9Ao2VO.s 			page 75


 4199 02ff 06000000 		.4byte	.LVL60
 4200 0303 0C000000 		.4byte	.LVL61
 4201 0307 0100     		.2byte	0x1
 4202 0309 52       		.byte	0x52
 4203 030a 0C000000 		.4byte	.LVL61
 4204 030e 28000000 		.4byte	.LVL63
 4205 0312 0600     		.2byte	0x6
 4206 0314 74       		.byte	0x74
 4207 0315 00       		.sleb128 0
 4208 0316 08       		.byte	0x8
 4209 0317 FF       		.byte	0xff
 4210 0318 1A       		.byte	0x1a
 4211 0319 9F       		.byte	0x9f
 4212 031a 2C000000 		.4byte	.LVL64
 4213 031e 40000000 		.4byte	.LVL66
 4214 0322 0600     		.2byte	0x6
 4215 0324 74       		.byte	0x74
 4216 0325 00       		.sleb128 0
 4217 0326 08       		.byte	0x8
 4218 0327 FF       		.byte	0xff
 4219 0328 1A       		.byte	0x1a
 4220 0329 9F       		.byte	0x9f
 4221 032a 52000000 		.4byte	.LVL68
 4222 032e 8C000000 		.4byte	.LFE219
 4223 0332 0600     		.2byte	0x6
 4224 0334 74       		.byte	0x74
 4225 0335 00       		.sleb128 0
 4226 0336 08       		.byte	0x8
 4227 0337 FF       		.byte	0xff
 4228 0338 1A       		.byte	0x1a
 4229 0339 9F       		.byte	0x9f
 4230 033a 00000000 		.4byte	0
 4231 033e 00000000 		.4byte	0
 4232              		.section	.debug_aranges,"",%progbits
 4233 0000 7C000000 		.4byte	0x7c
 4234 0004 0200     		.2byte	0x2
 4235 0006 00000000 		.4byte	.Ldebug_info0
 4236 000a 04       		.byte	0x4
 4237 000b 00       		.byte	0
 4238 000c 0000     		.2byte	0
 4239 000e 0000     		.2byte	0
 4240 0010 00000000 		.4byte	.LFB220
 4241 0014 36000000 		.4byte	.LFE220-.LFB220
 4242 0018 00000000 		.4byte	.LFB211
 4243 001c 2C000000 		.4byte	.LFE211-.LFB211
 4244 0020 00000000 		.4byte	.LFB212
 4245 0024 FC000000 		.4byte	.LFE212-.LFB212
 4246 0028 00000000 		.4byte	.LFB213
 4247 002c 58000000 		.4byte	.LFE213-.LFB213
 4248 0030 00000000 		.4byte	.LFB214
 4249 0034 14000000 		.4byte	.LFE214-.LFB214
 4250 0038 00000000 		.4byte	.LFB215
 4251 003c 28000000 		.4byte	.LFE215-.LFB215
 4252 0040 00000000 		.4byte	.LFB216
 4253 0044 10000000 		.4byte	.LFE216-.LFB216
 4254 0048 00000000 		.4byte	.LFB217
 4255 004c 3E000000 		.4byte	.LFE217-.LFB217
ARM GAS  /tmp/cc9Ao2VO.s 			page 76


 4256 0050 00000000 		.4byte	.LFB218
 4257 0054 0C000000 		.4byte	.LFE218-.LFB218
 4258 0058 00000000 		.4byte	.LFB219
 4259 005c 8C000000 		.4byte	.LFE219-.LFB219
 4260 0060 00000000 		.4byte	.LFB208
 4261 0064 14000000 		.4byte	.LFE208-.LFB208
 4262 0068 00000000 		.4byte	.LFB209
 4263 006c 14000000 		.4byte	.LFE209-.LFB209
 4264 0070 00000000 		.4byte	.LFB210
 4265 0074 14000000 		.4byte	.LFE210-.LFB210
 4266 0078 00000000 		.4byte	0
 4267 007c 00000000 		.4byte	0
 4268              		.section	.debug_ranges,"",%progbits
 4269              	.Ldebug_ranges0:
 4270 0000 00000000 		.4byte	.LFB220
 4271 0004 36000000 		.4byte	.LFE220
 4272 0008 00000000 		.4byte	.LFB211
 4273 000c 2C000000 		.4byte	.LFE211
 4274 0010 00000000 		.4byte	.LFB212
 4275 0014 FC000000 		.4byte	.LFE212
 4276 0018 00000000 		.4byte	.LFB213
 4277 001c 58000000 		.4byte	.LFE213
 4278 0020 00000000 		.4byte	.LFB214
 4279 0024 14000000 		.4byte	.LFE214
 4280 0028 00000000 		.4byte	.LFB215
 4281 002c 28000000 		.4byte	.LFE215
 4282 0030 00000000 		.4byte	.LFB216
 4283 0034 10000000 		.4byte	.LFE216
 4284 0038 00000000 		.4byte	.LFB217
 4285 003c 3E000000 		.4byte	.LFE217
 4286 0040 00000000 		.4byte	.LFB218
 4287 0044 0C000000 		.4byte	.LFE218
 4288 0048 00000000 		.4byte	.LFB219
 4289 004c 8C000000 		.4byte	.LFE219
 4290 0050 00000000 		.4byte	.LFB208
 4291 0054 14000000 		.4byte	.LFE208
 4292 0058 00000000 		.4byte	.LFB209
 4293 005c 14000000 		.4byte	.LFE209
 4294 0060 00000000 		.4byte	.LFB210
 4295 0064 14000000 		.4byte	.LFE210
 4296 0068 00000000 		.4byte	0
 4297 006c 00000000 		.4byte	0
 4298              		.section	.debug_line,"",%progbits
 4299              	.Ldebug_line0:
 4300 0000 30050000 		.section	.debug_str,"MS",%progbits,1
 4300      02003803 
 4300      00000201 
 4300      FB0E0D00 
 4300      01010101 
 4301              	.LASF156:
 4302 0000 4943555F 		.ascii	"ICU_INPUT_ACTIVE_HIGH\000"
 4302      494E5055 
 4302      545F4143 
 4302      54495645 
 4302      5F484947 
 4303              	.LASF53:
 4304 0016 72656164 		.ascii	"ready_list_t\000"
ARM GAS  /tmp/cc9Ao2VO.s 			page 77


 4304      795F6C69 
 4304      73745F74 
 4304      00
 4305              	.LASF147:
 4306 0023 44494552 		.ascii	"DIER\000"
 4306      00
 4307              	.LASF2:
 4308 0028 73697A65 		.ascii	"size_t\000"
 4308      5F7400
 4309              	.LASF187:
 4310 002f 6963755F 		.ascii	"icu_lld_enable_notifications\000"
 4310      6C6C645F 
 4310      656E6162 
 4310      6C655F6E 
 4310      6F746966 
 4311              	.LASF17:
 4312 004c 75696E74 		.ascii	"uint64_t\000"
 4312      36345F74 
 4312      00
 4313              	.LASF136:
 4314 0055 4943555F 		.ascii	"ICU_WAITING\000"
 4314      57414954 
 4314      494E4700 
 4315              	.LASF137:
 4316 0061 4943555F 		.ascii	"ICU_ACTIVE\000"
 4316      41435449 
 4316      564500
 4317              	.LASF3:
 4318 006c 5F5F7569 		.ascii	"__uint8_t\000"
 4318      6E74385F 
 4318      7400
 4319              	.LASF113:
 4320 0076 706F7274 		.ascii	"port_intctx\000"
 4320      5F696E74 
 4320      63747800 
 4321              	.LASF52:
 4322 0082 63685F74 		.ascii	"ch_threads_queue\000"
 4322      68726561 
 4322      64735F71 
 4322      75657565 
 4322      00
 4323              	.LASF72:
 4324 0093 73797374 		.ascii	"system_debug_t\000"
 4324      656D5F64 
 4324      65627567 
 4324      5F7400
 4325              	.LASF171:
 4326 00a2 706F7274 		.ascii	"port_lock\000"
 4326      5F6C6F63 
 4326      6B00
 4327              	.LASF191:
 4328 00ac 56656374 		.ascii	"VectorAC\000"
 4328      6F724143 
 4328      00
 4329              	.LASF138:
 4330 00b5 69637573 		.ascii	"icustate_t\000"
 4330      74617465 
ARM GAS  /tmp/cc9Ao2VO.s 			page 78


 4330      5F7400
 4331              	.LASF13:
 4332 00c0 6C6F6E67 		.ascii	"long long unsigned int\000"
 4332      206C6F6E 
 4332      6720756E 
 4332      7369676E 
 4332      65642069 
 4333              	.LASF124:
 4334 00d7 735F7175 		.ascii	"s_queue\000"
 4334      65756500 
 4335              	.LASF117:
 4336 00df 65786974 		.ascii	"exitcode\000"
 4336      636F6465 
 4336      00
 4337              	.LASF79:
 4338 00e8 6D61696E 		.ascii	"mainthread\000"
 4338      74687265 
 4338      616400
 4339              	.LASF182:
 4340 00f3 6963755F 		.ascii	"icu_lld_init\000"
 4340      6C6C645F 
 4340      696E6974 
 4340      00
 4341              	.LASF69:
 4342 0100 76697274 		.ascii	"virtual_timers_list_t\000"
 4342      75616C5F 
 4342      74696D65 
 4342      72735F6C 
 4342      6973745F 
 4343              	.LASF193:
 4344 0116 49544D5F 		.ascii	"ITM_RxBuffer\000"
 4344      52784275 
 4344      66666572 
 4344      00
 4345              	.LASF151:
 4346 0123 42445452 		.ascii	"BDTR\000"
 4346      00
 4347              	.LASF164:
 4348 0128 66726571 		.ascii	"frequency\000"
 4348      75656E63 
 4348      7900
 4349              	.LASF98:
 4350 0132 41484231 		.ascii	"AHB1LPENR\000"
 4350      4C50454E 
 4350      5200
 4351              	.LASF31:
 4352 013c 705F7072 		.ascii	"p_prio\000"
 4352      696F00
 4353              	.LASF6:
 4354 0143 73686F72 		.ascii	"short unsigned int\000"
 4354      7420756E 
 4354      7369676E 
 4354      65642069 
 4354      6E7400
 4355              	.LASF197:
 4356 0156 6E766963 		.ascii	"nvicEnableVector\000"
 4356      456E6162 
ARM GAS  /tmp/cc9Ao2VO.s 			page 79


 4356      6C655665 
 4356      63746F72 
 4356      00
 4357              	.LASF148:
 4358 0167 43434D52 		.ascii	"CCMR1\000"
 4358      3100
 4359              	.LASF149:
 4360 016d 43434D52 		.ascii	"CCMR2\000"
 4360      3200
 4361              	.LASF153:
 4362 0173 43434D52 		.ascii	"CCMR3\000"
 4362      3300
 4363              	.LASF1:
 4364 0179 7369676E 		.ascii	"signed char\000"
 4364      65642063 
 4364      68617200 
 4365              	.LASF84:
 4366 0185 41484231 		.ascii	"AHB1RSTR\000"
 4366      52535452 
 4366      00
 4367              	.LASF127:
 4368 018e 6D5F7175 		.ascii	"m_queue\000"
 4368      65756500 
 4369              	.LASF192:
 4370 0196 56656374 		.ascii	"VectorB0\000"
 4370      6F724230 
 4370      00
 4371              	.LASF172:
 4372 019f 706F7274 		.ascii	"port_unlock\000"
 4372      5F756E6C 
 4372      6F636B00 
 4373              	.LASF22:
 4374 01ab 74736C69 		.ascii	"tslices_t\000"
 4374      6365735F 
 4374      7400
 4375              	.LASF140:
 4376 01b5 73746174 		.ascii	"state\000"
 4376      6500
 4377              	.LASF76:
 4378 01bb 63685F73 		.ascii	"ch_system\000"
 4378      79737465 
 4378      6D00
 4379              	.LASF8:
 4380 01c5 6C6F6E67 		.ascii	"long int\000"
 4380      20696E74 
 4380      00
 4381              	.LASF89:
 4382 01ce 41504232 		.ascii	"APB2RSTR\000"
 4382      52535452 
 4382      00
 4383              	.LASF102:
 4384 01d7 41504231 		.ascii	"APB1LPENR\000"
 4384      4C50454E 
 4384      5200
 4385              	.LASF20:
 4386 01e1 74737461 		.ascii	"tstate_t\000"
 4386      74655F74 
ARM GAS  /tmp/cc9Ao2VO.s 			page 80


 4386      00
 4387              	.LASF150:
 4388 01ea 43434552 		.ascii	"CCER\000"
 4388      00
 4389              	.LASF185:
 4390 01ef 6963755F 		.ascii	"icu_lld_start_capture\000"
 4390      6C6C645F 
 4390      73746172 
 4390      745F6361 
 4390      70747572 
 4391              	.LASF11:
 4392 0205 6C6F6E67 		.ascii	"long long int\000"
 4392      206C6F6E 
 4392      6720696E 
 4392      7400
 4393              	.LASF33:
 4394 0213 705F6E65 		.ascii	"p_newer\000"
 4394      77657200 
 4395              	.LASF82:
 4396 021b 504C4C43 		.ascii	"PLLCFGR\000"
 4396      46475200 
 4397              	.LASF170:
 4398 0223 49435543 		.ascii	"ICUConfig\000"
 4398      6F6E6669 
 4398      6700
 4399              	.LASF58:
 4400 022d 725F6E65 		.ascii	"r_newer\000"
 4400      77657200 
 4401              	.LASF46:
 4402 0235 705F6D70 		.ascii	"p_mpool\000"
 4402      6F6F6C00 
 4403              	.LASF110:
 4404 023d 72656761 		.ascii	"regarm_t\000"
 4404      726D5F74 
 4404      00
 4405              	.LASF65:
 4406 0246 76745F70 		.ascii	"vt_prev\000"
 4406      72657600 
 4407              	.LASF78:
 4408 024e 76746C69 		.ascii	"vtlist\000"
 4408      737400
 4409              	.LASF177:
 4410 0255 6F73616C 		.ascii	"osalSysLock\000"
 4410      5379734C 
 4410      6F636B00 
 4411              	.LASF131:
 4412 0261 6D757465 		.ascii	"mutex_t\000"
 4412      785F7400 
 4413              	.LASF178:
 4414 0269 76616C75 		.ascii	"value\000"
 4414      6500
 4415              	.LASF80:
 4416 026f 69646C65 		.ascii	"idle_thread_wa\000"
 4416      5F746872 
 4416      6561645F 
 4416      776100
 4417              	.LASF26:
ARM GAS  /tmp/cc9Ao2VO.s 			page 81


 4418 027e 636E745F 		.ascii	"cnt_t\000"
 4418      7400
 4419              	.LASF0:
 4420 0284 756E7369 		.ascii	"unsigned int\000"
 4420      676E6564 
 4420      20696E74 
 4420      00
 4421              	.LASF64:
 4422 0291 76745F6E 		.ascii	"vt_next\000"
 4422      65787400 
 4423              	.LASF194:
 4424 0299 49435544 		.ascii	"ICUD1\000"
 4424      3100
 4425              	.LASF198:
 4426 029f 6E766963 		.ascii	"nvicDisableVector\000"
 4426      44697361 
 4426      626C6556 
 4426      6563746F 
 4426      7200
 4427              	.LASF120:
 4428 02b1 77747365 		.ascii	"wtsemp\000"
 4428      6D7000
 4429              	.LASF71:
 4430 02b8 76745F73 		.ascii	"vt_systime\000"
 4430      79737469 
 4430      6D6500
 4431              	.LASF41:
 4432 02c3 705F6D73 		.ascii	"p_msgqueue\000"
 4432      67717565 
 4432      756500
 4433              	.LASF145:
 4434 02ce 69637563 		.ascii	"icucallback_t\000"
 4434      616C6C62 
 4434      61636B5F 
 4434      7400
 4435              	.LASF109:
 4436 02dc 5243435F 		.ascii	"RCC_TypeDef\000"
 4436      54797065 
 4436      44656600 
 4437              	.LASF49:
 4438 02e8 63685F74 		.ascii	"ch_thread\000"
 4438      68726561 
 4438      6400
 4439              	.LASF166:
 4440 02f2 70657269 		.ascii	"period_cb\000"
 4440      6F645F63 
 4440      6200
 4441              	.LASF189:
 4442 02fc 6963755F 		.ascii	"icu_lld_serve_interrupt\000"
 4442      6C6C645F 
 4442      73657276 
 4442      655F696E 
 4442      74657272 
 4443              	.LASF200:
 4444 0314 2F686F6D 		.ascii	"/home/peter/ChibiOS_16.1.4/os/hal/ports/STM32/LLD/T"
 4444      652F7065 
 4444      7465722F 
ARM GAS  /tmp/cc9Ao2VO.s 			page 82


 4444      43686962 
 4444      694F535F 
 4445 0347 494D7631 		.ascii	"IMv1/icu_lld.c\000"
 4445      2F696375 
 4445      5F6C6C64 
 4445      2E6300
 4446              	.LASF167:
 4447 0356 6F766572 		.ascii	"overflow_cb\000"
 4447      666C6F77 
 4447      5F636200 
 4448              	.LASF108:
 4449 0362 504C4C49 		.ascii	"PLLI2SCFGR\000"
 4449      32534346 
 4449      475200
 4450              	.LASF24:
 4451 036d 6D73675F 		.ascii	"msg_t\000"
 4451      7400
 4452              	.LASF86:
 4453 0373 41484233 		.ascii	"AHB3RSTR\000"
 4453      52535452 
 4453      00
 4454              	.LASF203:
 4455 037c 5F706F72 		.ascii	"_port_irq_epilogue\000"
 4455      745F6972 
 4455      715F6570 
 4455      696C6F67 
 4455      756500
 4456              	.LASF139:
 4457 038f 49435544 		.ascii	"ICUDriver\000"
 4457      72697665 
 4457      7200
 4458              	.LASF92:
 4459 0399 41484232 		.ascii	"AHB2ENR\000"
 4459      454E5200 
 4460              	.LASF155:
 4461 03a1 73746D33 		.ascii	"stm32_tim_t\000"
 4461      325F7469 
 4461      6D5F7400 
 4462              	.LASF103:
 4463 03ad 41504232 		.ascii	"APB2LPENR\000"
 4463      4C50454E 
 4463      5200
 4464              	.LASF144:
 4465 03b7 70636372 		.ascii	"pccrp\000"
 4465      7000
 4466              	.LASF54:
 4467 03bd 63685F72 		.ascii	"ch_ready_list\000"
 4467      65616479 
 4467      5F6C6973 
 4467      7400
 4468              	.LASF25:
 4469 03cb 6576656E 		.ascii	"eventmask_t\000"
 4469      746D6173 
 4469      6B5F7400 
 4470              	.LASF7:
 4471 03d7 5F5F696E 		.ascii	"__int32_t\000"
 4471      7433325F 
ARM GAS  /tmp/cc9Ao2VO.s 			page 83


 4471      7400
 4472              	.LASF135:
 4473 03e1 4943555F 		.ascii	"ICU_READY\000"
 4473      52454144 
 4473      5900
 4474              	.LASF111:
 4475 03eb 73746B61 		.ascii	"stkalign_t\000"
 4475      6C69676E 
 4475      5F7400
 4476              	.LASF186:
 4477 03f6 6963755F 		.ascii	"icu_lld_stop_capture\000"
 4477      6C6C645F 
 4477      73746F70 
 4477      5F636170 
 4477      74757265 
 4478              	.LASF48:
 4479 040b 74687265 		.ascii	"threads_list_t\000"
 4479      6164735F 
 4479      6C697374 
 4479      5F7400
 4480              	.LASF62:
 4481 041a 76697274 		.ascii	"virtual_timer_t\000"
 4481      75616C5F 
 4481      74696D65 
 4481      725F7400 
 4482              	.LASF40:
 4483 042a 705F7761 		.ascii	"p_waiting\000"
 4483      6974696E 
 4483      6700
 4484              	.LASF81:
 4485 0434 73697A65 		.ascii	"sizetype\000"
 4485      74797065 
 4485      00
 4486              	.LASF47:
 4487 043d 74687265 		.ascii	"thread_reference_t\000"
 4487      61645F72 
 4487      65666572 
 4487      656E6365 
 4487      5F7400
 4488              	.LASF70:
 4489 0450 63685F76 		.ascii	"ch_virtual_timers_list\000"
 4489      69727475 
 4489      616C5F74 
 4489      696D6572 
 4489      735F6C69 
 4490              	.LASF119:
 4491 0467 77747472 		.ascii	"wttrp\000"
 4491      7000
 4492              	.LASF188:
 4493 046d 6963755F 		.ascii	"icu_lld_disable_notifications\000"
 4493      6C6C645F 
 4493      64697361 
 4493      626C655F 
 4493      6E6F7469 
 4494              	.LASF29:
 4495 048b 705F6E65 		.ascii	"p_next\000"
 4495      787400
ARM GAS  /tmp/cc9Ao2VO.s 			page 84


 4496              	.LASF165:
 4497 0492 77696474 		.ascii	"width_cb\000"
 4497      685F6362 
 4497      00
 4498              	.LASF93:
 4499 049b 41484233 		.ascii	"AHB3ENR\000"
 4499      454E5200 
 4500              	.LASF34:
 4501 04a3 705F6F6C 		.ascii	"p_older\000"
 4501      64657200 
 4502              	.LASF116:
 4503 04ab 7264796D 		.ascii	"rdymsg\000"
 4503      736700
 4504              	.LASF57:
 4505 04b2 725F6374 		.ascii	"r_ctx\000"
 4505      7800
 4506              	.LASF99:
 4507 04b8 41484232 		.ascii	"AHB2LPENR\000"
 4507      4C50454E 
 4507      5200
 4508              	.LASF134:
 4509 04c2 4943555F 		.ascii	"ICU_STOP\000"
 4509      53544F50 
 4509      00
 4510              	.LASF115:
 4511 04cb 746D5F63 		.ascii	"tm_calibration_t\000"
 4511      616C6962 
 4511      72617469 
 4511      6F6E5F74 
 4511      00
 4512              	.LASF157:
 4513 04dc 4943555F 		.ascii	"ICU_INPUT_ACTIVE_LOW\000"
 4513      494E5055 
 4513      545F4143 
 4513      54495645 
 4513      5F4C4F57 
 4514              	.LASF60:
 4515 04f1 725F6375 		.ascii	"r_current\000"
 4515      7272656E 
 4515      7400
 4516              	.LASF88:
 4517 04fb 41504231 		.ascii	"APB1RSTR\000"
 4517      52535452 
 4517      00
 4518              	.LASF12:
 4519 0504 5F5F7569 		.ascii	"__uint64_t\000"
 4519      6E743634 
 4519      5F7400
 4520              	.LASF21:
 4521 050f 74726566 		.ascii	"trefs_t\000"
 4521      735F7400 
 4522              	.LASF87:
 4523 0517 52455345 		.ascii	"RESERVED0\000"
 4523      52564544 
 4523      3000
 4524              	.LASF90:
 4525 0521 52455345 		.ascii	"RESERVED1\000"
ARM GAS  /tmp/cc9Ao2VO.s 			page 85


 4525      52564544 
 4525      3100
 4526              	.LASF94:
 4527 052b 52455345 		.ascii	"RESERVED2\000"
 4527      52564544 
 4527      3200
 4528              	.LASF97:
 4529 0535 52455345 		.ascii	"RESERVED3\000"
 4529      52564544 
 4529      3300
 4530              	.LASF101:
 4531 053f 52455345 		.ascii	"RESERVED4\000"
 4531      52564544 
 4531      3400
 4532              	.LASF30:
 4533 0549 705F7072 		.ascii	"p_prev\000"
 4533      657600
 4534              	.LASF106:
 4535 0550 52455345 		.ascii	"RESERVED6\000"
 4535      52564544 
 4535      3600
 4536              	.LASF195:
 4537 055a 49435544 		.ascii	"ICUD2\000"
 4537      3200
 4538              	.LASF23:
 4539 0560 74707269 		.ascii	"tprio_t\000"
 4539      6F5F7400 
 4540              	.LASF179:
 4541 0568 69637570 		.ascii	"icup\000"
 4541      00
 4542              	.LASF73:
 4543 056d 63685F73 		.ascii	"ch_system_debug\000"
 4543      79737465 
 4543      6D5F6465 
 4543      62756700 
 4544              	.LASF132:
 4545 057d 5F426F6F 		.ascii	"_Bool\000"
 4545      6C00
 4546              	.LASF15:
 4547 0583 696E7433 		.ascii	"int32_t\000"
 4547      325F7400 
 4548              	.LASF4:
 4549 058b 756E7369 		.ascii	"unsigned char\000"
 4549      676E6564 
 4549      20636861 
 4549      7200
 4550              	.LASF158:
 4551 0599 6963756D 		.ascii	"icumode_t\000"
 4551      6F64655F 
 4551      7400
 4552              	.LASF125:
 4553 05a3 735F636E 		.ascii	"s_cnt\000"
 4553      7400
 4554              	.LASF44:
 4555 05a9 705F6D74 		.ascii	"p_mtxlist\000"
 4555      786C6973 
 4555      7400
ARM GAS  /tmp/cc9Ao2VO.s 			page 86


 4556              	.LASF5:
 4557 05b3 73686F72 		.ascii	"short int\000"
 4557      7420696E 
 4557      7400
 4558              	.LASF36:
 4559 05bd 705F7374 		.ascii	"p_state\000"
 4559      61746500 
 4560              	.LASF39:
 4561 05c5 705F7072 		.ascii	"p_preempt\000"
 4561      65656D70 
 4561      7400
 4562              	.LASF100:
 4563 05cf 41484233 		.ascii	"AHB3LPENR\000"
 4563      4C50454E 
 4563      5200
 4564              	.LASF56:
 4565 05d9 725F7072 		.ascii	"r_prio\000"
 4565      696F00
 4566              	.LASF122:
 4567 05e0 65776D61 		.ascii	"ewmask\000"
 4567      736B00
 4568              	.LASF37:
 4569 05e7 705F666C 		.ascii	"p_flags\000"
 4569      61677300 
 4570              	.LASF180:
 4571 05ef 5F5F6675 		.ascii	"__func__\000"
 4571      6E635F5F 
 4571      00
 4572              	.LASF173:
 4573 05f8 63685379 		.ascii	"chSysLock\000"
 4573      734C6F63 
 4573      6B00
 4574              	.LASF176:
 4575 0602 6F73616C 		.ascii	"osalSysUnlock\000"
 4575      53797355 
 4575      6E6C6F63 
 4575      6B00
 4576              	.LASF96:
 4577 0610 41504232 		.ascii	"APB2ENR\000"
 4577      454E5200 
 4578              	.LASF77:
 4579 0618 726C6973 		.ascii	"rlist\000"
 4579      7400
 4580              	.LASF162:
 4581 061e 69637563 		.ascii	"icuchannel_t\000"
 4581      68616E6E 
 4581      656C5F74 
 4581      00
 4582              	.LASF168:
 4583 062b 6368616E 		.ascii	"channel\000"
 4583      6E656C00 
 4584              	.LASF63:
 4585 0633 63685F76 		.ascii	"ch_virtual_timer\000"
 4585      69727475 
 4585      616C5F74 
 4585      696D6572 
 4585      00
ARM GAS  /tmp/cc9Ao2VO.s 			page 87


 4586              	.LASF123:
 4587 0644 63685F73 		.ascii	"ch_semaphore\000"
 4587      656D6170 
 4587      686F7265 
 4587      00
 4588              	.LASF154:
 4589 0651 43435852 		.ascii	"CCXR\000"
 4589      00
 4590              	.LASF43:
 4591 0656 705F6570 		.ascii	"p_epending\000"
 4591      656E6469 
 4591      6E6700
 4592              	.LASF104:
 4593 0661 52455345 		.ascii	"RESERVED5\000"
 4593      52564544 
 4593      3500
 4594              	.LASF196:
 4595 066b 6963754F 		.ascii	"icuObjectInit\000"
 4595      626A6563 
 4595      74496E69 
 4595      7400
 4596              	.LASF121:
 4597 0679 77746D74 		.ascii	"wtmtxp\000"
 4597      787000
 4598              	.LASF55:
 4599 0680 725F7175 		.ascii	"r_queue\000"
 4599      65756500 
 4600              	.LASF66:
 4601 0688 76745F64 		.ascii	"vt_delta\000"
 4601      656C7461 
 4601      00
 4602              	.LASF50:
 4603 0691 63685F74 		.ascii	"ch_threads_list\000"
 4603      68726561 
 4603      64735F6C 
 4603      69737400 
 4604              	.LASF10:
 4605 06a1 6C6F6E67 		.ascii	"long unsigned int\000"
 4605      20756E73 
 4605      69676E65 
 4605      6420696E 
 4605      7400
 4606              	.LASF199:
 4607 06b3 474E5520 		.ascii	"GNU C 4.9.3 20150529 (prerelease) -mcpu=cortex-m3 -"
 4607      4320342E 
 4607      392E3320 
 4607      32303135 
 4607      30353239 
 4608 06e6 6D6E6F2D 		.ascii	"mno-thumb-interwork -mthumb -ggdb -O2 -std=c99 -fom"
 4608      7468756D 
 4608      622D696E 
 4608      74657277 
 4608      6F726B20 
 4609 0719 69742D66 		.ascii	"it-frame-pointer -falign-functions=16 -ffunction-se"
 4609      72616D65 
 4609      2D706F69 
 4609      6E746572 
ARM GAS  /tmp/cc9Ao2VO.s 			page 88


 4609      202D6661 
 4610 074c 6374696F 		.ascii	"ctions -fdata-sections -fno-common\000"
 4610      6E73202D 
 4610      66646174 
 4610      612D7365 
 4610      6374696F 
 4611              	.LASF130:
 4612 076f 63686172 		.ascii	"char\000"
 4612      00
 4613              	.LASF163:
 4614 0774 6D6F6465 		.ascii	"mode\000"
 4614      00
 4615              	.LASF146:
 4616 0779 534D4352 		.ascii	"SMCR\000"
 4616      00
 4617              	.LASF141:
 4618 077e 636F6E66 		.ascii	"config\000"
 4618      696700
 4619              	.LASF152:
 4620 0785 444D4152 		.ascii	"DMAR\000"
 4620      00
 4621              	.LASF85:
 4622 078a 41484232 		.ascii	"AHB2RSTR\000"
 4622      52535452 
 4622      00
 4623              	.LASF28:
 4624 0793 74687265 		.ascii	"thread_t\000"
 4624      61645F74 
 4624      00
 4625              	.LASF129:
 4626 079c 6D5F6E65 		.ascii	"m_next\000"
 4626      787400
 4627              	.LASF27:
 4628 07a3 73797374 		.ascii	"systime_t\000"
 4628      696D655F 
 4628      7400
 4629              	.LASF45:
 4630 07ad 705F7265 		.ascii	"p_realprio\000"
 4630      616C7072 
 4630      696F00
 4631              	.LASF61:
 4632 07b8 76746675 		.ascii	"vtfunc_t\000"
 4632      6E635F74 
 4632      00
 4633              	.LASF9:
 4634 07c1 5F5F7569 		.ascii	"__uint32_t\000"
 4634      6E743332 
 4634      5F7400
 4635              	.LASF174:
 4636 07cc 5F5F7365 		.ascii	"__set_BASEPRI\000"
 4636      745F4241 
 4636      53455052 
 4636      4900
 4637              	.LASF74:
 4638 07da 70616E69 		.ascii	"panic_msg\000"
 4638      635F6D73 
 4638      6700
ARM GAS  /tmp/cc9Ao2VO.s 			page 89


 4639              	.LASF114:
 4640 07e4 6F666673 		.ascii	"offset\000"
 4640      657400
 4641              	.LASF95:
 4642 07eb 41504231 		.ascii	"APB1ENR\000"
 4642      454E5200 
 4643              	.LASF184:
 4644 07f3 6963755F 		.ascii	"icu_lld_stop\000"
 4644      6C6C645F 
 4644      73746F70 
 4644      00
 4645              	.LASF112:
 4646 0800 636F6E74 		.ascii	"context\000"
 4646      65787400 
 4647              	.LASF59:
 4648 0808 725F6F6C 		.ascii	"r_older\000"
 4648      64657200 
 4649              	.LASF75:
 4650 0810 63685F73 		.ascii	"ch_system_t\000"
 4650      79737465 
 4650      6D5F7400 
 4651              	.LASF159:
 4652 081c 69637566 		.ascii	"icufreq_t\000"
 4652      7265715F 
 4652      7400
 4653              	.LASF18:
 4654 0826 7274636E 		.ascii	"rtcnt_t\000"
 4654      745F7400 
 4655              	.LASF68:
 4656 082e 76745F70 		.ascii	"vt_par\000"
 4656      617200
 4657              	.LASF16:
 4658 0835 75696E74 		.ascii	"uint32_t\000"
 4658      33325F74 
 4658      00
 4659              	.LASF107:
 4660 083e 53534347 		.ascii	"SSCGR\000"
 4660      5200
 4661              	.LASF51:
 4662 0844 74687265 		.ascii	"threads_queue_t\000"
 4662      6164735F 
 4662      71756575 
 4662      655F7400 
 4663              	.LASF126:
 4664 0854 63685F6D 		.ascii	"ch_mutex\000"
 4664      75746578 
 4664      00
 4665              	.LASF38:
 4666 085d 705F7265 		.ascii	"p_refs\000"
 4666      667300
 4667              	.LASF202:
 4668 0864 6963755F 		.ascii	"icu_lld_wait_capture\000"
 4668      6C6C645F 
 4668      77616974 
 4668      5F636170 
 4668      74757265 
 4669              	.LASF105:
ARM GAS  /tmp/cc9Ao2VO.s 			page 90


 4670 0879 42444352 		.ascii	"BDCR\000"
 4670      00
 4671              	.LASF133:
 4672 087e 4943555F 		.ascii	"ICU_UNINIT\000"
 4672      554E494E 
 4672      495400
 4673              	.LASF160:
 4674 0889 4943555F 		.ascii	"ICU_CHANNEL_1\000"
 4674      4348414E 
 4674      4E454C5F 
 4674      3100
 4675              	.LASF161:
 4676 0897 4943555F 		.ascii	"ICU_CHANNEL_2\000"
 4676      4348414E 
 4676      4E454C5F 
 4676      3200
 4677              	.LASF14:
 4678 08a5 75696E74 		.ascii	"uint8_t\000"
 4678      385F7400 
 4679              	.LASF118:
 4680 08ad 77746F62 		.ascii	"wtobjp\000"
 4680      6A7000
 4681              	.LASF35:
 4682 08b4 705F6E61 		.ascii	"p_name\000"
 4682      6D6500
 4683              	.LASF91:
 4684 08bb 41484231 		.ascii	"AHB1ENR\000"
 4684      454E5200 
 4685              	.LASF83:
 4686 08c3 43464752 		.ascii	"CFGR\000"
 4686      00
 4687              	.LASF19:
 4688 08c8 746D6F64 		.ascii	"tmode_t\000"
 4688      655F7400 
 4689              	.LASF183:
 4690 08d0 6963755F 		.ascii	"icu_lld_start\000"
 4690      6C6C645F 
 4690      73746172 
 4690      7400
 4691              	.LASF175:
 4692 08de 63685379 		.ascii	"chSysUnlock\000"
 4692      73556E6C 
 4692      6F636B00 
 4693              	.LASF42:
 4694 08ea 705F6D73 		.ascii	"p_msg\000"
 4694      6700
 4695              	.LASF142:
 4696 08f0 636C6F63 		.ascii	"clock\000"
 4696      6B00
 4697              	.LASF201:
 4698 08f6 6963755F 		.ascii	"icu_lld_wait_edge\000"
 4698      6C6C645F 
 4698      77616974 
 4698      5F656467 
 4698      6500
 4699              	.LASF143:
 4700 0908 77636372 		.ascii	"wccrp\000"
ARM GAS  /tmp/cc9Ao2VO.s 			page 91


 4700      7000
 4701              	.LASF128:
 4702 090e 6D5F6F77 		.ascii	"m_owner\000"
 4702      6E657200 
 4703              	.LASF181:
 4704 0916 72657375 		.ascii	"result\000"
 4704      6C7400
 4705              	.LASF32:
 4706 091d 705F6374 		.ascii	"p_ctx\000"
 4706      7800
 4707              	.LASF67:
 4708 0923 76745F66 		.ascii	"vt_func\000"
 4708      756E6300 
 4709              	.LASF190:
 4710 092b 56656374 		.ascii	"VectorA4\000"
 4710      6F724134 
 4710      00
 4711              	.LASF169:
 4712 0934 64696572 		.ascii	"dier\000"
 4712      00
 4713              		.ident	"GCC: (15:4.9.3+svn227297-1) 4.9.3 20150529 (prerelease)"
ARM GAS  /tmp/cc9Ao2VO.s 			page 92


DEFINED SYMBOLS
                            *ABS*:00000000 icu_lld.c
     /tmp/cc9Ao2VO.s:19     .text.icu_lld_wait_edge.isra.0:00000000 $t
     /tmp/cc9Ao2VO.s:24     .text.icu_lld_wait_edge.isra.0:00000000 icu_lld_wait_edge.isra.0
     /tmp/cc9Ao2VO.s:106    .text.icu_lld_init:00000000 $t
     /tmp/cc9Ao2VO.s:112    .text.icu_lld_init:00000000 icu_lld_init
     /tmp/cc9Ao2VO.s:148    .text.icu_lld_init:00000020 $d
     /tmp/cc9Ao2VO.s:155    .text.icu_lld_start:00000000 $t
     /tmp/cc9Ao2VO.s:161    .text.icu_lld_start:00000000 icu_lld_start
     /tmp/cc9Ao2VO.s:375    .text.icu_lld_start:000000e8 $d
     /tmp/cc9Ao2VO.s:384    .text.icu_lld_stop:00000000 $t
     /tmp/cc9Ao2VO.s:390    .text.icu_lld_stop:00000000 icu_lld_stop
     /tmp/cc9Ao2VO.s:460    .text.icu_lld_stop:0000004c $d
     /tmp/cc9Ao2VO.s:467    .text.icu_lld_start_capture:00000000 $t
     /tmp/cc9Ao2VO.s:473    .text.icu_lld_start_capture:00000000 icu_lld_start_capture
     /tmp/cc9Ao2VO.s:502    .text.icu_lld_wait_capture:00000000 $t
     /tmp/cc9Ao2VO.s:508    .text.icu_lld_wait_capture:00000000 icu_lld_wait_capture
     /tmp/cc9Ao2VO.s:560    .text.icu_lld_stop_capture:00000000 $t
     /tmp/cc9Ao2VO.s:566    .text.icu_lld_stop_capture:00000000 icu_lld_stop_capture
     /tmp/cc9Ao2VO.s:587    .text.icu_lld_enable_notifications:00000000 $t
     /tmp/cc9Ao2VO.s:593    .text.icu_lld_enable_notifications:00000000 icu_lld_enable_notifications
     /tmp/cc9Ao2VO.s:668    .text.icu_lld_disable_notifications:00000000 $t
     /tmp/cc9Ao2VO.s:674    .text.icu_lld_disable_notifications:00000000 icu_lld_disable_notifications
     /tmp/cc9Ao2VO.s:692    .text.icu_lld_serve_interrupt:00000000 $t
     /tmp/cc9Ao2VO.s:698    .text.icu_lld_serve_interrupt:00000000 icu_lld_serve_interrupt
     /tmp/cc9Ao2VO.s:846    .text.VectorA4:00000000 $t
     /tmp/cc9Ao2VO.s:852    .text.VectorA4:00000000 VectorA4
     /tmp/cc9Ao2VO.s:877    .text.VectorA4:00000010 $d
     /tmp/cc9Ao2VO.s:882    .text.VectorAC:00000000 $t
     /tmp/cc9Ao2VO.s:888    .text.VectorAC:00000000 VectorAC
     /tmp/cc9Ao2VO.s:913    .text.VectorAC:00000010 $d
     /tmp/cc9Ao2VO.s:918    .text.VectorB0:00000000 $t
     /tmp/cc9Ao2VO.s:924    .text.VectorB0:00000000 VectorB0
     /tmp/cc9Ao2VO.s:949    .text.VectorB0:00000010 $d
     /tmp/cc9Ao2VO.s:960    .bss.ICUD2:00000000 ICUD2
     /tmp/cc9Ao2VO.s:967    .bss.ICUD1:00000000 ICUD1
     /tmp/cc9Ao2VO.s:956    .bss.ICUD2:00000000 $d
     /tmp/cc9Ao2VO.s:963    .bss.ICUD1:00000000 $d
                     .debug_frame:00000010 $d
     /tmp/cc9Ao2VO.s:154    .text.icu_lld_init:0000002c $t
     /tmp/cc9Ao2VO.s:383    .text.icu_lld_start:000000fc $t
     /tmp/cc9Ao2VO.s:466    .text.icu_lld_stop:00000058 $t
     /tmp/cc9Ao2VO.s:881    .text.VectorA4:00000014 $t
     /tmp/cc9Ao2VO.s:917    .text.VectorAC:00000014 $t
     /tmp/cc9Ao2VO.s:955    .text.VectorB0:00000014 $t

UNDEFINED SYMBOLS
icuObjectInit
nvicEnableVector
nvicDisableVector
_port_irq_epilogue
