ARM GAS  /tmp/ccQb73YC.s 			page 1


   1              		.syntax unified
   2              		.cpu cortex-m3
   3              		.fpu softvfp
   4              		.eabi_attribute 20, 1
   5              		.eabi_attribute 21, 1
   6              		.eabi_attribute 23, 3
   7              		.eabi_attribute 24, 1
   8              		.eabi_attribute 25, 1
   9              		.eabi_attribute 26, 1
  10              		.eabi_attribute 30, 2
  11              		.eabi_attribute 34, 1
  12              		.eabi_attribute 18, 4
  13              		.thumb
  14              		.file	"nvic.c"
  15              		.text
  16              	.Ltext0:
  17              		.cfi_sections	.debug_frame
  18              		.section	.text.nvicEnableVector,"ax",%progbits
  19              		.align	2
  20              		.p2align 4,,15
  21              		.global	nvicEnableVector
  22              		.thumb
  23              		.thumb_func
  24              		.type	nvicEnableVector, %function
  25              	nvicEnableVector:
  26              	.LFB207:
  27              		.file 1 "/home/peter/ChibiOS_16.1.4/os/hal/ports/common/ARMCMx/nvic.c"
  28              		.loc 1 57 0
  29              		.cfi_startproc
  30              		@ args = 0, pretend = 0, frame = 0
  31              		@ frame_needed = 0, uses_anonymous_args = 0
  32              		@ link register save eliminated.
  33              	.LVL0:
  34              		.loc 1 65 0
  35 0000 4309     		lsrs	r3, r0, #5
  36 0002 9B00     		lsls	r3, r3, #2
  37              		.loc 1 57 0
  38 0004 10B4     		push	{r4}
  39              		.cfi_def_cfa_offset 4
  40              		.cfi_offset 4, -4
  41              		.loc 1 63 0
  42 0006 0901     		lsls	r1, r1, #4
  43              	.LVL1:
  44 0008 00F16044 		add	r4, r0, #-536870912
  45 000c 03F16043 		add	r3, r3, #-536870912
  46              		.loc 1 65 0
  47 0010 00F01F00 		and	r0, r0, #31
  48              	.LVL2:
  49 0014 0122     		movs	r2, #1
  50              		.loc 1 63 0
  51 0016 04F56144 		add	r4, r4, #57600
  52              	.LVL3:
  53 001a 03F56143 		add	r3, r3, #57600
  54              		.loc 1 65 0
  55 001e 8240     		lsls	r2, r2, r0
  56              		.loc 1 63 0
  57 0020 C9B2     		uxtb	r1, r1
ARM GAS  /tmp/ccQb73YC.s 			page 2


  58 0022 84F80013 		strb	r1, [r4, #768]
  59              		.loc 1 65 0
  60 0026 C3F88021 		str	r2, [r3, #384]
  61              		.loc 1 66 0
  62 002a 1A60     		str	r2, [r3]
  63              		.loc 1 67 0
  64 002c 5DF8044B 		ldr	r4, [sp], #4
  65              		.cfi_restore 4
  66              		.cfi_def_cfa_offset 0
  67              	.LVL4:
  68 0030 7047     		bx	lr
  69              		.cfi_endproc
  70              	.LFE207:
  71              		.size	nvicEnableVector, .-nvicEnableVector
  72 0032 00BFAFF3 		.section	.text.nvicDisableVector,"ax",%progbits
  72      0080AFF3 
  72      0080AFF3 
  72      0080
  73              		.align	2
  74              		.p2align 4,,15
  75              		.global	nvicDisableVector
  76              		.thumb
  77              		.thumb_func
  78              		.type	nvicDisableVector, %function
  79              	nvicDisableVector:
  80              	.LFB208:
  81              		.loc 1 74 0
  82              		.cfi_startproc
  83              		@ args = 0, pretend = 0, frame = 0
  84              		@ frame_needed = 0, uses_anonymous_args = 0
  85              		@ link register save eliminated.
  86              	.LVL5:
  87              		.loc 1 76 0
  88 0000 0849     		ldr	r1, .L5
  89              		.loc 1 74 0
  90 0002 10B4     		push	{r4}
  91              		.cfi_def_cfa_offset 4
  92              		.cfi_offset 4, -4
  93              		.loc 1 76 0
  94 0004 4309     		lsrs	r3, r0, #5
  95 0006 00F01F04 		and	r4, r0, #31
  96 000a 0122     		movs	r2, #1
  97 000c A240     		lsls	r2, r2, r4
  98 000e 2033     		adds	r3, r3, #32
  99              		.loc 1 80 0
 100 0010 0024     		movs	r4, #0
 101 0012 0844     		add	r0, r0, r1
 102              	.LVL6:
 103              		.loc 1 76 0
 104 0014 41F82320 		str	r2, [r1, r3, lsl #2]
 105              		.loc 1 80 0
 106 0018 80F80043 		strb	r4, [r0, #768]
 107              		.loc 1 82 0
 108 001c 5DF8044B 		ldr	r4, [sp], #4
 109              		.cfi_restore 4
 110              		.cfi_def_cfa_offset 0
 111 0020 7047     		bx	lr
ARM GAS  /tmp/ccQb73YC.s 			page 3


 112              	.L6:
 113 0022 00BF     		.align	2
 114              	.L5:
 115 0024 00E100E0 		.word	-536813312
 116              		.cfi_endproc
 117              	.LFE208:
 118              		.size	nvicDisableVector, .-nvicDisableVector
 119 0028 AFF30080 		.section	.text.nvicSetSystemHandlerPriority,"ax",%progbits
 119      AFF30080 
 120              		.align	2
 121              		.p2align 4,,15
 122              		.global	nvicSetSystemHandlerPriority
 123              		.thumb
 124              		.thumb_func
 125              		.type	nvicSetSystemHandlerPriority, %function
 126              	nvicSetSystemHandlerPriority:
 127              	.LFB209:
 128              		.loc 1 90 0
 129              		.cfi_startproc
 130              		@ args = 0, pretend = 0, frame = 0
 131              		@ frame_needed = 0, uses_anonymous_args = 0
 132              		@ link register save eliminated.
 133              	.LVL7:
 134              		.loc 1 100 0
 135 0000 0901     		lsls	r1, r1, #4
 136              	.LVL8:
 137 0002 00F16040 		add	r0, r0, #-536870912
 138              	.LVL9:
 139 0006 C9B2     		uxtb	r1, r1
 140 0008 00F56D40 		add	r0, r0, #60672
 141              	.LVL10:
 142 000c 0176     		strb	r1, [r0, #24]
 143 000e 7047     		bx	lr
 144              		.cfi_endproc
 145              	.LFE209:
 146              		.size	nvicSetSystemHandlerPriority, .-nvicSetSystemHandlerPriority
 147              		.section	.text.nvicClearPending,"ax",%progbits
 148              		.align	2
 149              		.p2align 4,,15
 150              		.global	nvicClearPending
 151              		.thumb
 152              		.thumb_func
 153              		.type	nvicClearPending, %function
 154              	nvicClearPending:
 155              	.LFB210:
 156              		.loc 1 109 0
 157              		.cfi_startproc
 158              		@ args = 0, pretend = 0, frame = 0
 159              		@ frame_needed = 0, uses_anonymous_args = 0
 160              		@ link register save eliminated.
 161              	.LVL11:
 162              		.loc 1 111 0
 163 0000 4309     		lsrs	r3, r0, #5
 164 0002 0122     		movs	r2, #1
 165 0004 00F01F00 		and	r0, r0, #31
 166              	.LVL12:
 167 0008 0249     		ldr	r1, .L9
ARM GAS  /tmp/ccQb73YC.s 			page 4


 168 000a 6033     		adds	r3, r3, #96
 169 000c 8240     		lsls	r2, r2, r0
 170 000e 41F82320 		str	r2, [r1, r3, lsl #2]
 171 0012 7047     		bx	lr
 172              	.L10:
 173              		.align	2
 174              	.L9:
 175 0014 00E100E0 		.word	-536813312
 176              		.cfi_endproc
 177              	.LFE210:
 178              		.size	nvicClearPending, .-nvicClearPending
 179 0018 AFF30080 		.text
 179      AFF30080 
 180              	.Letext0:
 181              		.file 2 "/usr/include/newlib/machine/_default_types.h"
 182              		.file 3 "/usr/include/newlib/stdint.h"
 183              		.file 4 "/home/peter/ChibiOS_16.1.4/os/rt/ports/ARMCMx/compilers/GCC/chtypes.h"
 184              		.file 5 "/home/peter/ChibiOS_16.1.4/os/rt/include/chsystypes.h"
 185              		.file 6 "/home/peter/ChibiOS_16.1.4/os/rt/include/chschd.h"
 186              		.file 7 "/home/peter/ChibiOS_16.1.4/os/ext/CMSIS/include/core_cm3.h"
 187              		.file 8 "/home/peter/ChibiOS_16.1.4/os/rt/ports/ARMCMx/chcore.h"
 188              		.file 9 "/home/peter/ChibiOS_16.1.4/os/rt/ports/ARMCMx/chcore_v7m.h"
 189              		.file 10 "/home/peter/ChibiOS_16.1.4/os/rt/include/chtm.h"
 190              		.file 11 "/home/peter/ChibiOS_16.1.4/os/rt/include/chsem.h"
 191              		.file 12 "/home/peter/ChibiOS_16.1.4/os/rt/include/chmtx.h"