ARM GAS  /tmp/ccQb73YC.s 			page 1


   1              		.syntax unified
   2              		.cpu cortex-m3
   3              		.fpu softvfp
   4              		.eabi_attribute 20, 1
   5              		.eabi_attribute 21, 1
   6              		.eabi_attribute 23, 3
   7              		.eabi_attribute 24, 1
   8              		.eabi_attribute 25, 1
   9              		.eabi_attribute 26, 1
  10              		.eabi_attribute 30, 2
  11              		.eabi_attribute 34, 1
  12              		.eabi_attribute 18, 4
  13              		.thumb
  14              		.file	"nvic.c"
  15              		.text
  16              	.Ltext0:
  17              		.cfi_sections	.debug_frame
  18              		.section	.text.nvicEnableVector,"ax",%progbits
  19              		.align	2
  20              		.p2align 4,,15
  21              		.global	nvicEnableVector
  22              		.thumb
  23              		.thumb_func
  24              		.type	nvicEnableVector, %function
  25              	nvicEnableVector:
  26              	.LFB207:
  27              		.file 1 "/home/peter/ChibiOS_16.1.4/os/hal/ports/common/ARMCMx/nvic.c"
  28              		.loc 1 57 0
  29              		.cfi_startproc
  30              		@ args = 0, pretend = 0, frame = 0
  31              		@ frame_needed = 0, uses_anonymous_args = 0
  32              		@ link register save eliminated.
  33              	.LVL0:
  34              		.loc 1 65 0
  35 0000 4309     		lsrs	r3, r0, #5
  36 0002 9B00     		lsls	r3, r3, #2
  37              		.loc 1 57 0
  38 0004 10B4     		push	{r4}
  39              		.cfi_def_cfa_offset 4
  40              		.cfi_offset 4, -4
  41              		.loc 1 63 0
  42 0006 0901     		lsls	r1, r1, #4
  43              	.LVL1:
  44 0008 00F16044 		add	r4, r0, #-536870912
  45 000c 03F16043 		add	r3, r3, #-536870912
  46              		.loc 1 65 0
  47 0010 00F01F00 		and	r0, r0, #31
  48              	.LVL2:
  49 0014 0122     		movs	r2, #1
  50              		.loc 1 63 0
  51 0016 04F56144 		add	r4, r4, #57600
  52              	.LVL3:
  53 001a 03F56143 		add	r3, r3, #57600
  54              		.loc 1 65 0
  55 001e 8240     		lsls	r2, r2, r0
  56              		.loc 1 63 0
  57 0020 C9B2     		uxtb	r1, r1
ARM GAS  /tmp/ccQb73YC.s 			page 2


  58 0022 84F80013 		strb	r1, [r4, #768]
  59              		.loc 1 65 0
  60 0026 C3F88021 		str	r2, [r3, #384]
  61              		.loc 1 66 0
  62 002a 1A60     		str	r2, [r3]
  63              		.loc 1 67 0
  64 002c 5DF8044B 		ldr	r4, [sp], #4
  65              		.cfi_restore 4
  66              		.cfi_def_cfa_offset 0
  67              	.LVL4:
  68 0030 7047     		bx	lr
  69              		.cfi_endproc
  70              	.LFE207:
  71              		.size	nvicEnableVector, .-nvicEnableVector
  72 0032 00BFAFF3 		.section	.text.nvicDisableVector,"ax",%progbits
  72      0080AFF3 
  72      0080AFF3 
  72      0080
  73              		.align	2
  74              		.p2align 4,,15
  75              		.global	nvicDisableVector
  76              		.thumb
  77              		.thumb_func
  78              		.type	nvicDisableVector, %function
  79              	nvicDisableVector:
  80              	.LFB208:
  81              		.loc 1 74 0
  82              		.cfi_startproc
  83              		@ args = 0, pretend = 0, frame = 0
  84              		@ frame_needed = 0, uses_anonymous_args = 0
  85              		@ link register save eliminated.
  86              	.LVL5:
  87              		.loc 1 76 0
  88 0000 0849     		ldr	r1, .L5
  89              		.loc 1 74 0
  90 0002 10B4     		push	{r4}
  91              		.cfi_def_cfa_offset 4
  92              		.cfi_offset 4, -4
  93              		.loc 1 76 0
  94 0004 4309     		lsrs	r3, r0, #5
  95 0006 00F01F04 		and	r4, r0, #31
  96 000a 0122     		movs	r2, #1
  97 000c A240     		lsls	r2, r2, r4
  98 000e 2033     		adds	r3, r3, #32
  99              		.loc 1 80 0
 100 0010 0024     		movs	r4, #0
 101 0012 0844     		add	r0, r0, r1
 102              	.LVL6:
 103              		.loc 1 76 0
 104 0014 41F82320 		str	r2, [r1, r3, lsl #2]
 105              		.loc 1 80 0
 106 0018 80F80043 		strb	r4, [r0, #768]
 107              		.loc 1 82 0
 108 001c 5DF8044B 		ldr	r4, [sp], #4
 109              		.cfi_restore 4
 110              		.cfi_def_cfa_offset 0
 111 0020 7047     		bx	lr
ARM GAS  /tmp/ccQb73YC.s 			page 3


 112              	.L6:
 113 0022 00BF     		.align	2
 114              	.L5:
 115 0024 00E100E0 		.word	-536813312
 116              		.cfi_endproc
 117              	.LFE208:
 118              		.size	nvicDisableVector, .-nvicDisableVector
 119 0028 AFF30080 		.section	.text.nvicSetSystemHandlerPriority,"ax",%progbits
 119      AFF30080 
 120              		.align	2
 121              		.p2align 4,,15
 122              		.global	nvicSetSystemHandlerPriority
 123              		.thumb
 124              		.thumb_func
 125              		.type	nvicSetSystemHandlerPriority, %function
 126              	nvicSetSystemHandlerPriority:
 127              	.LFB209:
 128              		.loc 1 90 0
 129              		.cfi_startproc
 130              		@ args = 0, pretend = 0, frame = 0
 131              		@ frame_needed = 0, uses_anonymous_args = 0
 132              		@ link register save eliminated.
 133              	.LVL7:
 134              		.loc 1 100 0
 135 0000 0901     		lsls	r1, r1, #4
 136              	.LVL8:
 137 0002 00F16040 		add	r0, r0, #-536870912
 138              	.LVL9:
 139 0006 C9B2     		uxtb	r1, r1
 140 0008 00F56D40 		add	r0, r0, #60672
 141              	.LVL10:
 142 000c 0176     		strb	r1, [r0, #24]
 143 000e 7047     		bx	lr
 144              		.cfi_endproc
 145              	.LFE209:
 146              		.size	nvicSetSystemHandlerPriority, .-nvicSetSystemHandlerPriority
 147              		.section	.text.nvicClearPending,"ax",%progbits
 148              		.align	2
 149              		.p2align 4,,15
 150              		.global	nvicClearPending
 151              		.thumb
 152              		.thumb_func
 153              		.type	nvicClearPending, %function
 154              	nvicClearPending:
 155              	.LFB210:
 156              		.loc 1 109 0
 157              		.cfi_startproc
 158              		@ args = 0, pretend = 0, frame = 0
 159              		@ frame_needed = 0, uses_anonymous_args = 0
 160              		@ link register save eliminated.
 161              	.LVL11:
 162              		.loc 1 111 0
 163 0000 4309     		lsrs	r3, r0, #5
 164 0002 0122     		movs	r2, #1
 165 0004 00F01F00 		and	r0, r0, #31
 166              	.LVL12:
 167 0008 0249     		ldr	r1, .L9
ARM GAS  /tmp/ccQb73YC.s 			page 4


 168 000a 6033     		adds	r3, r3, #96
 169 000c 8240     		lsls	r2, r2, r0
 170 000e 41F82320 		str	r2, [r1, r3, lsl #2]
 171 0012 7047     		bx	lr
 172              	.L10:
 173              		.align	2
 174              	.L9:
 175 0014 00E100E0 		.word	-536813312
 176              		.cfi_endproc
 177              	.LFE210:
 178              		.size	nvicClearPending, .-nvicClearPending
 179 0018 AFF30080 		.text
 179      AFF30080 
 180              	.Letext0:
 181              		.file 2 "/usr/include/newlib/machine/_default_types.h"
 182              		.file 3 "/usr/include/newlib/stdint.h"
 183              		.file 4 "/home/peter/ChibiOS_16.1.4/os/rt/ports/ARMCMx/compilers/GCC/chtypes.h"
 184              		.file 5 "/home/peter/ChibiOS_16.1.4/os/rt/include/chsystypes.h"
 185              		.file 6 "/home/peter/ChibiOS_16.1.4/os/rt/include/chschd.h"
 186              		.file 7 "/home/peter/ChibiOS_16.1.4/os/ext/CMSIS/include/core_cm3.h"
 187              		.file 8 "/home/peter/ChibiOS_16.1.4/os/rt/ports/ARMCMx/chcore.h"
 188              		.file 9 "/home/peter/ChibiOS_16.1.4/os/rt/ports/ARMCMx/chcore_v7m.h"
 189              		.file 10 "/home/peter/ChibiOS_16.1.4/os/rt/include/chtm.h"
 190              		.file 11 "/home/peter/ChibiOS_16.1.4/os/rt/include/chsem.h"
 191              		.file 12 "/home/peter/ChibiOS_16.1.4/os/rt/include/chmtx.h"
 192              		.section	.debug_info,"",%progbits
 193              	.Ldebug_info0:
 194 0000 E3090000 		.4byte	0x9e3
 195 0004 0400     		.2byte	0x4
 196 0006 00000000 		.4byte	.Ldebug_abbrev0
 197 000a 04       		.byte	0x4
 198 000b 01       		.uleb128 0x1
 199 000c A6040000 		.4byte	.LASF139
 200 0010 01       		.byte	0x1
 201 0011 85010000 		.4byte	.LASF140
 202 0015 00000000 		.4byte	.Ldebug_ranges0+0
 203 0019 00000000 		.4byte	0
 204 001d 00000000 		.4byte	.Ldebug_line0
 205 0021 02       		.uleb128 0x2
 206 0022 04       		.byte	0x4
 207 0023 05       		.byte	0x5
 208 0024 696E7400 		.ascii	"int\000"
 209 0028 03       		.uleb128 0x3
 210 0029 04       		.byte	0x4
 211 002a 07       		.byte	0x7
 212 002b DF010000 		.4byte	.LASF0
 213 002f 03       		.uleb128 0x3
 214 0030 01       		.byte	0x1
 215 0031 06       		.byte	0x6
 216 0032 EA000000 		.4byte	.LASF1
 217 0036 04       		.uleb128 0x4
 218 0037 37000000 		.4byte	.LASF5
 219 003b 02       		.byte	0x2
 220 003c 1D       		.byte	0x1d
 221 003d 41000000 		.4byte	0x41
 222 0041 03       		.uleb128 0x3
 223 0042 01       		.byte	0x1
ARM GAS  /tmp/ccQb73YC.s 			page 5


 224 0043 08       		.byte	0x8
 225 0044 84030000 		.4byte	.LASF2
 226 0048 03       		.uleb128 0x3
 227 0049 02       		.byte	0x2
 228 004a 05       		.byte	0x5
 229 004b B7030000 		.4byte	.LASF3
 230 004f 03       		.uleb128 0x3
 231 0050 02       		.byte	0x2
 232 0051 07       		.byte	0x7
 233 0052 1D040000 		.4byte	.LASF4
 234 0056 04       		.uleb128 0x4
 235 0057 77020000 		.4byte	.LASF6
 236 005b 02       		.byte	0x2
 237 005c 3F       		.byte	0x3f
 238 005d 61000000 		.4byte	0x61
 239 0061 03       		.uleb128 0x3
 240 0062 04       		.byte	0x4
 241 0063 05       		.byte	0x5
 242 0064 32010000 		.4byte	.LASF7
 243 0068 04       		.uleb128 0x4
 244 0069 95050000 		.4byte	.LASF8
 245 006d 02       		.byte	0x2
 246 006e 41       		.byte	0x41
 247 006f 73000000 		.4byte	0x73
 248 0073 03       		.uleb128 0x3
 249 0074 04       		.byte	0x4
 250 0075 07       		.byte	0x7
 251 0076 94040000 		.4byte	.LASF9
 252 007a 03       		.uleb128 0x3
 253 007b 08       		.byte	0x8
 254 007c 05       		.byte	0x5
 255 007d DC000000 		.4byte	.LASF10
 256 0081 04       		.uleb128 0x4
 257 0082 1C030000 		.4byte	.LASF11
 258 0086 02       		.byte	0x2
 259 0087 5B       		.byte	0x5b
 260 0088 8C000000 		.4byte	0x8c
 261 008c 03       		.uleb128 0x3
 262 008d 08       		.byte	0x8
 263 008e 07       		.byte	0x7
 264 008f 5C000000 		.4byte	.LASF12
 265 0093 04       		.uleb128 0x4
 266 0094 F3050000 		.4byte	.LASF13
 267 0098 03       		.byte	0x3
 268 0099 15       		.byte	0x15
 269 009a 36000000 		.4byte	0x36
 270 009e 04       		.uleb128 0x4
 271 009f 7C030000 		.4byte	.LASF14
 272 00a3 03       		.byte	0x3
 273 00a4 2C       		.byte	0x2c
 274 00a5 56000000 		.4byte	0x56
 275 00a9 04       		.uleb128 0x4
 276 00aa 63040000 		.4byte	.LASF15
 277 00ae 03       		.byte	0x3
 278 00af 2D       		.byte	0x2d
 279 00b0 68000000 		.4byte	0x68
 280 00b4 04       		.uleb128 0x4
ARM GAS  /tmp/ccQb73YC.s 			page 6


 281 00b5 2E000000 		.4byte	.LASF16
 282 00b9 03       		.byte	0x3
 283 00ba 39       		.byte	0x39
 284 00bb 81000000 		.4byte	0x81
 285 00bf 04       		.uleb128 0x4
 286 00c0 B9050000 		.4byte	.LASF17
 287 00c4 04       		.byte	0x4
 288 00c5 39       		.byte	0x39
 289 00c6 A9000000 		.4byte	0xa9
 290 00ca 04       		.uleb128 0x4
 291 00cb 55020000 		.4byte	.LASF18
 292 00cf 04       		.byte	0x4
 293 00d0 3C       		.byte	0x3c
 294 00d1 93000000 		.4byte	0x93
 295 00d5 04       		.uleb128 0x4
 296 00d6 40010000 		.4byte	.LASF19
 297 00da 04       		.byte	0x4
 298 00db 3D       		.byte	0x3d
 299 00dc 93000000 		.4byte	0x93
 300 00e0 04       		.uleb128 0x4
 301 00e1 27030000 		.4byte	.LASF20
 302 00e5 04       		.byte	0x4
 303 00e6 3E       		.byte	0x3e
 304 00e7 93000000 		.4byte	0x93
 305 00eb 04       		.uleb128 0x4
 306 00ec 1E010000 		.4byte	.LASF21
 307 00f0 04       		.byte	0x4
 308 00f1 3F       		.byte	0x3f
 309 00f2 93000000 		.4byte	0x93
 310 00f6 04       		.uleb128 0x4
 311 00f7 5E030000 		.4byte	.LASF22
 312 00fb 04       		.byte	0x4
 313 00fc 40       		.byte	0x40
 314 00fd A9000000 		.4byte	0xa9
 315 0101 04       		.uleb128 0x4
 316 0102 32020000 		.4byte	.LASF23
 317 0106 04       		.byte	0x4
 318 0107 41       		.byte	0x41
 319 0108 9E000000 		.4byte	0x9e
 320 010c 04       		.uleb128 0x4
 321 010d 6B020000 		.4byte	.LASF24
 322 0111 04       		.byte	0x4
 323 0112 43       		.byte	0x43
 324 0113 A9000000 		.4byte	0xa9
 325 0117 04       		.uleb128 0x4
 326 0118 D9010000 		.4byte	.LASF25
 327 011c 04       		.byte	0x4
 328 011d 45       		.byte	0x45
 329 011e 9E000000 		.4byte	0x9e
 330 0122 04       		.uleb128 0x4
 331 0123 77050000 		.4byte	.LASF26
 332 0127 05       		.byte	0x5
 333 0128 33       		.byte	0x33
 334 0129 A9000000 		.4byte	0xa9
 335 012d 04       		.uleb128 0x4
 336 012e 67050000 		.4byte	.LASF27
 337 0132 05       		.byte	0x5
ARM GAS  /tmp/ccQb73YC.s 			page 7


 338 0133 3F       		.byte	0x3f
 339 0134 38010000 		.4byte	0x138
 340 0138 05       		.uleb128 0x5
 341 0139 23020000 		.4byte	.LASF48
 342 013d 44       		.byte	0x44
 343 013e 06       		.byte	0x6
 344 013f C2       		.byte	0xc2
 345 0140 31020000 		.4byte	0x231
 346 0144 06       		.uleb128 0x6
 347 0145 05040000 		.4byte	.LASF28
 348 0149 06       		.byte	0x6
 349 014a C3       		.byte	0xc3
 350 014b 3C020000 		.4byte	0x23c
 351 014f 00       		.byte	0
 352 0150 06       		.uleb128 0x6
 353 0151 57030000 		.4byte	.LASF29
 354 0155 06       		.byte	0x6
 355 0156 C5       		.byte	0xc5
 356 0157 3C020000 		.4byte	0x23c
 357 015b 04       		.byte	0x4
 358 015c 06       		.uleb128 0x6
 359 015d B9000000 		.4byte	.LASF30
 360 0161 06       		.byte	0x6
 361 0162 C7       		.byte	0xc7
 362 0163 F6000000 		.4byte	0xf6
 363 0167 08       		.byte	0x8
 364 0168 06       		.uleb128 0x6
 365 0169 3A060000 		.4byte	.LASF31
 366 016d 06       		.byte	0x6
 367 016e C8       		.byte	0xc8
 368 016f 37070000 		.4byte	0x737
 369 0173 0C       		.byte	0xc
 370 0174 06       		.uleb128 0x6
 371 0175 49010000 		.4byte	.LASF32
 372 0179 06       		.byte	0x6
 373 017a CA       		.byte	0xca
 374 017b 3C020000 		.4byte	0x23c
 375 017f 10       		.byte	0x10
 376 0180 06       		.uleb128 0x6
 377 0181 EB020000 		.4byte	.LASF33
 378 0185 06       		.byte	0x6
 379 0186 CB       		.byte	0xcb
 380 0187 3C020000 		.4byte	0x23c
 381 018b 14       		.byte	0x14
 382 018c 06       		.uleb128 0x6
 383 018d 10060000 		.4byte	.LASF34
 384 0191 06       		.byte	0x6
 385 0192 D2       		.byte	0xd2
 386 0193 B6080000 		.4byte	0x8b6
 387 0197 18       		.byte	0x18
 388 0198 06       		.uleb128 0x6
 389 0199 A5030000 		.4byte	.LASF35
 390 019d 06       		.byte	0x6
 391 019e DD       		.byte	0xdd
 392 019f D5000000 		.4byte	0xd5
 393 01a3 1C       		.byte	0x1c
 394 01a4 06       		.uleb128 0x6
ARM GAS  /tmp/ccQb73YC.s 			page 8


 395 01a5 0C040000 		.4byte	.LASF36
 396 01a9 06       		.byte	0x6
 397 01aa E1       		.byte	0xe1
 398 01ab CA000000 		.4byte	0xca
 399 01af 1D       		.byte	0x1d
 400 01b0 06       		.uleb128 0x6
 401 01b1 E1050000 		.4byte	.LASF37
 402 01b5 06       		.byte	0x6
 403 01b6 E6       		.byte	0xe6
 404 01b7 E0000000 		.4byte	0xe0
 405 01bb 1E       		.byte	0x1e
 406 01bc 06       		.uleb128 0x6
 407 01bd D0030000 		.4byte	.LASF38
 408 01c1 06       		.byte	0x6
 409 01c2 EC       		.byte	0xec
 410 01c3 EB000000 		.4byte	0xeb
 411 01c7 1F       		.byte	0x1f
 412 01c8 07       		.uleb128 0x7
 413 01c9 705F7500 		.ascii	"p_u\000"
 414 01cd 06       		.byte	0x6
 415 01ce 3101     		.2byte	0x131
 416 01d0 F1070000 		.4byte	0x7f1
 417 01d4 20       		.byte	0x20
 418 01d5 08       		.uleb128 0x8
 419 01d6 A4020000 		.4byte	.LASF39
 420 01da 06       		.byte	0x6
 421 01db 3601     		.2byte	0x136
 422 01dd 42020000 		.4byte	0x242
 423 01e1 24       		.byte	0x24
 424 01e2 08       		.uleb128 0x8
 425 01e3 0D020000 		.4byte	.LASF40
 426 01e7 06       		.byte	0x6
 427 01e8 3C01     		.2byte	0x13c
 428 01ea 66020000 		.4byte	0x266
 429 01ee 28       		.byte	0x28
 430 01ef 08       		.uleb128 0x8
 431 01f0 21060000 		.4byte	.LASF41
 432 01f4 06       		.byte	0x6
 433 01f5 4001     		.2byte	0x140
 434 01f7 01010000 		.4byte	0x101
 435 01fb 30       		.byte	0x30
 436 01fc 08       		.uleb128 0x8
 437 01fd 4E040000 		.4byte	.LASF42
 438 0201 06       		.byte	0x6
 439 0202 4601     		.2byte	0x146
 440 0204 0C010000 		.4byte	0x10c
 441 0208 34       		.byte	0x34
 442 0209 08       		.uleb128 0x8
 443 020a AD030000 		.4byte	.LASF43
 444 020e 06       		.byte	0x6
 445 020f 4D01     		.2byte	0x14d
 446 0211 B0080000 		.4byte	0x8b0
 447 0215 38       		.byte	0x38
 448 0216 08       		.uleb128 0x8
 449 0217 81050000 		.4byte	.LASF44
 450 021b 06       		.byte	0x6
 451 021c 5101     		.2byte	0x151
ARM GAS  /tmp/ccQb73YC.s 			page 9


 452 021e F6000000 		.4byte	0xf6
 453 0222 3C       		.byte	0x3c
 454 0223 08       		.uleb128 0x8
 455 0224 F6000000 		.4byte	.LASF45
 456 0228 06       		.byte	0x6
 457 0229 5801     		.2byte	0x158
 458 022b 19030000 		.4byte	0x319
 459 022f 40       		.byte	0x40
 460 0230 00       		.byte	0
 461 0231 04       		.uleb128 0x4
 462 0232 B7020000 		.4byte	.LASF46
 463 0236 05       		.byte	0x5
 464 0237 44       		.byte	0x44
 465 0238 3C020000 		.4byte	0x23c
 466 023c 09       		.uleb128 0x9
 467 023d 04       		.byte	0x4
 468 023e 2D010000 		.4byte	0x12d
 469 0242 04       		.uleb128 0x4
 470 0243 00000000 		.4byte	.LASF47
 471 0247 05       		.byte	0x5
 472 0248 49       		.byte	0x49
 473 0249 4D020000 		.4byte	0x24d
 474 024d 05       		.uleb128 0x5
 475 024e 84040000 		.4byte	.LASF49
 476 0252 04       		.byte	0x4
 477 0253 06       		.byte	0x6
 478 0254 B0       		.byte	0xb0
 479 0255 66020000 		.4byte	0x266
 480 0259 06       		.uleb128 0x6
 481 025a 05040000 		.4byte	.LASF28
 482 025e 06       		.byte	0x6
 483 025f B1       		.byte	0xb1
 484 0260 3C020000 		.4byte	0x23c
 485 0264 00       		.byte	0
 486 0265 00       		.byte	0
 487 0266 04       		.uleb128 0x4
 488 0267 C8050000 		.4byte	.LASF50
 489 026b 05       		.byte	0x5
 490 026c 50       		.byte	0x50
 491 026d 71020000 		.4byte	0x271
 492 0271 05       		.uleb128 0x5
 493 0272 A3000000 		.4byte	.LASF51
 494 0276 08       		.byte	0x8
 495 0277 06       		.byte	0x6
 496 0278 B7       		.byte	0xb7
 497 0279 96020000 		.4byte	0x296
 498 027d 06       		.uleb128 0x6
 499 027e 05040000 		.4byte	.LASF28
 500 0282 06       		.byte	0x6
 501 0283 B8       		.byte	0xb8
 502 0284 3C020000 		.4byte	0x23c
 503 0288 00       		.byte	0
 504 0289 06       		.uleb128 0x6
 505 028a 57030000 		.4byte	.LASF29
 506 028e 06       		.byte	0x6
 507 028f B9       		.byte	0xb9
 508 0290 3C020000 		.4byte	0x23c
ARM GAS  /tmp/ccQb73YC.s 			page 10


 509 0294 04       		.byte	0x4
 510 0295 00       		.byte	0
 511 0296 04       		.uleb128 0x4
 512 0297 14000000 		.4byte	.LASF52
 513 029b 05       		.byte	0x5
 514 029c 57       		.byte	0x57
 515 029d A1020000 		.4byte	0x2a1
 516 02a1 0A       		.uleb128 0xa
 517 02a2 5D020000 		.4byte	.LASF53
 518 02a6 1C       		.byte	0x1c
 519 02a7 06       		.byte	0x6
 520 02a8 9001     		.2byte	0x190
 521 02aa FD020000 		.4byte	0x2fd
 522 02ae 08       		.uleb128 0x8
 523 02af 73040000 		.4byte	.LASF54
 524 02b3 06       		.byte	0x6
 525 02b4 9101     		.2byte	0x191
 526 02b6 66020000 		.4byte	0x266
 527 02ba 00       		.byte	0
 528 02bb 08       		.uleb128 0x8
 529 02bc F7030000 		.4byte	.LASF55
 530 02c0 06       		.byte	0x6
 531 02c1 9201     		.2byte	0x192
 532 02c3 F6000000 		.4byte	0xf6
 533 02c7 08       		.byte	0x8
 534 02c8 08       		.uleb128 0x8
 535 02c9 F3020000 		.4byte	.LASF56
 536 02cd 06       		.byte	0x6
 537 02ce 9401     		.2byte	0x194
 538 02d0 37070000 		.4byte	0x737
 539 02d4 0C       		.byte	0xc
 540 02d5 08       		.uleb128 0x8
 541 02d6 63010000 		.4byte	.LASF57
 542 02da 06       		.byte	0x6
 543 02db 9701     		.2byte	0x197
 544 02dd 3C020000 		.4byte	0x23c
 545 02e1 10       		.byte	0x10
 546 02e2 08       		.uleb128 0x8
 547 02e3 14030000 		.4byte	.LASF58
 548 02e7 06       		.byte	0x6
 549 02e8 9801     		.2byte	0x198
 550 02ea 3C020000 		.4byte	0x23c
 551 02ee 14       		.byte	0x14
 552 02ef 08       		.uleb128 0x8
 553 02f0 17060000 		.4byte	.LASF59
 554 02f4 06       		.byte	0x6
 555 02f5 9B01     		.2byte	0x19b
 556 02f7 3C020000 		.4byte	0x23c
 557 02fb 18       		.byte	0x18
 558 02fc 00       		.byte	0
 559 02fd 04       		.uleb128 0x4
 560 02fe 8C050000 		.4byte	.LASF60
 561 0302 05       		.byte	0x5
 562 0303 5C       		.byte	0x5c
 563 0304 08030000 		.4byte	0x308
 564 0308 09       		.uleb128 0x9
 565 0309 04       		.byte	0x4
ARM GAS  /tmp/ccQb73YC.s 			page 11


 566 030a 0E030000 		.4byte	0x30e
 567 030e 0B       		.uleb128 0xb
 568 030f 19030000 		.4byte	0x319
 569 0313 0C       		.uleb128 0xc
 570 0314 19030000 		.4byte	0x319
 571 0318 00       		.byte	0
 572 0319 0D       		.uleb128 0xd
 573 031a 04       		.byte	0x4
 574 031b 04       		.uleb128 0x4
 575 031c 94020000 		.4byte	.LASF61
 576 0320 05       		.byte	0x5
 577 0321 61       		.byte	0x61
 578 0322 26030000 		.4byte	0x326
 579 0326 0A       		.uleb128 0xa
 580 0327 30040000 		.4byte	.LASF62
 581 032b 14       		.byte	0x14
 582 032c 06       		.byte	0x6
 583 032d 6B01     		.2byte	0x16b
 584 032f 75030000 		.4byte	0x375
 585 0333 08       		.uleb128 0x8
 586 0334 EC010000 		.4byte	.LASF63
 587 0338 06       		.byte	0x6
 588 0339 6C01     		.2byte	0x16c
 589 033b C8080000 		.4byte	0x8c8
 590 033f 00       		.byte	0
 591 0340 08       		.uleb128 0x8
 592 0341 74010000 		.4byte	.LASF64
 593 0345 06       		.byte	0x6
 594 0346 6D01     		.2byte	0x16d
 595 0348 C8080000 		.4byte	0x8c8
 596 034c 04       		.byte	0x4
 597 034d 08       		.uleb128 0x8
 598 034e 7B040000 		.4byte	.LASF65
 599 0352 06       		.byte	0x6
 600 0353 6E01     		.2byte	0x16e
 601 0355 22010000 		.4byte	0x122
 602 0359 08       		.byte	0x8
 603 035a 08       		.uleb128 0x8
 604 035b 40060000 		.4byte	.LASF66
 605 035f 06       		.byte	0x6
 606 0360 6F01     		.2byte	0x16f
 607 0362 FD020000 		.4byte	0x2fd
 608 0366 0C       		.byte	0xc
 609 0367 08       		.uleb128 0x8
 610 0368 C1050000 		.4byte	.LASF67
 611 036c 06       		.byte	0x6
 612 036d 7101     		.2byte	0x171
 613 036f 19030000 		.4byte	0x319
 614 0373 10       		.byte	0x10
 615 0374 00       		.byte	0
 616 0375 04       		.uleb128 0x4
 617 0376 87000000 		.4byte	.LASF68
 618 037a 05       		.byte	0x5
 619 037b 66       		.byte	0x66
 620 037c 80030000 		.4byte	0x380
 621 0380 0A       		.uleb128 0xa
 622 0381 CA020000 		.4byte	.LASF69
ARM GAS  /tmp/ccQb73YC.s 			page 12


 623 0385 10       		.byte	0x10
 624 0386 06       		.byte	0x6
 625 0387 7B01     		.2byte	0x17b
 626 0389 C2030000 		.4byte	0x3c2
 627 038d 08       		.uleb128 0x8
 628 038e EC010000 		.4byte	.LASF63
 629 0392 06       		.byte	0x6
 630 0393 7C01     		.2byte	0x17c
 631 0395 C8080000 		.4byte	0x8c8
 632 0399 00       		.byte	0
 633 039a 08       		.uleb128 0x8
 634 039b 74010000 		.4byte	.LASF64
 635 039f 06       		.byte	0x6
 636 03a0 7E01     		.2byte	0x17e
 637 03a2 C8080000 		.4byte	0x8c8
 638 03a6 04       		.byte	0x4
 639 03a7 08       		.uleb128 0x8
 640 03a8 7B040000 		.4byte	.LASF65
 641 03ac 06       		.byte	0x6
 642 03ad 8001     		.2byte	0x180
 643 03af 22010000 		.4byte	0x122
 644 03b3 08       		.byte	0x8
 645 03b4 08       		.uleb128 0x8
 646 03b5 D1000000 		.4byte	.LASF70
 647 03b9 06       		.byte	0x6
 648 03ba 8201     		.2byte	0x182
 649 03bc CE080000 		.4byte	0x8ce
 650 03c0 0C       		.byte	0xc
 651 03c1 00       		.byte	0
 652 03c2 04       		.uleb128 0x4
 653 03c3 4D000000 		.4byte	.LASF71
 654 03c7 05       		.byte	0x5
 655 03c8 6B       		.byte	0x6b
 656 03c9 CD030000 		.4byte	0x3cd
 657 03cd 0A       		.uleb128 0xa
 658 03ce 66030000 		.4byte	.LASF72
 659 03d2 04       		.byte	0x4
 660 03d3 06       		.byte	0x6
 661 03d4 A201     		.2byte	0x1a2
 662 03d6 E8030000 		.4byte	0x3e8
 663 03da 08       		.uleb128 0x8
 664 03db A0050000 		.4byte	.LASF73
 665 03df 06       		.byte	0x6
 666 03e0 AA01     		.2byte	0x1aa
 667 03e2 D3080000 		.4byte	0x8d3
 668 03e6 00       		.byte	0
 669 03e7 00       		.byte	0
 670 03e8 04       		.uleb128 0x4
 671 03e9 49020000 		.4byte	.LASF74
 672 03ed 05       		.byte	0x5
 673 03ee 70       		.byte	0x70
 674 03ef F3030000 		.4byte	0x3f3
 675 03f3 0E       		.uleb128 0xe
 676 03f4 28010000 		.4byte	.LASF75
 677 03f8 5001     		.2byte	0x150
 678 03fa 06       		.byte	0x6
 679 03fb C201     		.2byte	0x1c2
ARM GAS  /tmp/ccQb73YC.s 			page 13


 680 03fd 4F040000 		.4byte	0x44f
 681 0401 08       		.uleb128 0x8
 682 0402 ED050000 		.4byte	.LASF76
 683 0406 06       		.byte	0x6
 684 0407 C601     		.2byte	0x1c6
 685 0409 96020000 		.4byte	0x296
 686 040d 00       		.byte	0
 687 040e 08       		.uleb128 0x8
 688 040f 17010000 		.4byte	.LASF77
 689 0413 06       		.byte	0x6
 690 0414 CA01     		.2byte	0x1ca
 691 0416 75030000 		.4byte	0x375
 692 041a 1C       		.byte	0x1c
 693 041b 07       		.uleb128 0x7
 694 041c 64626700 		.ascii	"dbg\000"
 695 0420 06       		.byte	0x6
 696 0421 CE01     		.2byte	0x1ce
 697 0423 C2030000 		.4byte	0x3c2
 698 0427 2C       		.byte	0x2c
 699 0428 08       		.uleb128 0x8
 700 0429 7C000000 		.4byte	.LASF78
 701 042d 06       		.byte	0x6
 702 042e D201     		.2byte	0x1d2
 703 0430 2D010000 		.4byte	0x12d
 704 0434 30       		.byte	0x30
 705 0435 07       		.uleb128 0x7
 706 0436 746D00   		.ascii	"tm\000"
 707 0439 06       		.byte	0x6
 708 043a D701     		.2byte	0x1d7
 709 043c E6070000 		.4byte	0x7e6
 710 0440 74       		.byte	0x74
 711 0441 08       		.uleb128 0x8
 712 0442 CA010000 		.4byte	.LASF79
 713 0446 06       		.byte	0x6
 714 0447 E301     		.2byte	0x1e3
 715 0449 D8080000 		.4byte	0x8d8
 716 044d 78       		.byte	0x78
 717 044e 00       		.byte	0
 718 044f 0F       		.uleb128 0xf
 719 0450 040E     		.2byte	0xe04
 720 0452 07       		.byte	0x7
 721 0453 6301     		.2byte	0x163
 722 0455 0B050000 		.4byte	0x50b
 723 0459 08       		.uleb128 0x8
 724 045a C1030000 		.4byte	.LASF80
 725 045e 07       		.byte	0x7
 726 045f 6501     		.2byte	0x165
 727 0461 22050000 		.4byte	0x522
 728 0465 00       		.byte	0
 729 0466 08       		.uleb128 0x8
 730 0467 2F030000 		.4byte	.LASF81
 731 046b 07       		.byte	0x7
 732 046c 6601     		.2byte	0x166
 733 046e 27050000 		.4byte	0x527
 734 0472 20       		.byte	0x20
 735 0473 08       		.uleb128 0x8
 736 0474 0A030000 		.4byte	.LASF82
ARM GAS  /tmp/ccQb73YC.s 			page 14


 737 0478 07       		.byte	0x7
 738 0479 6701     		.2byte	0x167
 739 047b 37050000 		.4byte	0x537
 740 047f 80       		.byte	0x80
 741 0480 08       		.uleb128 0x8
 742 0481 FB050000 		.4byte	.LASF83
 743 0485 07       		.byte	0x7
 744 0486 6801     		.2byte	0x168
 745 0488 27050000 		.4byte	0x527
 746 048c A0       		.byte	0xa0
 747 048d 10       		.uleb128 0x10
 748 048e B4000000 		.4byte	.LASF84
 749 0492 07       		.byte	0x7
 750 0493 6901     		.2byte	0x169
 751 0495 3C050000 		.4byte	0x53c
 752 0499 0001     		.2byte	0x100
 753 049b 10       		.uleb128 0x10
 754 049c 39030000 		.4byte	.LASF85
 755 04a0 07       		.byte	0x7
 756 04a1 6A01     		.2byte	0x16a
 757 04a3 27050000 		.4byte	0x527
 758 04a7 2001     		.2byte	0x120
 759 04a9 10       		.uleb128 0x10
 760 04aa 0F000000 		.4byte	.LASF86
 761 04ae 07       		.byte	0x7
 762 04af 6B01     		.2byte	0x16b
 763 04b1 41050000 		.4byte	0x541
 764 04b5 8001     		.2byte	0x180
 765 04b7 10       		.uleb128 0x10
 766 04b8 43030000 		.4byte	.LASF87
 767 04bc 07       		.byte	0x7
 768 04bd 6C01     		.2byte	0x16c
 769 04bf 27050000 		.4byte	0x527
 770 04c3 A001     		.2byte	0x1a0
 771 04c5 10       		.uleb128 0x10
 772 04c6 E6020000 		.4byte	.LASF88
 773 04ca 07       		.byte	0x7
 774 04cb 6D01     		.2byte	0x16d
 775 04cd 46050000 		.4byte	0x546
 776 04d1 0002     		.2byte	0x200
 777 04d3 10       		.uleb128 0x10
 778 04d4 4D030000 		.4byte	.LASF89
 779 04d8 07       		.byte	0x7
 780 04d9 6E01     		.2byte	0x16e
 781 04db 4B050000 		.4byte	0x54b
 782 04df 2002     		.2byte	0x220
 783 04e1 11       		.uleb128 0x11
 784 04e2 495000   		.ascii	"IP\000"
 785 04e5 07       		.byte	0x7
 786 04e6 6F01     		.2byte	0x16f
 787 04e8 6B050000 		.4byte	0x56b
 788 04ec 0003     		.2byte	0x300
 789 04ee 10       		.uleb128 0x10
 790 04ef 59040000 		.4byte	.LASF90
 791 04f3 07       		.byte	0x7
 792 04f4 7001     		.2byte	0x170
 793 04f6 70050000 		.4byte	0x570
ARM GAS  /tmp/ccQb73YC.s 			page 15


 794 04fa F003     		.2byte	0x3f0
 795 04fc 10       		.uleb128 0x10
 796 04fd 04060000 		.4byte	.LASF91
 797 0501 07       		.byte	0x7
 798 0502 7101     		.2byte	0x171
 799 0504 81050000 		.4byte	0x581
 800 0508 000E     		.2byte	0xe00
 801 050a 00       		.byte	0
 802 050b 12       		.uleb128 0x12
 803 050c A9000000 		.4byte	0xa9
 804 0510 1B050000 		.4byte	0x51b
 805 0514 13       		.uleb128 0x13
 806 0515 1B050000 		.4byte	0x51b
 807 0519 07       		.byte	0x7
 808 051a 00       		.byte	0
 809 051b 03       		.uleb128 0x3
 810 051c 04       		.byte	0x4
 811 051d 07       		.byte	0x7
 812 051e AE020000 		.4byte	.LASF92
 813 0522 14       		.uleb128 0x14
 814 0523 0B050000 		.4byte	0x50b
 815 0527 12       		.uleb128 0x12
 816 0528 A9000000 		.4byte	0xa9
 817 052c 37050000 		.4byte	0x537
 818 0530 13       		.uleb128 0x13
 819 0531 1B050000 		.4byte	0x51b
 820 0535 17       		.byte	0x17
 821 0536 00       		.byte	0
 822 0537 14       		.uleb128 0x14
 823 0538 0B050000 		.4byte	0x50b
 824 053c 14       		.uleb128 0x14
 825 053d 0B050000 		.4byte	0x50b
 826 0541 14       		.uleb128 0x14
 827 0542 0B050000 		.4byte	0x50b
 828 0546 14       		.uleb128 0x14
 829 0547 0B050000 		.4byte	0x50b
 830 054b 12       		.uleb128 0x12
 831 054c A9000000 		.4byte	0xa9
 832 0550 5B050000 		.4byte	0x55b
 833 0554 13       		.uleb128 0x13
 834 0555 1B050000 		.4byte	0x51b
 835 0559 37       		.byte	0x37
 836 055a 00       		.byte	0
 837 055b 12       		.uleb128 0x12
 838 055c 93000000 		.4byte	0x93
 839 0560 6B050000 		.4byte	0x56b
 840 0564 13       		.uleb128 0x13
 841 0565 1B050000 		.4byte	0x51b
 842 0569 EF       		.byte	0xef
 843 056a 00       		.byte	0
 844 056b 14       		.uleb128 0x14
 845 056c 5B050000 		.4byte	0x55b
 846 0570 12       		.uleb128 0x12
 847 0571 A9000000 		.4byte	0xa9
 848 0575 81050000 		.4byte	0x581
 849 0579 15       		.uleb128 0x15
 850 057a 1B050000 		.4byte	0x51b
ARM GAS  /tmp/ccQb73YC.s 			page 16


 851 057e 8302     		.2byte	0x283
 852 0580 00       		.byte	0
 853 0581 14       		.uleb128 0x14
 854 0582 A9000000 		.4byte	0xa9
 855 0586 16       		.uleb128 0x16
 856 0587 C6030000 		.4byte	.LASF93
 857 058b 07       		.byte	0x7
 858 058c 7201     		.2byte	0x172
 859 058e 4F040000 		.4byte	0x44f
 860 0592 17       		.uleb128 0x17
 861 0593 8C       		.byte	0x8c
 862 0594 07       		.byte	0x7
 863 0595 8301     		.2byte	0x183
 864 0597 AD060000 		.4byte	0x6ad
 865 059b 08       		.uleb128 0x8
 866 059c 9D000000 		.4byte	.LASF94
 867 05a0 07       		.byte	0x7
 868 05a1 8501     		.2byte	0x185
 869 05a3 AD060000 		.4byte	0x6ad
 870 05a7 00       		.byte	0
 871 05a8 08       		.uleb128 0x8
 872 05a9 2D020000 		.4byte	.LASF95
 873 05ad 07       		.byte	0x7
 874 05ae 8601     		.2byte	0x186
 875 05b0 81050000 		.4byte	0x581
 876 05b4 04       		.byte	0x4
 877 05b5 08       		.uleb128 0x8
 878 05b6 18020000 		.4byte	.LASF96
 879 05ba 07       		.byte	0x7
 880 05bb 8701     		.2byte	0x187
 881 05bd 81050000 		.4byte	0x581
 882 05c1 08       		.byte	0x8
 883 05c2 08       		.uleb128 0x8
 884 05c3 38020000 		.4byte	.LASF97
 885 05c7 07       		.byte	0x7
 886 05c8 8801     		.2byte	0x188
 887 05ca 81050000 		.4byte	0x581
 888 05ce 0C       		.byte	0xc
 889 05cf 07       		.uleb128 0x7
 890 05d0 53435200 		.ascii	"SCR\000"
 891 05d4 07       		.byte	0x7
 892 05d5 8901     		.2byte	0x189
 893 05d7 81050000 		.4byte	0x581
 894 05db 10       		.byte	0x10
 895 05dc 07       		.uleb128 0x7
 896 05dd 43435200 		.ascii	"CCR\000"
 897 05e1 07       		.byte	0x7
 898 05e2 8A01     		.2byte	0x18a
 899 05e4 81050000 		.4byte	0x581
 900 05e8 14       		.byte	0x14
 901 05e9 07       		.uleb128 0x7
 902 05ea 53485000 		.ascii	"SHP\000"
 903 05ee 07       		.byte	0x7
 904 05ef 8B01     		.2byte	0x18b
 905 05f1 C2060000 		.4byte	0x6c2
 906 05f5 18       		.byte	0x18
 907 05f6 08       		.uleb128 0x8
ARM GAS  /tmp/ccQb73YC.s 			page 17


 908 05f7 92030000 		.4byte	.LASF98
 909 05fb 07       		.byte	0x7
 910 05fc 8C01     		.2byte	0x18c
 911 05fe 81050000 		.4byte	0x581
 912 0602 24       		.byte	0x24
 913 0603 08       		.uleb128 0x8
 914 0604 E1020000 		.4byte	.LASF99
 915 0608 07       		.byte	0x7
 916 0609 8D01     		.2byte	0x18d
 917 060b 81050000 		.4byte	0x581
 918 060f 28       		.byte	0x28
 919 0610 08       		.uleb128 0x8
 920 0611 2D060000 		.4byte	.LASF100
 921 0615 07       		.byte	0x7
 922 0616 8E01     		.2byte	0x18e
 923 0618 81050000 		.4byte	0x581
 924 061c 2C       		.byte	0x2c
 925 061d 08       		.uleb128 0x8
 926 061e 3E020000 		.4byte	.LASF101
 927 0622 07       		.byte	0x7
 928 0623 8F01     		.2byte	0x18f
 929 0625 81050000 		.4byte	0x581
 930 0629 30       		.byte	0x30
 931 062a 08       		.uleb128 0x8
 932 062b 43020000 		.4byte	.LASF102
 933 062f 07       		.byte	0x7
 934 0630 9001     		.2byte	0x190
 935 0632 81050000 		.4byte	0x581
 936 0636 34       		.byte	0x34
 937 0637 08       		.uleb128 0x8
 938 0638 59010000 		.4byte	.LASF103
 939 063c 07       		.byte	0x7
 940 063d 9101     		.2byte	0x191
 941 063f 81050000 		.4byte	0x581
 942 0643 38       		.byte	0x38
 943 0644 08       		.uleb128 0x8
 944 0645 5E010000 		.4byte	.LASF104
 945 0649 07       		.byte	0x7
 946 064a 9201     		.2byte	0x192
 947 064c 81050000 		.4byte	0x581
 948 0650 3C       		.byte	0x3c
 949 0651 07       		.uleb128 0x7
 950 0652 50465200 		.ascii	"PFR\000"
 951 0656 07       		.byte	0x7
 952 0657 9301     		.2byte	0x193
 953 0659 D7060000 		.4byte	0x6d7
 954 065d 40       		.byte	0x40
 955 065e 07       		.uleb128 0x7
 956 065f 44465200 		.ascii	"DFR\000"
 957 0663 07       		.byte	0x7
 958 0664 9401     		.2byte	0x194
 959 0666 AD060000 		.4byte	0x6ad
 960 066a 48       		.byte	0x48
 961 066b 07       		.uleb128 0x7
 962 066c 41445200 		.ascii	"ADR\000"
 963 0670 07       		.byte	0x7
 964 0671 9501     		.2byte	0x195
ARM GAS  /tmp/ccQb73YC.s 			page 18


 965 0673 AD060000 		.4byte	0x6ad
 966 0677 4C       		.byte	0x4c
 967 0678 08       		.uleb128 0x8
 968 0679 E8050000 		.4byte	.LASF105
 969 067d 07       		.byte	0x7
 970 067e 9601     		.2byte	0x196
 971 0680 F1060000 		.4byte	0x6f1
 972 0684 50       		.byte	0x50
 973 0685 08       		.uleb128 0x8
 974 0686 3B010000 		.4byte	.LASF106
 975 068a 07       		.byte	0x7
 976 068b 9701     		.2byte	0x197
 977 068d 0B070000 		.4byte	0x70b
 978 0691 60       		.byte	0x60
 979 0692 08       		.uleb128 0x8
 980 0693 2F030000 		.4byte	.LASF81
 981 0697 07       		.byte	0x7
 982 0698 9801     		.2byte	0x198
 983 069a FB060000 		.4byte	0x6fb
 984 069e 74       		.byte	0x74
 985 069f 08       		.uleb128 0x8
 986 06a0 27060000 		.4byte	.LASF107
 987 06a4 07       		.byte	0x7
 988 06a5 9901     		.2byte	0x199
 989 06a7 81050000 		.4byte	0x581
 990 06ab 88       		.byte	0x88
 991 06ac 00       		.byte	0
 992 06ad 18       		.uleb128 0x18
 993 06ae 81050000 		.4byte	0x581
 994 06b2 12       		.uleb128 0x12
 995 06b3 93000000 		.4byte	0x93
 996 06b7 C2060000 		.4byte	0x6c2
 997 06bb 13       		.uleb128 0x13
 998 06bc 1B050000 		.4byte	0x51b
 999 06c0 0B       		.byte	0xb
 1000 06c1 00       		.byte	0
 1001 06c2 14       		.uleb128 0x14
 1002 06c3 B2060000 		.4byte	0x6b2
 1003 06c7 12       		.uleb128 0x12
 1004 06c8 A9000000 		.4byte	0xa9
 1005 06cc D7060000 		.4byte	0x6d7
 1006 06d0 13       		.uleb128 0x13
 1007 06d1 1B050000 		.4byte	0x51b
 1008 06d5 01       		.byte	0x1
 1009 06d6 00       		.byte	0
 1010 06d7 18       		.uleb128 0x18
 1011 06d8 DC060000 		.4byte	0x6dc
 1012 06dc 14       		.uleb128 0x14
 1013 06dd C7060000 		.4byte	0x6c7
 1014 06e1 12       		.uleb128 0x12
 1015 06e2 A9000000 		.4byte	0xa9
 1016 06e6 F1060000 		.4byte	0x6f1
 1017 06ea 13       		.uleb128 0x13
 1018 06eb 1B050000 		.4byte	0x51b
 1019 06ef 03       		.byte	0x3
 1020 06f0 00       		.byte	0
 1021 06f1 18       		.uleb128 0x18
ARM GAS  /tmp/ccQb73YC.s 			page 19


 1022 06f2 F6060000 		.4byte	0x6f6
 1023 06f6 14       		.uleb128 0x14
 1024 06f7 E1060000 		.4byte	0x6e1
 1025 06fb 12       		.uleb128 0x12
 1026 06fc A9000000 		.4byte	0xa9
 1027 0700 0B070000 		.4byte	0x70b
 1028 0704 13       		.uleb128 0x13
 1029 0705 1B050000 		.4byte	0x51b
 1030 0709 04       		.byte	0x4
 1031 070a 00       		.byte	0
 1032 070b 18       		.uleb128 0x18
 1033 070c 10070000 		.4byte	0x710
 1034 0710 14       		.uleb128 0x14
 1035 0711 FB060000 		.4byte	0x6fb
 1036 0715 16       		.uleb128 0x16
 1037 0716 7C010000 		.4byte	.LASF108
 1038 071a 07       		.byte	0x7
 1039 071b 9A01     		.2byte	0x19a
 1040 071d 92050000 		.4byte	0x592
 1041 0721 04       		.uleb128 0x4
 1042 0722 6B010000 		.4byte	.LASF109
 1043 0726 08       		.byte	0x8
 1044 0727 65       		.byte	0x65
 1045 0728 19030000 		.4byte	0x319
 1046 072c 04       		.uleb128 0x4
 1047 072d 81020000 		.4byte	.LASF110
 1048 0731 08       		.byte	0x8
 1049 0732 6D       		.byte	0x6d
 1050 0733 B4000000 		.4byte	0xb4
 1051 0737 05       		.uleb128 0x5
 1052 0738 B1050000 		.4byte	.LASF111
 1053 073c 04       		.byte	0x4
 1054 073d 08       		.byte	0x8
 1055 073e 89       		.byte	0x89
 1056 073f 50070000 		.4byte	0x750
 1057 0743 19       		.uleb128 0x19
 1058 0744 72313300 		.ascii	"r13\000"
 1059 0748 08       		.byte	0x8
 1060 0749 8A       		.byte	0x8a
 1061 074a CB070000 		.4byte	0x7cb
 1062 074e 00       		.byte	0
 1063 074f 00       		.byte	0
 1064 0750 05       		.uleb128 0x5
 1065 0751 41000000 		.4byte	.LASF112
 1066 0755 24       		.byte	0x24
 1067 0756 09       		.byte	0x9
 1068 0757 FD       		.byte	0xfd
 1069 0758 CB070000 		.4byte	0x7cb
 1070 075c 07       		.uleb128 0x7
 1071 075d 723400   		.ascii	"r4\000"
 1072 0760 09       		.byte	0x9
 1073 0761 1001     		.2byte	0x110
 1074 0763 21070000 		.4byte	0x721
 1075 0767 00       		.byte	0
 1076 0768 07       		.uleb128 0x7
 1077 0769 723500   		.ascii	"r5\000"
 1078 076c 09       		.byte	0x9
ARM GAS  /tmp/ccQb73YC.s 			page 20


 1079 076d 1101     		.2byte	0x111
 1080 076f 21070000 		.4byte	0x721
 1081 0773 04       		.byte	0x4
 1082 0774 07       		.uleb128 0x7
 1083 0775 723600   		.ascii	"r6\000"
 1084 0778 09       		.byte	0x9
 1085 0779 1201     		.2byte	0x112
 1086 077b 21070000 		.4byte	0x721
 1087 077f 08       		.byte	0x8
 1088 0780 07       		.uleb128 0x7
 1089 0781 723700   		.ascii	"r7\000"
 1090 0784 09       		.byte	0x9
 1091 0785 1301     		.2byte	0x113
 1092 0787 21070000 		.4byte	0x721
 1093 078b 0C       		.byte	0xc
 1094 078c 07       		.uleb128 0x7
 1095 078d 723800   		.ascii	"r8\000"
 1096 0790 09       		.byte	0x9
 1097 0791 1401     		.2byte	0x114
 1098 0793 21070000 		.4byte	0x721
 1099 0797 10       		.byte	0x10
 1100 0798 07       		.uleb128 0x7
 1101 0799 723900   		.ascii	"r9\000"
 1102 079c 09       		.byte	0x9
 1103 079d 1501     		.2byte	0x115
 1104 079f 21070000 		.4byte	0x721
 1105 07a3 14       		.byte	0x14
 1106 07a4 07       		.uleb128 0x7
 1107 07a5 72313000 		.ascii	"r10\000"
 1108 07a9 09       		.byte	0x9
 1109 07aa 1601     		.2byte	0x116
 1110 07ac 21070000 		.4byte	0x721
 1111 07b0 18       		.byte	0x18
 1112 07b1 07       		.uleb128 0x7
 1113 07b2 72313100 		.ascii	"r11\000"
 1114 07b6 09       		.byte	0x9
 1115 07b7 1701     		.2byte	0x117
 1116 07b9 21070000 		.4byte	0x721
 1117 07bd 1C       		.byte	0x1c
 1118 07be 07       		.uleb128 0x7
 1119 07bf 6C7200   		.ascii	"lr\000"
 1120 07c2 09       		.byte	0x9
 1121 07c3 1801     		.2byte	0x118
 1122 07c5 21070000 		.4byte	0x721
 1123 07c9 20       		.byte	0x20
 1124 07ca 00       		.byte	0
 1125 07cb 09       		.uleb128 0x9
 1126 07cc 04       		.byte	0x4
 1127 07cd 50070000 		.4byte	0x750
 1128 07d1 1A       		.uleb128 0x1a
 1129 07d2 04       		.byte	0x4
 1130 07d3 0A       		.byte	0xa
 1131 07d4 38       		.byte	0x38
 1132 07d5 E6070000 		.4byte	0x7e6
 1133 07d9 06       		.uleb128 0x6
 1134 07da AA050000 		.4byte	.LASF113
 1135 07de 0A       		.byte	0xa
ARM GAS  /tmp/ccQb73YC.s 			page 21


 1136 07df 3C       		.byte	0x3c
 1137 07e0 BF000000 		.4byte	0xbf
 1138 07e4 00       		.byte	0
 1139 07e5 00       		.byte	0
 1140 07e6 04       		.uleb128 0x4
 1141 07e7 F9020000 		.4byte	.LASF114
 1142 07eb 0A       		.byte	0xa
 1143 07ec 3D       		.byte	0x3d
 1144 07ed D1070000 		.4byte	0x7d1
 1145 07f1 1B       		.uleb128 0x1b
 1146 07f2 04       		.byte	0x4
 1147 07f3 06       		.byte	0x6
 1148 07f4 FA       		.byte	0xfa
 1149 07f5 4E080000 		.4byte	0x84e
 1150 07f9 1C       		.uleb128 0x1c
 1151 07fa 27000000 		.4byte	.LASF115
 1152 07fe 06       		.byte	0x6
 1153 07ff 0101     		.2byte	0x101
 1154 0801 01010000 		.4byte	0x101
 1155 0805 1C       		.uleb128 0x1c
 1156 0806 73000000 		.4byte	.LASF116
 1157 080a 06       		.byte	0x6
 1158 080b 0801     		.2byte	0x108
 1159 080d 01010000 		.4byte	0x101
 1160 0811 1C       		.uleb128 0x1c
 1161 0812 09060000 		.4byte	.LASF117
 1162 0816 06       		.byte	0x6
 1163 0817 0F01     		.2byte	0x10f
 1164 0819 19030000 		.4byte	0x319
 1165 081d 1C       		.uleb128 0x1c
 1166 081e 21000000 		.4byte	.LASF118
 1167 0822 06       		.byte	0x6
 1168 0823 1601     		.2byte	0x116
 1169 0825 4E080000 		.4byte	0x84e
 1170 0829 1C       		.uleb128 0x1c
 1171 082a 06020000 		.4byte	.LASF119
 1172 082e 06       		.byte	0x6
 1173 082f 1E01     		.2byte	0x11e
 1174 0831 79080000 		.4byte	0x879
 1175 0835 1C       		.uleb128 0x1c
 1176 0836 6C040000 		.4byte	.LASF120
 1177 083a 06       		.byte	0x6
 1178 083b 2701     		.2byte	0x127
 1179 083d B0080000 		.4byte	0x8b0
 1180 0841 1C       		.uleb128 0x1c
 1181 0842 FE030000 		.4byte	.LASF121
 1182 0846 06       		.byte	0x6
 1183 0847 2F01     		.2byte	0x12f
 1184 0849 0C010000 		.4byte	0x10c
 1185 084d 00       		.byte	0
 1186 084e 09       		.uleb128 0x9
 1187 084f 04       		.byte	0x4
 1188 0850 31020000 		.4byte	0x231
 1189 0854 05       		.uleb128 0x5
 1190 0855 41040000 		.4byte	.LASF122
 1191 0859 0C       		.byte	0xc
 1192 085a 0B       		.byte	0xb
ARM GAS  /tmp/ccQb73YC.s 			page 22


 1193 085b 34       		.byte	0x34
 1194 085c 79080000 		.4byte	0x879
 1195 0860 06       		.uleb128 0x6
 1196 0861 51010000 		.4byte	.LASF123
 1197 0865 0B       		.byte	0xb
 1198 0866 35       		.byte	0x35
 1199 0867 66020000 		.4byte	0x266
 1200 086b 00       		.byte	0
 1201 086c 06       		.uleb128 0x6
 1202 086d 1D020000 		.4byte	.LASF124
 1203 0871 0B       		.byte	0xb
 1204 0872 37       		.byte	0x37
 1205 0873 17010000 		.4byte	0x117
 1206 0877 08       		.byte	0x8
 1207 0878 00       		.byte	0
 1208 0879 09       		.uleb128 0x9
 1209 087a 04       		.byte	0x4
 1210 087b 54080000 		.4byte	0x854
 1211 087f 05       		.uleb128 0x5
 1212 0880 D8050000 		.4byte	.LASF125
 1213 0884 10       		.byte	0x10
 1214 0885 0C       		.byte	0xc
 1215 0886 39       		.byte	0x39
 1216 0887 B0080000 		.4byte	0x8b0
 1217 088b 06       		.uleb128 0x6
 1218 088c FE000000 		.4byte	.LASF126
 1219 0890 0C       		.byte	0xc
 1220 0891 3A       		.byte	0x3a
 1221 0892 66020000 		.4byte	0x266
 1222 0896 00       		.byte	0
 1223 0897 06       		.uleb128 0x6
 1224 0898 32060000 		.4byte	.LASF127
 1225 089c 0C       		.byte	0xc
 1226 089d 3C       		.byte	0x3c
 1227 089e 3C020000 		.4byte	0x23c
 1228 08a2 08       		.byte	0x8
 1229 08a3 06       		.uleb128 0x6
 1230 08a4 70050000 		.4byte	.LASF128
 1231 08a8 0C       		.byte	0xc
 1232 08a9 3E       		.byte	0x3e
 1233 08aa F3080000 		.4byte	0x8f3
 1234 08ae 0C       		.byte	0xc
 1235 08af 00       		.byte	0
 1236 08b0 09       		.uleb128 0x9
 1237 08b1 04       		.byte	0x4
 1238 08b2 7F080000 		.4byte	0x87f
 1239 08b6 09       		.uleb128 0x9
 1240 08b7 04       		.byte	0x4
 1241 08b8 BC080000 		.4byte	0x8bc
 1242 08bc 18       		.uleb128 0x18
 1243 08bd C1080000 		.4byte	0x8c1
 1244 08c1 03       		.uleb128 0x3
 1245 08c2 01       		.byte	0x1
 1246 08c3 08       		.byte	0x8
 1247 08c4 62050000 		.4byte	.LASF129
 1248 08c8 09       		.uleb128 0x9
 1249 08c9 04       		.byte	0x4
ARM GAS  /tmp/ccQb73YC.s 			page 23


 1250 08ca 1B030000 		.4byte	0x31b
 1251 08ce 14       		.uleb128 0x14
 1252 08cf 22010000 		.4byte	0x122
 1253 08d3 14       		.uleb128 0x14
 1254 08d4 B6080000 		.4byte	0x8b6
 1255 08d8 12       		.uleb128 0x12
 1256 08d9 2C070000 		.4byte	0x72c
 1257 08dd E8080000 		.4byte	0x8e8
 1258 08e1 13       		.uleb128 0x13
 1259 08e2 1B050000 		.4byte	0x51b
 1260 08e6 1A       		.byte	0x1a
 1261 08e7 00       		.byte	0
 1262 08e8 04       		.uleb128 0x4
 1263 08e9 C2010000 		.4byte	.LASF130
 1264 08ed 0C       		.byte	0xc
 1265 08ee 34       		.byte	0x34
 1266 08ef 7F080000 		.4byte	0x87f
 1267 08f3 09       		.uleb128 0x9
 1268 08f4 04       		.byte	0x4
 1269 08f5 E8080000 		.4byte	0x8e8
 1270 08f9 03       		.uleb128 0x3
 1271 08fa 01       		.byte	0x1
 1272 08fb 02       		.byte	0x2
 1273 08fc 76030000 		.4byte	.LASF131
 1274 0900 1D       		.uleb128 0x1d
 1275 0901 C0000000 		.4byte	.LASF133
 1276 0905 01       		.byte	0x1
 1277 0906 39       		.byte	0x39
 1278 0907 00000000 		.4byte	.LFB207
 1279 090b 32000000 		.4byte	.LFE207-.LFB207
 1280 090f 01       		.uleb128 0x1
 1281 0910 9C       		.byte	0x9c
 1282 0911 32090000 		.4byte	0x932
 1283 0915 1E       		.uleb128 0x1e
 1284 0916 6E00     		.ascii	"n\000"
 1285 0918 01       		.byte	0x1
 1286 0919 39       		.byte	0x39
 1287 091a A9000000 		.4byte	0xa9
 1288 091e 00000000 		.4byte	.LLST0
 1289 0922 1F       		.uleb128 0x1f
 1290 0923 0F030000 		.4byte	.LASF132
 1291 0927 01       		.byte	0x1
 1292 0928 39       		.byte	0x39
 1293 0929 A9000000 		.4byte	0xa9
 1294 092d 43000000 		.4byte	.LLST1
 1295 0931 00       		.byte	0
 1296 0932 1D       		.uleb128 0x1d
 1297 0933 F4010000 		.4byte	.LASF134
 1298 0937 01       		.byte	0x1
 1299 0938 4A       		.byte	0x4a
 1300 0939 00000000 		.4byte	.LFB208
 1301 093d 28000000 		.4byte	.LFE208-.LFB208
 1302 0941 01       		.uleb128 0x1
 1303 0942 9C       		.byte	0x9c
 1304 0943 55090000 		.4byte	0x955
 1305 0947 1E       		.uleb128 0x1e
 1306 0948 6E00     		.ascii	"n\000"
ARM GAS  /tmp/ccQb73YC.s 			page 24


 1307 094a 01       		.byte	0x1
 1308 094b 4A       		.byte	0x4a
 1309 094c A9000000 		.4byte	0xa9
 1310 0950 64000000 		.4byte	.LLST2
 1311 0954 00       		.byte	0
 1312 0955 1D       		.uleb128 0x1d
 1313 0956 DA030000 		.4byte	.LASF135
 1314 095a 01       		.byte	0x1
 1315 095b 5A       		.byte	0x5a
 1316 095c 00000000 		.4byte	.LFB209
 1317 0960 10000000 		.4byte	.LFE209-.LFB209
 1318 0964 01       		.uleb128 0x1
 1319 0965 9C       		.byte	0x9c
 1320 0966 92090000 		.4byte	0x992
 1321 096a 1F       		.uleb128 0x1f
 1322 096b 8C020000 		.4byte	.LASF136
 1323 096f 01       		.byte	0x1
 1324 0970 5A       		.byte	0x5a
 1325 0971 A9000000 		.4byte	0xa9
 1326 0975 88000000 		.4byte	.LLST3
 1327 0979 1F       		.uleb128 0x1f
 1328 097a 0F030000 		.4byte	.LASF132
 1329 097e 01       		.byte	0x1
 1330 097f 5A       		.byte	0x5a
 1331 0980 A9000000 		.4byte	0xa9
 1332 0984 BD000000 		.4byte	.LLST4
 1333 0988 20       		.uleb128 0x20
 1334 0989 14040000 		.4byte	.LASF141
 1335 098d A2090000 		.4byte	0x9a2
 1336 0991 00       		.byte	0
 1337 0992 12       		.uleb128 0x12
 1338 0993 C1080000 		.4byte	0x8c1
 1339 0997 A2090000 		.4byte	0x9a2
 1340 099b 13       		.uleb128 0x13
 1341 099c 1B050000 		.4byte	0x51b
 1342 09a0 1C       		.byte	0x1c
 1343 09a1 00       		.byte	0
 1344 09a2 18       		.uleb128 0x18
 1345 09a3 92090000 		.4byte	0x992
 1346 09a7 1D       		.uleb128 0x1d
 1347 09a8 06010000 		.4byte	.LASF137
 1348 09ac 01       		.byte	0x1
 1349 09ad 6D       		.byte	0x6d
 1350 09ae 00000000 		.4byte	.LFB210
 1351 09b2 18000000 		.4byte	.LFE210-.LFB210
 1352 09b6 01       		.uleb128 0x1
 1353 09b7 9C       		.byte	0x9c
 1354 09b8 CA090000 		.4byte	0x9ca
 1355 09bc 1E       		.uleb128 0x1e
 1356 09bd 6E00     		.ascii	"n\000"
 1357 09bf 01       		.byte	0x1
 1358 09c0 6D       		.byte	0x6d
 1359 09c1 A9000000 		.4byte	0xa9
 1360 09c5 DE000000 		.4byte	.LLST5
 1361 09c9 00       		.byte	0
 1362 09ca 21       		.uleb128 0x21
 1363 09cb 98030000 		.4byte	.LASF138
ARM GAS  /tmp/ccQb73YC.s 			page 25


 1364 09cf 07       		.byte	0x7
 1365 09d0 5506     		.2byte	0x655
 1366 09d2 D6090000 		.4byte	0x9d6
 1367 09d6 14       		.uleb128 0x14
 1368 09d7 9E000000 		.4byte	0x9e
 1369 09db 22       		.uleb128 0x22
 1370 09dc 636800   		.ascii	"ch\000"
 1371 09df 06       		.byte	0x6
 1372 09e0 0902     		.2byte	0x209
 1373 09e2 E8030000 		.4byte	0x3e8
 1374 09e6 00       		.byte	0
 1375              		.section	.debug_abbrev,"",%progbits
 1376              	.Ldebug_abbrev0:
 1377 0000 01       		.uleb128 0x1
 1378 0001 11       		.uleb128 0x11
 1379 0002 01       		.byte	0x1
 1380 0003 25       		.uleb128 0x25
 1381 0004 0E       		.uleb128 0xe
 1382 0005 13       		.uleb128 0x13
 1383 0006 0B       		.uleb128 0xb
 1384 0007 03       		.uleb128 0x3
 1385 0008 0E       		.uleb128 0xe
 1386 0009 55       		.uleb128 0x55
 1387 000a 17       		.uleb128 0x17
 1388 000b 11       		.uleb128 0x11
 1389 000c 01       		.uleb128 0x1
 1390 000d 10       		.uleb128 0x10
 1391 000e 17       		.uleb128 0x17
 1392 000f 00       		.byte	0
 1393 0010 00       		.byte	0
 1394 0011 02       		.uleb128 0x2
 1395 0012 24       		.uleb128 0x24
 1396 0013 00       		.byte	0
 1397 0014 0B       		.uleb128 0xb
 1398 0015 0B       		.uleb128 0xb
 1399 0016 3E       		.uleb128 0x3e
 1400 0017 0B       		.uleb128 0xb
 1401 0018 03       		.uleb128 0x3
 1402 0019 08       		.uleb128 0x8
 1403 001a 00       		.byte	0
 1404 001b 00       		.byte	0
 1405 001c 03       		.uleb128 0x3
 1406 001d 24       		.uleb128 0x24
 1407 001e 00       		.byte	0
 1408 001f 0B       		.uleb128 0xb
 1409 0020 0B       		.uleb128 0xb
 1410 0021 3E       		.uleb128 0x3e
 1411 0022 0B       		.uleb128 0xb
 1412 0023 03       		.uleb128 0x3
 1413 0024 0E       		.uleb128 0xe
 1414 0025 00       		.byte	0
 1415 0026 00       		.byte	0
 1416 0027 04       		.uleb128 0x4
 1417 0028 16       		.uleb128 0x16
 1418 0029 00       		.byte	0
 1419 002a 03       		.uleb128 0x3
 1420 002b 0E       		.uleb128 0xe
ARM GAS  /tmp/ccQb73YC.s 			page 26


 1421 002c 3A       		.uleb128 0x3a
 1422 002d 0B       		.uleb128 0xb
 1423 002e 3B       		.uleb128 0x3b
 1424 002f 0B       		.uleb128 0xb
 1425 0030 49       		.uleb128 0x49
 1426 0031 13       		.uleb128 0x13
 1427 0032 00       		.byte	0
 1428 0033 00       		.byte	0
 1429 0034 05       		.uleb128 0x5
 1430 0035 13       		.uleb128 0x13
 1431 0036 01       		.byte	0x1
 1432 0037 03       		.uleb128 0x3
 1433 0038 0E       		.uleb128 0xe
 1434 0039 0B       		.uleb128 0xb
 1435 003a 0B       		.uleb128 0xb
 1436 003b 3A       		.uleb128 0x3a
 1437 003c 0B       		.uleb128 0xb
 1438 003d 3B       		.uleb128 0x3b
 1439 003e 0B       		.uleb128 0xb
 1440 003f 01       		.uleb128 0x1
 1441 0040 13       		.uleb128 0x13
 1442 0041 00       		.byte	0
 1443 0042 00       		.byte	0
 1444 0043 06       		.uleb128 0x6
 1445 0044 0D       		.uleb128 0xd
 1446 0045 00       		.byte	0
 1447 0046 03       		.uleb128 0x3
 1448 0047 0E       		.uleb128 0xe
 1449 0048 3A       		.uleb128 0x3a
 1450 0049 0B       		.uleb128 0xb
 1451 004a 3B       		.uleb128 0x3b
 1452 004b 0B       		.uleb128 0xb
 1453 004c 49       		.uleb128 0x49
 1454 004d 13       		.uleb128 0x13
 1455 004e 38       		.uleb128 0x38
 1456 004f 0B       		.uleb128 0xb
 1457 0050 00       		.byte	0
 1458 0051 00       		.byte	0
 1459 0052 07       		.uleb128 0x7
 1460 0053 0D       		.uleb128 0xd
 1461 0054 00       		.byte	0
 1462 0055 03       		.uleb128 0x3
 1463 0056 08       		.uleb128 0x8
 1464 0057 3A       		.uleb128 0x3a
 1465 0058 0B       		.uleb128 0xb
 1466 0059 3B       		.uleb128 0x3b
 1467 005a 05       		.uleb128 0x5
 1468 005b 49       		.uleb128 0x49
 1469 005c 13       		.uleb128 0x13
 1470 005d 38       		.uleb128 0x38
 1471 005e 0B       		.uleb128 0xb
 1472 005f 00       		.byte	0
 1473 0060 00       		.byte	0
 1474 0061 08       		.uleb128 0x8
 1475 0062 0D       		.uleb128 0xd
 1476 0063 00       		.byte	0
 1477 0064 03       		.uleb128 0x3
ARM GAS  /tmp/ccQb73YC.s 			page 27


 1478 0065 0E       		.uleb128 0xe
 1479 0066 3A       		.uleb128 0x3a
 1480 0067 0B       		.uleb128 0xb
 1481 0068 3B       		.uleb128 0x3b
 1482 0069 05       		.uleb128 0x5
 1483 006a 49       		.uleb128 0x49
 1484 006b 13       		.uleb128 0x13
 1485 006c 38       		.uleb128 0x38
 1486 006d 0B       		.uleb128 0xb
 1487 006e 00       		.byte	0
 1488 006f 00       		.byte	0
 1489 0070 09       		.uleb128 0x9
 1490 0071 0F       		.uleb128 0xf
 1491 0072 00       		.byte	0
 1492 0073 0B       		.uleb128 0xb
 1493 0074 0B       		.uleb128 0xb
 1494 0075 49       		.uleb128 0x49
 1495 0076 13       		.uleb128 0x13
 1496 0077 00       		.byte	0
 1497 0078 00       		.byte	0
 1498 0079 0A       		.uleb128 0xa
 1499 007a 13       		.uleb128 0x13
 1500 007b 01       		.byte	0x1
 1501 007c 03       		.uleb128 0x3
 1502 007d 0E       		.uleb128 0xe
 1503 007e 0B       		.uleb128 0xb
 1504 007f 0B       		.uleb128 0xb
 1505 0080 3A       		.uleb128 0x3a
 1506 0081 0B       		.uleb128 0xb
 1507 0082 3B       		.uleb128 0x3b
 1508 0083 05       		.uleb128 0x5
 1509 0084 01       		.uleb128 0x1
 1510 0085 13       		.uleb128 0x13
 1511 0086 00       		.byte	0
 1512 0087 00       		.byte	0
 1513 0088 0B       		.uleb128 0xb
 1514 0089 15       		.uleb128 0x15
 1515 008a 01       		.byte	0x1
 1516 008b 27       		.uleb128 0x27
 1517 008c 19       		.uleb128 0x19
 1518 008d 01       		.uleb128 0x1
 1519 008e 13       		.uleb128 0x13
 1520 008f 00       		.byte	0
 1521 0090 00       		.byte	0
 1522 0091 0C       		.uleb128 0xc
 1523 0092 05       		.uleb128 0x5
 1524 0093 00       		.byte	0
 1525 0094 49       		.uleb128 0x49
 1526 0095 13       		.uleb128 0x13
 1527 0096 00       		.byte	0
 1528 0097 00       		.byte	0
 1529 0098 0D       		.uleb128 0xd
 1530 0099 0F       		.uleb128 0xf
 1531 009a 00       		.byte	0
 1532 009b 0B       		.uleb128 0xb
 1533 009c 0B       		.uleb128 0xb
 1534 009d 00       		.byte	0
ARM GAS  /tmp/ccQb73YC.s 			page 28


 1535 009e 00       		.byte	0
 1536 009f 0E       		.uleb128 0xe
 1537 00a0 13       		.uleb128 0x13
 1538 00a1 01       		.byte	0x1
 1539 00a2 03       		.uleb128 0x3
 1540 00a3 0E       		.uleb128 0xe
 1541 00a4 0B       		.uleb128 0xb
 1542 00a5 05       		.uleb128 0x5
 1543 00a6 3A       		.uleb128 0x3a
 1544 00a7 0B       		.uleb128 0xb
 1545 00a8 3B       		.uleb128 0x3b
 1546 00a9 05       		.uleb128 0x5
 1547 00aa 01       		.uleb128 0x1
 1548 00ab 13       		.uleb128 0x13
 1549 00ac 00       		.byte	0
 1550 00ad 00       		.byte	0
 1551 00ae 0F       		.uleb128 0xf
 1552 00af 13       		.uleb128 0x13
 1553 00b0 01       		.byte	0x1
 1554 00b1 0B       		.uleb128 0xb
 1555 00b2 05       		.uleb128 0x5
 1556 00b3 3A       		.uleb128 0x3a
 1557 00b4 0B       		.uleb128 0xb
 1558 00b5 3B       		.uleb128 0x3b
 1559 00b6 05       		.uleb128 0x5
 1560 00b7 01       		.uleb128 0x1
 1561 00b8 13       		.uleb128 0x13
 1562 00b9 00       		.byte	0
 1563 00ba 00       		.byte	0
 1564 00bb 10       		.uleb128 0x10
 1565 00bc 0D       		.uleb128 0xd
 1566 00bd 00       		.byte	0
 1567 00be 03       		.uleb128 0x3
 1568 00bf 0E       		.uleb128 0xe
 1569 00c0 3A       		.uleb128 0x3a
 1570 00c1 0B       		.uleb128 0xb
 1571 00c2 3B       		.uleb128 0x3b
 1572 00c3 05       		.uleb128 0x5
 1573 00c4 49       		.uleb128 0x49
 1574 00c5 13       		.uleb128 0x13
 1575 00c6 38       		.uleb128 0x38
 1576 00c7 05       		.uleb128 0x5
 1577 00c8 00       		.byte	0
 1578 00c9 00       		.byte	0
 1579 00ca 11       		.uleb128 0x11
 1580 00cb 0D       		.uleb128 0xd
 1581 00cc 00       		.byte	0
 1582 00cd 03       		.uleb128 0x3
 1583 00ce 08       		.uleb128 0x8
 1584 00cf 3A       		.uleb128 0x3a
 1585 00d0 0B       		.uleb128 0xb
 1586 00d1 3B       		.uleb128 0x3b
 1587 00d2 05       		.uleb128 0x5
 1588 00d3 49       		.uleb128 0x49
 1589 00d4 13       		.uleb128 0x13
 1590 00d5 38       		.uleb128 0x38
 1591 00d6 05       		.uleb128 0x5
ARM GAS  /tmp/ccQb73YC.s 			page 29


 1592 00d7 00       		.byte	0
 1593 00d8 00       		.byte	0
 1594 00d9 12       		.uleb128 0x12
 1595 00da 01       		.uleb128 0x1
 1596 00db 01       		.byte	0x1
 1597 00dc 49       		.uleb128 0x49
 1598 00dd 13       		.uleb128 0x13
 1599 00de 01       		.uleb128 0x1
 1600 00df 13       		.uleb128 0x13
 1601 00e0 00       		.byte	0
 1602 00e1 00       		.byte	0
 1603 00e2 13       		.uleb128 0x13
 1604 00e3 21       		.uleb128 0x21
 1605 00e4 00       		.byte	0
 1606 00e5 49       		.uleb128 0x49
 1607 00e6 13       		.uleb128 0x13
 1608 00e7 2F       		.uleb128 0x2f
 1609 00e8 0B       		.uleb128 0xb
 1610 00e9 00       		.byte	0
 1611 00ea 00       		.byte	0
 1612 00eb 14       		.uleb128 0x14
 1613 00ec 35       		.uleb128 0x35
 1614 00ed 00       		.byte	0
 1615 00ee 49       		.uleb128 0x49
 1616 00ef 13       		.uleb128 0x13
 1617 00f0 00       		.byte	0
 1618 00f1 00       		.byte	0
 1619 00f2 15       		.uleb128 0x15
 1620 00f3 21       		.uleb128 0x21
 1621 00f4 00       		.byte	0
 1622 00f5 49       		.uleb128 0x49
 1623 00f6 13       		.uleb128 0x13
 1624 00f7 2F       		.uleb128 0x2f
 1625 00f8 05       		.uleb128 0x5
 1626 00f9 00       		.byte	0
 1627 00fa 00       		.byte	0
 1628 00fb 16       		.uleb128 0x16
 1629 00fc 16       		.uleb128 0x16
 1630 00fd 00       		.byte	0
 1631 00fe 03       		.uleb128 0x3
 1632 00ff 0E       		.uleb128 0xe
 1633 0100 3A       		.uleb128 0x3a
 1634 0101 0B       		.uleb128 0xb
 1635 0102 3B       		.uleb128 0x3b
 1636 0103 05       		.uleb128 0x5
 1637 0104 49       		.uleb128 0x49
 1638 0105 13       		.uleb128 0x13
 1639 0106 00       		.byte	0
 1640 0107 00       		.byte	0
 1641 0108 17       		.uleb128 0x17
 1642 0109 13       		.uleb128 0x13
 1643 010a 01       		.byte	0x1
 1644 010b 0B       		.uleb128 0xb
 1645 010c 0B       		.uleb128 0xb
 1646 010d 3A       		.uleb128 0x3a
 1647 010e 0B       		.uleb128 0xb
 1648 010f 3B       		.uleb128 0x3b
ARM GAS  /tmp/ccQb73YC.s 			page 30


 1649 0110 05       		.uleb128 0x5
 1650 0111 01       		.uleb128 0x1
 1651 0112 13       		.uleb128 0x13
 1652 0113 00       		.byte	0
 1653 0114 00       		.byte	0
 1654 0115 18       		.uleb128 0x18
 1655 0116 26       		.uleb128 0x26
 1656 0117 00       		.byte	0
 1657 0118 49       		.uleb128 0x49
 1658 0119 13       		.uleb128 0x13
 1659 011a 00       		.byte	0
 1660 011b 00       		.byte	0
 1661 011c 19       		.uleb128 0x19
 1662 011d 0D       		.uleb128 0xd
 1663 011e 00       		.byte	0
 1664 011f 03       		.uleb128 0x3
 1665 0120 08       		.uleb128 0x8
 1666 0121 3A       		.uleb128 0x3a
 1667 0122 0B       		.uleb128 0xb
 1668 0123 3B       		.uleb128 0x3b
 1669 0124 0B       		.uleb128 0xb
 1670 0125 49       		.uleb128 0x49
 1671 0126 13       		.uleb128 0x13
 1672 0127 38       		.uleb128 0x38
 1673 0128 0B       		.uleb128 0xb
 1674 0129 00       		.byte	0
 1675 012a 00       		.byte	0
 1676 012b 1A       		.uleb128 0x1a
 1677 012c 13       		.uleb128 0x13
 1678 012d 01       		.byte	0x1
 1679 012e 0B       		.uleb128 0xb
 1680 012f 0B       		.uleb128 0xb
 1681 0130 3A       		.uleb128 0x3a
 1682 0131 0B       		.uleb128 0xb
 1683 0132 3B       		.uleb128 0x3b
 1684 0133 0B       		.uleb128 0xb
 1685 0134 01       		.uleb128 0x1
 1686 0135 13       		.uleb128 0x13
 1687 0136 00       		.byte	0
 1688 0137 00       		.byte	0
 1689 0138 1B       		.uleb128 0x1b
 1690 0139 17       		.uleb128 0x17
 1691 013a 01       		.byte	0x1
 1692 013b 0B       		.uleb128 0xb
 1693 013c 0B       		.uleb128 0xb
 1694 013d 3A       		.uleb128 0x3a
 1695 013e 0B       		.uleb128 0xb
 1696 013f 3B       		.uleb128 0x3b
 1697 0140 0B       		.uleb128 0xb
 1698 0141 01       		.uleb128 0x1
 1699 0142 13       		.uleb128 0x13
 1700 0143 00       		.byte	0
 1701 0144 00       		.byte	0
 1702 0145 1C       		.uleb128 0x1c
 1703 0146 0D       		.uleb128 0xd
 1704 0147 00       		.byte	0
 1705 0148 03       		.uleb128 0x3
ARM GAS  /tmp/ccQb73YC.s 			page 31


 1706 0149 0E       		.uleb128 0xe
 1707 014a 3A       		.uleb128 0x3a
 1708 014b 0B       		.uleb128 0xb
 1709 014c 3B       		.uleb128 0x3b
 1710 014d 05       		.uleb128 0x5
 1711 014e 49       		.uleb128 0x49
 1712 014f 13       		.uleb128 0x13
 1713 0150 00       		.byte	0
 1714 0151 00       		.byte	0
 1715 0152 1D       		.uleb128 0x1d
 1716 0153 2E       		.uleb128 0x2e
 1717 0154 01       		.byte	0x1
 1718 0155 3F       		.uleb128 0x3f
 1719 0156 19       		.uleb128 0x19
 1720 0157 03       		.uleb128 0x3
 1721 0158 0E       		.uleb128 0xe
 1722 0159 3A       		.uleb128 0x3a
 1723 015a 0B       		.uleb128 0xb
 1724 015b 3B       		.uleb128 0x3b
 1725 015c 0B       		.uleb128 0xb
 1726 015d 27       		.uleb128 0x27
 1727 015e 19       		.uleb128 0x19
 1728 015f 11       		.uleb128 0x11
 1729 0160 01       		.uleb128 0x1
 1730 0161 12       		.uleb128 0x12
 1731 0162 06       		.uleb128 0x6
 1732 0163 40       		.uleb128 0x40
 1733 0164 18       		.uleb128 0x18
 1734 0165 9742     		.uleb128 0x2117
 1735 0167 19       		.uleb128 0x19
 1736 0168 01       		.uleb128 0x1
 1737 0169 13       		.uleb128 0x13
 1738 016a 00       		.byte	0
 1739 016b 00       		.byte	0
 1740 016c 1E       		.uleb128 0x1e
 1741 016d 05       		.uleb128 0x5
 1742 016e 00       		.byte	0
 1743 016f 03       		.uleb128 0x3
 1744 0170 08       		.uleb128 0x8
 1745 0171 3A       		.uleb128 0x3a
 1746 0172 0B       		.uleb128 0xb
 1747 0173 3B       		.uleb128 0x3b
 1748 0174 0B       		.uleb128 0xb
 1749 0175 49       		.uleb128 0x49
 1750 0176 13       		.uleb128 0x13
 1751 0177 02       		.uleb128 0x2
 1752 0178 17       		.uleb128 0x17
 1753 0179 00       		.byte	0
 1754 017a 00       		.byte	0
 1755 017b 1F       		.uleb128 0x1f
 1756 017c 05       		.uleb128 0x5
 1757 017d 00       		.byte	0
 1758 017e 03       		.uleb128 0x3
 1759 017f 0E       		.uleb128 0xe
 1760 0180 3A       		.uleb128 0x3a
 1761 0181 0B       		.uleb128 0xb
 1762 0182 3B       		.uleb128 0x3b
ARM GAS  /tmp/ccQb73YC.s 			page 32


 1763 0183 0B       		.uleb128 0xb
 1764 0184 49       		.uleb128 0x49
 1765 0185 13       		.uleb128 0x13
 1766 0186 02       		.uleb128 0x2
 1767 0187 17       		.uleb128 0x17
 1768 0188 00       		.byte	0
 1769 0189 00       		.byte	0
 1770 018a 20       		.uleb128 0x20
 1771 018b 34       		.uleb128 0x34
 1772 018c 00       		.byte	0
 1773 018d 03       		.uleb128 0x3
 1774 018e 0E       		.uleb128 0xe
 1775 018f 49       		.uleb128 0x49
 1776 0190 13       		.uleb128 0x13
 1777 0191 34       		.uleb128 0x34
 1778 0192 19       		.uleb128 0x19
 1779 0193 00       		.byte	0
 1780 0194 00       		.byte	0
 1781 0195 21       		.uleb128 0x21
 1782 0196 34       		.uleb128 0x34
 1783 0197 00       		.byte	0
 1784 0198 03       		.uleb128 0x3
 1785 0199 0E       		.uleb128 0xe
 1786 019a 3A       		.uleb128 0x3a
 1787 019b 0B       		.uleb128 0xb
 1788 019c 3B       		.uleb128 0x3b
 1789 019d 05       		.uleb128 0x5
 1790 019e 49       		.uleb128 0x49
 1791 019f 13       		.uleb128 0x13
 1792 01a0 3F       		.uleb128 0x3f
 1793 01a1 19       		.uleb128 0x19
 1794 01a2 3C       		.uleb128 0x3c
 1795 01a3 19       		.uleb128 0x19
 1796 01a4 00       		.byte	0
 1797 01a5 00       		.byte	0
 1798 01a6 22       		.uleb128 0x22
 1799 01a7 34       		.uleb128 0x34
 1800 01a8 00       		.byte	0
 1801 01a9 03       		.uleb128 0x3
 1802 01aa 08       		.uleb128 0x8
 1803 01ab 3A       		.uleb128 0x3a
 1804 01ac 0B       		.uleb128 0xb
 1805 01ad 3B       		.uleb128 0x3b
 1806 01ae 05       		.uleb128 0x5
 1807 01af 49       		.uleb128 0x49
 1808 01b0 13       		.uleb128 0x13
 1809 01b1 3F       		.uleb128 0x3f
 1810 01b2 19       		.uleb128 0x19
 1811 01b3 3C       		.uleb128 0x3c
 1812 01b4 19       		.uleb128 0x19
 1813 01b5 00       		.byte	0
 1814 01b6 00       		.byte	0
 1815 01b7 00       		.byte	0
 1816              		.section	.debug_loc,"",%progbits
 1817              	.Ldebug_loc0:
 1818              	.LLST0:
 1819 0000 00000000 		.4byte	.LVL0
ARM GAS  /tmp/ccQb73YC.s 			page 33


 1820 0004 14000000 		.4byte	.LVL2
 1821 0008 0100     		.2byte	0x1
 1822 000a 50       		.byte	0x50
 1823 000b 14000000 		.4byte	.LVL2
 1824 000f 1A000000 		.4byte	.LVL3
 1825 0013 0700     		.2byte	0x7
 1826 0015 74       		.byte	0x74
 1827 0016 80808080 		.sleb128 536870912
 1827      02
 1828 001b 9F       		.byte	0x9f
 1829 001c 1A000000 		.4byte	.LVL3
 1830 0020 30000000 		.4byte	.LVL4
 1831 0024 0700     		.2byte	0x7
 1832 0026 74       		.byte	0x74
 1833 0027 80BEFCFF 		.sleb128 536813312
 1833      01
 1834 002c 9F       		.byte	0x9f
 1835 002d 30000000 		.4byte	.LVL4
 1836 0031 32000000 		.4byte	.LFE207
 1837 0035 0400     		.2byte	0x4
 1838 0037 F3       		.byte	0xf3
 1839 0038 01       		.uleb128 0x1
 1840 0039 50       		.byte	0x50
 1841 003a 9F       		.byte	0x9f
 1842 003b 00000000 		.4byte	0
 1843 003f 00000000 		.4byte	0
 1844              	.LLST1:
 1845 0043 00000000 		.4byte	.LVL0
 1846 0047 08000000 		.4byte	.LVL1
 1847 004b 0100     		.2byte	0x1
 1848 004d 51       		.byte	0x51
 1849 004e 08000000 		.4byte	.LVL1
 1850 0052 32000000 		.4byte	.LFE207
 1851 0056 0400     		.2byte	0x4
 1852 0058 F3       		.byte	0xf3
 1853 0059 01       		.uleb128 0x1
 1854 005a 51       		.byte	0x51
 1855 005b 9F       		.byte	0x9f
 1856 005c 00000000 		.4byte	0
 1857 0060 00000000 		.4byte	0
 1858              	.LLST2:
 1859 0064 00000000 		.4byte	.LVL5
 1860 0068 14000000 		.4byte	.LVL6
 1861 006c 0100     		.2byte	0x1
 1862 006e 50       		.byte	0x50
 1863 006f 14000000 		.4byte	.LVL6
 1864 0073 28000000 		.4byte	.LFE208
 1865 0077 0700     		.2byte	0x7
 1866 0079 70       		.byte	0x70
 1867 007a 80BEFCFF 		.sleb128 536813312
 1867      01
 1868 007f 9F       		.byte	0x9f
 1869 0080 00000000 		.4byte	0
 1870 0084 00000000 		.4byte	0
 1871              	.LLST3:
 1872 0088 00000000 		.4byte	.LVL7
 1873 008c 06000000 		.4byte	.LVL9
ARM GAS  /tmp/ccQb73YC.s 			page 34


 1874 0090 0100     		.2byte	0x1
 1875 0092 50       		.byte	0x50
 1876 0093 06000000 		.4byte	.LVL9
 1877 0097 0C000000 		.4byte	.LVL10
 1878 009b 0700     		.2byte	0x7
 1879 009d 70       		.byte	0x70
 1880 009e 80808080 		.sleb128 536870912
 1880      02
 1881 00a3 9F       		.byte	0x9f
 1882 00a4 0C000000 		.4byte	.LVL10
 1883 00a8 10000000 		.4byte	.LFE209
 1884 00ac 0700     		.2byte	0x7
 1885 00ae 70       		.byte	0x70
 1886 00af 80A6FCFF 		.sleb128 536810240
 1886      01
 1887 00b4 9F       		.byte	0x9f
 1888 00b5 00000000 		.4byte	0
 1889 00b9 00000000 		.4byte	0
 1890              	.LLST4:
 1891 00bd 00000000 		.4byte	.LVL7
 1892 00c1 02000000 		.4byte	.LVL8
 1893 00c5 0100     		.2byte	0x1
 1894 00c7 51       		.byte	0x51
 1895 00c8 02000000 		.4byte	.LVL8
 1896 00cc 10000000 		.4byte	.LFE209
 1897 00d0 0400     		.2byte	0x4
 1898 00d2 F3       		.byte	0xf3
 1899 00d3 01       		.uleb128 0x1
 1900 00d4 51       		.byte	0x51
 1901 00d5 9F       		.byte	0x9f
 1902 00d6 00000000 		.4byte	0
 1903 00da 00000000 		.4byte	0
 1904              	.LLST5:
 1905 00de 00000000 		.4byte	.LVL11
 1906 00e2 08000000 		.4byte	.LVL12
 1907 00e6 0100     		.2byte	0x1
 1908 00e8 50       		.byte	0x50
 1909 00e9 08000000 		.4byte	.LVL12
 1910 00ed 18000000 		.4byte	.LFE210
 1911 00f1 0400     		.2byte	0x4
 1912 00f3 F3       		.byte	0xf3
 1913 00f4 01       		.uleb128 0x1
 1914 00f5 50       		.byte	0x50
 1915 00f6 9F       		.byte	0x9f
 1916 00f7 00000000 		.4byte	0
 1917 00fb 00000000 		.4byte	0
 1918              		.section	.debug_aranges,"",%progbits
 1919 0000 34000000 		.4byte	0x34
 1920 0004 0200     		.2byte	0x2
 1921 0006 00000000 		.4byte	.Ldebug_info0
 1922 000a 04       		.byte	0x4
 1923 000b 00       		.byte	0
 1924 000c 0000     		.2byte	0
 1925 000e 0000     		.2byte	0
 1926 0010 00000000 		.4byte	.LFB207
 1927 0014 32000000 		.4byte	.LFE207-.LFB207
 1928 0018 00000000 		.4byte	.LFB208
ARM GAS  /tmp/ccQb73YC.s 			page 35


 1929 001c 28000000 		.4byte	.LFE208-.LFB208
 1930 0020 00000000 		.4byte	.LFB209
 1931 0024 10000000 		.4byte	.LFE209-.LFB209
 1932 0028 00000000 		.4byte	.LFB210
 1933 002c 18000000 		.4byte	.LFE210-.LFB210
 1934 0030 00000000 		.4byte	0
 1935 0034 00000000 		.4byte	0
 1936              		.section	.debug_ranges,"",%progbits
 1937              	.Ldebug_ranges0:
 1938 0000 00000000 		.4byte	.LFB207
 1939 0004 32000000 		.4byte	.LFE207
 1940 0008 00000000 		.4byte	.LFB208
 1941 000c 28000000 		.4byte	.LFE208
 1942 0010 00000000 		.4byte	.LFB209
 1943 0014 10000000 		.4byte	.LFE209
 1944 0018 00000000 		.4byte	.LFB210
 1945 001c 18000000 		.4byte	.LFE210
 1946 0020 00000000 		.4byte	0
 1947 0024 00000000 		.4byte	0
 1948              		.section	.debug_line,"",%progbits
 1949              	.Ldebug_line0:
 1950 0000 35020000 		.section	.debug_str,"MS",%progbits,1
 1950      0200D901 
 1950      00000201 
 1950      FB0E0D00 
 1950      01010101 
 1951              	.LASF47:
 1952 0000 74687265 		.ascii	"threads_list_t\000"
 1952      6164735F 
 1952      6C697374 
 1952      5F7400
 1953              	.LASF86:
 1954 000f 49435052 		.ascii	"ICPR\000"
 1954      00
 1955              	.LASF52:
 1956 0014 72656164 		.ascii	"ready_list_t\000"
 1956      795F6C69 
 1956      73745F74 
 1956      00
 1957              	.LASF118:
 1958 0021 77747472 		.ascii	"wttrp\000"
 1958      7000
 1959              	.LASF115:
 1960 0027 7264796D 		.ascii	"rdymsg\000"
 1960      736700
 1961              	.LASF16:
 1962 002e 75696E74 		.ascii	"uint64_t\000"
 1962      36345F74 
 1962      00
 1963              	.LASF5:
 1964 0037 5F5F7569 		.ascii	"__uint8_t\000"
 1964      6E74385F 
 1964      7400
 1965              	.LASF112:
 1966 0041 706F7274 		.ascii	"port_intctx\000"
 1966      5F696E74 
 1966      63747800 
ARM GAS  /tmp/ccQb73YC.s 			page 36


 1967              	.LASF71:
 1968 004d 73797374 		.ascii	"system_debug_t\000"
 1968      656D5F64 
 1968      65627567 
 1968      5F7400
 1969              	.LASF12:
 1970 005c 6C6F6E67 		.ascii	"long long unsigned int\000"
 1970      206C6F6E 
 1970      6720756E 
 1970      7369676E 
 1970      65642069 
 1971              	.LASF116:
 1972 0073 65786974 		.ascii	"exitcode\000"
 1972      636F6465 
 1972      00
 1973              	.LASF78:
 1974 007c 6D61696E 		.ascii	"mainthread\000"
 1974      74687265 
 1974      616400
 1975              	.LASF68:
 1976 0087 76697274 		.ascii	"virtual_timers_list_t\000"
 1976      75616C5F 
 1976      74696D65 
 1976      72735F6C 
 1976      6973745F 
 1977              	.LASF94:
 1978 009d 43505549 		.ascii	"CPUID\000"
 1978      4400
 1979              	.LASF51:
 1980 00a3 63685F74 		.ascii	"ch_threads_queue\000"
 1980      68726561 
 1980      64735F71 
 1980      75657565 
 1980      00
 1981              	.LASF84:
 1982 00b4 49535052 		.ascii	"ISPR\000"
 1982      00
 1983              	.LASF30:
 1984 00b9 705F7072 		.ascii	"p_prio\000"
 1984      696F00
 1985              	.LASF133:
 1986 00c0 6E766963 		.ascii	"nvicEnableVector\000"
 1986      456E6162 
 1986      6C655665 
 1986      63746F72 
 1986      00
 1987              	.LASF70:
 1988 00d1 76745F73 		.ascii	"vt_systime\000"
 1988      79737469 
 1988      6D6500
 1989              	.LASF10:
 1990 00dc 6C6F6E67 		.ascii	"long long int\000"
 1990      206C6F6E 
 1990      6720696E 
 1990      7400
 1991              	.LASF1:
 1992 00ea 7369676E 		.ascii	"signed char\000"
ARM GAS  /tmp/ccQb73YC.s 			page 37


 1992      65642063 
 1992      68617200 
 1993              	.LASF45:
 1994 00f6 705F6D70 		.ascii	"p_mpool\000"
 1994      6F6F6C00 
 1995              	.LASF126:
 1996 00fe 6D5F7175 		.ascii	"m_queue\000"
 1996      65756500 
 1997              	.LASF137:
 1998 0106 6E766963 		.ascii	"nvicClearPending\000"
 1998      436C6561 
 1998      7250656E 
 1998      64696E67 
 1998      00
 1999              	.LASF77:
 2000 0117 76746C69 		.ascii	"vtlist\000"
 2000      737400
 2001              	.LASF21:
 2002 011e 74736C69 		.ascii	"tslices_t\000"
 2002      6365735F 
 2002      7400
 2003              	.LASF75:
 2004 0128 63685F73 		.ascii	"ch_system\000"
 2004      79737465 
 2004      6D00
 2005              	.LASF7:
 2006 0132 6C6F6E67 		.ascii	"long int\000"
 2006      20696E74 
 2006      00
 2007              	.LASF106:
 2008 013b 49534152 		.ascii	"ISAR\000"
 2008      00
 2009              	.LASF19:
 2010 0140 74737461 		.ascii	"tstate_t\000"
 2010      74655F74 
 2010      00
 2011              	.LASF32:
 2012 0149 705F6E65 		.ascii	"p_newer\000"
 2012      77657200 
 2013              	.LASF123:
 2014 0151 735F7175 		.ascii	"s_queue\000"
 2014      65756500 
 2015              	.LASF103:
 2016 0159 42464152 		.ascii	"BFAR\000"
 2016      00
 2017              	.LASF104:
 2018 015e 41465352 		.ascii	"AFSR\000"
 2018      00
 2019              	.LASF57:
 2020 0163 725F6E65 		.ascii	"r_newer\000"
 2020      77657200 
 2021              	.LASF109:
 2022 016b 72656761 		.ascii	"regarm_t\000"
 2022      726D5F74 
 2022      00
 2023              	.LASF64:
 2024 0174 76745F70 		.ascii	"vt_prev\000"
ARM GAS  /tmp/ccQb73YC.s 			page 38


 2024      72657600 
 2025              	.LASF108:
 2026 017c 5343425F 		.ascii	"SCB_Type\000"
 2026      54797065 
 2026      00
 2027              	.LASF140:
 2028 0185 2F686F6D 		.ascii	"/home/peter/ChibiOS_16.1.4/os/hal/ports/common/ARMC"
 2028      652F7065 
 2028      7465722F 
 2028      43686962 
 2028      694F535F 
 2029 01b8 4D782F6E 		.ascii	"Mx/nvic.c\000"
 2029      7669632E 
 2029      6300
 2030              	.LASF130:
 2031 01c2 6D757465 		.ascii	"mutex_t\000"
 2031      785F7400 
 2032              	.LASF79:
 2033 01ca 69646C65 		.ascii	"idle_thread_wa\000"
 2033      5F746872 
 2033      6561645F 
 2033      776100
 2034              	.LASF25:
 2035 01d9 636E745F 		.ascii	"cnt_t\000"
 2035      7400
 2036              	.LASF0:
 2037 01df 756E7369 		.ascii	"unsigned int\000"
 2037      676E6564 
 2037      20696E74 
 2037      00
 2038              	.LASF63:
 2039 01ec 76745F6E 		.ascii	"vt_next\000"
 2039      65787400 
 2040              	.LASF134:
 2041 01f4 6E766963 		.ascii	"nvicDisableVector\000"
 2041      44697361 
 2041      626C6556 
 2041      6563746F 
 2041      7200
 2042              	.LASF119:
 2043 0206 77747365 		.ascii	"wtsemp\000"
 2043      6D7000
 2044              	.LASF40:
 2045 020d 705F6D73 		.ascii	"p_msgqueue\000"
 2045      67717565 
 2045      756500
 2046              	.LASF96:
 2047 0218 56544F52 		.ascii	"VTOR\000"
 2047      00
 2048              	.LASF124:
 2049 021d 735F636E 		.ascii	"s_cnt\000"
 2049      7400
 2050              	.LASF48:
 2051 0223 63685F74 		.ascii	"ch_thread\000"
 2051      68726561 
 2051      6400
 2052              	.LASF95:
ARM GAS  /tmp/ccQb73YC.s 			page 39


 2053 022d 49435352 		.ascii	"ICSR\000"
 2053      00
 2054              	.LASF23:
 2055 0232 6D73675F 		.ascii	"msg_t\000"
 2055      7400
 2056              	.LASF97:
 2057 0238 41495243 		.ascii	"AIRCR\000"
 2057      5200
 2058              	.LASF101:
 2059 023e 44465352 		.ascii	"DFSR\000"
 2059      00
 2060              	.LASF102:
 2061 0243 4D4D4641 		.ascii	"MMFAR\000"
 2061      5200
 2062              	.LASF74:
 2063 0249 63685F73 		.ascii	"ch_system_t\000"
 2063      79737465 
 2063      6D5F7400 
 2064              	.LASF18:
 2065 0255 746D6F64 		.ascii	"tmode_t\000"
 2065      655F7400 
 2066              	.LASF53:
 2067 025d 63685F72 		.ascii	"ch_ready_list\000"
 2067      65616479 
 2067      5F6C6973 
 2067      7400
 2068              	.LASF24:
 2069 026b 6576656E 		.ascii	"eventmask_t\000"
 2069      746D6173 
 2069      6B5F7400 
 2070              	.LASF6:
 2071 0277 5F5F696E 		.ascii	"__int32_t\000"
 2071      7433325F 
 2071      7400
 2072              	.LASF110:
 2073 0281 73746B61 		.ascii	"stkalign_t\000"
 2073      6C69676E 
 2073      5F7400
 2074              	.LASF136:
 2075 028c 68616E64 		.ascii	"handler\000"
 2075      6C657200 
 2076              	.LASF61:
 2077 0294 76697274 		.ascii	"virtual_timer_t\000"
 2077      75616C5F 
 2077      74696D65 
 2077      725F7400 
 2078              	.LASF39:
 2079 02a4 705F7761 		.ascii	"p_waiting\000"
 2079      6974696E 
 2079      6700
 2080              	.LASF92:
 2081 02ae 73697A65 		.ascii	"sizetype\000"
 2081      74797065 
 2081      00
 2082              	.LASF46:
 2083 02b7 74687265 		.ascii	"thread_reference_t\000"
 2083      61645F72 
ARM GAS  /tmp/ccQb73YC.s 			page 40


 2083      65666572 
 2083      656E6365 
 2083      5F7400
 2084              	.LASF69:
 2085 02ca 63685F76 		.ascii	"ch_virtual_timers_list\000"
 2085      69727475 
 2085      616C5F74 
 2085      696D6572 
 2085      735F6C69 
 2086              	.LASF99:
 2087 02e1 43465352 		.ascii	"CFSR\000"
 2087      00
 2088              	.LASF88:
 2089 02e6 49414252 		.ascii	"IABR\000"
 2089      00
 2090              	.LASF33:
 2091 02eb 705F6F6C 		.ascii	"p_older\000"
 2091      64657200 
 2092              	.LASF56:
 2093 02f3 725F6374 		.ascii	"r_ctx\000"
 2093      7800
 2094              	.LASF114:
 2095 02f9 746D5F63 		.ascii	"tm_calibration_t\000"
 2095      616C6962 
 2095      72617469 
 2095      6F6E5F74 
 2095      00
 2096              	.LASF82:
 2097 030a 49434552 		.ascii	"ICER\000"
 2097      00
 2098              	.LASF132:
 2099 030f 7072696F 		.ascii	"prio\000"
 2099      00
 2100              	.LASF58:
 2101 0314 725F6F6C 		.ascii	"r_older\000"
 2101      64657200 
 2102              	.LASF11:
 2103 031c 5F5F7569 		.ascii	"__uint64_t\000"
 2103      6E743634 
 2103      5F7400
 2104              	.LASF20:
 2105 0327 74726566 		.ascii	"trefs_t\000"
 2105      735F7400 
 2106              	.LASF81:
 2107 032f 52455345 		.ascii	"RESERVED0\000"
 2107      52564544 
 2107      3000
 2108              	.LASF85:
 2109 0339 52455345 		.ascii	"RESERVED2\000"
 2109      52564544 
 2109      3200
 2110              	.LASF87:
 2111 0343 52455345 		.ascii	"RESERVED3\000"
 2111      52564544 
 2111      3300
 2112              	.LASF89:
 2113 034d 52455345 		.ascii	"RESERVED4\000"
ARM GAS  /tmp/ccQb73YC.s 			page 41


 2113      52564544 
 2113      3400
 2114              	.LASF29:
 2115 0357 705F7072 		.ascii	"p_prev\000"
 2115      657600
 2116              	.LASF22:
 2117 035e 74707269 		.ascii	"tprio_t\000"
 2117      6F5F7400 
 2118              	.LASF72:
 2119 0366 63685F73 		.ascii	"ch_system_debug\000"
 2119      79737465 
 2119      6D5F6465 
 2119      62756700 
 2120              	.LASF131:
 2121 0376 5F426F6F 		.ascii	"_Bool\000"
 2121      6C00
 2122              	.LASF14:
 2123 037c 696E7433 		.ascii	"int32_t\000"
 2123      325F7400 
 2124              	.LASF2:
 2125 0384 756E7369 		.ascii	"unsigned char\000"
 2125      676E6564 
 2125      20636861 
 2125      7200
 2126              	.LASF98:
 2127 0392 53484353 		.ascii	"SHCSR\000"
 2127      5200
 2128              	.LASF138:
 2129 0398 49544D5F 		.ascii	"ITM_RxBuffer\000"
 2129      52784275 
 2129      66666572 
 2129      00
 2130              	.LASF35:
 2131 03a5 705F7374 		.ascii	"p_state\000"
 2131      61746500 
 2132              	.LASF43:
 2133 03ad 705F6D74 		.ascii	"p_mtxlist\000"
 2133      786C6973 
 2133      7400
 2134              	.LASF3:
 2135 03b7 73686F72 		.ascii	"short int\000"
 2135      7420696E 
 2135      7400
 2136              	.LASF80:
 2137 03c1 49534552 		.ascii	"ISER\000"
 2137      00
 2138              	.LASF93:
 2139 03c6 4E564943 		.ascii	"NVIC_Type\000"
 2139      5F547970 
 2139      6500
 2140              	.LASF38:
 2141 03d0 705F7072 		.ascii	"p_preempt\000"
 2141      65656D70 
 2141      7400
 2142              	.LASF135:
 2143 03da 6E766963 		.ascii	"nvicSetSystemHandlerPriority\000"
 2143      53657453 
ARM GAS  /tmp/ccQb73YC.s 			page 42


 2143      79737465 
 2143      6D48616E 
 2143      646C6572 
 2144              	.LASF55:
 2145 03f7 725F7072 		.ascii	"r_prio\000"
 2145      696F00
 2146              	.LASF121:
 2147 03fe 65776D61 		.ascii	"ewmask\000"
 2147      736B00
 2148              	.LASF28:
 2149 0405 705F6E65 		.ascii	"p_next\000"
 2149      787400
 2150              	.LASF36:
 2151 040c 705F666C 		.ascii	"p_flags\000"
 2151      61677300 
 2152              	.LASF141:
 2153 0414 5F5F6675 		.ascii	"__func__\000"
 2153      6E635F5F 
 2153      00
 2154              	.LASF4:
 2155 041d 73686F72 		.ascii	"short unsigned int\000"
 2155      7420756E 
 2155      7369676E 
 2155      65642069 
 2155      6E7400
 2156              	.LASF62:
 2157 0430 63685F76 		.ascii	"ch_virtual_timer\000"
 2157      69727475 
 2157      616C5F74 
 2157      696D6572 
 2157      00
 2158              	.LASF122:
 2159 0441 63685F73 		.ascii	"ch_semaphore\000"
 2159      656D6170 
 2159      686F7265 
 2159      00
 2160              	.LASF42:
 2161 044e 705F6570 		.ascii	"p_epending\000"
 2161      656E6469 
 2161      6E6700
 2162              	.LASF90:
 2163 0459 52455345 		.ascii	"RESERVED5\000"
 2163      52564544 
 2163      3500
 2164              	.LASF15:
 2165 0463 75696E74 		.ascii	"uint32_t\000"
 2165      33325F74 
 2165      00
 2166              	.LASF120:
 2167 046c 77746D74 		.ascii	"wtmtxp\000"
 2167      787000
 2168              	.LASF54:
 2169 0473 725F7175 		.ascii	"r_queue\000"
 2169      65756500 
 2170              	.LASF65:
 2171 047b 76745F64 		.ascii	"vt_delta\000"
 2171      656C7461 
ARM GAS  /tmp/ccQb73YC.s 			page 43


 2171      00
 2172              	.LASF49:
 2173 0484 63685F74 		.ascii	"ch_threads_list\000"
 2173      68726561 
 2173      64735F6C 
 2173      69737400 
 2174              	.LASF9:
 2175 0494 6C6F6E67 		.ascii	"long unsigned int\000"
 2175      20756E73 
 2175      69676E65 
 2175      6420696E 
 2175      7400
 2176              	.LASF139:
 2177 04a6 474E5520 		.ascii	"GNU C 4.9.3 20150529 (prerelease) -mcpu=cortex-m3 -"
 2177      4320342E 
 2177      392E3320 
 2177      32303135 
 2177      30353239 
 2178 04d9 6D6E6F2D 		.ascii	"mno-thumb-interwork -mthumb -ggdb -O2 -std=c99 -fom"
 2178      7468756D 
 2178      622D696E 
 2178      74657277 
 2178      6F726B20 
 2179 050c 69742D66 		.ascii	"it-frame-pointer -falign-functions=16 -ffunction-se"
 2179      72616D65 
 2179      2D706F69 
 2179      6E746572 
 2179      202D6661 
 2180 053f 6374696F 		.ascii	"ctions -fdata-sections -fno-common\000"
 2180      6E73202D 
 2180      66646174 
 2180      612D7365 
 2180      6374696F 
 2181              	.LASF129:
 2182 0562 63686172 		.ascii	"char\000"
 2182      00
 2183              	.LASF27:
 2184 0567 74687265 		.ascii	"thread_t\000"
 2184      61645F74 
 2184      00
 2185              	.LASF128:
 2186 0570 6D5F6E65 		.ascii	"m_next\000"
 2186      787400
 2187              	.LASF26:
 2188 0577 73797374 		.ascii	"systime_t\000"
 2188      696D655F 
 2188      7400
 2189              	.LASF44:
 2190 0581 705F7265 		.ascii	"p_realprio\000"
 2190      616C7072 
 2190      696F00
 2191              	.LASF60:
 2192 058c 76746675 		.ascii	"vtfunc_t\000"
 2192      6E635F74 
 2192      00
 2193              	.LASF8:
 2194 0595 5F5F7569 		.ascii	"__uint32_t\000"
ARM GAS  /tmp/ccQb73YC.s 			page 44


 2194      6E743332 
 2194      5F7400
 2195              	.LASF73:
 2196 05a0 70616E69 		.ascii	"panic_msg\000"
 2196      635F6D73 
 2196      6700
 2197              	.LASF113:
 2198 05aa 6F666673 		.ascii	"offset\000"
 2198      657400
 2199              	.LASF111:
 2200 05b1 636F6E74 		.ascii	"context\000"
 2200      65787400 
 2201              	.LASF17:
 2202 05b9 7274636E 		.ascii	"rtcnt_t\000"
 2202      745F7400 
 2203              	.LASF67:
 2204 05c1 76745F70 		.ascii	"vt_par\000"
 2204      617200
 2205              	.LASF50:
 2206 05c8 74687265 		.ascii	"threads_queue_t\000"
 2206      6164735F 
 2206      71756575 
 2206      655F7400 
 2207              	.LASF125:
 2208 05d8 63685F6D 		.ascii	"ch_mutex\000"
 2208      75746578 
 2208      00
 2209              	.LASF37:
 2210 05e1 705F7265 		.ascii	"p_refs\000"
 2210      667300
 2211              	.LASF105:
 2212 05e8 4D4D4652 		.ascii	"MMFR\000"
 2212      00
 2213              	.LASF76:
 2214 05ed 726C6973 		.ascii	"rlist\000"
 2214      7400
 2215              	.LASF13:
 2216 05f3 75696E74 		.ascii	"uint8_t\000"
 2216      385F7400 
 2217              	.LASF83:
 2218 05fb 52534552 		.ascii	"RSERVED1\000"
 2218      56454431 
 2218      00
 2219              	.LASF91:
 2220 0604 53544952 		.ascii	"STIR\000"
 2220      00
 2221              	.LASF117:
 2222 0609 77746F62 		.ascii	"wtobjp\000"
 2222      6A7000
 2223              	.LASF34:
 2224 0610 705F6E61 		.ascii	"p_name\000"
 2224      6D6500
 2225              	.LASF59:
 2226 0617 725F6375 		.ascii	"r_current\000"
 2226      7272656E 
 2226      7400
 2227              	.LASF41:
ARM GAS  /tmp/ccQb73YC.s 			page 45


 2228 0621 705F6D73 		.ascii	"p_msg\000"
 2228      6700
 2229              	.LASF107:
 2230 0627 43504143 		.ascii	"CPACR\000"
 2230      5200
 2231              	.LASF100:
 2232 062d 48465352 		.ascii	"HFSR\000"
 2232      00
 2233              	.LASF127:
 2234 0632 6D5F6F77 		.ascii	"m_owner\000"
 2234      6E657200 
 2235              	.LASF31:
 2236 063a 705F6374 		.ascii	"p_ctx\000"
 2236      7800
 2237              	.LASF66:
 2238 0640 76745F66 		.ascii	"vt_func\000"
 2238      756E6300 
 2239              		.ident	"GCC: (15:4.9.3+svn227297-1) 4.9.3 20150529 (prerelease)"
ARM GAS  /tmp/ccQb73YC.s 			page 46


DEFINED SYMBOLS
                            *ABS*:00000000 nvic.c
     /tmp/ccQb73YC.s:19     .text.nvicEnableVector:00000000 $t
     /tmp/ccQb73YC.s:25     .text.nvicEnableVector:00000000 nvicEnableVector
     /tmp/ccQb73YC.s:73     .text.nvicDisableVector:00000000 $t
     /tmp/ccQb73YC.s:79     .text.nvicDisableVector:00000000 nvicDisableVector
     /tmp/ccQb73YC.s:115    .text.nvicDisableVector:00000024 $d
     /tmp/ccQb73YC.s:120    .text.nvicSetSystemHandlerPriority:00000000 $t
     /tmp/ccQb73YC.s:126    .text.nvicSetSystemHandlerPriority:00000000 nvicSetSystemHandlerPriority
     /tmp/ccQb73YC.s:148    .text.nvicClearPending:00000000 $t
     /tmp/ccQb73YC.s:154    .text.nvicClearPending:00000000 nvicClearPending
     /tmp/ccQb73YC.s:175    .text.nvicClearPending:00000014 $d
                     .debug_frame:00000010 $d
     /tmp/ccQb73YC.s:119    .text.nvicDisableVector:00000028 $t
     /tmp/ccQb73YC.s:179    .text.nvicClearPending:00000018 $t

NO UNDEFINED SYMBOLS
