ARM GAS  /tmp/ccniVAOn.s 			page 1


   1              		.syntax unified
   2              		.cpu cortex-m3
   3              		.fpu softvfp
   4              		.eabi_attribute 20, 1
   5              		.eabi_attribute 21, 1
   6              		.eabi_attribute 23, 3
   7              		.eabi_attribute 24, 1
   8              		.eabi_attribute 25, 1
   9              		.eabi_attribute 26, 1
  10              		.eabi_attribute 30, 2
  11              		.eabi_attribute 34, 1
  12              		.eabi_attribute 18, 4
  13              		.thumb
  14              		.file	"pal_lld.c"
  15              		.text
  16              	.Ltext0:
  17              		.cfi_sections	.debug_frame
  18              		.section	.text._pal_lld_init,"ax",%progbits
  19              		.align	2
  20              		.p2align 4,,15
  21              		.global	_pal_lld_init
  22              		.thumb
  23              		.thumb_func
  24              		.type	_pal_lld_init, %function
  25              	_pal_lld_init:
  26              	.LFB208:
  27              		.file 1 "/home/peter/ChibiOS_16.1.4/os/hal/ports/STM32/LLD/GPIOv2/pal_lld.c"
  28              		.loc 1 88 0
  29              		.cfi_startproc
  30              		@ args = 0, pretend = 0, frame = 0
  31              		@ frame_needed = 0, uses_anonymous_args = 0
  32              	.LVL0:
  33              		.loc 1 104 0
  34 0000 40F2FF12 		movw	r2, #511
  35 0004 644B     		ldr	r3, .L3
  36              		.loc 1 88 0
  37 0006 2DE9F041 		push	{r4, r5, r6, r7, r8, lr}
  38              		.cfi_def_cfa_offset 24
  39              		.cfi_offset 4, -24
  40              		.cfi_offset 5, -20
  41              		.cfi_offset 6, -16
  42              		.cfi_offset 7, -12
  43              		.cfi_offset 8, -8
  44              		.cfi_offset 14, -4
  45              		.loc 1 104 0
  46 000a 196B     		ldr	r1, [r3, #48]
  47              	.LBB20:
  48              	.LBB21:
  49              		.loc 1 63 0
  50 000c DFF8A481 		ldr	r8, .L3+28
  51              	.LBE21:
  52              	.LBE20:
  53              		.loc 1 104 0
  54 0010 1143     		orrs	r1, r1, r2
  55 0012 1963     		str	r1, [r3, #48]
  56              		.loc 1 105 0
  57 0014 196D     		ldr	r1, [r3, #80]
ARM GAS  /tmp/ccniVAOn.s 			page 2


  58              	.LBB30:
  59              	.LBB31:
  60              		.loc 1 63 0
  61 0016 DFF8A0E1 		ldr	lr, .L3+32
  62              	.LBE31:
  63              	.LBE30:
  64              		.loc 1 105 0
  65 001a 0A43     		orrs	r2, r2, r1
  66 001c 1A65     		str	r2, [r3, #80]
  67              	.LVL1:
  68              	.LBB33:
  69              	.LBB22:
  70              		.loc 1 63 0
  71 001e 4368     		ldr	r3, [r0, #4]
  72              	.LBE22:
  73              	.LBE33:
  74              	.LBB34:
  75              	.LBB35:
  76 0020 5E4E     		ldr	r6, .L3+4
  77              	.LBE35:
  78              	.LBE34:
  79              	.LBB37:
  80              	.LBB23:
  81 0022 C8F80430 		str	r3, [r8, #4]
  82              		.loc 1 64 0
  83 0026 8368     		ldr	r3, [r0, #8]
  84              	.LBE23:
  85              	.LBE37:
  86              	.LBB38:
  87              	.LBB39:
  88              		.loc 1 63 0
  89 0028 5D4D     		ldr	r5, .L3+8
  90              	.LBE39:
  91              	.LBE38:
  92              	.LBB41:
  93              	.LBB24:
  94              		.loc 1 64 0
  95 002a C8F80830 		str	r3, [r8, #8]
  96              		.loc 1 65 0
  97 002e C368     		ldr	r3, [r0, #12]
  98              	.LBE24:
  99              	.LBE41:
 100              	.LBB42:
 101              	.LBB43:
 102              		.loc 1 63 0
 103 0030 5C4C     		ldr	r4, .L3+12
 104              	.LBE43:
 105              	.LBE42:
 106              	.LBB45:
 107              	.LBB25:
 108              		.loc 1 65 0
 109 0032 C8F80C30 		str	r3, [r8, #12]
 110              		.loc 1 66 0
 111 0036 0369     		ldr	r3, [r0, #16]
 112              	.LBE25:
 113              	.LBE45:
 114              	.LBB46:
ARM GAS  /tmp/ccniVAOn.s 			page 3


 115              	.LBB47:
 116              		.loc 1 63 0
 117 0038 5B49     		ldr	r1, .L3+16
 118              	.LBE47:
 119              	.LBE46:
 120              	.LBB49:
 121              	.LBB26:
 122              		.loc 1 66 0
 123 003a C8F81430 		str	r3, [r8, #20]
 124              		.loc 1 67 0
 125 003e 4769     		ldr	r7, [r0, #20]
 126              	.LBE26:
 127              	.LBE49:
 128              	.LBB50:
 129              	.LBB51:
 130              		.loc 1 63 0
 131 0040 5A4A     		ldr	r2, .L3+20
 132              	.LBE51:
 133              	.LBE50:
 134              	.LBB53:
 135              	.LBB27:
 136              		.loc 1 67 0
 137 0042 C8F82070 		str	r7, [r8, #32]
 138              		.loc 1 68 0
 139 0046 8369     		ldr	r3, [r0, #24]
 140              	.LBE27:
 141              	.LBE53:
 142              	.LBB54:
 143              	.LBB55:
 144              		.loc 1 63 0
 145 0048 DFF870C1 		ldr	ip, .L3+36
 146              	.LBE55:
 147              	.LBE54:
 148              	.LBB57:
 149              	.LBB28:
 150              		.loc 1 68 0
 151 004c C8F82430 		str	r3, [r8, #36]
 152              		.loc 1 69 0
 153 0050 0368     		ldr	r3, [r0]
 154              	.LBE28:
 155              	.LBE57:
 156              	.LBB58:
 157              	.LBB59:
 158              		.loc 1 63 0
 159 0052 574F     		ldr	r7, .L3+24
 160              	.LBE59:
 161              	.LBE58:
 162              	.LBB61:
 163              	.LBB29:
 164              		.loc 1 69 0
 165 0054 C8F80030 		str	r3, [r8]
 166              	.LVL2:
 167              	.LBE29:
 168              	.LBE61:
 169              	.LBB62:
 170              	.LBB32:
 171              		.loc 1 63 0
ARM GAS  /tmp/ccniVAOn.s 			page 4


 172 0058 036A     		ldr	r3, [r0, #32]
 173 005a CEF80430 		str	r3, [lr, #4]
 174              		.loc 1 64 0
 175 005e 436A     		ldr	r3, [r0, #36]
 176 0060 CEF80830 		str	r3, [lr, #8]
 177              		.loc 1 65 0
 178 0064 836A     		ldr	r3, [r0, #40]
 179 0066 CEF80C30 		str	r3, [lr, #12]
 180              		.loc 1 66 0
 181 006a C36A     		ldr	r3, [r0, #44]
 182 006c CEF81430 		str	r3, [lr, #20]
 183              		.loc 1 67 0
 184 0070 036B     		ldr	r3, [r0, #48]
 185 0072 CEF82030 		str	r3, [lr, #32]
 186              		.loc 1 68 0
 187 0076 436B     		ldr	r3, [r0, #52]
 188 0078 CEF82430 		str	r3, [lr, #36]
 189              		.loc 1 69 0
 190 007c C369     		ldr	r3, [r0, #28]
 191 007e CEF80030 		str	r3, [lr]
 192              	.LVL3:
 193              	.LBE32:
 194              	.LBE62:
 195              	.LBB63:
 196              	.LBB36:
 197              		.loc 1 63 0
 198 0082 C36B     		ldr	r3, [r0, #60]
 199 0084 7360     		str	r3, [r6, #4]
 200              		.loc 1 64 0
 201 0086 036C     		ldr	r3, [r0, #64]
 202 0088 B360     		str	r3, [r6, #8]
 203              		.loc 1 65 0
 204 008a 436C     		ldr	r3, [r0, #68]
 205 008c F360     		str	r3, [r6, #12]
 206              		.loc 1 66 0
 207 008e 836C     		ldr	r3, [r0, #72]
 208 0090 7361     		str	r3, [r6, #20]
 209              		.loc 1 67 0
 210 0092 C36C     		ldr	r3, [r0, #76]
 211 0094 3362     		str	r3, [r6, #32]
 212              		.loc 1 68 0
 213 0096 036D     		ldr	r3, [r0, #80]
 214 0098 7362     		str	r3, [r6, #36]
 215              		.loc 1 69 0
 216 009a 836B     		ldr	r3, [r0, #56]
 217 009c 3360     		str	r3, [r6]
 218              	.LVL4:
 219              	.LBE36:
 220              	.LBE63:
 221              	.LBB64:
 222              	.LBB40:
 223              		.loc 1 63 0
 224 009e 866D     		ldr	r6, [r0, #88]
 225 00a0 6E60     		str	r6, [r5, #4]
 226              		.loc 1 64 0
 227 00a2 C66D     		ldr	r6, [r0, #92]
 228 00a4 AE60     		str	r6, [r5, #8]
ARM GAS  /tmp/ccniVAOn.s 			page 5


 229              		.loc 1 65 0
 230 00a6 066E     		ldr	r6, [r0, #96]
 231 00a8 EE60     		str	r6, [r5, #12]
 232              		.loc 1 66 0
 233 00aa 466E     		ldr	r6, [r0, #100]
 234 00ac 6E61     		str	r6, [r5, #20]
 235              		.loc 1 67 0
 236 00ae 866E     		ldr	r6, [r0, #104]
 237 00b0 2E62     		str	r6, [r5, #32]
 238              		.loc 1 68 0
 239 00b2 C66E     		ldr	r6, [r0, #108]
 240 00b4 6E62     		str	r6, [r5, #36]
 241              		.loc 1 69 0
 242 00b6 466D     		ldr	r6, [r0, #84]
 243 00b8 2E60     		str	r6, [r5]
 244              	.LVL5:
 245              	.LBE40:
 246              	.LBE64:
 247              	.LBB65:
 248              	.LBB44:
 249              		.loc 1 63 0
 250 00ba 456F     		ldr	r5, [r0, #116]
 251 00bc 6560     		str	r5, [r4, #4]
 252              		.loc 1 64 0
 253 00be 856F     		ldr	r5, [r0, #120]
 254 00c0 A560     		str	r5, [r4, #8]
 255              		.loc 1 65 0
 256 00c2 C56F     		ldr	r5, [r0, #124]
 257 00c4 E560     		str	r5, [r4, #12]
 258              		.loc 1 66 0
 259 00c6 D0F88050 		ldr	r5, [r0, #128]
 260 00ca 6561     		str	r5, [r4, #20]
 261              		.loc 1 67 0
 262 00cc D0F88450 		ldr	r5, [r0, #132]
 263 00d0 2562     		str	r5, [r4, #32]
 264              		.loc 1 68 0
 265 00d2 D0F88850 		ldr	r5, [r0, #136]
 266 00d6 6562     		str	r5, [r4, #36]
 267              		.loc 1 69 0
 268 00d8 056F     		ldr	r5, [r0, #112]
 269 00da 2560     		str	r5, [r4]
 270              	.LVL6:
 271              	.LBE44:
 272              	.LBE65:
 273              	.LBB66:
 274              	.LBB48:
 275              		.loc 1 63 0
 276 00dc D0F89040 		ldr	r4, [r0, #144]
 277 00e0 4C60     		str	r4, [r1, #4]
 278              		.loc 1 64 0
 279 00e2 D0F89440 		ldr	r4, [r0, #148]
 280 00e6 8C60     		str	r4, [r1, #8]
 281              		.loc 1 65 0
 282 00e8 D0F89840 		ldr	r4, [r0, #152]
 283 00ec CC60     		str	r4, [r1, #12]
 284              		.loc 1 66 0
 285 00ee D0F89C40 		ldr	r4, [r0, #156]
ARM GAS  /tmp/ccniVAOn.s 			page 6


 286 00f2 4C61     		str	r4, [r1, #20]
 287              		.loc 1 67 0
 288 00f4 D0F8A040 		ldr	r4, [r0, #160]
 289 00f8 0C62     		str	r4, [r1, #32]
 290              		.loc 1 68 0
 291 00fa D0F8A440 		ldr	r4, [r0, #164]
 292 00fe 4C62     		str	r4, [r1, #36]
 293              		.loc 1 69 0
 294 0100 D0F88C40 		ldr	r4, [r0, #140]
 295 0104 0C60     		str	r4, [r1]
 296              	.LVL7:
 297              	.LBE48:
 298              	.LBE66:
 299              	.LBB67:
 300              	.LBB52:
 301              		.loc 1 63 0
 302 0106 D0F8AC10 		ldr	r1, [r0, #172]
 303 010a 5160     		str	r1, [r2, #4]
 304              		.loc 1 64 0
 305 010c D0F8B010 		ldr	r1, [r0, #176]
 306 0110 9160     		str	r1, [r2, #8]
 307              		.loc 1 65 0
 308 0112 D0F8B410 		ldr	r1, [r0, #180]
 309 0116 D160     		str	r1, [r2, #12]
 310              		.loc 1 66 0
 311 0118 D0F8B810 		ldr	r1, [r0, #184]
 312 011c 5161     		str	r1, [r2, #20]
 313              		.loc 1 67 0
 314 011e D0F8BC10 		ldr	r1, [r0, #188]
 315 0122 1162     		str	r1, [r2, #32]
 316              		.loc 1 68 0
 317 0124 D0F8C010 		ldr	r1, [r0, #192]
 318 0128 5162     		str	r1, [r2, #36]
 319              		.loc 1 69 0
 320 012a D0F8A810 		ldr	r1, [r0, #168]
 321 012e 1160     		str	r1, [r2]
 322              	.LVL8:
 323              	.LBE52:
 324              	.LBE67:
 325              	.LBB68:
 326              	.LBB56:
 327              		.loc 1 63 0
 328 0130 D0F8C820 		ldr	r2, [r0, #200]
 329 0134 CCF80420 		str	r2, [ip, #4]
 330              		.loc 1 64 0
 331 0138 D0F8CC20 		ldr	r2, [r0, #204]
 332 013c CCF80820 		str	r2, [ip, #8]
 333              		.loc 1 65 0
 334 0140 D0F8D020 		ldr	r2, [r0, #208]
 335 0144 CCF80C20 		str	r2, [ip, #12]
 336              		.loc 1 66 0
 337 0148 D0F8D420 		ldr	r2, [r0, #212]
 338 014c CCF81420 		str	r2, [ip, #20]
 339              		.loc 1 67 0
 340 0150 D0F8D820 		ldr	r2, [r0, #216]
 341 0154 CCF82020 		str	r2, [ip, #32]
 342              		.loc 1 68 0
ARM GAS  /tmp/ccniVAOn.s 			page 7


 343 0158 D0F8DC20 		ldr	r2, [r0, #220]
 344 015c CCF82420 		str	r2, [ip, #36]
 345              		.loc 1 69 0
 346 0160 D0F8C420 		ldr	r2, [r0, #196]
 347 0164 CCF80020 		str	r2, [ip]
 348              	.LVL9:
 349              	.LBE56:
 350              	.LBE68:
 351              	.LBB69:
 352              	.LBB60:
 353              		.loc 1 63 0
 354 0168 D0F8E430 		ldr	r3, [r0, #228]
 355 016c 7B60     		str	r3, [r7, #4]
 356              		.loc 1 64 0
 357 016e D0F8E830 		ldr	r3, [r0, #232]
 358 0172 BB60     		str	r3, [r7, #8]
 359              		.loc 1 65 0
 360 0174 D0F8EC30 		ldr	r3, [r0, #236]
 361 0178 FB60     		str	r3, [r7, #12]
 362              		.loc 1 66 0
 363 017a D0F8F030 		ldr	r3, [r0, #240]
 364 017e 7B61     		str	r3, [r7, #20]
 365              		.loc 1 67 0
 366 0180 D0F8F430 		ldr	r3, [r0, #244]
 367 0184 3B62     		str	r3, [r7, #32]
 368              		.loc 1 68 0
 369 0186 D0F8F830 		ldr	r3, [r0, #248]
 370 018a 7B62     		str	r3, [r7, #36]
 371              		.loc 1 69 0
 372 018c D0F8E030 		ldr	r3, [r0, #224]
 373 0190 3B60     		str	r3, [r7]
 374 0192 BDE8F081 		pop	{r4, r5, r6, r7, r8, pc}
 375              	.L4:
 376 0196 00BF     		.align	2
 377              	.L3:
 378 0198 00380240 		.word	1073887232
 379 019c 00080240 		.word	1073874944
 380 01a0 000C0240 		.word	1073875968
 381 01a4 00100240 		.word	1073876992
 382 01a8 00140240 		.word	1073878016
 383 01ac 00180240 		.word	1073879040
 384 01b0 00200240 		.word	1073881088
 385 01b4 00000240 		.word	1073872896
 386 01b8 00040240 		.word	1073873920
 387 01bc 001C0240 		.word	1073880064
 388              	.LBE60:
 389              	.LBE69:
 390              		.cfi_endproc
 391              	.LFE208:
 392              		.size	_pal_lld_init, .-_pal_lld_init
 393              		.section	.text._pal_lld_setgroupmode,"ax",%progbits
 394              		.align	2
 395              		.p2align 4,,15
 396              		.global	_pal_lld_setgroupmode
 397              		.thumb
 398              		.thumb_func
 399              		.type	_pal_lld_setgroupmode, %function
ARM GAS  /tmp/ccniVAOn.s 			page 8


 400              	_pal_lld_setgroupmode:
 401              	.LFB209:
 402              		.loc 1 161 0
 403              		.cfi_startproc
 404              		@ args = 0, pretend = 0, frame = 0
 405              		@ frame_needed = 0, uses_anonymous_args = 0
 406              	.LVL10:
 407 0000 2DE9F04F 		push	{r4, r5, r6, r7, r8, r9, r10, fp, lr}
 408              		.cfi_def_cfa_offset 36
 409              		.cfi_offset 4, -36
 410              		.cfi_offset 5, -32
 411              		.cfi_offset 6, -28
 412              		.cfi_offset 7, -24
 413              		.cfi_offset 8, -20
 414              		.cfi_offset 9, -16
 415              		.cfi_offset 10, -12
 416              		.cfi_offset 11, -8
 417              		.cfi_offset 14, -4
 418              		.loc 1 166 0
 419 0004 C2F3411C 		ubfx	ip, r2, #5, #2
 420              		.loc 1 163 0
 421 0008 02F0030E 		and	lr, r2, #3
 422              	.LVL11:
 423              		.loc 1 164 0
 424 000c C2F38009 		ubfx	r9, r2, #2, #1
 425              	.LVL12:
 426              		.loc 1 165 0
 427 0010 C2F3C108 		ubfx	r8, r2, #3, #2
 428              	.LVL13:
 429              		.loc 1 168 0
 430 0014 0027     		movs	r7, #0
 431              		.loc 1 167 0
 432 0016 C2F3C312 		ubfx	r2, r2, #7, #4
 433              	.LVL14:
 434              	.LBB70:
 435              		.loc 1 176 0
 436 001a 4FF00F0B 		mov	fp, #15
 437              		.loc 1 174 0
 438 001e 4FF0010A 		mov	r10, #1
 439 0022 0FE0     		b	.L12
 440              	.LVL15:
 441              	.L19:
 442              		.loc 1 194 0
 443 0024 046A     		ldr	r4, [r0, #32]
 444 0026 24EA0303 		bic	r3, r4, r3
 445              	.LVL16:
 446 002a 1D43     		orrs	r5, r5, r3
 447              	.LVL17:
 448 002c 0562     		str	r5, [r0, #32]
 449              	.LVL18:
 450              	.L6:
 451              	.LBE70:
 452              		.loc 1 200 0
 453 002e 4908     		lsrs	r1, r1, #1
 454              	.LVL19:
 455 0030 3AD0     		beq	.L5
 456              	.LVL20:
ARM GAS  /tmp/ccniVAOn.s 			page 9


 457              	.L20:
 458              		.loc 1 202 0
 459 0032 4FEA4909 		lsl	r9, r9, #1
 460              	.LVL21:
 461              		.loc 1 203 0
 462 0036 4FEA8808 		lsl	r8, r8, #2
 463              	.LVL22:
 464              		.loc 1 204 0
 465 003a 4FEA8C0C 		lsl	ip, ip, #2
 466              	.LVL23:
 467              		.loc 1 205 0
 468 003e 4FEA8E0E 		lsl	lr, lr, #2
 469              	.LVL24:
 470              		.loc 1 206 0
 471 0042 0137     		adds	r7, r7, #1
 472              	.LVL25:
 473              	.L12:
 474              		.loc 1 170 0
 475 0044 CB07     		lsls	r3, r1, #31
 476 0046 F2D5     		bpl	.L6
 477 0048 7B00     		lsls	r3, r7, #1
 478              	.LBB71:
 479              		.loc 1 175 0
 480 004a 0324     		movs	r4, #3
 481 004c 9C40     		lsls	r4, r4, r3
 482              		.loc 1 178 0
 483 004e E443     		mvns	r4, r4
 484              		.loc 1 177 0
 485 0050 4368     		ldr	r3, [r0, #4]
 486              		.loc 1 174 0
 487 0052 0AFA07F5 		lsl	r5, r10, r7
 488              		.loc 1 177 0
 489 0056 23EA0503 		bic	r3, r3, r5
 490 005a 43EA0903 		orr	r3, r3, r9
 491 005e 4360     		str	r3, [r0, #4]
 492              		.loc 1 178 0
 493 0060 8568     		ldr	r5, [r0, #8]
 494              		.loc 1 173 0
 495 0062 07F00703 		and	r3, r7, #7
 496              		.loc 1 178 0
 497 0066 2540     		ands	r5, r5, r4
 498 0068 45EA0805 		orr	r5, r5, r8
 499 006c 8560     		str	r5, [r0, #8]
 500              		.loc 1 179 0
 501 006e C568     		ldr	r5, [r0, #12]
 502              		.loc 1 173 0
 503 0070 9B00     		lsls	r3, r3, #2
 504              		.loc 1 179 0
 505 0072 2540     		ands	r5, r5, r4
 506 0074 45EA0C05 		orr	r5, r5, ip
 507              		.loc 1 180 0
 508 0078 BEF1020F 		cmp	lr, #2
 509              		.loc 1 179 0
 510 007c C560     		str	r5, [r0, #12]
 511              		.loc 1 173 0
 512 007e 02FA03F5 		lsl	r5, r2, r3
 513              	.LVL26:
ARM GAS  /tmp/ccniVAOn.s 			page 10


 514              		.loc 1 176 0
 515 0082 0BFA03F3 		lsl	r3, fp, r3
 516              	.LVL27:
 517              		.loc 1 180 0
 518 0086 11D0     		beq	.L18
 519              		.loc 1 192 0
 520 0088 0668     		ldr	r6, [r0]
 521              		.loc 1 193 0
 522 008a 072F     		cmp	r7, #7
 523              		.loc 1 192 0
 524 008c 04EA0604 		and	r4, r4, r6
 525              	.LVL28:
 526 0090 44EA0E04 		orr	r4, r4, lr
 527 0094 0460     		str	r4, [r0]
 528              		.loc 1 193 0
 529 0096 C5D9     		bls	.L19
 530              		.loc 1 196 0
 531 0098 446A     		ldr	r4, [r0, #36]
 532              	.LBE71:
 533              		.loc 1 200 0
 534 009a 4908     		lsrs	r1, r1, #1
 535              	.LVL29:
 536              	.LBB72:
 537              		.loc 1 196 0
 538 009c 24EA0303 		bic	r3, r4, r3
 539              	.LVL30:
 540 00a0 45EA0305 		orr	r5, r5, r3
 541              	.LVL31:
 542 00a4 4562     		str	r5, [r0, #36]
 543              	.LBE72:
 544              		.loc 1 200 0
 545 00a6 C4D1     		bne	.L20
 546              	.LVL32:
 547              	.L5:
 548 00a8 BDE8F08F 		pop	{r4, r5, r6, r7, r8, r9, r10, fp, pc}
 549              	.LVL33:
 550              	.L18:
 551              	.LBB73:
 552              		.loc 1 183 0
 553 00ac 072F     		cmp	r7, #7
 554 00ae 0AD8     		bhi	.L8
 555              		.loc 1 184 0
 556 00b0 066A     		ldr	r6, [r0, #32]
 557 00b2 26EA0303 		bic	r3, r6, r3
 558              	.LVL34:
 559 00b6 1D43     		orrs	r5, r5, r3
 560              	.LVL35:
 561 00b8 0562     		str	r5, [r0, #32]
 562              	.L9:
 563              		.loc 1 187 0
 564 00ba 0368     		ldr	r3, [r0]
 565 00bc 1C40     		ands	r4, r4, r3
 566              	.LVL36:
 567 00be 44F00204 		orr	r4, r4, #2
 568 00c2 0460     		str	r4, [r0]
 569 00c4 B3E7     		b	.L6
 570              	.LVL37:
ARM GAS  /tmp/ccniVAOn.s 			page 11


 571              	.L8:
 572              		.loc 1 186 0
 573 00c6 466A     		ldr	r6, [r0, #36]
 574 00c8 26EA0303 		bic	r3, r6, r3
 575              	.LVL38:
 576 00cc 1D43     		orrs	r5, r5, r3
 577              	.LVL39:
 578 00ce 4562     		str	r5, [r0, #36]
 579 00d0 F3E7     		b	.L9
 580              	.LBE73:
 581              		.cfi_endproc
 582              	.LFE209:
 583              		.size	_pal_lld_setgroupmode, .-_pal_lld_setgroupmode
 584 00d2 00BFAFF3 		.text
 584      0080AFF3 
 584      0080AFF3 
 584      0080
 585              	.Letext0:
 586              		.file 2 "/usr/include/newlib/machine/_default_types.h"
 587              		.file 3 "/usr/include/newlib/stdint.h"
 588              		.file 4 "/home/peter/ChibiOS_16.1.4/os/rt/ports/ARMCMx/compilers/GCC/chtypes.h"
 589              		.file 5 "/home/peter/ChibiOS_16.1.4/os/rt/include/chsystypes.h"
 590              		.file 6 "/home/peter/ChibiOS_16.1.4/os/rt/include/chschd.h"
 591              		.file 7 "/home/peter/ChibiOS_16.1.4/os/ext/CMSIS/ST/STM32F2xx/stm32f205xx.h"
 592              		.file 8 "/home/peter/ChibiOS_16.1.4/os/rt/ports/ARMCMx/chcore.h"
 593              		.file 9 "/home/peter/ChibiOS_16.1.4/os/rt/ports/ARMCMx/chcore_v7m.h"
 594              		.file 10 "/home/peter/ChibiOS_16.1.4/os/rt/include/chtm.h"
 595              		.file 11 "/home/peter/ChibiOS_16.1.4/os/rt/include/chsem.h"
 596              		.file 12 "/home/peter/ChibiOS_16.1.4/os/rt/include/chmtx.h"
 597              		.file 13 "/home/peter/ChibiOS_16.1.4/os/hal/ports/STM32/LLD/GPIOv2/pal_lld.h"
 598              		.file 14 "/home/peter/ChibiOS_16.1.4/os/ext/CMSIS/include/core_cm3.h"