ARM GAS  /tmp/ccj3oWB4.s 			page 1


   1              		.syntax unified
   2              		.cpu cortex-m3
   3              		.fpu softvfp
   4              		.eabi_attribute 20, 1
   5              		.eabi_attribute 21, 1
   6              		.eabi_attribute 23, 3
   7              		.eabi_attribute 24, 1
   8              		.eabi_attribute 25, 1
   9              		.eabi_attribute 26, 1
  10              		.eabi_attribute 30, 2
  11              		.eabi_attribute 34, 1
  12              		.eabi_attribute 18, 4
  13              		.thumb
  14              		.file	"pwm_lld.c"
  15              		.text
  16              	.Ltext0:
  17              		.cfi_sections	.debug_frame
  18              		.section	.text.pwm_lld_init,"ax",%progbits
  19              		.align	2
  20              		.p2align 4,,15
  21              		.global	pwm_lld_init
  22              		.thumb
  23              		.thumb_func
  24              		.type	pwm_lld_init, %function
  25              	pwm_lld_init:
  26              	.LFB208:
  27              		.file 1 "/home/peter/ChibiOS_16.1.4/os/hal/ports/STM32/LLD/TIMv1/pwm_lld.c"
  28              		.loc 1 307 0
  29              		.cfi_startproc
  30              		@ args = 0, pretend = 0, frame = 0
  31              		@ frame_needed = 0, uses_anonymous_args = 0
  32 0000 10B5     		push	{r4, lr}
  33              		.cfi_def_cfa_offset 8
  34              		.cfi_offset 4, -8
  35              		.cfi_offset 14, -4
  36              		.loc 1 332 0
  37 0002 044C     		ldr	r4, .L3
  38 0004 2046     		mov	r0, r4
  39 0006 FFF7FEFF 		bl	pwmObjectInit
  40              	.LVL0:
  41              		.loc 1 334 0
  42 000a 034B     		ldr	r3, .L3+4
  43              		.loc 1 333 0
  44 000c 0422     		movs	r2, #4
  45 000e 2274     		strb	r2, [r4, #16]
  46              		.loc 1 334 0
  47 0010 A361     		str	r3, [r4, #24]
  48 0012 10BD     		pop	{r4, pc}
  49              	.L4:
  50              		.align	2
  51              	.L3:
  52 0014 00000000 		.word	.LANCHOR0
  53 0018 00080040 		.word	1073743872
  54              		.cfi_endproc
  55              	.LFE208:
  56              		.size	pwm_lld_init, .-pwm_lld_init
  57 001c AFF30080 		.section	.text.pwm_lld_start,"ax",%progbits
ARM GAS  /tmp/ccj3oWB4.s 			page 2


  58              		.align	2
  59              		.p2align 4,,15
  60              		.global	pwm_lld_start
  61              		.thumb
  62              		.thumb_func
  63              		.type	pwm_lld_start, %function
  64              	pwm_lld_start:
  65              	.LFB209:
  66              		.loc 1 368 0
  67              		.cfi_startproc
  68              		@ args = 0, pretend = 0, frame = 0
  69              		@ frame_needed = 0, uses_anonymous_args = 0
  70              	.LVL1:
  71 0000 38B5     		push	{r3, r4, r5, lr}
  72              		.cfi_def_cfa_offset 16
  73              		.cfi_offset 3, -16
  74              		.cfi_offset 4, -12
  75              		.cfi_offset 5, -8
  76              		.cfi_offset 14, -4
  77              		.loc 1 372 0
  78 0002 0378     		ldrb	r3, [r0]	@ zero_extendqisi2
  79              		.loc 1 368 0
  80 0004 0446     		mov	r4, r0
  81              		.loc 1 372 0
  82 0006 012B     		cmp	r3, #1
  83 0008 4BD0     		beq	.L34
  84              		.loc 1 494 0
  85 000a 8369     		ldr	r3, [r0, #24]
  86 000c 0022     		movs	r2, #0
  87 000e 1A60     		str	r2, [r3]
  88              		.loc 1 495 0
  89 0010 5A63     		str	r2, [r3, #52]
  90              		.loc 1 496 0
  91 0012 9A63     		str	r2, [r3, #56]
  92              		.loc 1 497 0
  93 0014 DA63     		str	r2, [r3, #60]
  94              		.loc 1 498 0
  95 0016 1A64     		str	r2, [r3, #64]
  96              		.loc 1 505 0
  97 0018 5A62     		str	r2, [r3, #36]
  98              	.LVL2:
  99              	.L8:
 100              		.loc 1 509 0
 101 001a 6168     		ldr	r1, [r4, #4]
 102 001c 6269     		ldr	r2, [r4, #20]
 103 001e 0868     		ldr	r0, [r1]
 104              		.loc 1 514 0
 105 0020 A468     		ldr	r4, [r4, #8]
 106              	.LVL3:
 107              		.loc 1 509 0
 108 0022 B2FBF0F0 		udiv	r0, r2, r0
 109              		.loc 1 519 0
 110 0026 CA68     		ldr	r2, [r1, #12]
 111              		.loc 1 515 0
 112 0028 CD6A     		ldr	r5, [r1, #44]
 113              		.loc 1 519 0
 114 002a 02F00F02 		and	r2, r2, #15
ARM GAS  /tmp/ccj3oWB4.s 			page 3


 115              		.loc 1 509 0
 116 002e 0138     		subs	r0, r0, #1
 117              	.LVL4:
 118              		.loc 1 514 0
 119 0030 013C     		subs	r4, r4, #1
 120              		.loc 1 519 0
 121 0032 012A     		cmp	r2, #1
 122              		.loc 1 513 0
 123 0034 9862     		str	r0, [r3, #40]
 124              		.loc 1 514 0
 125 0036 DC62     		str	r4, [r3, #44]
 126              		.loc 1 515 0
 127 0038 5D60     		str	r5, [r3, #4]
 128              	.LVL5:
 129              		.loc 1 519 0
 130 003a 03D0     		beq	.L9
 131              		.loc 1 518 0
 132 003c 022A     		cmp	r2, #2
 133 003e 0CBF     		ite	eq
 134 0040 0322     		moveq	r2, #3
 135 0042 0022     		movne	r2, #0
 136              	.L9:
 137              	.LVL6:
 138              		.loc 1 527 0
 139 0044 4869     		ldr	r0, [r1, #20]
 140              	.LVL7:
 141 0046 00F00F00 		and	r0, r0, #15
 142 004a 0128     		cmp	r0, #1
 143 004c 26D0     		beq	.L13
 144 004e 0228     		cmp	r0, #2
 145 0050 22D0     		beq	.L35
 146              	.L12:
 147              		.loc 1 535 0
 148 0052 C869     		ldr	r0, [r1, #28]
 149 0054 00F00F00 		and	r0, r0, #15
 150 0058 0128     		cmp	r0, #1
 151 005a 1AD0     		beq	.L16
 152 005c 0228     		cmp	r0, #2
 153 005e 16D0     		beq	.L36
 154              	.L15:
 155              		.loc 1 543 0
 156 0060 486A     		ldr	r0, [r1, #36]
 157 0062 00F00F00 		and	r0, r0, #15
 158 0066 0128     		cmp	r0, #1
 159 0068 03D0     		beq	.L19
 160 006a 0228     		cmp	r0, #2
 161 006c 03D1     		bne	.L18
 162              		.loc 1 545 0
 163 006e 42F40052 		orr	r2, r2, #8192
 164              	.LVL8:
 165              	.L19:
 166              		.loc 1 547 0
 167 0072 42F48052 		orr	r2, r2, #4096
 168              	.LVL9:
 169              	.L18:
 170              		.loc 1 591 0
 171 0076 096B     		ldr	r1, [r1, #48]
ARM GAS  /tmp/ccj3oWB4.s 			page 4


 172              	.LVL10:
 173              		.loc 1 589 0
 174 0078 0125     		movs	r5, #1
 175              		.loc 1 591 0
 176 007a 21F0FF01 		bic	r1, r1, #255
 177              		.loc 1 590 0
 178 007e 0024     		movs	r4, #0
 179              		.loc 1 601 0
 180 0080 8520     		movs	r0, #133
 181              		.loc 1 588 0
 182 0082 1A62     		str	r2, [r3, #32]
 183              		.loc 1 589 0
 184 0084 5D61     		str	r5, [r3, #20]
 185              		.loc 1 590 0
 186 0086 1C61     		str	r4, [r3, #16]
 187              		.loc 1 591 0
 188 0088 D960     		str	r1, [r3, #12]
 189              		.loc 1 601 0
 190 008a 1860     		str	r0, [r3]
 191 008c 38BD     		pop	{r3, r4, r5, pc}
 192              	.LVL11:
 193              	.L36:
 194              		.loc 1 537 0
 195 008e 42F40072 		orr	r2, r2, #512
 196              	.LVL12:
 197              	.L16:
 198              		.loc 1 539 0
 199 0092 42F48072 		orr	r2, r2, #256
 200              	.LVL13:
 201 0096 E3E7     		b	.L15
 202              	.L35:
 203              		.loc 1 529 0
 204 0098 42F02002 		orr	r2, r2, #32
 205              	.LVL14:
 206              	.L13:
 207              		.loc 1 531 0
 208 009c 42F01002 		orr	r2, r2, #16
 209              	.LVL15:
 210 00a0 D7E7     		b	.L12
 211              	.LVL16:
 212              	.L34:
 213              		.loc 1 421 0
 214 00a2 0D4B     		ldr	r3, .L38
 215 00a4 9842     		cmp	r0, r3
 216 00a6 05D0     		beq	.L37
 217              	.LVL17:
 218              	.L7:
 219              		.loc 1 483 0
 220 00a8 46F66802 		movw	r2, #26728
 221 00ac A369     		ldr	r3, [r4, #24]
 222 00ae 9A61     		str	r2, [r3, #24]
 223              		.loc 1 485 0
 224 00b0 DA61     		str	r2, [r3, #28]
 225 00b2 B2E7     		b	.L8
 226              	.LVL18:
 227              	.L37:
 228              		.loc 1 422 0
ARM GAS  /tmp/ccj3oWB4.s 			page 5


 229 00b4 094B     		ldr	r3, .L38+4
 230              		.loc 1 423 0
 231 00b6 0025     		movs	r5, #0
 232              		.loc 1 422 0
 233 00b8 1A6C     		ldr	r2, [r3, #64]
 234              		.loc 1 425 0
 235 00ba 1E20     		movs	r0, #30
 236              	.LVL19:
 237              		.loc 1 422 0
 238 00bc 42F00402 		orr	r2, r2, #4
 239 00c0 1A64     		str	r2, [r3, #64]
 240              		.loc 1 423 0
 241 00c2 1A6A     		ldr	r2, [r3, #32]
 242              		.loc 1 425 0
 243 00c4 0721     		movs	r1, #7
 244              		.loc 1 423 0
 245 00c6 42F00402 		orr	r2, r2, #4
 246 00ca 1A62     		str	r2, [r3, #32]
 247 00cc 1D62     		str	r5, [r3, #32]
 248              		.loc 1 425 0
 249 00ce FFF7FEFF 		bl	nvicEnableVector
 250              	.LVL20:
 251              		.loc 1 430 0
 252 00d2 034B     		ldr	r3, .L38+8
 253 00d4 6361     		str	r3, [r4, #20]
 254 00d6 E7E7     		b	.L7
 255              	.L39:
 256              		.align	2
 257              	.L38:
 258 00d8 00000000 		.word	.LANCHOR0
 259 00dc 00380240 		.word	1073887232
 260 00e0 E0707200 		.word	7500000
 261              		.cfi_endproc
 262              	.LFE209:
 263              		.size	pwm_lld_start, .-pwm_lld_start
 264 00e4 AFF30080 		.section	.text.pwm_lld_stop,"ax",%progbits
 264      AFF30080 
 264      AFF30080 
 265              		.align	2
 266              		.p2align 4,,15
 267              		.global	pwm_lld_stop
 268              		.thumb
 269              		.thumb_func
 270              		.type	pwm_lld_stop, %function
 271              	pwm_lld_stop:
 272              	.LFB210:
 273              		.loc 1 612 0
 274              		.cfi_startproc
 275              		@ args = 0, pretend = 0, frame = 0
 276              		@ frame_needed = 0, uses_anonymous_args = 0
 277              	.LVL21:
 278 0000 08B5     		push	{r3, lr}
 279              		.cfi_def_cfa_offset 8
 280              		.cfi_offset 3, -8
 281              		.cfi_offset 14, -4
 282              		.loc 1 615 0
 283 0002 0378     		ldrb	r3, [r0]	@ zero_extendqisi2
ARM GAS  /tmp/ccj3oWB4.s 			page 6


 284 0004 022B     		cmp	r3, #2
 285 0006 00D0     		beq	.L45
 286              	.LVL22:
 287              	.L40:
 288 0008 08BD     		pop	{r3, pc}
 289              	.LVL23:
 290              	.L45:
 291              		.loc 1 652 0
 292 000a 0849     		ldr	r1, .L46
 293              		.loc 1 616 0
 294 000c 8369     		ldr	r3, [r0, #24]
 295 000e 0022     		movs	r2, #0
 296              		.loc 1 652 0
 297 0010 8842     		cmp	r0, r1
 298              		.loc 1 616 0
 299 0012 1A60     		str	r2, [r3]
 300              		.loc 1 617 0
 301 0014 DA60     		str	r2, [r3, #12]
 302              		.loc 1 618 0
 303 0016 1A61     		str	r2, [r3, #16]
 304              		.loc 1 652 0
 305 0018 F6D1     		bne	.L40
 306              		.loc 1 654 0
 307 001a 1E20     		movs	r0, #30
 308              	.LVL24:
 309 001c FFF7FEFF 		bl	nvicDisableVector
 310              	.LVL25:
 311              		.loc 1 656 0
 312 0020 034A     		ldr	r2, .L46+4
 313 0022 136C     		ldr	r3, [r2, #64]
 314 0024 23F00403 		bic	r3, r3, #4
 315 0028 1364     		str	r3, [r2, #64]
 316 002a EDE7     		b	.L40
 317              	.L47:
 318              		.align	2
 319              	.L46:
 320 002c 00000000 		.word	.LANCHOR0
 321 0030 00380240 		.word	1073887232
 322              		.cfi_endproc
 323              	.LFE210:
 324              		.size	pwm_lld_stop, .-pwm_lld_stop
 325 0034 AFF30080 		.section	.text.pwm_lld_enable_channel,"ax",%progbits
 325      AFF30080 
 325      AFF30080 
 326              		.align	2
 327              		.p2align 4,,15
 328              		.global	pwm_lld_enable_channel
 329              		.thumb
 330              		.thumb_func
 331              		.type	pwm_lld_enable_channel, %function
 332              	pwm_lld_enable_channel:
 333              	.LFB211:
 334              		.loc 1 705 0
 335              		.cfi_startproc
 336              		@ args = 0, pretend = 0, frame = 0
 337              		@ frame_needed = 0, uses_anonymous_args = 0
 338              		@ link register save eliminated.
ARM GAS  /tmp/ccj3oWB4.s 			page 7


 339              	.LVL26:
 340              		.loc 1 709 0
 341 0000 8369     		ldr	r3, [r0, #24]
 342 0002 0C31     		adds	r1, r1, #12
 343              	.LVL27:
 344 0004 03EB8103 		add	r3, r3, r1, lsl #2
 345 0008 5A60     		str	r2, [r3, #4]
 346 000a 7047     		bx	lr
 347              		.cfi_endproc
 348              	.LFE211:
 349              		.size	pwm_lld_enable_channel, .-pwm_lld_enable_channel
 350 000c AFF30080 		.section	.text.pwm_lld_disable_channel,"ax",%progbits
 351              		.align	2
 352              		.p2align 4,,15
 353              		.global	pwm_lld_disable_channel
 354              		.thumb
 355              		.thumb_func
 356              		.type	pwm_lld_disable_channel, %function
 357              	pwm_lld_disable_channel:
 358              	.LFB212:
 359              		.loc 1 730 0
 360              		.cfi_startproc
 361              		@ args = 0, pretend = 0, frame = 0
 362              		@ frame_needed = 0, uses_anonymous_args = 0
 363              		@ link register save eliminated.
 364              	.LVL28:
 365              		.loc 1 733 0
 366 0000 8369     		ldr	r3, [r0, #24]
 367 0002 01F10C02 		add	r2, r1, #12
 368 0006 03EB8202 		add	r2, r3, r2, lsl #2
 369 000a 0020     		movs	r0, #0
 370              	.LVL29:
 371 000c 5060     		str	r0, [r2, #4]
 372              		.loc 1 734 0
 373 000e D868     		ldr	r0, [r3, #12]
 374 0010 0222     		movs	r2, #2
 375 0012 8A40     		lsls	r2, r2, r1
 376 0014 20EA0202 		bic	r2, r0, r2
 377 0018 DA60     		str	r2, [r3, #12]
 378 001a 7047     		bx	lr
 379              		.cfi_endproc
 380              	.LFE212:
 381              		.size	pwm_lld_disable_channel, .-pwm_lld_disable_channel
 382 001c AFF30080 		.section	.text.pwm_lld_enable_periodic_notification,"ax",%progbits
 383              		.align	2
 384              		.p2align 4,,15
 385              		.global	pwm_lld_enable_periodic_notification
 386              		.thumb
 387              		.thumb_func
 388              		.type	pwm_lld_enable_periodic_notification, %function
 389              	pwm_lld_enable_periodic_notification:
 390              	.LFB213:
 391              		.loc 1 754 0
 392              		.cfi_startproc
 393              		@ args = 0, pretend = 0, frame = 0
 394              		@ frame_needed = 0, uses_anonymous_args = 0
 395              		@ link register save eliminated.
ARM GAS  /tmp/ccj3oWB4.s 			page 8


 396              	.LVL30:
 397              		.loc 1 755 0
 398 0000 8369     		ldr	r3, [r0, #24]
 399 0002 DA68     		ldr	r2, [r3, #12]
 400              	.LVL31:
 401              		.loc 1 759 0
 402 0004 D107     		lsls	r1, r2, #31
 403 0006 06D4     		bmi	.L50
 404              		.loc 1 760 0
 405 0008 42F00102 		orr	r2, r2, #1
 406              	.LVL32:
 407 000c DA60     		str	r2, [r3, #12]
 408              		.loc 1 761 0
 409 000e 1A69     		ldr	r2, [r3, #16]
 410 0010 02F00102 		and	r2, r2, #1
 411 0014 1A61     		str	r2, [r3, #16]
 412              	.L50:
 413 0016 7047     		bx	lr
 414              		.cfi_endproc
 415              	.LFE213:
 416              		.size	pwm_lld_enable_periodic_notification, .-pwm_lld_enable_periodic_notification
 417 0018 AFF30080 		.section	.text.pwm_lld_disable_periodic_notification,"ax",%progbits
 417      AFF30080 
 418              		.align	2
 419              		.p2align 4,,15
 420              		.global	pwm_lld_disable_periodic_notification
 421              		.thumb
 422              		.thumb_func
 423              		.type	pwm_lld_disable_periodic_notification, %function
 424              	pwm_lld_disable_periodic_notification:
 425              	.LFB214:
 426              		.loc 1 774 0
 427              		.cfi_startproc
 428              		@ args = 0, pretend = 0, frame = 0
 429              		@ frame_needed = 0, uses_anonymous_args = 0
 430              		@ link register save eliminated.
 431              	.LVL33:
 432              		.loc 1 776 0
 433 0000 8269     		ldr	r2, [r0, #24]
 434 0002 D368     		ldr	r3, [r2, #12]
 435 0004 23F00103 		bic	r3, r3, #1
 436 0008 D360     		str	r3, [r2, #12]
 437 000a 7047     		bx	lr
 438              		.cfi_endproc
 439              	.LFE214:
 440              		.size	pwm_lld_disable_periodic_notification, .-pwm_lld_disable_periodic_notification
 441 000c AFF30080 		.section	.text.pwm_lld_enable_channel_notification,"ax",%progbits
 442              		.align	2
 443              		.p2align 4,,15
 444              		.global	pwm_lld_enable_channel_notification
 445              		.thumb
 446              		.thumb_func
 447              		.type	pwm_lld_enable_channel_notification, %function
 448              	pwm_lld_enable_channel_notification:
 449              	.LFB215:
 450              		.loc 1 791 0
 451              		.cfi_startproc
ARM GAS  /tmp/ccj3oWB4.s 			page 9


 452              		@ args = 0, pretend = 0, frame = 0
 453              		@ frame_needed = 0, uses_anonymous_args = 0
 454              		@ link register save eliminated.
 455              	.LVL34:
 456              		.loc 1 792 0
 457 0000 8069     		ldr	r0, [r0, #24]
 458              	.LVL35:
 459              		.loc 1 801 0
 460 0002 0223     		movs	r3, #2
 461              		.loc 1 792 0
 462 0004 C268     		ldr	r2, [r0, #12]
 463              	.LVL36:
 464              		.loc 1 801 0
 465 0006 8B40     		lsls	r3, r3, r1
 466 0008 1342     		tst	r3, r2
 467 000a 03D1     		bne	.L53
 468              		.loc 1 803 0
 469 000c D943     		mvns	r1, r3
 470              	.LVL37:
 471              		.loc 1 802 0
 472 000e 1343     		orrs	r3, r3, r2
 473 0010 C360     		str	r3, [r0, #12]
 474              		.loc 1 803 0
 475 0012 0161     		str	r1, [r0, #16]
 476              	.L53:
 477 0014 7047     		bx	lr
 478              		.cfi_endproc
 479              	.LFE215:
 480              		.size	pwm_lld_enable_channel_notification, .-pwm_lld_enable_channel_notification
 481 0016 00BFAFF3 		.section	.text.pwm_lld_disable_channel_notification,"ax",%progbits
 481      0080AFF3 
 481      0080
 482              		.align	2
 483              		.p2align 4,,15
 484              		.global	pwm_lld_disable_channel_notification
 485              		.thumb
 486              		.thumb_func
 487              		.type	pwm_lld_disable_channel_notification, %function
 488              	pwm_lld_disable_channel_notification:
 489              	.LFB216:
 490              		.loc 1 819 0
 491              		.cfi_startproc
 492              		@ args = 0, pretend = 0, frame = 0
 493              		@ frame_needed = 0, uses_anonymous_args = 0
 494              		@ link register save eliminated.
 495              	.LVL38:
 496              		.loc 1 821 0
 497 0000 8069     		ldr	r0, [r0, #24]
 498              	.LVL39:
 499 0002 0222     		movs	r2, #2
 500 0004 C368     		ldr	r3, [r0, #12]
 501 0006 8A40     		lsls	r2, r2, r1
 502 0008 23EA0203 		bic	r3, r3, r2
 503 000c C360     		str	r3, [r0, #12]
 504 000e 7047     		bx	lr
 505              		.cfi_endproc
 506              	.LFE216:
ARM GAS  /tmp/ccj3oWB4.s 			page 10


 507              		.size	pwm_lld_disable_channel_notification, .-pwm_lld_disable_channel_notification
 508              		.section	.text.pwm_lld_serve_interrupt,"ax",%progbits
 509              		.align	2
 510              		.p2align 4,,15
 511              		.global	pwm_lld_serve_interrupt
 512              		.thumb
 513              		.thumb_func
 514              		.type	pwm_lld_serve_interrupt, %function
 515              	pwm_lld_serve_interrupt:
 516              	.LFB217:
 517              		.loc 1 834 0
 518              		.cfi_startproc
 519              		@ args = 0, pretend = 0, frame = 0
 520              		@ frame_needed = 0, uses_anonymous_args = 0
 521              	.LVL40:
 522              		.loc 1 837 0
 523 0000 8369     		ldr	r3, [r0, #24]
 524              		.loc 1 834 0
 525 0002 70B5     		push	{r4, r5, r6, lr}
 526              		.cfi_def_cfa_offset 16
 527              		.cfi_offset 4, -16
 528              		.cfi_offset 5, -12
 529              		.cfi_offset 6, -8
 530              		.cfi_offset 14, -4
 531              		.loc 1 837 0
 532 0004 1A69     		ldr	r2, [r3, #16]
 533              	.LVL41:
 534              		.loc 1 838 0
 535 0006 DC68     		ldr	r4, [r3, #12]
 536              		.loc 1 834 0
 537 0008 0546     		mov	r5, r0
 538 000a 1440     		ands	r4, r4, r2
 539              	.LVL42:
 540              		.loc 1 838 0
 541 000c E2B2     		uxtb	r2, r4
 542              		.loc 1 839 0
 543 000e D243     		mvns	r2, r2
 544              		.loc 1 840 0
 545 0010 A607     		lsls	r6, r4, #30
 546              		.loc 1 839 0
 547 0012 1A61     		str	r2, [r3, #16]
 548              		.loc 1 840 0
 549 0014 03D5     		bpl	.L57
 550              		.loc 1 841 0 discriminator 1
 551 0016 4368     		ldr	r3, [r0, #4]
 552 0018 1B69     		ldr	r3, [r3, #16]
 553              		.loc 1 840 0 discriminator 1
 554 001a 03B1     		cbz	r3, .L57
 555              		.loc 1 842 0
 556 001c 9847     		blx	r3
 557              	.LVL43:
 558              	.L57:
 559              		.loc 1 843 0
 560 001e 6007     		lsls	r0, r4, #29
 561 0020 04D5     		bpl	.L58
 562              		.loc 1 844 0 discriminator 1
 563 0022 6B68     		ldr	r3, [r5, #4]
ARM GAS  /tmp/ccj3oWB4.s 			page 11


 564 0024 9B69     		ldr	r3, [r3, #24]
 565              		.loc 1 843 0 discriminator 1
 566 0026 0BB1     		cbz	r3, .L58
 567              		.loc 1 845 0
 568 0028 2846     		mov	r0, r5
 569 002a 9847     		blx	r3
 570              	.LVL44:
 571              	.L58:
 572              		.loc 1 846 0
 573 002c 2107     		lsls	r1, r4, #28
 574 002e 04D5     		bpl	.L59
 575              		.loc 1 847 0 discriminator 1
 576 0030 6B68     		ldr	r3, [r5, #4]
 577 0032 1B6A     		ldr	r3, [r3, #32]
 578              		.loc 1 846 0 discriminator 1
 579 0034 0BB1     		cbz	r3, .L59
 580              		.loc 1 848 0
 581 0036 2846     		mov	r0, r5
 582 0038 9847     		blx	r3
 583              	.LVL45:
 584              	.L59:
 585              		.loc 1 849 0
 586 003a E206     		lsls	r2, r4, #27
 587 003c 04D5     		bpl	.L60
 588              		.loc 1 850 0 discriminator 1
 589 003e 6B68     		ldr	r3, [r5, #4]
 590 0040 9B6A     		ldr	r3, [r3, #40]
 591              		.loc 1 849 0 discriminator 1
 592 0042 0BB1     		cbz	r3, .L60
 593              		.loc 1 851 0
 594 0044 2846     		mov	r0, r5
 595 0046 9847     		blx	r3
 596              	.LVL46:
 597              	.L60:
 598              		.loc 1 852 0
 599 0048 E307     		lsls	r3, r4, #31
 600 004a 06D5     		bpl	.L56
 601              		.loc 1 852 0 is_stmt 0 discriminator 1
 602 004c 6B68     		ldr	r3, [r5, #4]
 603 004e 9B68     		ldr	r3, [r3, #8]
 604 0050 1BB1     		cbz	r3, .L56
 605              		.loc 1 853 0 is_stmt 1
 606 0052 2846     		mov	r0, r5
 607              		.loc 1 854 0
 608 0054 BDE87040 		pop	{r4, r5, r6, lr}
 609              		.cfi_remember_state
 610              		.cfi_restore 14
 611              		.cfi_restore 6
 612              		.cfi_restore 5
 613              		.cfi_restore 4
 614              		.cfi_def_cfa_offset 0
 615              	.LVL47:
 616              		.loc 1 853 0
 617 0058 1847     		bx	r3	@ indirect register sibling call
 618              	.LVL48:
 619              	.L56:
 620              		.cfi_restore_state
ARM GAS  /tmp/ccj3oWB4.s 			page 12


 621 005a 70BD     		pop	{r4, r5, r6, pc}
 622              		.cfi_endproc
 623              	.LFE217:
 624              		.size	pwm_lld_serve_interrupt, .-pwm_lld_serve_interrupt
 625 005c AFF30080 		.section	.text.VectorB8,"ax",%progbits
 626              		.align	2
 627              		.p2align 4,,15
 628              		.global	VectorB8
 629              		.thumb
 630              		.thumb_func
 631              		.type	VectorB8, %function
 632              	VectorB8:
 633              	.LFB207:
 634              		.loc 1 201 0
 635              		.cfi_startproc
 636              		@ args = 0, pretend = 0, frame = 0
 637              		@ frame_needed = 0, uses_anonymous_args = 0
 638 0000 08B5     		push	{r3, lr}
 639              		.cfi_def_cfa_offset 8
 640              		.cfi_offset 3, -8
 641              		.cfi_offset 14, -4
 642              		.loc 1 205 0
 643 0002 0348     		ldr	r0, .L95
 644 0004 FFF7FEFF 		bl	pwm_lld_serve_interrupt
 645              	.LVL49:
 646              		.loc 1 208 0
 647 0008 BDE80840 		pop	{r3, lr}
 648              		.cfi_restore 14
 649              		.cfi_restore 3
 650              		.cfi_def_cfa_offset 0
 651              		.loc 1 207 0
 652 000c FFF7FEBF 		b	_port_irq_epilogue
 653              	.LVL50:
 654              	.L96:
 655              		.align	2
 656              	.L95:
 657 0010 00000000 		.word	.LANCHOR0
 658              		.cfi_endproc
 659              	.LFE207:
 660              		.size	VectorB8, .-VectorB8
 661              		.global	PWMD4
 662 0014 AFF30080 		.section	.bss.PWMD4,"aw",%nobits
 662      AFF30080 
 662      AFF30080 
 663              		.align	2
 664              		.set	.LANCHOR0,. + 0
 665              		.type	PWMD4, %object
 666              		.size	PWMD4, 28
 667              	PWMD4:
 668 0000 00000000 		.space	28
 668      00000000 
 668      00000000 
 668      00000000 
 668      00000000 
 669              		.text
 670              	.Letext0:
 671              		.file 2 "/usr/lib/gcc/arm-none-eabi/4.9.3/include/stddef.h"
ARM GAS  /tmp/ccj3oWB4.s 			page 13


 672              		.file 3 "/usr/include/newlib/machine/_default_types.h"
 673              		.file 4 "/usr/include/newlib/stdint.h"
 674              		.file 5 "/home/peter/ChibiOS_16.1.4/os/rt/ports/ARMCMx/compilers/GCC/chtypes.h"
 675              		.file 6 "/home/peter/ChibiOS_16.1.4/os/rt/include/chsystypes.h"
 676              		.file 7 "/home/peter/ChibiOS_16.1.4/os/rt/include/chschd.h"
 677              		.file 8 "/home/peter/ChibiOS_16.1.4/os/ext/CMSIS/ST/STM32F2xx/stm32f205xx.h"
 678              		.file 9 "/home/peter/ChibiOS_16.1.4/os/rt/ports/ARMCMx/chcore.h"
 679              		.file 10 "/home/peter/ChibiOS_16.1.4/os/rt/ports/ARMCMx/chcore_v7m.h"
 680              		.file 11 "/home/peter/ChibiOS_16.1.4/os/rt/include/chtm.h"
 681              		.file 12 "/home/peter/ChibiOS_16.1.4/os/rt/include/chsem.h"
 682              		.file 13 "/home/peter/ChibiOS_16.1.4/os/rt/include/chmtx.h"
 683              		.file 14 "/home/peter/ChibiOS_16.1.4/os/hal/ports/STM32/LLD/TIMv1/stm32_tim.h"
 684              		.file 15 "/home/peter/ChibiOS_16.1.4/os/hal/include/pwm.h"
 685              		.file 16 "/home/peter/ChibiOS_16.1.4/os/hal/ports/STM32/LLD/TIMv1/pwm_lld.h"
 686              		.file 17 "/home/peter/ChibiOS_16.1.4/os/ext/CMSIS/include/core_cm3.h"
 687              		.file 18 "/home/peter/ChibiOS_16.1.4/os/hal/ports/common/ARMCMx/nvic.h"