ARM GAS  /tmp/cckVcFHu.s 			page 1


   1              		.syntax unified
   2              		.cpu cortex-m3
   3              		.fpu softvfp
   4              		.eabi_attribute 20, 1
   5              		.eabi_attribute 21, 1
   6              		.eabi_attribute 23, 3
   7              		.eabi_attribute 24, 1
   8              		.eabi_attribute 25, 1
   9              		.eabi_attribute 26, 1
  10              		.eabi_attribute 30, 2
  11              		.eabi_attribute 34, 1
  12              		.eabi_attribute 18, 4
  13              		.thumb
  14              		.file	"serial.c"
  15              		.text
  16              	.Ltext0:
  17              		.cfi_sections	.debug_frame
  18              		.section	.text.readt,"ax",%progbits
  19              		.align	2
  20              		.p2align 4,,15
  21              		.thumb
  22              		.thumb_func
  23              		.type	readt, %function
  24              	readt:
  25              	.LFB214:
  26              		.file 1 "/home/peter/ChibiOS_16.1.4/os/hal/src/serial.c"
  27              		.loc 1 87 0
  28              		.cfi_startproc
  29              		@ args = 0, pretend = 0, frame = 0
  30              		@ frame_needed = 0, uses_anonymous_args = 0
  31              		@ link register save eliminated.
  32              	.LVL0:
  33              		.loc 1 89 0
  34 0000 0C30     		adds	r0, r0, #12
  35              	.LVL1:
  36 0002 FFF7FEBF 		b	chIQReadTimeout
  37              	.LVL2:
  38              		.cfi_endproc
  39              	.LFE214:
  40              		.size	readt, .-readt
  41 0006 00BFAFF3 		.section	.text.read,"ax",%progbits
  41      0080AFF3 
  41      0080
  42              		.align	2
  43              		.p2align 4,,15
  44              		.thumb
  45              		.thumb_func
  46              		.type	read, %function
  47              	read:
  48              	.LFB208:
  49              		.loc 1 56 0
  50              		.cfi_startproc
  51              		@ args = 0, pretend = 0, frame = 0
  52              		@ frame_needed = 0, uses_anonymous_args = 0
  53              		@ link register save eliminated.
  54              	.LVL3:
  55              		.loc 1 58 0
ARM GAS  /tmp/cckVcFHu.s 			page 2


  56 0000 0C30     		adds	r0, r0, #12
  57              	.LVL4:
  58 0002 4FF0FF33 		mov	r3, #-1
  59 0006 FFF7FEBF 		b	chIQReadTimeout
  60              	.LVL5:
  61              		.cfi_endproc
  62              	.LFE208:
  63              		.size	read, .-read
  64 000a 00BFAFF3 		.section	.text.writet,"ax",%progbits
  64      0080
  65              		.align	2
  66              		.p2align 4,,15
  67              		.thumb
  68              		.thumb_func
  69              		.type	writet, %function
  70              	writet:
  71              	.LFB213:
  72              		.loc 1 82 0
  73              		.cfi_startproc
  74              		@ args = 0, pretend = 0, frame = 0
  75              		@ frame_needed = 0, uses_anonymous_args = 0
  76              		@ link register save eliminated.
  77              	.LVL6:
  78              		.loc 1 84 0
  79 0000 3030     		adds	r0, r0, #48
  80              	.LVL7:
  81 0002 FFF7FEBF 		b	chOQWriteTimeout
  82              	.LVL8:
  83              		.cfi_endproc
  84              	.LFE213:
  85              		.size	writet, .-writet
  86 0006 00BFAFF3 		.section	.text.write,"ax",%progbits
  86      0080AFF3 
  86      0080
  87              		.align	2
  88              		.p2align 4,,15
  89              		.thumb
  90              		.thumb_func
  91              		.type	write, %function
  92              	write:
  93              	.LFB207:
  94              		.loc 1 50 0
  95              		.cfi_startproc
  96              		@ args = 0, pretend = 0, frame = 0
  97              		@ frame_needed = 0, uses_anonymous_args = 0
  98              		@ link register save eliminated.
  99              	.LVL9:
 100              		.loc 1 52 0
 101 0000 3030     		adds	r0, r0, #48
 102              	.LVL10:
 103 0002 4FF0FF33 		mov	r3, #-1
 104 0006 FFF7FEBF 		b	chOQWriteTimeout
 105              	.LVL11:
 106              		.cfi_endproc
 107              	.LFE207:
 108              		.size	write, .-write
 109 000a 00BFAFF3 		.section	.text.gett,"ax",%progbits
ARM GAS  /tmp/cckVcFHu.s 			page 3


 109      0080
 110              		.align	2
 111              		.p2align 4,,15
 112              		.thumb
 113              		.thumb_func
 114              		.type	gett, %function
 115              	gett:
 116              	.LFB212:
 117              		.loc 1 77 0
 118              		.cfi_startproc
 119              		@ args = 0, pretend = 0, frame = 0
 120              		@ frame_needed = 0, uses_anonymous_args = 0
 121              		@ link register save eliminated.
 122              	.LVL12:
 123              		.loc 1 79 0
 124 0000 0C30     		adds	r0, r0, #12
 125              	.LVL13:
 126 0002 FFF7FEBF 		b	chIQGetTimeout
 127              	.LVL14:
 128              		.cfi_endproc
 129              	.LFE212:
 130              		.size	gett, .-gett
 131 0006 00BFAFF3 		.section	.text.get,"ax",%progbits
 131      0080AFF3 
 131      0080
 132              		.align	2
 133              		.p2align 4,,15
 134              		.thumb
 135              		.thumb_func
 136              		.type	get, %function
 137              	get:
 138              	.LFB210:
 139              		.loc 1 67 0
 140              		.cfi_startproc
 141              		@ args = 0, pretend = 0, frame = 0
 142              		@ frame_needed = 0, uses_anonymous_args = 0
 143              		@ link register save eliminated.
 144              	.LVL15:
 145              		.loc 1 69 0
 146 0000 0C30     		adds	r0, r0, #12
 147              	.LVL16:
 148 0002 4FF0FF31 		mov	r1, #-1
 149 0006 FFF7FEBF 		b	chIQGetTimeout
 150              	.LVL17:
 151              		.cfi_endproc
 152              	.LFE210:
 153              		.size	get, .-get
 154 000a 00BFAFF3 		.section	.text.putt,"ax",%progbits
 154      0080
 155              		.align	2
 156              		.p2align 4,,15
 157              		.thumb
 158              		.thumb_func
 159              		.type	putt, %function
 160              	putt:
 161              	.LFB211:
 162              		.loc 1 72 0
ARM GAS  /tmp/cckVcFHu.s 			page 4


 163              		.cfi_startproc
 164              		@ args = 0, pretend = 0, frame = 0
 165              		@ frame_needed = 0, uses_anonymous_args = 0
 166              		@ link register save eliminated.
 167              	.LVL18:
 168              		.loc 1 74 0
 169 0000 3030     		adds	r0, r0, #48
 170              	.LVL19:
 171 0002 FFF7FEBF 		b	chOQPutTimeout
 172              	.LVL20:
 173              		.cfi_endproc
 174              	.LFE211:
 175              		.size	putt, .-putt
 176 0006 00BFAFF3 		.section	.text.put,"ax",%progbits
 176      0080AFF3 
 176      0080
 177              		.align	2
 178              		.p2align 4,,15
 179              		.thumb
 180              		.thumb_func
 181              		.type	put, %function
 182              	put:
 183              	.LFB209:
 184              		.loc 1 62 0
 185              		.cfi_startproc
 186              		@ args = 0, pretend = 0, frame = 0
 187              		@ frame_needed = 0, uses_anonymous_args = 0
 188              		@ link register save eliminated.
 189              	.LVL21:
 190              		.loc 1 64 0
 191 0000 3030     		adds	r0, r0, #48
 192              	.LVL22:
 193 0002 4FF0FF32 		mov	r2, #-1
 194 0006 FFF7FEBF 		b	chOQPutTimeout
 195              	.LVL23:
 196              		.cfi_endproc
 197              	.LFE209:
 198              		.size	put, .-put
 199 000a 00BFAFF3 		.section	.text.sdInit,"ax",%progbits
 199      0080
 200              		.align	2
 201              		.p2align 4,,15
 202              		.global	sdInit
 203              		.thumb
 204              		.thumb_func
 205              		.type	sdInit, %function
 206              	sdInit:
 207              	.LFB215:
 208              		.loc 1 108 0
 209              		.cfi_startproc
 210              		@ args = 0, pretend = 0, frame = 0
 211              		@ frame_needed = 0, uses_anonymous_args = 0
 212              		@ link register save eliminated.
 213              		.loc 1 110 0
 214 0000 FFF7FEBF 		b	sd_lld_init
 215              	.LVL24:
 216              		.cfi_endproc
ARM GAS  /tmp/cckVcFHu.s 			page 5


 217              	.LFE215:
 218              		.size	sdInit, .-sdInit
 219 0004 AFF30080 		.section	.text.sdObjectInit,"ax",%progbits
 219      AFF30080 
 219      AFF30080 
 220              		.align	2
 221              		.p2align 4,,15
 222              		.global	sdObjectInit
 223              		.thumb
 224              		.thumb_func
 225              		.type	sdObjectInit, %function
 226              	sdObjectInit:
 227              	.LFB216:
 228              		.loc 1 128 0
 229              		.cfi_startproc
 230              		@ args = 0, pretend = 0, frame = 0
 231              		@ frame_needed = 0, uses_anonymous_args = 0
 232              	.LVL25:
 233 0000 30B5     		push	{r4, r5, lr}
 234              		.cfi_def_cfa_offset 12
 235              		.cfi_offset 4, -12
 236              		.cfi_offset 5, -8
 237              		.cfi_offset 14, -4
 238 0002 0446     		mov	r4, r0
 239 0004 1546     		mov	r5, r2
 240 0006 0B46     		mov	r3, r1
 241              		.loc 1 130 0
 242 0008 0C49     		ldr	r1, .L12
 243              	.LVL26:
 244              		.loc 1 128 0
 245 000a 83B0     		sub	sp, sp, #12
 246              		.cfi_def_cfa_offset 24
 247              		.loc 1 130 0
 248 000c 40F8041B 		str	r1, [r0], #4
 249              	.LVL27:
 250              		.loc 1 132 0
 251 0010 0122     		movs	r2, #1
 252              	.LVL28:
 253              		.loc 1 133 0
 254 0012 0094     		str	r4, [sp]
 255 0014 04F15401 		add	r1, r4, #84
 256              	.LBB96:
 257              	.LBB97:
 258              	.LBB98:
 259              		.file 2 "/home/peter/ChibiOS_16.1.4/os/rt/include/chevents.h"
 260              		.loc 2 172 0
 261 0018 6060     		str	r0, [r4, #4]
 262              	.LBE98:
 263              	.LBE97:
 264              	.LBE96:
 265              		.loc 1 132 0
 266 001a 2272     		strb	r2, [r4, #8]
 267              		.loc 1 133 0
 268 001c 04F10C00 		add	r0, r4, #12
 269              	.LVL29:
 270 0020 1022     		movs	r2, #16
 271 0022 FFF7FEFF 		bl	chIQObjectInit
ARM GAS  /tmp/cckVcFHu.s 			page 6


 272              	.LVL30:
 273              		.loc 1 134 0
 274 0026 0094     		str	r4, [sp]
 275 0028 2B46     		mov	r3, r5
 276 002a 04F13000 		add	r0, r4, #48
 277 002e 04F16401 		add	r1, r4, #100
 278 0032 1022     		movs	r2, #16
 279 0034 FFF7FEFF 		bl	chOQObjectInit
 280              	.LVL31:
 281              		.loc 1 135 0
 282 0038 03B0     		add	sp, sp, #12
 283              		.cfi_def_cfa_offset 12
 284              		@ sp needed
 285 003a 30BD     		pop	{r4, r5, pc}
 286              	.LVL32:
 287              	.L13:
 288              		.align	2
 289              	.L12:
 290 003c 00000000 		.word	.LANCHOR0
 291              		.cfi_endproc
 292              	.LFE216:
 293              		.size	sdObjectInit, .-sdObjectInit
 294              		.section	.text.sdStart,"ax",%progbits
 295              		.align	2
 296              		.p2align 4,,15
 297              		.global	sdStart
 298              		.thumb
 299              		.thumb_func
 300              		.type	sdStart, %function
 301              	sdStart:
 302              	.LFB217:
 303              		.loc 1 147 0
 304              		.cfi_startproc
 305              		@ args = 0, pretend = 0, frame = 0
 306              		@ frame_needed = 0, uses_anonymous_args = 0
 307              	.LVL33:
 308 0000 10B5     		push	{r4, lr}
 309              		.cfi_def_cfa_offset 8
 310              		.cfi_offset 4, -8
 311              		.cfi_offset 14, -4
 312              	.LBB99:
 313              	.LBB100:
 314              	.LBB101:
 315              	.LBB102:
 316              	.LBB103:
 317              		.file 3 "/home/peter/ChibiOS_16.1.4/os/ext/CMSIS/include/core_cmFunc.h"
 318              		.loc 3 548 0
 319 0002 2023     		movs	r3, #32
 320              	.LBE103:
 321              	.LBE102:
 322              	.LBE101:
 323              	.LBE100:
 324              	.LBE99:
 325              		.loc 1 147 0
 326 0004 0446     		mov	r4, r0
 327              	.LBB108:
 328              	.LBB107:
ARM GAS  /tmp/cckVcFHu.s 			page 7


 329              	.LBB106:
 330              	.LBB105:
 331              	.LBB104:
 332              		.loc 3 548 0
 333              	@ 548 "/home/peter/ChibiOS_16.1.4/os/ext/CMSIS/include/core_cmFunc.h" 1
 334 0006 83F31188 		MSR basepri, r3
 335              	@ 0 "" 2
 336              		.thumb
 337              	.LBE104:
 338              	.LBE105:
 339              	.LBE106:
 340              	.LBE107:
 341              	.LBE108:
 342              		.loc 1 154 0
 343 000a FFF7FEFF 		bl	sd_lld_start
 344              	.LVL34:
 345              		.loc 1 155 0
 346 000e 0223     		movs	r3, #2
 347 0010 2372     		strb	r3, [r4, #8]
 348              	.LVL35:
 349              	.LBB109:
 350              	.LBB110:
 351              	.LBB111:
 352              	.LBB112:
 353              	.LBB113:
 354              	.LBB114:
 355              		.loc 3 548 0
 356 0012 0023     		movs	r3, #0
 357              	@ 548 "/home/peter/ChibiOS_16.1.4/os/ext/CMSIS/include/core_cmFunc.h" 1
 358 0014 83F31188 		MSR basepri, r3
 359              	@ 0 "" 2
 360              		.thumb
 361 0018 10BD     		pop	{r4, pc}
 362              	.LBE114:
 363              	.LBE113:
 364              	.LBE112:
 365              	.LBE111:
 366              	.LBE110:
 367              	.LBE109:
 368              		.cfi_endproc
 369              	.LFE217:
 370              		.size	sdStart, .-sdStart
 371              		.section	.text.sdStop,"ax",%progbits
 372              		.align	2
 373              		.p2align 4,,15
 374              		.global	sdStop
 375              		.thumb
 376              		.thumb_func
 377              		.type	sdStop, %function
 378              	sdStop:
 379              	.LFB218:
 380              		.loc 1 168 0
 381              		.cfi_startproc
 382              		@ args = 0, pretend = 0, frame = 0
 383              		@ frame_needed = 0, uses_anonymous_args = 0
 384              	.LVL36:
 385 0000 10B5     		push	{r4, lr}
ARM GAS  /tmp/cckVcFHu.s 			page 8


 386              		.cfi_def_cfa_offset 8
 387              		.cfi_offset 4, -8
 388              		.cfi_offset 14, -4
 389              	.LBB115:
 390              	.LBB116:
 391              	.LBB117:
 392              	.LBB118:
 393              	.LBB119:
 394              		.loc 3 548 0
 395 0002 2023     		movs	r3, #32
 396              	.LBE119:
 397              	.LBE118:
 398              	.LBE117:
 399              	.LBE116:
 400              	.LBE115:
 401              		.loc 1 168 0
 402 0004 0446     		mov	r4, r0
 403              	.LBB124:
 404              	.LBB123:
 405              	.LBB122:
 406              	.LBB121:
 407              	.LBB120:
 408              		.loc 3 548 0
 409              	@ 548 "/home/peter/ChibiOS_16.1.4/os/ext/CMSIS/include/core_cmFunc.h" 1
 410 0006 83F31188 		MSR basepri, r3
 411              	@ 0 "" 2
 412              		.thumb
 413              	.LBE120:
 414              	.LBE121:
 415              	.LBE122:
 416              	.LBE123:
 417              	.LBE124:
 418              		.loc 1 175 0
 419 000a FFF7FEFF 		bl	sd_lld_stop
 420              	.LVL37:
 421              		.loc 1 176 0
 422 000e 0123     		movs	r3, #1
 423 0010 2372     		strb	r3, [r4, #8]
 424              		.loc 1 177 0
 425 0012 04F13000 		add	r0, r4, #48
 426 0016 FFF7FEFF 		bl	chOQResetI
 427              	.LVL38:
 428              		.loc 1 178 0
 429 001a 04F10C00 		add	r0, r4, #12
 430 001e FFF7FEFF 		bl	chIQResetI
 431              	.LVL39:
 432              	.LBB125:
 433              	.LBB126:
 434              		.file 4 "/home/peter/ChibiOS_16.1.4/os/hal/osal/rt/osal.h"
 435              		.loc 4 600 0
 436 0022 FFF7FEFF 		bl	chSchRescheduleS
 437              	.LVL40:
 438              	.LBE126:
 439              	.LBE125:
 440              	.LBB127:
 441              	.LBB128:
 442              	.LBB129:
ARM GAS  /tmp/cckVcFHu.s 			page 9


 443              	.LBB130:
 444              	.LBB131:
 445              	.LBB132:
 446              		.loc 3 548 0
 447 0026 0023     		movs	r3, #0
 448              	@ 548 "/home/peter/ChibiOS_16.1.4/os/ext/CMSIS/include/core_cmFunc.h" 1
 449 0028 83F31188 		MSR basepri, r3
 450              	@ 0 "" 2
 451              		.thumb
 452 002c 10BD     		pop	{r4, pc}
 453              	.LBE132:
 454              	.LBE131:
 455              	.LBE130:
 456              	.LBE129:
 457              	.LBE128:
 458              	.LBE127:
 459              		.cfi_endproc
 460              	.LFE218:
 461              		.size	sdStop, .-sdStop
 462 002e 00BF     		.section	.text.sdIncomingDataI,"ax",%progbits
 463              		.align	2
 464              		.p2align 4,,15
 465              		.global	sdIncomingDataI
 466              		.thumb
 467              		.thumb_func
 468              		.type	sdIncomingDataI, %function
 469              	sdIncomingDataI:
 470              	.LFB219:
 471              		.loc 1 199 0
 472              		.cfi_startproc
 473              		@ args = 0, pretend = 0, frame = 0
 474              		@ frame_needed = 0, uses_anonymous_args = 0
 475              	.LVL41:
 476 0000 38B5     		push	{r3, r4, r5, lr}
 477              		.cfi_def_cfa_offset 16
 478              		.cfi_offset 3, -16
 479              		.cfi_offset 4, -12
 480              		.cfi_offset 5, -8
 481              		.cfi_offset 14, -4
 482              	.LBB133:
 483              	.LBB134:
 484              		.file 5 "/home/peter/ChibiOS_16.1.4/os/rt/include/chqueues.h"
 485              		.loc 5 307 0
 486 0002 4369     		ldr	r3, [r0, #20]
 487              	.LBE134:
 488              	.LBE133:
 489              		.loc 1 199 0
 490 0004 0446     		mov	r4, r0
 491              	.LVL42:
 492 0006 0D46     		mov	r5, r1
 493              		.loc 1 204 0
 494 0008 3BB1     		cbz	r3, .L23
 495              		.loc 1 206 0
 496 000a 2946     		mov	r1, r5
 497              	.LVL43:
 498 000c 04F10C00 		add	r0, r4, #12
 499              	.LVL44:
ARM GAS  /tmp/cckVcFHu.s 			page 10


 500 0010 FFF7FEFF 		bl	chIQPutI
 501              	.LVL45:
 502 0014 0028     		cmp	r0, #0
 503 0016 0BDB     		blt	.L24
 504              	.L18:
 505 0018 38BD     		pop	{r3, r4, r5, pc}
 506              	.LVL46:
 507              	.L23:
 508              	.LBB135:
 509              	.LBB136:
 510              		.loc 4 844 0
 511 001a 0430     		adds	r0, r0, #4
 512              	.LVL47:
 513 001c 0421     		movs	r1, #4
 514              	.LVL48:
 515 001e FFF7FEFF 		bl	chEvtBroadcastFlagsI
 516              	.LVL49:
 517              	.LBE136:
 518              	.LBE135:
 519              		.loc 1 206 0
 520 0022 2946     		mov	r1, r5
 521 0024 04F10C00 		add	r0, r4, #12
 522 0028 FFF7FEFF 		bl	chIQPutI
 523              	.LVL50:
 524 002c 0028     		cmp	r0, #0
 525 002e F3DA     		bge	.L18
 526              	.LVL51:
 527              	.L24:
 528              	.LBB137:
 529              	.LBB138:
 530              		.loc 4 844 0
 531 0030 201D     		adds	r0, r4, #4
 532              	.LVL52:
 533 0032 8021     		movs	r1, #128
 534              	.LBE138:
 535              	.LBE137:
 536              		.loc 1 208 0
 537 0034 BDE83840 		pop	{r3, r4, r5, lr}
 538              		.cfi_restore 14
 539              		.cfi_restore 5
 540              		.cfi_restore 4
 541              		.cfi_restore 3
 542              		.cfi_def_cfa_offset 0
 543              	.LVL53:
 544              	.LBB140:
 545              	.LBB139:
 546              		.loc 4 844 0
 547 0038 FFF7FEBF 		b	chEvtBroadcastFlagsI
 548              	.LVL54:
 549              	.LBE139:
 550              	.LBE140:
 551              		.cfi_endproc
 552              	.LFE219:
 553              		.size	sdIncomingDataI, .-sdIncomingDataI
 554 003c AFF30080 		.section	.text.sdRequestDataI,"ax",%progbits
 555              		.align	2
 556              		.p2align 4,,15
ARM GAS  /tmp/cckVcFHu.s 			page 11


 557              		.global	sdRequestDataI
 558              		.thumb
 559              		.thumb_func
 560              		.type	sdRequestDataI, %function
 561              	sdRequestDataI:
 562              	.LFB220:
 563              		.loc 1 225 0
 564              		.cfi_startproc
 565              		@ args = 0, pretend = 0, frame = 0
 566              		@ frame_needed = 0, uses_anonymous_args = 0
 567              	.LVL55:
 568 0000 38B5     		push	{r3, r4, r5, lr}
 569              		.cfi_def_cfa_offset 16
 570              		.cfi_offset 3, -16
 571              		.cfi_offset 4, -12
 572              		.cfi_offset 5, -8
 573              		.cfi_offset 14, -4
 574              		.loc 1 225 0
 575 0002 0446     		mov	r4, r0
 576              		.loc 1 231 0
 577 0004 3030     		adds	r0, r0, #48
 578              	.LVL56:
 579 0006 FFF7FEFF 		bl	chOQGetI
 580              	.LVL57:
 581              		.loc 1 232 0
 582 000a 051E     		subs	r5, r0, #0
 583 000c 01DB     		blt	.L28
 584              		.loc 1 235 0
 585 000e 2846     		mov	r0, r5
 586 0010 38BD     		pop	{r3, r4, r5, pc}
 587              	.LVL58:
 588              	.L28:
 589              	.LBB141:
 590              	.LBB142:
 591              		.loc 4 844 0
 592 0012 201D     		adds	r0, r4, #4
 593              	.LVL59:
 594 0014 0821     		movs	r1, #8
 595 0016 FFF7FEFF 		bl	chEvtBroadcastFlagsI
 596              	.LVL60:
 597              	.LBE142:
 598              	.LBE141:
 599              		.loc 1 235 0
 600 001a 2846     		mov	r0, r5
 601 001c 38BD     		pop	{r3, r4, r5, pc}
 602              		.cfi_endproc
 603              	.LFE220:
 604              		.size	sdRequestDataI, .-sdRequestDataI
 605 001e 00BF     		.section	.text.sdPutWouldBlock,"ax",%progbits
 606              		.align	2
 607              		.p2align 4,,15
 608              		.global	sdPutWouldBlock
 609              		.thumb
 610              		.thumb_func
 611              		.type	sdPutWouldBlock, %function
 612              	sdPutWouldBlock:
 613              	.LFB221:
ARM GAS  /tmp/cckVcFHu.s 			page 12


 614              		.loc 1 252 0
 615              		.cfi_startproc
 616              		@ args = 0, pretend = 0, frame = 0
 617              		@ frame_needed = 0, uses_anonymous_args = 0
 618              		@ link register save eliminated.
 619              	.LVL61:
 620              	.LBB143:
 621              	.LBB144:
 622              	.LBB145:
 623              	.LBB146:
 624              	.LBB147:
 625              		.loc 3 548 0
 626 0000 2023     		movs	r3, #32
 627              	@ 548 "/home/peter/ChibiOS_16.1.4/os/ext/CMSIS/include/core_cmFunc.h" 1
 628 0002 83F31188 		MSR basepri, r3
 629              	@ 0 "" 2
 630              	.LVL62:
 631              		.thumb
 632              	.LBE147:
 633              	.LBE146:
 634              	.LBE145:
 635              	.LBE144:
 636              	.LBE143:
 637              	.LBB148:
 638              	.LBB149:
 639              	.LBB150:
 640              	.LBB151:
 641              	.LBB152:
 642              	.LBB153:
 643 0006 0023     		movs	r3, #0
 644              	.LBE153:
 645              	.LBE152:
 646              	.LBE151:
 647              	.LBE150:
 648              	.LBE149:
 649              	.LBE148:
 650              	.LBB159:
 651              	.LBB160:
 652              		.loc 5 411 0
 653 0008 806B     		ldr	r0, [r0, #56]
 654              	.LVL63:
 655              	.LBE160:
 656              	.LBE159:
 657              	.LBB161:
 658              	.LBB158:
 659              	.LBB157:
 660              	.LBB156:
 661              	.LBB155:
 662              	.LBB154:
 663              		.loc 3 548 0
 664              	@ 548 "/home/peter/ChibiOS_16.1.4/os/ext/CMSIS/include/core_cmFunc.h" 1
 665 000a 83F31188 		MSR basepri, r3
 666              	@ 0 "" 2
 667              		.thumb
 668              	.LBE154:
 669              	.LBE155:
 670              	.LBE156:
ARM GAS  /tmp/cckVcFHu.s 			page 13


 671              	.LBE157:
 672              	.LBE158:
 673              	.LBE161:
 674              		.loc 1 260 0
 675 000e B0FA80F0 		clz	r0, r0
 676 0012 4009     		lsrs	r0, r0, #5
 677 0014 7047     		bx	lr
 678              		.cfi_endproc
 679              	.LFE221:
 680              		.size	sdPutWouldBlock, .-sdPutWouldBlock
 681 0016 00BFAFF3 		.section	.text.sdGetWouldBlock,"ax",%progbits
 681      0080AFF3 
 681      0080
 682              		.align	2
 683              		.p2align 4,,15
 684              		.global	sdGetWouldBlock
 685              		.thumb
 686              		.thumb_func
 687              		.type	sdGetWouldBlock, %function
 688              	sdGetWouldBlock:
 689              	.LFB222:
 690              		.loc 1 277 0
 691              		.cfi_startproc
 692              		@ args = 0, pretend = 0, frame = 0
 693              		@ frame_needed = 0, uses_anonymous_args = 0
 694              		@ link register save eliminated.
 695              	.LVL64:
 696              	.LBB162:
 697              	.LBB163:
 698              	.LBB164:
 699              	.LBB165:
 700              	.LBB166:
 701              		.loc 3 548 0
 702 0000 2023     		movs	r3, #32
 703              	@ 548 "/home/peter/ChibiOS_16.1.4/os/ext/CMSIS/include/core_cmFunc.h" 1
 704 0002 83F31188 		MSR basepri, r3
 705              	@ 0 "" 2
 706              	.LVL65:
 707              		.thumb
 708              	.LBE166:
 709              	.LBE165:
 710              	.LBE164:
 711              	.LBE163:
 712              	.LBE162:
 713              	.LBB167:
 714              	.LBB168:
 715              	.LBB169:
 716              	.LBB170:
 717              	.LBB171:
 718              	.LBB172:
 719 0006 0023     		movs	r3, #0
 720              	.LBE172:
 721              	.LBE171:
 722              	.LBE170:
 723              	.LBE169:
 724              	.LBE168:
 725              	.LBE167:
ARM GAS  /tmp/cckVcFHu.s 			page 14


 726              	.LBB178:
 727              	.LBB179:
 728              		.loc 5 307 0
 729 0008 4069     		ldr	r0, [r0, #20]
 730              	.LVL66:
 731              	.LBE179:
 732              	.LBE178:
 733              	.LBB180:
 734              	.LBB177:
 735              	.LBB176:
 736              	.LBB175:
 737              	.LBB174:
 738              	.LBB173:
 739              		.loc 3 548 0
 740              	@ 548 "/home/peter/ChibiOS_16.1.4/os/ext/CMSIS/include/core_cmFunc.h" 1
 741 000a 83F31188 		MSR basepri, r3
 742              	@ 0 "" 2
 743              		.thumb
 744              	.LBE173:
 745              	.LBE174:
 746              	.LBE175:
 747              	.LBE176:
 748              	.LBE177:
 749              	.LBE180:
 750              		.loc 1 285 0
 751 000e B0FA80F0 		clz	r0, r0
 752 0012 4009     		lsrs	r0, r0, #5
 753 0014 7047     		bx	lr
 754              		.cfi_endproc
 755              	.LFE222:
 756              		.size	sdGetWouldBlock, .-sdGetWouldBlock
 757 0016 00BFAFF3 		.section	.rodata.vmt,"a",%progbits
 757      0080AFF3 
 757      0080
 758              		.align	2
 759              		.set	.LANCHOR0,. + 0
 760              		.type	vmt, %object
 761              		.size	vmt, 32
 762              	vmt:
 763 0000 00000000 		.word	write
 764 0004 00000000 		.word	read
 765 0008 00000000 		.word	put
 766 000c 00000000 		.word	get
 767 0010 00000000 		.word	putt
 768 0014 00000000 		.word	gett
 769 0018 00000000 		.word	writet
 770 001c 00000000 		.word	readt
 771              		.text
 772              	.Letext0:
 773              		.file 6 "/usr/lib/gcc/arm-none-eabi/4.9.3/include/stddef.h"
 774              		.file 7 "/usr/include/newlib/machine/_default_types.h"
 775              		.file 8 "/usr/include/newlib/stdint.h"
 776              		.file 9 "/home/peter/ChibiOS_16.1.4/os/rt/ports/ARMCMx/compilers/GCC/chtypes.h"
 777              		.file 10 "/home/peter/ChibiOS_16.1.4/os/rt/include/chsystypes.h"
 778              		.file 11 "/home/peter/ChibiOS_16.1.4/os/rt/include/chschd.h"
 779              		.file 12 "/home/peter/ChibiOS_16.1.4/os/ext/CMSIS/ST/STM32F2xx/stm32f205xx.h"
 780              		.file 13 "/home/peter/ChibiOS_16.1.4/os/rt/ports/ARMCMx/chcore.h"
ARM GAS  /tmp/cckVcFHu.s 			page 15


 781              		.file 14 "/home/peter/ChibiOS_16.1.4/os/rt/ports/ARMCMx/chcore_v7m.h"
 782              		.file 15 "/home/peter/ChibiOS_16.1.4/os/rt/include/chtm.h"
 783              		.file 16 "/home/peter/ChibiOS_16.1.4/os/rt/include/chsem.h"
 784              		.file 17 "/home/peter/ChibiOS_16.1.4/os/rt/include/chmtx.h"
 785              		.file 18 "/home/peter/ChibiOS_16.1.4/os/hal/include/serial.h"
 786              		.file 19 "/home/peter/ChibiOS_16.1.4/os/hal/ports/STM32/LLD/USARTv1/serial_lld.h"
 787              		.file 20 "/home/peter/ChibiOS_16.1.4/os/rt/include/chsys.h"
 788              		.file 21 "/home/peter/ChibiOS_16.1.4/os/ext/CMSIS/include/core_cm3.h"