ARM GAS  /tmp/cc929eb0.s 			page 1


   1              		.syntax unified
   2              		.cpu cortex-m3
   3              		.fpu softvfp
   4              		.eabi_attribute 20, 1
   5              		.eabi_attribute 21, 1
   6              		.eabi_attribute 23, 3
   7              		.eabi_attribute 24, 1
   8              		.eabi_attribute 25, 1
   9              		.eabi_attribute 26, 1
  10              		.eabi_attribute 30, 2
  11              		.eabi_attribute 34, 1
  12              		.eabi_attribute 18, 4
  13              		.thumb
  14              		.file	"st_lld.c"
  15              		.text
  16              	.Ltext0:
  17              		.cfi_sections	.debug_frame
  18              		.section	.text.SysTick_Handler,"ax",%progbits
  19              		.align	2
  20              		.p2align 4,,15
  21              		.global	SysTick_Handler
  22              		.thumb
  23              		.thumb_func
  24              		.type	SysTick_Handler, %function
  25              	SysTick_Handler:
  26              	.LFB207:
  27              		.file 1 "/home/peter/ChibiOS_16.1.4/os/hal/ports/STM32/LLD/TIMv1/st_lld.c"
  28              		.loc 1 220 0
  29              		.cfi_startproc
  30              		@ args = 0, pretend = 0, frame = 0
  31              		@ frame_needed = 0, uses_anonymous_args = 0
  32              	.LVL0:
  33 0000 08B5     		push	{r3, lr}
  34              		.cfi_def_cfa_offset 8
  35              		.cfi_offset 3, -8
  36              		.cfi_offset 14, -4
  37              	.LBB52:
  38              	.LBB53:
  39              	.LBB54:
  40              	.LBB55:
  41              	.LBB56:
  42              	.LBB57:
  43              		.file 2 "/home/peter/ChibiOS_16.1.4/os/ext/CMSIS/include/core_cmFunc.h"
  44              		.loc 2 548 0
  45 0002 2023     		movs	r3, #32
  46              	@ 548 "/home/peter/ChibiOS_16.1.4/os/ext/CMSIS/include/core_cmFunc.h" 1
  47 0004 83F31188 		MSR basepri, r3
  48              	@ 0 "" 2
  49              		.thumb
  50              	.LBE57:
  51              	.LBE56:
  52              	.LBE55:
  53              	.LBE54:
  54              	.LBE53:
  55              	.LBE52:
  56              	.LBB58:
  57              	.LBB59:
ARM GAS  /tmp/cc929eb0.s 			page 2


  58              		.file 3 "/home/peter/ChibiOS_16.1.4/os/hal/osal/rt/osal.h"
  59              		.loc 3 585 0
  60 0008 FFF7FEFF 		bl	chSysTimerHandlerI
  61              	.LVL1:
  62              	.LBE59:
  63              	.LBE58:
  64              	.LBB60:
  65              	.LBB61:
  66              	.LBB62:
  67              	.LBB63:
  68              	.LBB64:
  69              	.LBB65:
  70              		.loc 2 548 0
  71 000c 0023     		movs	r3, #0
  72              	@ 548 "/home/peter/ChibiOS_16.1.4/os/ext/CMSIS/include/core_cmFunc.h" 1
  73 000e 83F31188 		MSR basepri, r3
  74              	@ 0 "" 2
  75              		.thumb
  76              	.LBE65:
  77              	.LBE64:
  78              	.LBE63:
  79              	.LBE62:
  80              	.LBE61:
  81              	.LBE60:
  82              		.loc 1 229 0
  83 0012 BDE80840 		pop	{r3, lr}
  84              		.cfi_restore 14
  85              		.cfi_restore 3
  86              		.cfi_def_cfa_offset 0
  87              		.loc 1 228 0
  88 0016 FFF7FEBF 		b	_port_irq_epilogue
  89              	.LVL2:
  90              		.cfi_endproc
  91              	.LFE207:
  92              		.size	SysTick_Handler, .-SysTick_Handler
  93 001a 00BFAFF3 		.section	.text.st_lld_init,"ax",%progbits
  93      0080
  94              		.align	2
  95              		.p2align 4,,15
  96              		.global	st_lld_init
  97              		.thumb
  98              		.thumb_func
  99              		.type	st_lld_init, %function
 100              	st_lld_init:
 101              	.LFB208:
 102              		.loc 1 267 0
 103              		.cfi_startproc
 104              		@ args = 0, pretend = 0, frame = 0
 105              		@ frame_needed = 0, uses_anonymous_args = 0
 106              		@ link register save eliminated.
 107              		.loc 1 295 0
 108 0000 40F6B730 		movw	r0, #2999
 109 0004 044B     		ldr	r3, .L4
 110              		.loc 1 296 0
 111 0006 0021     		movs	r1, #0
 112              		.loc 1 297 0
 113 0008 0722     		movs	r2, #7
ARM GAS  /tmp/cc929eb0.s 			page 3


 114              		.loc 1 295 0
 115 000a 5860     		str	r0, [r3, #4]
 116              		.loc 1 296 0
 117 000c 9960     		str	r1, [r3, #8]
 118              		.loc 1 302 0
 119 000e 0B20     		movs	r0, #11
 120 0010 0821     		movs	r1, #8
 121              		.loc 1 297 0
 122 0012 1A60     		str	r2, [r3]
 123              		.loc 1 302 0
 124 0014 FFF7FEBF 		b	nvicSetSystemHandlerPriority
 125              	.LVL3:
 126              	.L5:
 127              		.align	2
 128              	.L4:
 129 0018 10E000E0 		.word	-536813552
 130              		.cfi_endproc
 131              	.LFE208:
 132              		.size	st_lld_init, .-st_lld_init
 133 001c AFF30080 		.text
 134              	.Letext0:
 135              		.file 4 "/usr/include/newlib/machine/_default_types.h"
 136              		.file 5 "/usr/include/newlib/stdint.h"
 137              		.file 6 "/home/peter/ChibiOS_16.1.4/os/rt/ports/ARMCMx/compilers/GCC/chtypes.h"
 138              		.file 7 "/home/peter/ChibiOS_16.1.4/os/rt/include/chsystypes.h"
 139              		.file 8 "/home/peter/ChibiOS_16.1.4/os/rt/include/chschd.h"
 140              		.file 9 "/home/peter/ChibiOS_16.1.4/os/ext/CMSIS/include/core_cm3.h"
 141              		.file 10 "/home/peter/ChibiOS_16.1.4/os/rt/ports/ARMCMx/chcore.h"
 142              		.file 11 "/home/peter/ChibiOS_16.1.4/os/rt/ports/ARMCMx/chcore_v7m.h"
 143              		.file 12 "/home/peter/ChibiOS_16.1.4/os/rt/include/chtm.h"
 144              		.file 13 "/home/peter/ChibiOS_16.1.4/os/rt/include/chsem.h"
 145              		.file 14 "/home/peter/ChibiOS_16.1.4/os/rt/include/chmtx.h"
 146              		.file 15 "/home/peter/ChibiOS_16.1.4/os/rt/include/chsys.h"
 147              		.file 16 "/home/peter/ChibiOS_16.1.4/os/hal/ports/common/ARMCMx/nvic.h"