ARM GAS  /tmp/ccmrylEV.s 			page 1


   1              		.syntax unified
   2              		.cpu cortex-m3
   3              		.fpu softvfp
   4              		.eabi_attribute 20, 1
   5              		.eabi_attribute 21, 1
   6              		.eabi_attribute 23, 3
   7              		.eabi_attribute 24, 1
   8              		.eabi_attribute 25, 1
   9              		.eabi_attribute 26, 1
  10              		.eabi_attribute 30, 2
  11              		.eabi_attribute 34, 1
  12              		.eabi_attribute 18, 4
  13              		.thumb
  14              		.file	"stm32_dma.c"
  15              		.text
  16              	.Ltext0:
  17              		.cfi_sections	.debug_frame
  18              		.section	.text.Vector6C,"ax",%progbits
  19              		.align	2
  20              		.p2align 4,,15
  21              		.global	Vector6C
  22              		.thumb
  23              		.thumb_func
  24              		.type	Vector6C, %function
  25              	Vector6C:
  26              	.LFB207:
  27              		.file 1 "/home/peter/ChibiOS_16.1.4/os/hal/ports/STM32/LLD/DMAv2/stm32_dma.c"
  28              		.loc 1 117 0
  29              		.cfi_startproc
  30              		@ args = 0, pretend = 0, frame = 0
  31              		@ frame_needed = 0, uses_anonymous_args = 0
  32 0000 08B5     		push	{r3, lr}
  33              		.cfi_def_cfa_offset 8
  34              		.cfi_offset 3, -8
  35              		.cfi_offset 14, -4
  36              		.loc 1 122 0
  37 0002 074B     		ldr	r3, .L8
  38              		.loc 1 124 0
  39 0004 074A     		ldr	r2, .L8+4
  40              		.loc 1 122 0
  41 0006 1968     		ldr	r1, [r3]
  42 0008 01F03D01 		and	r1, r1, #61
  43              	.LVL0:
  44              		.loc 1 123 0
  45 000c 9960     		str	r1, [r3, #8]
  46              		.loc 1 124 0
  47 000e 1368     		ldr	r3, [r2]
  48 0010 0BB1     		cbz	r3, .L2
  49              		.loc 1 125 0
  50 0012 5068     		ldr	r0, [r2, #4]
  51 0014 9847     		blx	r3
  52              	.LVL1:
  53              	.L2:
  54              		.loc 1 128 0
  55 0016 BDE80840 		pop	{r3, lr}
  56              		.cfi_restore 14
  57              		.cfi_restore 3
ARM GAS  /tmp/ccmrylEV.s 			page 2


  58              		.cfi_def_cfa_offset 0
  59              		.loc 1 127 0
  60 001a FFF7FEBF 		b	_port_irq_epilogue
  61              	.LVL2:
  62              	.L9:
  63 001e 00BF     		.align	2
  64              	.L8:
  65 0020 00600240 		.word	1073897472
  66 0024 00000000 		.word	.LANCHOR0
  67              		.cfi_endproc
  68              	.LFE207:
  69              		.size	Vector6C, .-Vector6C
  70 0028 AFF30080 		.section	.text.Vector70,"ax",%progbits
  70      AFF30080 
  71              		.align	2
  72              		.p2align 4,,15
  73              		.global	Vector70
  74              		.thumb
  75              		.thumb_func
  76              		.type	Vector70, %function
  77              	Vector70:
  78              	.LFB208:
  79              		.loc 1 135 0
  80              		.cfi_startproc
  81              		@ args = 0, pretend = 0, frame = 0
  82              		@ frame_needed = 0, uses_anonymous_args = 0
  83              		.loc 1 140 0
  84 0000 084B     		ldr	r3, .L16
  85              		.loc 1 142 0
  86 0002 0948     		ldr	r0, .L16+4
  87              		.loc 1 140 0
  88 0004 1968     		ldr	r1, [r3]
  89              		.loc 1 142 0
  90 0006 8268     		ldr	r2, [r0, #8]
  91              		.loc 1 140 0
  92 0008 8909     		lsrs	r1, r1, #6
  93 000a 01F03D01 		and	r1, r1, #61
  94              	.LVL3:
  95              		.loc 1 135 0
  96 000e 10B5     		push	{r4, lr}
  97              		.cfi_def_cfa_offset 8
  98              		.cfi_offset 4, -8
  99              		.cfi_offset 14, -4
 100              		.loc 1 141 0
 101 0010 8C01     		lsls	r4, r1, #6
 102 0012 9C60     		str	r4, [r3, #8]
 103              		.loc 1 142 0
 104 0014 0AB1     		cbz	r2, .L11
 105              		.loc 1 143 0
 106 0016 C068     		ldr	r0, [r0, #12]
 107 0018 9047     		blx	r2
 108              	.LVL4:
 109              	.L11:
 110              		.loc 1 146 0
 111 001a BDE81040 		pop	{r4, lr}
 112              		.cfi_restore 14
 113              		.cfi_restore 4
ARM GAS  /tmp/ccmrylEV.s 			page 3


 114              		.cfi_def_cfa_offset 0
 115              		.loc 1 145 0
 116 001e FFF7FEBF 		b	_port_irq_epilogue
 117              	.LVL5:
 118              	.L17:
 119 0022 00BF     		.align	2
 120              	.L16:
 121 0024 00600240 		.word	1073897472
 122 0028 00000000 		.word	.LANCHOR0
 123              		.cfi_endproc
 124              	.LFE208:
 125              		.size	Vector70, .-Vector70
 126 002c AFF30080 		.section	.text.Vector74,"ax",%progbits
 127              		.align	2
 128              		.p2align 4,,15
 129              		.global	Vector74
 130              		.thumb
 131              		.thumb_func
 132              		.type	Vector74, %function
 133              	Vector74:
 134              	.LFB209:
 135              		.loc 1 153 0
 136              		.cfi_startproc
 137              		@ args = 0, pretend = 0, frame = 0
 138              		@ frame_needed = 0, uses_anonymous_args = 0
 139              		.loc 1 158 0
 140 0000 084B     		ldr	r3, .L24
 141              		.loc 1 160 0
 142 0002 0948     		ldr	r0, .L24+4
 143              		.loc 1 158 0
 144 0004 1968     		ldr	r1, [r3]
 145              		.loc 1 160 0
 146 0006 0269     		ldr	r2, [r0, #16]
 147              		.loc 1 158 0
 148 0008 090C     		lsrs	r1, r1, #16
 149 000a 01F03D01 		and	r1, r1, #61
 150              	.LVL6:
 151              		.loc 1 153 0
 152 000e 10B5     		push	{r4, lr}
 153              		.cfi_def_cfa_offset 8
 154              		.cfi_offset 4, -8
 155              		.cfi_offset 14, -4
 156              		.loc 1 159 0
 157 0010 0C04     		lsls	r4, r1, #16
 158 0012 9C60     		str	r4, [r3, #8]
 159              		.loc 1 160 0
 160 0014 0AB1     		cbz	r2, .L19
 161              		.loc 1 161 0
 162 0016 4069     		ldr	r0, [r0, #20]
 163 0018 9047     		blx	r2
 164              	.LVL7:
 165              	.L19:
 166              		.loc 1 164 0
 167 001a BDE81040 		pop	{r4, lr}
 168              		.cfi_restore 14
 169              		.cfi_restore 4
 170              		.cfi_def_cfa_offset 0
ARM GAS  /tmp/ccmrylEV.s 			page 4


 171              		.loc 1 163 0
 172 001e FFF7FEBF 		b	_port_irq_epilogue
 173              	.LVL8:
 174              	.L25:
 175 0022 00BF     		.align	2
 176              	.L24:
 177 0024 00600240 		.word	1073897472
 178 0028 00000000 		.word	.LANCHOR0
 179              		.cfi_endproc
 180              	.LFE209:
 181              		.size	Vector74, .-Vector74
 182 002c AFF30080 		.section	.text.Vector78,"ax",%progbits
 183              		.align	2
 184              		.p2align 4,,15
 185              		.global	Vector78
 186              		.thumb
 187              		.thumb_func
 188              		.type	Vector78, %function
 189              	Vector78:
 190              	.LFB210:
 191              		.loc 1 171 0
 192              		.cfi_startproc
 193              		@ args = 0, pretend = 0, frame = 0
 194              		@ frame_needed = 0, uses_anonymous_args = 0
 195              		.loc 1 176 0
 196 0000 084B     		ldr	r3, .L32
 197              		.loc 1 178 0
 198 0002 0948     		ldr	r0, .L32+4
 199              		.loc 1 176 0
 200 0004 1968     		ldr	r1, [r3]
 201              		.loc 1 178 0
 202 0006 8269     		ldr	r2, [r0, #24]
 203              		.loc 1 176 0
 204 0008 890D     		lsrs	r1, r1, #22
 205 000a 01F03D01 		and	r1, r1, #61
 206              	.LVL9:
 207              		.loc 1 171 0
 208 000e 10B5     		push	{r4, lr}
 209              		.cfi_def_cfa_offset 8
 210              		.cfi_offset 4, -8
 211              		.cfi_offset 14, -4
 212              		.loc 1 177 0
 213 0010 8C05     		lsls	r4, r1, #22
 214 0012 9C60     		str	r4, [r3, #8]
 215              		.loc 1 178 0
 216 0014 0AB1     		cbz	r2, .L27
 217              		.loc 1 179 0
 218 0016 C069     		ldr	r0, [r0, #28]
 219 0018 9047     		blx	r2
 220              	.LVL10:
 221              	.L27:
 222              		.loc 1 182 0
 223 001a BDE81040 		pop	{r4, lr}
 224              		.cfi_restore 14
 225              		.cfi_restore 4
 226              		.cfi_def_cfa_offset 0
 227              		.loc 1 181 0
ARM GAS  /tmp/ccmrylEV.s 			page 5


 228 001e FFF7FEBF 		b	_port_irq_epilogue
 229              	.LVL11:
 230              	.L33:
 231 0022 00BF     		.align	2
 232              	.L32:
 233 0024 00600240 		.word	1073897472
 234 0028 00000000 		.word	.LANCHOR0
 235              		.cfi_endproc
 236              	.LFE210:
 237              		.size	Vector78, .-Vector78
 238 002c AFF30080 		.section	.text.Vector7C,"ax",%progbits
 239              		.align	2
 240              		.p2align 4,,15
 241              		.global	Vector7C
 242              		.thumb
 243              		.thumb_func
 244              		.type	Vector7C, %function
 245              	Vector7C:
 246              	.LFB211:
 247              		.loc 1 189 0
 248              		.cfi_startproc
 249              		@ args = 0, pretend = 0, frame = 0
 250              		@ frame_needed = 0, uses_anonymous_args = 0
 251 0000 08B5     		push	{r3, lr}
 252              		.cfi_def_cfa_offset 8
 253              		.cfi_offset 3, -8
 254              		.cfi_offset 14, -4
 255              		.loc 1 194 0
 256 0002 074B     		ldr	r3, .L40
 257              		.loc 1 196 0
 258 0004 0748     		ldr	r0, .L40+4
 259              		.loc 1 194 0
 260 0006 5968     		ldr	r1, [r3, #4]
 261              		.loc 1 196 0
 262 0008 026A     		ldr	r2, [r0, #32]
 263              		.loc 1 194 0
 264 000a 01F03D01 		and	r1, r1, #61
 265              	.LVL12:
 266              		.loc 1 195 0
 267 000e D960     		str	r1, [r3, #12]
 268              		.loc 1 196 0
 269 0010 0AB1     		cbz	r2, .L35
 270              		.loc 1 197 0
 271 0012 406A     		ldr	r0, [r0, #36]
 272 0014 9047     		blx	r2
 273              	.LVL13:
 274              	.L35:
 275              		.loc 1 200 0
 276 0016 BDE80840 		pop	{r3, lr}
 277              		.cfi_restore 14
 278              		.cfi_restore 3
 279              		.cfi_def_cfa_offset 0
 280              		.loc 1 199 0
 281 001a FFF7FEBF 		b	_port_irq_epilogue
 282              	.LVL14:
 283              	.L41:
 284 001e 00BF     		.align	2
ARM GAS  /tmp/ccmrylEV.s 			page 6


 285              	.L40:
 286 0020 00600240 		.word	1073897472
 287 0024 00000000 		.word	.LANCHOR0
 288              		.cfi_endproc
 289              	.LFE211:
 290              		.size	Vector7C, .-Vector7C
 291 0028 AFF30080 		.section	.text.Vector80,"ax",%progbits
 291      AFF30080 
 292              		.align	2
 293              		.p2align 4,,15
 294              		.global	Vector80
 295              		.thumb
 296              		.thumb_func
 297              		.type	Vector80, %function
 298              	Vector80:
 299              	.LFB212:
 300              		.loc 1 207 0
 301              		.cfi_startproc
 302              		@ args = 0, pretend = 0, frame = 0
 303              		@ frame_needed = 0, uses_anonymous_args = 0
 304              		.loc 1 212 0
 305 0000 084B     		ldr	r3, .L48
 306              		.loc 1 214 0
 307 0002 0948     		ldr	r0, .L48+4
 308              		.loc 1 212 0
 309 0004 5968     		ldr	r1, [r3, #4]
 310              		.loc 1 214 0
 311 0006 826A     		ldr	r2, [r0, #40]
 312              		.loc 1 212 0
 313 0008 8909     		lsrs	r1, r1, #6
 314 000a 01F03D01 		and	r1, r1, #61
 315              	.LVL15:
 316              		.loc 1 207 0
 317 000e 10B5     		push	{r4, lr}
 318              		.cfi_def_cfa_offset 8
 319              		.cfi_offset 4, -8
 320              		.cfi_offset 14, -4
 321              		.loc 1 213 0
 322 0010 8C01     		lsls	r4, r1, #6
 323 0012 DC60     		str	r4, [r3, #12]
 324              		.loc 1 214 0
 325 0014 0AB1     		cbz	r2, .L43
 326              		.loc 1 215 0
 327 0016 C06A     		ldr	r0, [r0, #44]
 328 0018 9047     		blx	r2
 329              	.LVL16:
 330              	.L43:
 331              		.loc 1 218 0
 332 001a BDE81040 		pop	{r4, lr}
 333              		.cfi_restore 14
 334              		.cfi_restore 4
 335              		.cfi_def_cfa_offset 0
 336              		.loc 1 217 0
 337 001e FFF7FEBF 		b	_port_irq_epilogue
 338              	.LVL17:
 339              	.L49:
 340 0022 00BF     		.align	2
ARM GAS  /tmp/ccmrylEV.s 			page 7


 341              	.L48:
 342 0024 00600240 		.word	1073897472
 343 0028 00000000 		.word	.LANCHOR0
 344              		.cfi_endproc
 345              	.LFE212:
 346              		.size	Vector80, .-Vector80
 347 002c AFF30080 		.section	.text.Vector84,"ax",%progbits
 348              		.align	2
 349              		.p2align 4,,15
 350              		.global	Vector84
 351              		.thumb
 352              		.thumb_func
 353              		.type	Vector84, %function
 354              	Vector84:
 355              	.LFB213:
 356              		.loc 1 225 0
 357              		.cfi_startproc
 358              		@ args = 0, pretend = 0, frame = 0
 359              		@ frame_needed = 0, uses_anonymous_args = 0
 360              		.loc 1 230 0
 361 0000 084B     		ldr	r3, .L56
 362              		.loc 1 232 0
 363 0002 0948     		ldr	r0, .L56+4
 364              		.loc 1 230 0
 365 0004 5968     		ldr	r1, [r3, #4]
 366              		.loc 1 232 0
 367 0006 026B     		ldr	r2, [r0, #48]
 368              		.loc 1 230 0
 369 0008 090C     		lsrs	r1, r1, #16
 370 000a 01F03D01 		and	r1, r1, #61
 371              	.LVL18:
 372              		.loc 1 225 0
 373 000e 10B5     		push	{r4, lr}
 374              		.cfi_def_cfa_offset 8
 375              		.cfi_offset 4, -8
 376              		.cfi_offset 14, -4
 377              		.loc 1 231 0
 378 0010 0C04     		lsls	r4, r1, #16
 379 0012 DC60     		str	r4, [r3, #12]
 380              		.loc 1 232 0
 381 0014 0AB1     		cbz	r2, .L51
 382              		.loc 1 233 0
 383 0016 406B     		ldr	r0, [r0, #52]
 384 0018 9047     		blx	r2
 385              	.LVL19:
 386              	.L51:
 387              		.loc 1 236 0
 388 001a BDE81040 		pop	{r4, lr}
 389              		.cfi_restore 14
 390              		.cfi_restore 4
 391              		.cfi_def_cfa_offset 0
 392              		.loc 1 235 0
 393 001e FFF7FEBF 		b	_port_irq_epilogue
 394              	.LVL20:
 395              	.L57:
 396 0022 00BF     		.align	2
 397              	.L56:
ARM GAS  /tmp/ccmrylEV.s 			page 8


 398 0024 00600240 		.word	1073897472
 399 0028 00000000 		.word	.LANCHOR0
 400              		.cfi_endproc
 401              	.LFE213:
 402              		.size	Vector84, .-Vector84
 403 002c AFF30080 		.section	.text.VectorFC,"ax",%progbits
 404              		.align	2
 405              		.p2align 4,,15
 406              		.global	VectorFC
 407              		.thumb
 408              		.thumb_func
 409              		.type	VectorFC, %function
 410              	VectorFC:
 411              	.LFB214:
 412              		.loc 1 243 0
 413              		.cfi_startproc
 414              		@ args = 0, pretend = 0, frame = 0
 415              		@ frame_needed = 0, uses_anonymous_args = 0
 416              		.loc 1 248 0
 417 0000 084B     		ldr	r3, .L64
 418              		.loc 1 250 0
 419 0002 0948     		ldr	r0, .L64+4
 420              		.loc 1 248 0
 421 0004 5968     		ldr	r1, [r3, #4]
 422              		.loc 1 250 0
 423 0006 826B     		ldr	r2, [r0, #56]
 424              		.loc 1 248 0
 425 0008 890D     		lsrs	r1, r1, #22
 426 000a 01F03D01 		and	r1, r1, #61
 427              	.LVL21:
 428              		.loc 1 243 0
 429 000e 10B5     		push	{r4, lr}
 430              		.cfi_def_cfa_offset 8
 431              		.cfi_offset 4, -8
 432              		.cfi_offset 14, -4
 433              		.loc 1 249 0
 434 0010 8C05     		lsls	r4, r1, #22
 435 0012 DC60     		str	r4, [r3, #12]
 436              		.loc 1 250 0
 437 0014 0AB1     		cbz	r2, .L59
 438              		.loc 1 251 0
 439 0016 C06B     		ldr	r0, [r0, #60]
 440 0018 9047     		blx	r2
 441              	.LVL22:
 442              	.L59:
 443              		.loc 1 254 0
 444 001a BDE81040 		pop	{r4, lr}
 445              		.cfi_restore 14
 446              		.cfi_restore 4
 447              		.cfi_def_cfa_offset 0
 448              		.loc 1 253 0
 449 001e FFF7FEBF 		b	_port_irq_epilogue
 450              	.LVL23:
 451              	.L65:
 452 0022 00BF     		.align	2
 453              	.L64:
 454 0024 00600240 		.word	1073897472
ARM GAS  /tmp/ccmrylEV.s 			page 9


 455 0028 00000000 		.word	.LANCHOR0
 456              		.cfi_endproc
 457              	.LFE214:
 458              		.size	VectorFC, .-VectorFC
 459 002c AFF30080 		.section	.text.Vector120,"ax",%progbits
 460              		.align	2
 461              		.p2align 4,,15
 462              		.global	Vector120
 463              		.thumb
 464              		.thumb_func
 465              		.type	Vector120, %function
 466              	Vector120:
 467              	.LFB215:
 468              		.loc 1 261 0
 469              		.cfi_startproc
 470              		@ args = 0, pretend = 0, frame = 0
 471              		@ frame_needed = 0, uses_anonymous_args = 0
 472 0000 08B5     		push	{r3, lr}
 473              		.cfi_def_cfa_offset 8
 474              		.cfi_offset 3, -8
 475              		.cfi_offset 14, -4
 476              		.loc 1 266 0
 477 0002 074B     		ldr	r3, .L72
 478              		.loc 1 268 0
 479 0004 0748     		ldr	r0, .L72+4
 480              		.loc 1 266 0
 481 0006 1968     		ldr	r1, [r3]
 482              		.loc 1 268 0
 483 0008 026C     		ldr	r2, [r0, #64]
 484              		.loc 1 266 0
 485 000a 01F03D01 		and	r1, r1, #61
 486              	.LVL24:
 487              		.loc 1 267 0
 488 000e 9960     		str	r1, [r3, #8]
 489              		.loc 1 268 0
 490 0010 0AB1     		cbz	r2, .L67
 491              		.loc 1 269 0
 492 0012 406C     		ldr	r0, [r0, #68]
 493 0014 9047     		blx	r2
 494              	.LVL25:
 495              	.L67:
 496              		.loc 1 272 0
 497 0016 BDE80840 		pop	{r3, lr}
 498              		.cfi_restore 14
 499              		.cfi_restore 3
 500              		.cfi_def_cfa_offset 0
 501              		.loc 1 271 0
 502 001a FFF7FEBF 		b	_port_irq_epilogue
 503              	.LVL26:
 504              	.L73:
 505 001e 00BF     		.align	2
 506              	.L72:
 507 0020 00640240 		.word	1073898496
 508 0024 00000000 		.word	.LANCHOR0
 509              		.cfi_endproc
 510              	.LFE215:
 511              		.size	Vector120, .-Vector120
ARM GAS  /tmp/ccmrylEV.s 			page 10


 512 0028 AFF30080 		.section	.text.Vector124,"ax",%progbits
 512      AFF30080 
 513              		.align	2
 514              		.p2align 4,,15
 515              		.global	Vector124
 516              		.thumb
 517              		.thumb_func
 518              		.type	Vector124, %function
 519              	Vector124:
 520              	.LFB216:
 521              		.loc 1 279 0
 522              		.cfi_startproc
 523              		@ args = 0, pretend = 0, frame = 0
 524              		@ frame_needed = 0, uses_anonymous_args = 0
 525              		.loc 1 284 0
 526 0000 084B     		ldr	r3, .L80
 527              		.loc 1 286 0
 528 0002 0948     		ldr	r0, .L80+4
 529              		.loc 1 284 0
 530 0004 1968     		ldr	r1, [r3]
 531              		.loc 1 286 0
 532 0006 826C     		ldr	r2, [r0, #72]
 533              		.loc 1 284 0
 534 0008 8909     		lsrs	r1, r1, #6
 535 000a 01F03D01 		and	r1, r1, #61
 536              	.LVL27:
 537              		.loc 1 279 0
 538 000e 10B5     		push	{r4, lr}
 539              		.cfi_def_cfa_offset 8
 540              		.cfi_offset 4, -8
 541              		.cfi_offset 14, -4
 542              		.loc 1 285 0
 543 0010 8C01     		lsls	r4, r1, #6
 544 0012 9C60     		str	r4, [r3, #8]
 545              		.loc 1 286 0
 546 0014 0AB1     		cbz	r2, .L75
 547              		.loc 1 287 0
 548 0016 C06C     		ldr	r0, [r0, #76]
 549 0018 9047     		blx	r2
 550              	.LVL28:
 551              	.L75:
 552              		.loc 1 290 0
 553 001a BDE81040 		pop	{r4, lr}
 554              		.cfi_restore 14
 555              		.cfi_restore 4
 556              		.cfi_def_cfa_offset 0
 557              		.loc 1 289 0
 558 001e FFF7FEBF 		b	_port_irq_epilogue
 559              	.LVL29:
 560              	.L81:
 561 0022 00BF     		.align	2
 562              	.L80:
 563 0024 00640240 		.word	1073898496
 564 0028 00000000 		.word	.LANCHOR0
 565              		.cfi_endproc
 566              	.LFE216:
 567              		.size	Vector124, .-Vector124
ARM GAS  /tmp/ccmrylEV.s 			page 11


 568 002c AFF30080 		.section	.text.Vector128,"ax",%progbits
 569              		.align	2
 570              		.p2align 4,,15
 571              		.global	Vector128
 572              		.thumb
 573              		.thumb_func
 574              		.type	Vector128, %function
 575              	Vector128:
 576              	.LFB217:
 577              		.loc 1 297 0
 578              		.cfi_startproc
 579              		@ args = 0, pretend = 0, frame = 0
 580              		@ frame_needed = 0, uses_anonymous_args = 0
 581              		.loc 1 302 0
 582 0000 084B     		ldr	r3, .L88
 583              		.loc 1 304 0
 584 0002 0948     		ldr	r0, .L88+4
 585              		.loc 1 302 0
 586 0004 1968     		ldr	r1, [r3]
 587              		.loc 1 304 0
 588 0006 026D     		ldr	r2, [r0, #80]
 589              		.loc 1 302 0
 590 0008 090C     		lsrs	r1, r1, #16
 591 000a 01F03D01 		and	r1, r1, #61
 592              	.LVL30:
 593              		.loc 1 297 0
 594 000e 10B5     		push	{r4, lr}
 595              		.cfi_def_cfa_offset 8
 596              		.cfi_offset 4, -8
 597              		.cfi_offset 14, -4
 598              		.loc 1 303 0
 599 0010 0C04     		lsls	r4, r1, #16
 600 0012 9C60     		str	r4, [r3, #8]
 601              		.loc 1 304 0
 602 0014 0AB1     		cbz	r2, .L83
 603              		.loc 1 305 0
 604 0016 406D     		ldr	r0, [r0, #84]
 605 0018 9047     		blx	r2
 606              	.LVL31:
 607              	.L83:
 608              		.loc 1 308 0
 609 001a BDE81040 		pop	{r4, lr}
 610              		.cfi_restore 14
 611              		.cfi_restore 4
 612              		.cfi_def_cfa_offset 0
 613              		.loc 1 307 0
 614 001e FFF7FEBF 		b	_port_irq_epilogue
 615              	.LVL32:
 616              	.L89:
 617 0022 00BF     		.align	2
 618              	.L88:
 619 0024 00640240 		.word	1073898496
 620 0028 00000000 		.word	.LANCHOR0
 621              		.cfi_endproc
 622              	.LFE217:
 623              		.size	Vector128, .-Vector128
 624 002c AFF30080 		.section	.text.Vector12C,"ax",%progbits
ARM GAS  /tmp/ccmrylEV.s 			page 12


 625              		.align	2
 626              		.p2align 4,,15
 627              		.global	Vector12C
 628              		.thumb
 629              		.thumb_func
 630              		.type	Vector12C, %function
 631              	Vector12C:
 632              	.LFB218:
 633              		.loc 1 315 0
 634              		.cfi_startproc
 635              		@ args = 0, pretend = 0, frame = 0
 636              		@ frame_needed = 0, uses_anonymous_args = 0
 637              		.loc 1 320 0
 638 0000 084B     		ldr	r3, .L96
 639              		.loc 1 322 0
 640 0002 0948     		ldr	r0, .L96+4
 641              		.loc 1 320 0
 642 0004 1968     		ldr	r1, [r3]
 643              		.loc 1 322 0
 644 0006 826D     		ldr	r2, [r0, #88]
 645              		.loc 1 320 0
 646 0008 890D     		lsrs	r1, r1, #22
 647 000a 01F03D01 		and	r1, r1, #61
 648              	.LVL33:
 649              		.loc 1 315 0
 650 000e 10B5     		push	{r4, lr}
 651              		.cfi_def_cfa_offset 8
 652              		.cfi_offset 4, -8
 653              		.cfi_offset 14, -4
 654              		.loc 1 321 0
 655 0010 8C05     		lsls	r4, r1, #22
 656 0012 9C60     		str	r4, [r3, #8]
 657              		.loc 1 322 0
 658 0014 0AB1     		cbz	r2, .L91
 659              		.loc 1 323 0
 660 0016 C06D     		ldr	r0, [r0, #92]
 661 0018 9047     		blx	r2
 662              	.LVL34:
 663              	.L91:
 664              		.loc 1 326 0
 665 001a BDE81040 		pop	{r4, lr}
 666              		.cfi_restore 14
 667              		.cfi_restore 4
 668              		.cfi_def_cfa_offset 0
 669              		.loc 1 325 0
 670 001e FFF7FEBF 		b	_port_irq_epilogue
 671              	.LVL35:
 672              	.L97:
 673 0022 00BF     		.align	2
 674              	.L96:
 675 0024 00640240 		.word	1073898496
 676 0028 00000000 		.word	.LANCHOR0
 677              		.cfi_endproc
 678              	.LFE218:
 679              		.size	Vector12C, .-Vector12C
 680 002c AFF30080 		.section	.text.Vector130,"ax",%progbits
 681              		.align	2
ARM GAS  /tmp/ccmrylEV.s 			page 13


 682              		.p2align 4,,15
 683              		.global	Vector130
 684              		.thumb
 685              		.thumb_func
 686              		.type	Vector130, %function
 687              	Vector130:
 688              	.LFB219:
 689              		.loc 1 333 0
 690              		.cfi_startproc
 691              		@ args = 0, pretend = 0, frame = 0
 692              		@ frame_needed = 0, uses_anonymous_args = 0
 693 0000 08B5     		push	{r3, lr}
 694              		.cfi_def_cfa_offset 8
 695              		.cfi_offset 3, -8
 696              		.cfi_offset 14, -4
 697              		.loc 1 338 0
 698 0002 074B     		ldr	r3, .L104
 699              		.loc 1 340 0
 700 0004 0748     		ldr	r0, .L104+4
 701              		.loc 1 338 0
 702 0006 5968     		ldr	r1, [r3, #4]
 703              		.loc 1 340 0
 704 0008 026E     		ldr	r2, [r0, #96]
 705              		.loc 1 338 0
 706 000a 01F03D01 		and	r1, r1, #61
 707              	.LVL36:
 708              		.loc 1 339 0
 709 000e D960     		str	r1, [r3, #12]
 710              		.loc 1 340 0
 711 0010 0AB1     		cbz	r2, .L99
 712              		.loc 1 341 0
 713 0012 406E     		ldr	r0, [r0, #100]
 714 0014 9047     		blx	r2
 715              	.LVL37:
 716              	.L99:
 717              		.loc 1 344 0
 718 0016 BDE80840 		pop	{r3, lr}
 719              		.cfi_restore 14
 720              		.cfi_restore 3
 721              		.cfi_def_cfa_offset 0
 722              		.loc 1 343 0
 723 001a FFF7FEBF 		b	_port_irq_epilogue
 724              	.LVL38:
 725              	.L105:
 726 001e 00BF     		.align	2
 727              	.L104:
 728 0020 00640240 		.word	1073898496
 729 0024 00000000 		.word	.LANCHOR0
 730              		.cfi_endproc
 731              	.LFE219:
 732              		.size	Vector130, .-Vector130
 733 0028 AFF30080 		.section	.text.Vector150,"ax",%progbits
 733      AFF30080 
 734              		.align	2
 735              		.p2align 4,,15
 736              		.global	Vector150
 737              		.thumb
ARM GAS  /tmp/ccmrylEV.s 			page 14


 738              		.thumb_func
 739              		.type	Vector150, %function
 740              	Vector150:
 741              	.LFB220:
 742              		.loc 1 351 0
 743              		.cfi_startproc
 744              		@ args = 0, pretend = 0, frame = 0
 745              		@ frame_needed = 0, uses_anonymous_args = 0
 746              		.loc 1 356 0
 747 0000 084B     		ldr	r3, .L112
 748              		.loc 1 358 0
 749 0002 0948     		ldr	r0, .L112+4
 750              		.loc 1 356 0
 751 0004 5968     		ldr	r1, [r3, #4]
 752              		.loc 1 358 0
 753 0006 826E     		ldr	r2, [r0, #104]
 754              		.loc 1 356 0
 755 0008 8909     		lsrs	r1, r1, #6
 756 000a 01F03D01 		and	r1, r1, #61
 757              	.LVL39:
 758              		.loc 1 351 0
 759 000e 10B5     		push	{r4, lr}
 760              		.cfi_def_cfa_offset 8
 761              		.cfi_offset 4, -8
 762              		.cfi_offset 14, -4
 763              		.loc 1 357 0
 764 0010 8C01     		lsls	r4, r1, #6
 765 0012 DC60     		str	r4, [r3, #12]
 766              		.loc 1 358 0
 767 0014 0AB1     		cbz	r2, .L107
 768              		.loc 1 359 0
 769 0016 C06E     		ldr	r0, [r0, #108]
 770 0018 9047     		blx	r2
 771              	.LVL40:
 772              	.L107:
 773              		.loc 1 362 0
 774 001a BDE81040 		pop	{r4, lr}
 775              		.cfi_restore 14
 776              		.cfi_restore 4
 777              		.cfi_def_cfa_offset 0
 778              		.loc 1 361 0
 779 001e FFF7FEBF 		b	_port_irq_epilogue
 780              	.LVL41:
 781              	.L113:
 782 0022 00BF     		.align	2
 783              	.L112:
 784 0024 00640240 		.word	1073898496
 785 0028 00000000 		.word	.LANCHOR0
 786              		.cfi_endproc
 787              	.LFE220:
 788              		.size	Vector150, .-Vector150
 789 002c AFF30080 		.section	.text.Vector154,"ax",%progbits
 790              		.align	2
 791              		.p2align 4,,15
 792              		.global	Vector154
 793              		.thumb
 794              		.thumb_func
ARM GAS  /tmp/ccmrylEV.s 			page 15


 795              		.type	Vector154, %function
 796              	Vector154:
 797              	.LFB221:
 798              		.loc 1 369 0
 799              		.cfi_startproc
 800              		@ args = 0, pretend = 0, frame = 0
 801              		@ frame_needed = 0, uses_anonymous_args = 0
 802              		.loc 1 374 0
 803 0000 084B     		ldr	r3, .L120
 804              		.loc 1 376 0
 805 0002 0948     		ldr	r0, .L120+4
 806              		.loc 1 374 0
 807 0004 5968     		ldr	r1, [r3, #4]
 808              		.loc 1 376 0
 809 0006 026F     		ldr	r2, [r0, #112]
 810              		.loc 1 374 0
 811 0008 090C     		lsrs	r1, r1, #16
 812 000a 01F03D01 		and	r1, r1, #61
 813              	.LVL42:
 814              		.loc 1 369 0
 815 000e 10B5     		push	{r4, lr}
 816              		.cfi_def_cfa_offset 8
 817              		.cfi_offset 4, -8
 818              		.cfi_offset 14, -4
 819              		.loc 1 375 0
 820 0010 0C04     		lsls	r4, r1, #16
 821 0012 DC60     		str	r4, [r3, #12]
 822              		.loc 1 376 0
 823 0014 0AB1     		cbz	r2, .L115
 824              		.loc 1 377 0
 825 0016 406F     		ldr	r0, [r0, #116]
 826 0018 9047     		blx	r2
 827              	.LVL43:
 828              	.L115:
 829              		.loc 1 380 0
 830 001a BDE81040 		pop	{r4, lr}
 831              		.cfi_restore 14
 832              		.cfi_restore 4
 833              		.cfi_def_cfa_offset 0
 834              		.loc 1 379 0
 835 001e FFF7FEBF 		b	_port_irq_epilogue
 836              	.LVL44:
 837              	.L121:
 838 0022 00BF     		.align	2
 839              	.L120:
 840 0024 00640240 		.word	1073898496
 841 0028 00000000 		.word	.LANCHOR0
 842              		.cfi_endproc
 843              	.LFE221:
 844              		.size	Vector154, .-Vector154
 845 002c AFF30080 		.section	.text.Vector158,"ax",%progbits
 846              		.align	2
 847              		.p2align 4,,15
 848              		.global	Vector158
 849              		.thumb
 850              		.thumb_func
 851              		.type	Vector158, %function
ARM GAS  /tmp/ccmrylEV.s 			page 16


 852              	Vector158:
 853              	.LFB222:
 854              		.loc 1 387 0
 855              		.cfi_startproc
 856              		@ args = 0, pretend = 0, frame = 0
 857              		@ frame_needed = 0, uses_anonymous_args = 0
 858              		.loc 1 392 0
 859 0000 084B     		ldr	r3, .L128
 860              		.loc 1 394 0
 861 0002 0948     		ldr	r0, .L128+4
 862              		.loc 1 392 0
 863 0004 5968     		ldr	r1, [r3, #4]
 864              		.loc 1 394 0
 865 0006 826F     		ldr	r2, [r0, #120]
 866              		.loc 1 392 0
 867 0008 890D     		lsrs	r1, r1, #22
 868 000a 01F03D01 		and	r1, r1, #61
 869              	.LVL45:
 870              		.loc 1 387 0
 871 000e 10B5     		push	{r4, lr}
 872              		.cfi_def_cfa_offset 8
 873              		.cfi_offset 4, -8
 874              		.cfi_offset 14, -4
 875              		.loc 1 393 0
 876 0010 8C05     		lsls	r4, r1, #22
 877 0012 DC60     		str	r4, [r3, #12]
 878              		.loc 1 394 0
 879 0014 0AB1     		cbz	r2, .L123
 880              		.loc 1 395 0
 881 0016 C06F     		ldr	r0, [r0, #124]
 882 0018 9047     		blx	r2
 883              	.LVL46:
 884              	.L123:
 885              		.loc 1 398 0
 886 001a BDE81040 		pop	{r4, lr}
 887              		.cfi_restore 14
 888              		.cfi_restore 4
 889              		.cfi_def_cfa_offset 0
 890              		.loc 1 397 0
 891 001e FFF7FEBF 		b	_port_irq_epilogue
 892              	.LVL47:
 893              	.L129:
 894 0022 00BF     		.align	2
 895              	.L128:
 896 0024 00640240 		.word	1073898496
 897 0028 00000000 		.word	.LANCHOR0
 898              		.cfi_endproc
 899              	.LFE222:
 900              		.size	Vector158, .-Vector158
 901 002c AFF30080 		.section	.text.dmaInit,"ax",%progbits
 902              		.align	2
 903              		.p2align 4,,15
 904              		.global	dmaInit
 905              		.thumb
 906              		.thumb_func
 907              		.type	dmaInit, %function
 908              	dmaInit:
ARM GAS  /tmp/ccmrylEV.s 			page 17


 909              	.LFB223:
 910              		.loc 1 409 0
 911              		.cfi_startproc
 912              		@ args = 0, pretend = 0, frame = 0
 913              		@ frame_needed = 0, uses_anonymous_args = 0
 914              		@ link register save eliminated.
 915              		.loc 1 412 0
 916 0000 0022     		movs	r2, #0
 917 0002 1146     		mov	r1, r2
 918              		.loc 1 413 0
 919 0004 1346     		mov	r3, r2
 920              		.loc 1 414 0
 921 0006 1046     		mov	r0, r2
 922              		.loc 1 409 0
 923 0008 70B4     		push	{r4, r5, r6}
 924              		.cfi_def_cfa_offset 12
 925              		.cfi_offset 4, -12
 926              		.cfi_offset 5, -8
 927              		.cfi_offset 6, -4
 928              		.loc 1 412 0
 929 000a 0B4E     		ldr	r6, .L134
 930 000c 0B4D     		ldr	r5, .L134+4
 931 000e 0C4C     		ldr	r4, .L134+8
 932 0010 3260     		str	r2, [r6]
 933              	.LVL48:
 934              	.L131:
 935              		.loc 1 414 0 discriminator 3
 936 0012 6A58     		ldr	r2, [r5, r1]
 937 0014 0C31     		adds	r1, r1, #12
 938 0016 1060     		str	r0, [r2]
 939              		.loc 1 415 0 discriminator 3
 940 0018 44F83300 		str	r0, [r4, r3, lsl #3]
 941              		.loc 1 413 0 discriminator 3
 942 001c 0133     		adds	r3, r3, #1
 943              	.LVL49:
 944 001e 102B     		cmp	r3, #16
 945 0020 F7D1     		bne	.L131
 946              		.loc 1 417 0
 947 0022 0849     		ldr	r1, .L134+12
 948              		.loc 1 419 0
 949 0024 084A     		ldr	r2, .L134+16
 950              		.loc 1 417 0
 951 0026 4FF0FF33 		mov	r3, #-1
 952              	.LVL50:
 953 002a 8B60     		str	r3, [r1, #8]
 954              		.loc 1 421 0
 955 002c 70BC     		pop	{r4, r5, r6}
 956              		.cfi_restore 6
 957              		.cfi_restore 5
 958              		.cfi_restore 4
 959              		.cfi_def_cfa_offset 0
 960              		.loc 1 418 0
 961 002e CB60     		str	r3, [r1, #12]
 962              		.loc 1 419 0
 963 0030 9360     		str	r3, [r2, #8]
 964              		.loc 1 420 0
 965 0032 D360     		str	r3, [r2, #12]
ARM GAS  /tmp/ccmrylEV.s 			page 18


 966              		.loc 1 421 0
 967 0034 7047     		bx	lr
 968              	.L135:
 969 0036 00BF     		.align	2
 970              	.L134:
 971 0038 00000000 		.word	.LANCHOR1
 972 003c 00000000 		.word	.LANCHOR2
 973 0040 00000000 		.word	.LANCHOR0
 974 0044 00600240 		.word	1073897472
 975 0048 00640240 		.word	1073898496
 976              		.cfi_endproc
 977              	.LFE223:
 978              		.size	dmaInit, .-dmaInit
 979 004c AFF30080 		.section	.text.dmaStreamAllocate,"ax",%progbits
 980              		.align	2
 981              		.p2align 4,,15
 982              		.global	dmaStreamAllocate
 983              		.thumb
 984              		.thumb_func
 985              		.type	dmaStreamAllocate, %function
 986              	dmaStreamAllocate:
 987              	.LFB224:
 988              		.loc 1 450 0
 989              		.cfi_startproc
 990              		@ args = 0, pretend = 0, frame = 0
 991              		@ frame_needed = 0, uses_anonymous_args = 0
 992              	.LVL51:
 993 0000 F8B5     		push	{r3, r4, r5, r6, r7, lr}
 994              		.cfi_def_cfa_offset 24
 995              		.cfi_offset 3, -24
 996              		.cfi_offset 4, -20
 997              		.cfi_offset 5, -16
 998              		.cfi_offset 6, -12
 999              		.cfi_offset 7, -8
 1000              		.cfi_offset 14, -4
 1001              		.loc 1 455 0
 1002 0002 1F4F     		ldr	r7, .L152
 1003 0004 467A     		ldrb	r6, [r0, #9]	@ zero_extendqisi2
 1004 0006 0124     		movs	r4, #1
 1005 0008 3D68     		ldr	r5, [r7]
 1006 000a 04FA06FE 		lsl	lr, r4, r6
 1007 000e 1EEA050F 		tst	lr, r5
 1008 0012 31D1     		bne	.L141
 1009              		.loc 1 459 0
 1010 0014 1B4C     		ldr	r4, .L152+4
 1011              		.loc 1 461 0
 1012 0016 4EEA0505 		orr	r5, lr, r5
 1013              		.loc 1 464 0
 1014 001a 15F0FF0F 		tst	r5, #255
 1015              		.loc 1 460 0
 1016 001e 04EBC60E 		add	lr, r4, r6, lsl #3
 1017              		.loc 1 461 0
 1018 0022 3D60     		str	r5, [r7]
 1019              		.loc 1 459 0
 1020 0024 44F83620 		str	r2, [r4, r6, lsl #3]
 1021              		.loc 1 460 0
 1022 0028 CEF80430 		str	r3, [lr, #4]
ARM GAS  /tmp/ccmrylEV.s 			page 19


 1023              		.loc 1 464 0
 1024 002c 04D0     		beq	.L138
 1025              		.loc 1 465 0
 1026 002e 164C     		ldr	r4, .L152+8
 1027 0030 236B     		ldr	r3, [r4, #48]
 1028              	.LVL52:
 1029 0032 43F40013 		orr	r3, r3, #2097152
 1030 0036 2363     		str	r3, [r4, #48]
 1031              	.L138:
 1032              		.loc 1 467 0
 1033 0038 15F47F4F 		tst	r5, #65280
 1034 003c 16D1     		bne	.L151
 1035              	.L139:
 1036              		.loc 1 472 0
 1037 003e 0568     		ldr	r5, [r0]
 1038 0040 2B68     		ldr	r3, [r5]
 1039 0042 23F01F03 		bic	r3, r3, #31
 1040 0046 2B60     		str	r3, [r5]
 1041              	.L140:
 1042              		.loc 1 472 0 is_stmt 0 discriminator 2
 1043 0048 2B68     		ldr	r3, [r5]
 1044 004a 13F00104 		ands	r4, r3, #1
 1045 004e FBD1     		bne	.L140
 1046              		.loc 1 472 0 discriminator 3
 1047 0050 077A     		ldrb	r7, [r0, #8]	@ zero_extendqisi2
 1048 0052 4668     		ldr	r6, [r0, #4]
 1049 0054 3D23     		movs	r3, #61
 1050 0056 BB40     		lsls	r3, r3, r7
 1051              		.loc 1 474 0 is_stmt 1 discriminator 3
 1052 0058 2127     		movs	r7, #33
 1053              		.loc 1 472 0 discriminator 3
 1054 005a 3360     		str	r3, [r6]
 1055              		.loc 1 473 0 discriminator 3
 1056 005c 2C60     		str	r4, [r5]
 1057              		.loc 1 474 0 discriminator 3
 1058 005e 6F61     		str	r7, [r5, #20]
 1059              		.loc 1 477 0 discriminator 3
 1060 0060 62B1     		cbz	r2, .L142
 1061              		.loc 1 478 0
 1062 0062 807A     		ldrb	r0, [r0, #10]	@ zero_extendqisi2
 1063              	.LVL53:
 1064 0064 FFF7FEFF 		bl	nvicEnableVector
 1065              	.LVL54:
 1066              		.loc 1 481 0
 1067 0068 2046     		mov	r0, r4
 1068 006a F8BD     		pop	{r3, r4, r5, r6, r7, pc}
 1069              	.LVL55:
 1070              	.L151:
 1071              		.loc 1 468 0
 1072 006c 064C     		ldr	r4, .L152+8
 1073 006e 236B     		ldr	r3, [r4, #48]
 1074 0070 43F48003 		orr	r3, r3, #4194304
 1075 0074 2363     		str	r3, [r4, #48]
 1076 0076 E2E7     		b	.L139
 1077              	.LVL56:
 1078              	.L141:
 1079              		.loc 1 456 0
ARM GAS  /tmp/ccmrylEV.s 			page 20


 1080 0078 2046     		mov	r0, r4
 1081              	.LVL57:
 1082 007a F8BD     		pop	{r3, r4, r5, r6, r7, pc}
 1083              	.LVL58:
 1084              	.L142:
 1085              		.loc 1 481 0
 1086 007c 1046     		mov	r0, r2
 1087              	.LVL59:
 1088              		.loc 1 482 0
 1089 007e F8BD     		pop	{r3, r4, r5, r6, r7, pc}
 1090              	.L153:
 1091              		.align	2
 1092              	.L152:
 1093 0080 00000000 		.word	.LANCHOR1
 1094 0084 00000000 		.word	.LANCHOR0
 1095 0088 00380240 		.word	1073887232
 1096              		.cfi_endproc
 1097              	.LFE224:
 1098              		.size	dmaStreamAllocate, .-dmaStreamAllocate
 1099 008c AFF30080 		.section	.text.dmaStreamRelease,"ax",%progbits
 1100              		.align	2
 1101              		.p2align 4,,15
 1102              		.global	dmaStreamRelease
 1103              		.thumb
 1104              		.thumb_func
 1105              		.type	dmaStreamRelease, %function
 1106              	dmaStreamRelease:
 1107              	.LFB225:
 1108              		.loc 1 497 0
 1109              		.cfi_startproc
 1110              		@ args = 0, pretend = 0, frame = 0
 1111              		@ frame_needed = 0, uses_anonymous_args = 0
 1112              	.LVL60:
 1113 0000 10B5     		push	{r4, lr}
 1114              		.cfi_def_cfa_offset 8
 1115              		.cfi_offset 4, -8
 1116              		.cfi_offset 14, -4
 1117              		.loc 1 497 0
 1118 0002 0446     		mov	r4, r0
 1119              		.loc 1 506 0
 1120 0004 807A     		ldrb	r0, [r0, #10]	@ zero_extendqisi2
 1121              	.LVL61:
 1122 0006 FFF7FEFF 		bl	nvicDisableVector
 1123              	.LVL62:
 1124              		.loc 1 509 0
 1125 000a 0C49     		ldr	r1, .L158
 1126 000c 607A     		ldrb	r0, [r4, #9]	@ zero_extendqisi2
 1127 000e 0A68     		ldr	r2, [r1]
 1128 0010 0123     		movs	r3, #1
 1129 0012 8340     		lsls	r3, r3, r0
 1130 0014 22EA0303 		bic	r3, r2, r3
 1131              		.loc 1 512 0
 1132 0018 13F0FF0F 		tst	r3, #255
 1133              		.loc 1 509 0
 1134 001c 0B60     		str	r3, [r1]
 1135              		.loc 1 512 0
 1136 001e 04D1     		bne	.L155
ARM GAS  /tmp/ccmrylEV.s 			page 21


 1137              		.loc 1 513 0
 1138 0020 0749     		ldr	r1, .L158+4
 1139 0022 0A6B     		ldr	r2, [r1, #48]
 1140 0024 22F40012 		bic	r2, r2, #2097152
 1141 0028 0A63     		str	r2, [r1, #48]
 1142              	.L155:
 1143              		.loc 1 515 0
 1144 002a 13F47F4F 		tst	r3, #65280
 1145 002e 04D1     		bne	.L154
 1146              		.loc 1 516 0
 1147 0030 034A     		ldr	r2, .L158+4
 1148 0032 136B     		ldr	r3, [r2, #48]
 1149 0034 23F48003 		bic	r3, r3, #4194304
 1150 0038 1363     		str	r3, [r2, #48]
 1151              	.L154:
 1152 003a 10BD     		pop	{r4, pc}
 1153              	.LVL63:
 1154              	.L159:
 1155              		.align	2
 1156              	.L158:
 1157 003c 00000000 		.word	.LANCHOR1
 1158 0040 00380240 		.word	1073887232
 1159              		.cfi_endproc
 1160              	.LFE225:
 1161              		.size	dmaStreamRelease, .-dmaStreamRelease
 1162              		.global	_stm32_dma_streams
 1163 0044 AFF30080 		.section	.bss.dma_isr_redir,"aw",%nobits
 1163      AFF30080 
 1163      AFF30080 
 1164              		.align	2
 1165              		.set	.LANCHOR0,. + 0
 1166              		.type	dma_isr_redir, %object
 1167              		.size	dma_isr_redir, 128
 1168              	dma_isr_redir:
 1169 0000 00000000 		.space	128
 1169      00000000 
 1169      00000000 
 1169      00000000 
 1169      00000000 
 1170              		.section	.rodata._stm32_dma_streams,"a",%progbits
 1171              		.align	2
 1172              		.set	.LANCHOR2,. + 0
 1173              		.type	_stm32_dma_streams, %object
 1174              		.size	_stm32_dma_streams, 192
 1175              	_stm32_dma_streams:
 1176 0000 10600240 		.word	1073897488
 1177 0004 08600240 		.word	1073897480
 1178 0008 00       		.byte	0
 1179 0009 00       		.byte	0
 1180 000a 0B       		.byte	11
 1181 000b 00       		.space	1
 1182 000c 28600240 		.word	1073897512
 1183 0010 08600240 		.word	1073897480
 1184 0014 06       		.byte	6
 1185 0015 01       		.byte	1
 1186 0016 0C       		.byte	12
 1187 0017 00       		.space	1
ARM GAS  /tmp/ccmrylEV.s 			page 22


 1188 0018 40600240 		.word	1073897536
 1189 001c 08600240 		.word	1073897480
 1190 0020 10       		.byte	16
 1191 0021 02       		.byte	2
 1192 0022 0D       		.byte	13
 1193 0023 00       		.space	1
 1194 0024 58600240 		.word	1073897560
 1195 0028 08600240 		.word	1073897480
 1196 002c 16       		.byte	22
 1197 002d 03       		.byte	3
 1198 002e 0E       		.byte	14
 1199 002f 00       		.space	1
 1200 0030 70600240 		.word	1073897584
 1201 0034 0C600240 		.word	1073897484
 1202 0038 00       		.byte	0
 1203 0039 04       		.byte	4
 1204 003a 0F       		.byte	15
 1205 003b 00       		.space	1
 1206 003c 88600240 		.word	1073897608
 1207 0040 0C600240 		.word	1073897484
 1208 0044 06       		.byte	6
 1209 0045 05       		.byte	5
 1210 0046 10       		.byte	16
 1211 0047 00       		.space	1
 1212 0048 A0600240 		.word	1073897632
 1213 004c 0C600240 		.word	1073897484
 1214 0050 10       		.byte	16
 1215 0051 06       		.byte	6
 1216 0052 11       		.byte	17
 1217 0053 00       		.space	1
 1218 0054 B8600240 		.word	1073897656
 1219 0058 0C600240 		.word	1073897484
 1220 005c 16       		.byte	22
 1221 005d 07       		.byte	7
 1222 005e 2F       		.byte	47
 1223 005f 00       		.space	1
 1224 0060 10640240 		.word	1073898512
 1225 0064 08640240 		.word	1073898504
 1226 0068 00       		.byte	0
 1227 0069 08       		.byte	8
 1228 006a 38       		.byte	56
 1229 006b 00       		.space	1
 1230 006c 28640240 		.word	1073898536
 1231 0070 08640240 		.word	1073898504
 1232 0074 06       		.byte	6
 1233 0075 09       		.byte	9
 1234 0076 39       		.byte	57
 1235 0077 00       		.space	1
 1236 0078 40640240 		.word	1073898560
 1237 007c 08640240 		.word	1073898504
 1238 0080 10       		.byte	16
 1239 0081 0A       		.byte	10
 1240 0082 3A       		.byte	58
 1241 0083 00       		.space	1
 1242 0084 58640240 		.word	1073898584
 1243 0088 08640240 		.word	1073898504
 1244 008c 16       		.byte	22
ARM GAS  /tmp/ccmrylEV.s 			page 23


 1245 008d 0B       		.byte	11
 1246 008e 3B       		.byte	59
 1247 008f 00       		.space	1
 1248 0090 70640240 		.word	1073898608
 1249 0094 0C640240 		.word	1073898508
 1250 0098 00       		.byte	0
 1251 0099 0C       		.byte	12
 1252 009a 3C       		.byte	60
 1253 009b 00       		.space	1
 1254 009c 88640240 		.word	1073898632
 1255 00a0 0C640240 		.word	1073898508
 1256 00a4 06       		.byte	6
 1257 00a5 0D       		.byte	13
 1258 00a6 44       		.byte	68
 1259 00a7 00       		.space	1
 1260 00a8 A0640240 		.word	1073898656
 1261 00ac 0C640240 		.word	1073898508
 1262 00b0 10       		.byte	16
 1263 00b1 0E       		.byte	14
 1264 00b2 45       		.byte	69
 1265 00b3 00       		.space	1
 1266 00b4 B8640240 		.word	1073898680
 1267 00b8 0C640240 		.word	1073898508
 1268 00bc 16       		.byte	22
 1269 00bd 0F       		.byte	15
 1270 00be 46       		.byte	70
 1271 00bf 00       		.space	1
 1272              		.section	.bss.dma_streams_mask,"aw",%nobits
 1273              		.align	2
 1274              		.set	.LANCHOR1,. + 0
 1275              		.type	dma_streams_mask, %object
 1276              		.size	dma_streams_mask, 4
 1277              	dma_streams_mask:
 1278 0000 00000000 		.space	4
 1279              		.text
 1280              	.Letext0:
 1281              		.file 2 "/usr/lib/gcc/arm-none-eabi/4.9.3/include/stddef.h"
 1282              		.file 3 "/usr/include/newlib/machine/_default_types.h"
 1283              		.file 4 "/usr/include/newlib/stdint.h"
 1284              		.file 5 "/home/peter/ChibiOS_16.1.4/os/rt/ports/ARMCMx/compilers/GCC/chtypes.h"
 1285              		.file 6 "/home/peter/ChibiOS_16.1.4/os/rt/include/chsystypes.h"
 1286              		.file 7 "/home/peter/ChibiOS_16.1.4/os/rt/include/chschd.h"
 1287              		.file 8 "/home/peter/ChibiOS_16.1.4/os/ext/CMSIS/ST/STM32F2xx/stm32f205xx.h"
 1288              		.file 9 "/home/peter/ChibiOS_16.1.4/os/rt/ports/ARMCMx/chcore.h"
 1289              		.file 10 "/home/peter/ChibiOS_16.1.4/os/rt/ports/ARMCMx/chcore_v7m.h"
 1290              		.file 11 "/home/peter/ChibiOS_16.1.4/os/rt/include/chtm.h"
 1291              		.file 12 "/home/peter/ChibiOS_16.1.4/os/rt/include/chsem.h"
 1292              		.file 13 "/home/peter/ChibiOS_16.1.4/os/rt/include/chmtx.h"
 1293              		.file 14 "/home/peter/ChibiOS_16.1.4/os/hal/ports/STM32/LLD/DMAv2/stm32_dma.h"
 1294              		.file 15 "/home/peter/ChibiOS_16.1.4/os/ext/CMSIS/include/core_cm3.h"
 1295              		.file 16 "/home/peter/ChibiOS_16.1.4/os/hal/ports/common/ARMCMx/nvic.h"