ARM GAS  /tmp/cc5cURfh.s 			page 1


   1              		.syntax unified
   2              		.cpu cortex-m3
   3              		.fpu softvfp
   4              		.eabi_attribute 20, 1
   5              		.eabi_attribute 21, 1
   6              		.eabi_attribute 23, 3
   7              		.eabi_attribute 24, 1
   8              		.eabi_attribute 25, 1
   9              		.eabi_attribute 26, 1
  10              		.eabi_attribute 30, 2
  11              		.eabi_attribute 34, 1
  12              		.eabi_attribute 18, 4
  13              		.thumb
  14              		.file	"testmsg.c"
  15              		.text
  16              	.Ltext0:
  17              		.cfi_sections	.debug_frame
  18              		.section	.text.msg1_execute,"ax",%progbits
  19              		.align	2
  20              		.p2align 4,,15
  21              		.thumb
  22              		.thumb_func
  23              		.type	msg1_execute, %function
  24              	msg1_execute:
  25              	.LFB171:
  26              		.file 1 "/home/peter/ChibiOS_16.1.4/test/rt/testmsg.c"
  27              		.loc 1 66 0
  28              		.cfi_startproc
  29              		@ args = 0, pretend = 0, frame = 0
  30              		@ frame_needed = 0, uses_anonymous_args = 0
  31 0000 10B5     		push	{r4, lr}
  32              		.cfi_def_cfa_offset 8
  33              		.cfi_offset 4, -8
  34              		.cfi_offset 14, -4
  35              	.LBB16:
  36              	.LBB17:
  37              	.LBB18:
  38              	.LBB19:
  39              		.file 2 "/home/peter/ChibiOS_16.1.4/os/rt/include/chthreads.h"
  40              		.loc 2 176 0
  41 0002 184B     		ldr	r3, .L3
  42              	.LBE19:
  43              	.LBE18:
  44              	.LBE17:
  45              	.LBE16:
  46              		.loc 1 73 0
  47 0004 184A     		ldr	r2, .L3+4
  48              	.LBB23:
  49              	.LBB22:
  50              	.LBB21:
  51              	.LBB20:
  52              		.loc 2 176 0
  53 0006 9B69     		ldr	r3, [r3, #24]
  54              	.LBE20:
  55              	.LBE21:
  56              	.LBE22:
  57              	.LBE23:
ARM GAS  /tmp/cc5cURfh.s 			page 2


  58              		.loc 1 73 0
  59 0008 1068     		ldr	r0, [r2]
  60 000a 9A68     		ldr	r2, [r3, #8]
  61              		.loc 1 66 0
  62 000c 82B0     		sub	sp, sp, #8
  63              		.cfi_def_cfa_offset 16
  64              		.loc 1 73 0
  65 000e 0132     		adds	r2, r2, #1
  66 0010 0093     		str	r3, [sp]
  67 0012 4FF4A471 		mov	r1, #328
  68 0016 154B     		ldr	r3, .L3+8
  69 0018 FFF7FEFF 		bl	chThdCreateStatic
  70              	.LVL0:
  71 001c 144B     		ldr	r3, .L3+12
  72 001e 1860     		str	r0, [r3]
  73              		.loc 1 75 0
  74 0020 FFF7FEFF 		bl	chMsgWait
  75              	.LVL1:
  76 0024 046B     		ldr	r4, [r0, #48]
  77              	.LVL2:
  78              		.loc 1 77 0
  79 0026 2146     		mov	r1, r4
  80 0028 FFF7FEFF 		bl	chMsgRelease
  81              	.LVL3:
  82              		.loc 1 78 0
  83 002c E0B2     		uxtb	r0, r4
  84 002e FFF7FEFF 		bl	test_emit_token
  85              	.LVL4:
  86              		.loc 1 79 0
  87 0032 FFF7FEFF 		bl	chMsgWait
  88              	.LVL5:
  89 0036 046B     		ldr	r4, [r0, #48]
  90              	.LVL6:
  91              		.loc 1 81 0
  92 0038 2146     		mov	r1, r4
  93 003a FFF7FEFF 		bl	chMsgRelease
  94              	.LVL7:
  95              		.loc 1 82 0
  96 003e E0B2     		uxtb	r0, r4
  97 0040 FFF7FEFF 		bl	test_emit_token
  98              	.LVL8:
  99              		.loc 1 83 0
 100 0044 FFF7FEFF 		bl	chMsgWait
 101              	.LVL9:
 102 0048 046B     		ldr	r4, [r0, #48]
 103              	.LVL10:
 104              		.loc 1 85 0
 105 004a 2146     		mov	r1, r4
 106 004c FFF7FEFF 		bl	chMsgRelease
 107              	.LVL11:
 108              		.loc 1 86 0
 109 0050 E0B2     		uxtb	r0, r4
 110 0052 FFF7FEFF 		bl	test_emit_token
 111              	.LVL12:
 112              		.loc 1 87 0
 113 0056 0749     		ldr	r1, .L3+16
 114 0058 0120     		movs	r0, #1
ARM GAS  /tmp/cc5cURfh.s 			page 3


 115              		.loc 1 88 0
 116 005a 02B0     		add	sp, sp, #8
 117              		.cfi_def_cfa_offset 8
 118              		@ sp needed
 119 005c BDE81040 		pop	{r4, lr}
 120              		.cfi_restore 14
 121              		.cfi_restore 4
 122              		.cfi_def_cfa_offset 0
 123              		.loc 1 87 0
 124 0060 FFF7FEBF 		b	_test_assert_sequence
 125              	.LVL13:
 126              	.L4:
 127              		.align	2
 128              	.L3:
 129 0064 00000000 		.word	ch
 130 0068 00000000 		.word	wa
 131 006c 00000000 		.word	thread
 132 0070 00000000 		.word	threads
 133 0074 00000000 		.word	.LC0
 134              		.cfi_endproc
 135              	.LFE171:
 136              		.size	msg1_execute, .-msg1_execute
 137 0078 AFF30080 		.section	.text.thread,"ax",%progbits
 137      AFF30080 
 138              		.align	2
 139              		.p2align 4,,15
 140              		.thumb
 141              		.thumb_func
 142              		.type	thread, %function
 143              	thread:
 144              	.LFB170:
 145              		.loc 1 59 0
 146              		.cfi_startproc
 147              		@ args = 0, pretend = 0, frame = 0
 148              		@ frame_needed = 0, uses_anonymous_args = 0
 149              	.LVL14:
 150 0000 10B5     		push	{r4, lr}
 151              		.cfi_def_cfa_offset 8
 152              		.cfi_offset 4, -8
 153              		.cfi_offset 14, -4
 154              		.loc 1 59 0
 155 0002 0446     		mov	r4, r0
 156              		.loc 1 61 0
 157 0004 4121     		movs	r1, #65
 158 0006 FFF7FEFF 		bl	chMsgSend
 159              	.LVL15:
 160              		.loc 1 62 0
 161 000a 2046     		mov	r0, r4
 162 000c 4221     		movs	r1, #66
 163 000e FFF7FEFF 		bl	chMsgSend
 164              	.LVL16:
 165              		.loc 1 63 0
 166 0012 2046     		mov	r0, r4
 167              		.loc 1 64 0
 168 0014 BDE81040 		pop	{r4, lr}
 169              		.cfi_restore 14
 170              		.cfi_restore 4
ARM GAS  /tmp/cc5cURfh.s 			page 4


 171              		.cfi_def_cfa_offset 0
 172              	.LVL17:
 173              		.loc 1 63 0
 174 0018 4321     		movs	r1, #67
 175 001a FFF7FEBF 		b	chMsgSend
 176              	.LVL18:
 177              		.cfi_endproc
 178              	.LFE170:
 179              		.size	thread, .-thread
 180              		.global	patternmsg
 181              		.global	testmsg1
 182 001e 00BF     		.section	.rodata.testmsg1,"a",%progbits
 183              		.align	2
 184              		.type	testmsg1, %object
 185              		.size	testmsg1, 16
 186              	testmsg1:
 187 0000 04000000 		.word	.LC1
 188 0004 00000000 		.word	0
 189 0008 00000000 		.word	0
 190 000c 00000000 		.word	msg1_execute
 191              		.section	.rodata.str1.4,"aMS",%progbits,1
 192              		.align	2
 193              	.LC0:
 194 0000 41424300 		.ascii	"ABC\000"
 195              	.LC1:
 196 0004 4D657373 		.ascii	"Messages, loop\000"
 196      61676573 
 196      2C206C6F 
 196      6F7000
 197 0013 00       		.section	.rodata.patternmsg,"a",%progbits
 198              		.align	2
 199              		.type	patternmsg, %object
 200              		.size	patternmsg, 8
 201              	patternmsg:
 202 0000 00000000 		.word	testmsg1
 203 0004 00000000 		.word	0
 204              		.text
 205              	.Letext0:
 206              		.file 3 "/usr/lib/gcc/arm-none-eabi/4.9.3/include/stddef.h"
 207              		.file 4 "/usr/include/newlib/machine/_default_types.h"
 208              		.file 5 "/usr/include/newlib/stdint.h"
 209              		.file 6 "/home/peter/ChibiOS_16.1.4/os/rt/ports/ARMCMx/compilers/GCC/chtypes.h"
 210              		.file 7 "/home/peter/ChibiOS_16.1.4/os/rt/include/chsystypes.h"
 211              		.file 8 "/home/peter/ChibiOS_16.1.4/os/rt/include/chschd.h"
 212              		.file 9 "/home/peter/ChibiOS_16.1.4/os/rt/ports/ARMCMx/chcore.h"
 213              		.file 10 "/home/peter/ChibiOS_16.1.4/os/rt/ports/ARMCMx/chcore_v7m.h"
 214              		.file 11 "/home/peter/ChibiOS_16.1.4/os/rt/include/chtm.h"
 215              		.file 12 "/home/peter/ChibiOS_16.1.4/os/rt/include/chsem.h"
 216              		.file 13 "/home/peter/ChibiOS_16.1.4/os/rt/include/chmtx.h"
 217              		.file 14 "/home/peter/ChibiOS_16.1.4/test/rt/test.h"
 218              		.file 15 "/home/peter/ChibiOS_16.1.4/os/ext/CMSIS/include/core_cm3.h"
 219              		.file 16 "/home/peter/ChibiOS_16.1.4/os/rt/include/chmsg.h"