ARM GAS  /tmp/ccTHxsfo.s 			page 1


   1              		.syntax unified
   2              		.cpu cortex-m3
   3              		.fpu softvfp
   4              		.eabi_attribute 20, 1
   5              		.eabi_attribute 21, 1
   6              		.eabi_attribute 23, 3
   7              		.eabi_attribute 24, 1
   8              		.eabi_attribute 25, 1
   9              		.eabi_attribute 26, 1
  10              		.eabi_attribute 30, 2
  11              		.eabi_attribute 34, 1
  12              		.eabi_attribute 18, 4
  13              		.thumb
  14              		.file	"testmbox.c"
  15              		.text
  16              	.Ltext0:
  17              		.cfi_sections	.debug_frame
  18              		.section	.text.mbox1_execute,"ax",%progbits
  19              		.align	2
  20              		.p2align 4,,15
  21              		.thumb
  22              		.thumb_func
  23              		.type	mbox1_execute, %function
  24              	mbox1_execute:
  25              	.LFB171:
  26              		.file 1 "/home/peter/ChibiOS_16.1.4/test/rt/testmbox.c"
  27              		.loc 1 76 0
  28              		.cfi_startproc
  29              		@ args = 0, pretend = 0, frame = 8
  30              		@ frame_needed = 0, uses_anonymous_args = 0
  31              	.LVL0:
  32 0000 2DE9F041 		push	{r4, r5, r6, r7, r8, lr}
  33              		.cfi_def_cfa_offset 24
  34              		.cfi_offset 4, -24
  35              		.cfi_offset 5, -20
  36              		.cfi_offset 6, -16
  37              		.cfi_offset 7, -12
  38              		.cfi_offset 8, -8
  39              		.cfi_offset 14, -4
  40              	.LBB335:
  41              	.LBB336:
  42              	.LBB337:
  43              	.LBB338:
  44              		.file 2 "/home/peter/ChibiOS_16.1.4/os/ext/CMSIS/include/core_cmFunc.h"
  45              		.loc 2 548 0
  46 0004 2023     		movs	r3, #32
  47              	.LBE338:
  48              	.LBE337:
  49              	.LBE336:
  50              	.LBE335:
  51              		.loc 1 76 0
  52 0006 82B0     		sub	sp, sp, #8
  53              		.cfi_def_cfa_offset 32
  54              	.LBB342:
  55              	.LBB341:
  56              	.LBB340:
  57              	.LBB339:
ARM GAS  /tmp/ccTHxsfo.s 			page 2


  58              		.loc 2 548 0
  59              	@ 548 "/home/peter/ChibiOS_16.1.4/os/ext/CMSIS/include/core_cmFunc.h" 1
  60 0008 83F31188 		MSR basepri, r3
  61              	@ 0 "" 2
  62              	.LVL1:
  63              		.thumb
  64 000c CA4E     		ldr	r6, .L39
  65              	.LBE339:
  66              	.LBE340:
  67              	.LBE341:
  68              	.LBE342:
  69              		.loc 1 83 0
  70 000e 0120     		movs	r0, #1
  71 0010 716A     		ldr	r1, [r6, #36]
  72 0012 A1F10501 		sub	r1, #5
  73 0016 B1FA81F1 		clz	r1, r1
  74 001a 4909     		lsrs	r1, r1, #5
  75 001c FFF7FEFF 		bl	_test_assert
  76              	.LVL2:
  77 0020 0028     		cmp	r0, #0
  78 0022 40F01781 		bne	.L32
  79              	.LVL3:
  80              	.LBB343:
  81              	.LBB344:
  82              	.LBB345:
  83              	.LBB346:
  84              	.LBB347:
  85              		.loc 2 548 0
  86              	@ 548 "/home/peter/ChibiOS_16.1.4/os/ext/CMSIS/include/core_cmFunc.h" 1
  87 0026 80F31188 		MSR basepri, r0
  88              	@ 0 "" 2
  89              	.LVL4:
  90              		.thumb
  91 002a 4224     		movs	r4, #66
  92              	.LVL5:
  93              	.L5:
  94              	.LBE347:
  95              	.LBE346:
  96              	.LBE345:
  97              	.LBE344:
  98              	.LBE343:
  99              		.loc 1 89 0
 100 002c C24D     		ldr	r5, .L39
 101 002e 2146     		mov	r1, r4
 102 0030 4FF0FF32 		mov	r2, #-1
 103 0034 2846     		mov	r0, r5
 104 0036 FFF7FEFF 		bl	chMBPost
 105              	.LVL6:
 106              		.loc 1 90 0
 107 003a B0FA80F1 		clz	r1, r0
 108 003e 0220     		movs	r0, #2
 109              	.LVL7:
 110 0040 4909     		lsrs	r1, r1, #5
 111 0042 FFF7FEFF 		bl	_test_assert
 112              	.LVL8:
 113 0046 0134     		adds	r4, r4, #1
 114              	.LVL9:
ARM GAS  /tmp/ccTHxsfo.s 			page 3


 115 0048 80B9     		cbnz	r0, .L1
 116              		.loc 1 88 0 discriminator 2
 117 004a 462C     		cmp	r4, #70
 118 004c EED1     		bne	.L5
 119              		.loc 1 92 0
 120 004e 4121     		movs	r1, #65
 121 0050 2846     		mov	r0, r5
 122 0052 4FF0FF32 		mov	r2, #-1
 123 0056 FFF7FEFF 		bl	chMBPostAhead
 124              	.LVL10:
 125              		.loc 1 93 0
 126 005a B0FA80F1 		clz	r1, r0
 127 005e 0320     		movs	r0, #3
 128              	.LVL11:
 129 0060 4909     		lsrs	r1, r1, #5
 130 0062 FFF7FEFF 		bl	_test_assert
 131              	.LVL12:
 132 0066 0028     		cmp	r0, #0
 133 0068 00F0FA80 		beq	.L34
 134              	.LVL13:
 135              	.L1:
 136              		.loc 1 220 0
 137 006c 02B0     		add	sp, sp, #8
 138              		.cfi_remember_state
 139              		.cfi_def_cfa_offset 24
 140              		@ sp needed
 141 006e BDE8F081 		pop	{r4, r5, r6, r7, r8, pc}
 142              	.LVL14:
 143              	.L38:
 144              		.cfi_restore_state
 145              	.LBB348:
 146              	.LBB349:
 147              	.LBB350:
 148              	.LBB351:
 149              	.LBB352:
 150              		.loc 2 548 0
 151              	@ 548 "/home/peter/ChibiOS_16.1.4/os/ext/CMSIS/include/core_cmFunc.h" 1
 152 0072 85F31188 		MSR basepri, r5
 153              	@ 0 "" 2
 154              	.LVL15:
 155              		.thumb
 156              	.LBE352:
 157              	.LBE351:
 158              	.LBE350:
 159              	.LBE349:
 160              	.LBE348:
 161              	.LBB353:
 162              	.LBB354:
 163              	.LBB355:
 164              	.LBB356:
 165              	@ 548 "/home/peter/ChibiOS_16.1.4/os/ext/CMSIS/include/core_cmFunc.h" 1
 166 0076 87F31188 		MSR basepri, r7
 167              	@ 0 "" 2
 168              	.LVL16:
 169              		.thumb
 170              	.LBE356:
 171              	.LBE355:
ARM GAS  /tmp/ccTHxsfo.s 			page 4


 172              	.LBE354:
 173              	.LBE353:
 174              		.loc 1 180 0
 175 007a A169     		ldr	r1, [r4, #24]
 176 007c 1F20     		movs	r0, #31
 177 007e B1FA81F1 		clz	r1, r1
 178 0082 4909     		lsrs	r1, r1, #5
 179 0084 FFF7FEFF 		bl	_test_assert
 180              	.LVL17:
 181 0088 0028     		cmp	r0, #0
 182 008a 40F09982 		bne	.L31
 183              	.LVL18:
 184              	.LBB357:
 185              	.LBB358:
 186              	.LBB359:
 187              	.LBB360:
 188              	.LBB361:
 189              		.loc 2 548 0
 190              	@ 548 "/home/peter/ChibiOS_16.1.4/os/ext/CMSIS/include/core_cmFunc.h" 1
 191 008e 85F31188 		MSR basepri, r5
 192              	@ 0 "" 2
 193              		.thumb
 194              	.LBE361:
 195              	.LBE360:
 196              	.LBE359:
 197              	.LBE358:
 198              	.LBE357:
 199              		.loc 1 181 0
 200 0092 E168     		ldr	r1, [r4, #12]
 201 0094 A368     		ldr	r3, [r4, #8]
 202 0096 3846     		mov	r0, r7
 203 0098 CB1A     		subs	r3, r1, r3
 204 009a 5942     		rsbs	r1, r3, #0
 205 009c 5941     		adcs	r1, r1, r3
 206 009e FFF7FEFF 		bl	_test_assert
 207              	.LVL19:
 208 00a2 0028     		cmp	r0, #0
 209 00a4 E2D1     		bne	.L1
 210              	.LVL20:
 211              	.LBB362:
 212              	.LBB363:
 213              	.LBB364:
 214              	.LBB365:
 215              		.loc 2 548 0
 216              	@ 548 "/home/peter/ChibiOS_16.1.4/os/ext/CMSIS/include/core_cmFunc.h" 1
 217 00a6 87F31188 		MSR basepri, r7
 218              	@ 0 "" 2
 219              		.thumb
 220              	.LBE365:
 221              	.LBE364:
 222              	.LBE363:
 223              	.LBE362:
 224              		.loc 1 184 0
 225 00aa 4521     		movs	r1, #69
 226 00ac 2046     		mov	r0, r4
 227 00ae FFF7FEFF 		bl	chMBPostAheadI
 228              	.LVL21:
ARM GAS  /tmp/ccTHxsfo.s 			page 5


 229              		.loc 1 185 0
 230 00b2 B0FA80F1 		clz	r1, r0
 231 00b6 2120     		movs	r0, #33
 232              	.LVL22:
 233 00b8 4909     		lsrs	r1, r1, #5
 234 00ba FFF7FEFF 		bl	_test_assert
 235              	.LVL23:
 236 00be 0028     		cmp	r0, #0
 237 00c0 D4D1     		bne	.L1
 238              		.loc 1 186 0
 239 00c2 4421     		movs	r1, #68
 240 00c4 2046     		mov	r0, r4
 241 00c6 FFF7FEFF 		bl	chMBPostAheadI
 242              	.LVL24:
 243              		.loc 1 187 0
 244 00ca B0FA80F1 		clz	r1, r0
 245 00ce 2220     		movs	r0, #34
 246              	.LVL25:
 247 00d0 4909     		lsrs	r1, r1, #5
 248 00d2 FFF7FEFF 		bl	_test_assert
 249              	.LVL26:
 250 00d6 0028     		cmp	r0, #0
 251 00d8 C8D1     		bne	.L1
 252              		.loc 1 188 0
 253 00da 4321     		movs	r1, #67
 254 00dc 2046     		mov	r0, r4
 255 00de FFF7FEFF 		bl	chMBPostAheadI
 256              	.LVL27:
 257              		.loc 1 189 0
 258 00e2 B0FA80F1 		clz	r1, r0
 259 00e6 2320     		movs	r0, #35
 260              	.LVL28:
 261 00e8 4909     		lsrs	r1, r1, #5
 262 00ea FFF7FEFF 		bl	_test_assert
 263              	.LVL29:
 264 00ee 0028     		cmp	r0, #0
 265 00f0 BCD1     		bne	.L1
 266              		.loc 1 190 0
 267 00f2 4221     		movs	r1, #66
 268 00f4 2046     		mov	r0, r4
 269 00f6 FFF7FEFF 		bl	chMBPostAheadI
 270              	.LVL30:
 271              		.loc 1 191 0
 272 00fa B0FA80F1 		clz	r1, r0
 273 00fe 2420     		movs	r0, #36
 274              	.LVL31:
 275 0100 4909     		lsrs	r1, r1, #5
 276 0102 FFF7FEFF 		bl	_test_assert
 277              	.LVL32:
 278 0106 0028     		cmp	r0, #0
 279 0108 B0D1     		bne	.L1
 280              		.loc 1 192 0
 281 010a 8B4C     		ldr	r4, .L39
 282 010c 4121     		movs	r1, #65
 283 010e 2046     		mov	r0, r4
 284 0110 FFF7FEFF 		bl	chMBPostAheadI
 285              	.LVL33:
ARM GAS  /tmp/ccTHxsfo.s 			page 6


 286              	.LBB366:
 287              	.LBB367:
 288              	.LBB368:
 289              	.LBB369:
 290              	.LBB370:
 291              		.loc 2 548 0
 292 0114 0023     		movs	r3, #0
 293              	@ 548 "/home/peter/ChibiOS_16.1.4/os/ext/CMSIS/include/core_cmFunc.h" 1
 294 0116 83F31188 		MSR basepri, r3
 295              	@ 0 "" 2
 296              		.thumb
 297              	.LBE370:
 298              	.LBE369:
 299              	.LBE368:
 300              	.LBE367:
 301              	.LBE366:
 302              		.loc 1 194 0
 303 011a B0FA80F1 		clz	r1, r0
 304 011e 2520     		movs	r0, #37
 305              	.LVL34:
 306 0120 4909     		lsrs	r1, r1, #5
 307 0122 FFF7FEFF 		bl	_test_assert
 308              	.LVL35:
 309 0126 0028     		cmp	r0, #0
 310 0128 A0D1     		bne	.L1
 311              		.loc 1 195 0
 312 012a E168     		ldr	r1, [r4, #12]
 313 012c A368     		ldr	r3, [r4, #8]
 314 012e 2620     		movs	r0, #38
 315 0130 C3EB0108 		rsb	r8, r3, r1
 316 0134 D8F10001 		rsbs	r1, r8, #0
 317 0138 41EB0801 		adc	r1, r1, r8
 318 013c FFF7FEFF 		bl	_test_assert
 319              	.LVL36:
 320 0140 0028     		cmp	r0, #0
 321 0142 93D1     		bne	.L1
 322              	.LBB371:
 323              	.LBB372:
 324              	.LBB373:
 325              	.LBB374:
 326              	.LBB375:
 327              		.loc 2 548 0
 328 0144 0746     		mov	r7, r0
 329              	.LBE375:
 330              	.LBE374:
 331              	.LBE373:
 332              	.LBE372:
 333              	.LBE371:
 334 0146 0524     		movs	r4, #5
 335              	.LBB380:
 336              	.LBB381:
 337              	.LBB382:
 338              	.LBB383:
 339 0148 4FF02008 		mov	r8, #32
 340              	.LVL37:
 341              	.L16:
 342 014c 2026     		movs	r6, #32
ARM GAS  /tmp/ccTHxsfo.s 			page 7


 343              	@ 548 "/home/peter/ChibiOS_16.1.4/os/ext/CMSIS/include/core_cmFunc.h" 1
 344 014e 88F31188 		MSR basepri, r8
 345              	@ 0 "" 2
 346              		.thumb
 347              	.LBE383:
 348              	.LBE382:
 349              	.LBE381:
 350              	.LBE380:
 351              		.loc 1 198 0
 352 0152 794D     		ldr	r5, .L39
 353 0154 01A9     		add	r1, sp, #4
 354 0156 2846     		mov	r0, r5
 355 0158 FFF7FEFF 		bl	chMBFetchI
 356              	.LVL38:
 357              	.LBB384:
 358              	.LBB379:
 359              	.LBB378:
 360              	.LBB377:
 361              	.LBB376:
 362              		.loc 2 548 0
 363              	@ 548 "/home/peter/ChibiOS_16.1.4/os/ext/CMSIS/include/core_cmFunc.h" 1
 364 015c 87F31188 		MSR basepri, r7
 365              	@ 0 "" 2
 366              		.thumb
 367              	.LBE376:
 368              	.LBE377:
 369              	.LBE378:
 370              	.LBE379:
 371              	.LBE384:
 372              		.loc 1 200 0
 373 0160 B0FA80F1 		clz	r1, r0
 374 0164 2720     		movs	r0, #39
 375              	.LVL39:
 376 0166 4909     		lsrs	r1, r1, #5
 377 0168 FFF7FEFF 		bl	_test_assert
 378              	.LVL40:
 379 016c 0028     		cmp	r0, #0
 380 016e 7FF47DAF 		bne	.L1
 381              		.loc 1 201 0 discriminator 2
 382 0172 9DF80400 		ldrb	r0, [sp, #4]	@ zero_extendqisi2
 383 0176 FFF7FEFF 		bl	test_emit_token
 384              	.LVL41:
 385              		.loc 1 196 0 discriminator 2
 386 017a 013C     		subs	r4, r4, #1
 387              	.LVL42:
 388 017c E6D1     		bne	.L16
 389              		.loc 1 203 0
 390 017e 2820     		movs	r0, #40
 391 0180 6E49     		ldr	r1, .L39+4
 392 0182 FFF7FEFF 		bl	_test_assert_sequence
 393              	.LVL43:
 394 0186 0028     		cmp	r0, #0
 395 0188 7FF470AF 		bne	.L1
 396              	.LVL44:
 397              	.LBB385:
 398              	.LBB386:
 399              	.LBB387:
ARM GAS  /tmp/ccTHxsfo.s 			page 8


 400              	.LBB388:
 401              		.loc 2 548 0
 402              	@ 548 "/home/peter/ChibiOS_16.1.4/os/ext/CMSIS/include/core_cmFunc.h" 1
 403 018c 86F31188 		MSR basepri, r6
 404              	@ 0 "" 2
 405              	.LVL45:
 406              		.thumb
 407              	.LBE388:
 408              	.LBE387:
 409              	.LBE386:
 410              	.LBE385:
 411              		.loc 1 204 0
 412 0190 696A     		ldr	r1, [r5, #36]
 413 0192 2920     		movs	r0, #41
 414 0194 A1F1050C 		sub	ip, r1, #5
 415 0198 DCF10001 		rsbs	r1, ip, #0
 416 019c 41EB0C01 		adc	r1, r1, ip
 417 01a0 FFF7FEFF 		bl	_test_assert
 418              	.LVL46:
 419 01a4 0028     		cmp	r0, #0
 420 01a6 40F0C480 		bne	.L30
 421              	.LVL47:
 422              	.LBB389:
 423              	.LBB390:
 424              	.LBB391:
 425              	.LBB392:
 426              	.LBB393:
 427              		.loc 2 548 0
 428              	@ 548 "/home/peter/ChibiOS_16.1.4/os/ext/CMSIS/include/core_cmFunc.h" 1
 429 01aa 84F31188 		MSR basepri, r4
 430              	@ 0 "" 2
 431              	.LVL48:
 432              		.thumb
 433              	.LBE393:
 434              	.LBE392:
 435              	.LBE391:
 436              	.LBE390:
 437              	.LBE389:
 438              	.LBB394:
 439              	.LBB395:
 440              	.LBB396:
 441              	.LBB397:
 442              	@ 548 "/home/peter/ChibiOS_16.1.4/os/ext/CMSIS/include/core_cmFunc.h" 1
 443 01ae 86F31188 		MSR basepri, r6
 444              	@ 0 "" 2
 445              	.LVL49:
 446              		.thumb
 447              	.LBE397:
 448              	.LBE396:
 449              	.LBE395:
 450              	.LBE394:
 451              		.loc 1 205 0
 452 01b2 A969     		ldr	r1, [r5, #24]
 453 01b4 2A20     		movs	r0, #42
 454 01b6 B1FA81F1 		clz	r1, r1
 455 01ba 4909     		lsrs	r1, r1, #5
 456 01bc FFF7FEFF 		bl	_test_assert
ARM GAS  /tmp/ccTHxsfo.s 			page 9


 457              	.LVL50:
 458 01c0 0028     		cmp	r0, #0
 459 01c2 40F0B680 		bne	.L30
 460              	.LVL51:
 461              	.LBB398:
 462              	.LBB399:
 463              	.LBB400:
 464              	.LBB401:
 465              	.LBB402:
 466              		.loc 2 548 0
 467              	@ 548 "/home/peter/ChibiOS_16.1.4/os/ext/CMSIS/include/core_cmFunc.h" 1
 468 01c6 84F31188 		MSR basepri, r4
 469              	@ 0 "" 2
 470              		.thumb
 471              	.LBE402:
 472              	.LBE401:
 473              	.LBE400:
 474              	.LBE399:
 475              	.LBE398:
 476              		.loc 1 206 0
 477 01ca E968     		ldr	r1, [r5, #12]
 478 01cc AB68     		ldr	r3, [r5, #8]
 479 01ce 2B20     		movs	r0, #43
 480 01d0 C3EB010E 		rsb	lr, r3, r1
 481 01d4 DEF10001 		rsbs	r1, lr, #0
 482 01d8 41EB0E01 		adc	r1, r1, lr
 483 01dc FFF7FEFF 		bl	_test_assert
 484              	.LVL52:
 485 01e0 0028     		cmp	r0, #0
 486 01e2 7FF443AF 		bne	.L1
 487              		.loc 1 211 0
 488 01e6 2846     		mov	r0, r5
 489 01e8 FFF7FEFF 		bl	chMBReset
 490              	.LVL53:
 491              	.LBB403:
 492              	.LBB404:
 493              	.LBB405:
 494              	.LBB406:
 495              		.loc 2 548 0
 496              	@ 548 "/home/peter/ChibiOS_16.1.4/os/ext/CMSIS/include/core_cmFunc.h" 1
 497 01ec 86F31188 		MSR basepri, r6
 498              	@ 0 "" 2
 499              	.LVL54:
 500              		.thumb
 501              	.LBE406:
 502              	.LBE405:
 503              	.LBE404:
 504              	.LBE403:
 505              		.loc 1 216 0
 506 01f0 696A     		ldr	r1, [r5, #36]
 507 01f2 2C20     		movs	r0, #44
 508 01f4 4F1F     		subs	r7, r1, #5
 509 01f6 7942     		rsbs	r1, r7, #0
 510 01f8 7941     		adcs	r1, r1, r7
 511 01fa FFF7FEFF 		bl	_test_assert
 512              	.LVL55:
 513 01fe 0028     		cmp	r0, #0
ARM GAS  /tmp/ccTHxsfo.s 			page 10


 514 0200 40F09780 		bne	.L30
 515              	.LVL56:
 516              	.LBB407:
 517              	.LBB408:
 518              	.LBB409:
 519              	.LBB410:
 520              	.LBB411:
 521              		.loc 2 548 0
 522              	@ 548 "/home/peter/ChibiOS_16.1.4/os/ext/CMSIS/include/core_cmFunc.h" 1
 523 0204 84F31188 		MSR basepri, r4
 524              	@ 0 "" 2
 525              	.LVL57:
 526              		.thumb
 527              	.LBE411:
 528              	.LBE410:
 529              	.LBE409:
 530              	.LBE408:
 531              	.LBE407:
 532              	.LBB412:
 533              	.LBB413:
 534              	.LBB414:
 535              	.LBB415:
 536              	@ 548 "/home/peter/ChibiOS_16.1.4/os/ext/CMSIS/include/core_cmFunc.h" 1
 537 0208 86F31188 		MSR basepri, r6
 538              	@ 0 "" 2
 539              	.LVL58:
 540              		.thumb
 541              	.LBE415:
 542              	.LBE414:
 543              	.LBE413:
 544              	.LBE412:
 545              		.loc 1 217 0
 546 020c A969     		ldr	r1, [r5, #24]
 547 020e 2D20     		movs	r0, #45
 548 0210 B1FA81F1 		clz	r1, r1
 549 0214 4909     		lsrs	r1, r1, #5
 550 0216 FFF7FEFF 		bl	_test_assert
 551              	.LVL59:
 552 021a 0028     		cmp	r0, #0
 553 021c 40F08980 		bne	.L30
 554              	.LVL60:
 555              	.LBB416:
 556              	.LBB417:
 557              	.LBB418:
 558              	.LBB419:
 559              	.LBB420:
 560              		.loc 2 548 0
 561              	@ 548 "/home/peter/ChibiOS_16.1.4/os/ext/CMSIS/include/core_cmFunc.h" 1
 562 0220 84F31188 		MSR basepri, r4
 563              	@ 0 "" 2
 564              	.LVL61:
 565              		.thumb
 566              	.LBE420:
 567              	.LBE419:
 568              	.LBE418:
 569              	.LBE417:
 570              	.LBE416:
ARM GAS  /tmp/ccTHxsfo.s 			page 11


 571              	.LBB421:
 572              	.LBB422:
 573              	.LBB423:
 574              	.LBB424:
 575              	@ 548 "/home/peter/ChibiOS_16.1.4/os/ext/CMSIS/include/core_cmFunc.h" 1
 576 0224 86F31188 		MSR basepri, r6
 577              	@ 0 "" 2
 578              		.thumb
 579              	.LBE424:
 580              	.LBE423:
 581              	.LBE422:
 582              	.LBE421:
 583              		.loc 1 218 0
 584 0228 2968     		ldr	r1, [r5]
 585 022a AB68     		ldr	r3, [r5, #8]
 586 022c 2E20     		movs	r0, #46
 587 022e CA1A     		subs	r2, r1, r3
 588 0230 5142     		rsbs	r1, r2, #0
 589 0232 5141     		adcs	r1, r1, r2
 590 0234 FFF7FEFF 		bl	_test_assert
 591              	.LVL62:
 592 0238 0028     		cmp	r0, #0
 593 023a 7AD1     		bne	.L30
 594              	.LVL63:
 595              	.LBB425:
 596              	.LBB426:
 597              	.LBB427:
 598              	.LBB428:
 599              	.LBB429:
 600              		.loc 2 548 0
 601              	@ 548 "/home/peter/ChibiOS_16.1.4/os/ext/CMSIS/include/core_cmFunc.h" 1
 602 023c 84F31188 		MSR basepri, r4
 603              	@ 0 "" 2
 604              	.LVL64:
 605              		.thumb
 606              	.LBE429:
 607              	.LBE428:
 608              	.LBE427:
 609              	.LBE426:
 610              	.LBE425:
 611              	.LBB430:
 612              	.LBB431:
 613              	.LBB432:
 614              	.LBB433:
 615              	@ 548 "/home/peter/ChibiOS_16.1.4/os/ext/CMSIS/include/core_cmFunc.h" 1
 616 0240 86F31188 		MSR basepri, r6
 617              	@ 0 "" 2
 618              		.thumb
 619              	.LBE433:
 620              	.LBE432:
 621              	.LBE431:
 622              	.LBE430:
 623              		.loc 1 219 0
 624 0244 2968     		ldr	r1, [r5]
 625 0246 EB68     		ldr	r3, [r5, #12]
 626 0248 2F20     		movs	r0, #47
 627 024a CB1A     		subs	r3, r1, r3
ARM GAS  /tmp/ccTHxsfo.s 			page 12


 628 024c 5942     		rsbs	r1, r3, #0
 629 024e 5941     		adcs	r1, r1, r3
 630 0250 FFF7FEFF 		bl	_test_assert
 631              	.LVL65:
 632              	.L32:
 633              	.LBB434:
 634              	.LBB435:
 635              	.LBB436:
 636              	.LBB437:
 637              	.LBB438:
 638              		.loc 2 548 0
 639 0254 0023     		movs	r3, #0
 640              	.L22:
 641              	.LVL66:
 642              	.LBE438:
 643              	.LBE437:
 644              	.LBE436:
 645              	.LBE435:
 646              	.LBE434:
 647              	.LBB439:
 648              	.LBB440:
 649              	.LBB441:
 650              	.LBB442:
 651              	.LBB443:
 652              	@ 548 "/home/peter/ChibiOS_16.1.4/os/ext/CMSIS/include/core_cmFunc.h" 1
 653 0256 83F31188 		MSR basepri, r3
 654              	@ 0 "" 2
 655              		.thumb
 656              	.LBE443:
 657              	.LBE442:
 658              	.LBE441:
 659              	.LBE440:
 660              	.LBE439:
 661              		.loc 1 220 0
 662 025a 02B0     		add	sp, sp, #8
 663              		.cfi_remember_state
 664              		.cfi_def_cfa_offset 24
 665              		@ sp needed
 666 025c BDE8F081 		pop	{r4, r5, r6, r7, r8, pc}
 667              	.LVL67:
 668              	.L34:
 669              		.cfi_restore_state
 670              		.loc 1 98 0
 671 0260 5821     		movs	r1, #88
 672 0262 0122     		movs	r2, #1
 673 0264 2846     		mov	r0, r5
 674 0266 FFF7FEFF 		bl	chMBPost
 675              	.LVL68:
 676              		.loc 1 99 0
 677 026a A0F1FF31 		sub	r1, r0, #-1
 678 026e B1FA81F1 		clz	r1, r1
 679 0272 0420     		movs	r0, #4
 680              	.LVL69:
 681 0274 4909     		lsrs	r1, r1, #5
 682 0276 FFF7FEFF 		bl	_test_assert
 683              	.LVL70:
 684 027a 0446     		mov	r4, r0
ARM GAS  /tmp/ccTHxsfo.s 			page 13


 685              	.LVL71:
 686 027c 0028     		cmp	r0, #0
 687 027e 7FF4F5AE 		bne	.L1
 688              	.LVL72:
 689              	.LBB444:
 690              	.LBB445:
 691              	.LBB446:
 692              	.LBB447:
 693              		.loc 2 548 0
 694 0282 2027     		movs	r7, #32
 695              	@ 548 "/home/peter/ChibiOS_16.1.4/os/ext/CMSIS/include/core_cmFunc.h" 1
 696 0284 87F31188 		MSR basepri, r7
 697              	@ 0 "" 2
 698              		.thumb
 699              	.LBE447:
 700              	.LBE446:
 701              	.LBE445:
 702              	.LBE444:
 703              		.loc 1 101 0
 704 0288 5821     		movs	r1, #88
 705 028a 2846     		mov	r0, r5
 706 028c FFF7FEFF 		bl	chMBPostI
 707              	.LVL73:
 708 0290 0146     		mov	r1, r0
 709              	.LVL74:
 710              	.LBB448:
 711              	.LBB449:
 712              	.LBB450:
 713              	.LBB451:
 714              	.LBB452:
 715              		.loc 2 548 0
 716              	@ 548 "/home/peter/ChibiOS_16.1.4/os/ext/CMSIS/include/core_cmFunc.h" 1
 717 0292 84F31188 		MSR basepri, r4
 718              	@ 0 "" 2
 719              		.thumb
 720              	.LBE452:
 721              	.LBE451:
 722              	.LBE450:
 723              	.LBE449:
 724              	.LBE448:
 725              		.loc 1 103 0
 726 0296 A1F1FF31 		sub	r1, r1, #-1
 727 029a B1FA81F1 		clz	r1, r1
 728 029e 0520     		movs	r0, #5
 729              	.LVL75:
 730 02a0 4909     		lsrs	r1, r1, #5
 731 02a2 FFF7FEFF 		bl	_test_assert
 732              	.LVL76:
 733 02a6 0028     		cmp	r0, #0
 734 02a8 7FF4E0AE 		bne	.L1
 735              		.loc 1 104 0
 736 02ac 5821     		movs	r1, #88
 737 02ae 0122     		movs	r2, #1
 738 02b0 2846     		mov	r0, r5
 739 02b2 FFF7FEFF 		bl	chMBPostAhead
 740              	.LVL77:
 741              		.loc 1 105 0
ARM GAS  /tmp/ccTHxsfo.s 			page 14


 742 02b6 A0F1FF31 		sub	r1, r0, #-1
 743 02ba B1FA81F1 		clz	r1, r1
 744 02be 0620     		movs	r0, #6
 745              	.LVL78:
 746 02c0 4909     		lsrs	r1, r1, #5
 747 02c2 FFF7FEFF 		bl	_test_assert
 748              	.LVL79:
 749 02c6 0446     		mov	r4, r0
 750 02c8 0028     		cmp	r0, #0
 751 02ca 7FF4CFAE 		bne	.L1
 752              	.LVL80:
 753              	.LBB453:
 754              	.LBB454:
 755              	.LBB455:
 756              	.LBB456:
 757              		.loc 2 548 0
 758              	@ 548 "/home/peter/ChibiOS_16.1.4/os/ext/CMSIS/include/core_cmFunc.h" 1
 759 02ce 87F31188 		MSR basepri, r7
 760              	@ 0 "" 2
 761              		.thumb
 762              	.LBE456:
 763              	.LBE455:
 764              	.LBE454:
 765              	.LBE453:
 766              		.loc 1 107 0
 767 02d2 5821     		movs	r1, #88
 768 02d4 2846     		mov	r0, r5
 769 02d6 FFF7FEFF 		bl	chMBPostAheadI
 770              	.LVL81:
 771 02da 0146     		mov	r1, r0
 772              	.LVL82:
 773              	.LBB457:
 774              	.LBB458:
 775              	.LBB459:
 776              	.LBB460:
 777              	.LBB461:
 778              		.loc 2 548 0
 779              	@ 548 "/home/peter/ChibiOS_16.1.4/os/ext/CMSIS/include/core_cmFunc.h" 1
 780 02dc 84F31188 		MSR basepri, r4
 781              	@ 0 "" 2
 782              		.thumb
 783              	.LBE461:
 784              	.LBE460:
 785              	.LBE459:
 786              	.LBE458:
 787              	.LBE457:
 788              		.loc 1 109 0
 789 02e0 A1F1FF31 		sub	r1, r1, #-1
 790 02e4 B1FA81F1 		clz	r1, r1
 791 02e8 0720     		movs	r0, #7
 792              	.LVL83:
 793 02ea 4909     		lsrs	r1, r1, #5
 794 02ec FFF7FEFF 		bl	_test_assert
 795              	.LVL84:
 796 02f0 8046     		mov	r8, r0
 797 02f2 0028     		cmp	r0, #0
 798 02f4 7FF4BAAE 		bne	.L1
ARM GAS  /tmp/ccTHxsfo.s 			page 15


 799              	.LVL85:
 800              	.LBB462:
 801              	.LBB463:
 802              	.LBB464:
 803              	.LBB465:
 804              		.loc 2 548 0
 805              	@ 548 "/home/peter/ChibiOS_16.1.4/os/ext/CMSIS/include/core_cmFunc.h" 1
 806 02f8 87F31188 		MSR basepri, r7
 807              	@ 0 "" 2
 808              	.LVL86:
 809              		.thumb
 810              	.LBE465:
 811              	.LBE464:
 812              	.LBE463:
 813              	.LBE462:
 814              		.loc 1 114 0
 815 02fc 696A     		ldr	r1, [r5, #36]
 816 02fe 0820     		movs	r0, #8
 817 0300 B1FA81F1 		clz	r1, r1
 818 0304 4909     		lsrs	r1, r1, #5
 819 0306 FFF7FEFF 		bl	_test_assert
 820              	.LVL87:
 821 030a 0446     		mov	r4, r0
 822 030c 10B1     		cbz	r0, .L6
 823              	.LVL88:
 824              	.LBB466:
 825              	.LBB467:
 826              	.LBB468:
 827              	.LBB469:
 828              	.LBB470:
 829              		.loc 2 548 0
 830              	@ 548 "/home/peter/ChibiOS_16.1.4/os/ext/CMSIS/include/core_cmFunc.h" 1
 831 030e 88F31188 		MSR basepri, r8
 832              	@ 0 "" 2
 833              		.thumb
 834 0312 ABE6     		b	.L1
 835              	.LVL89:
 836              	.L6:
 837              	.LBE470:
 838              	.LBE469:
 839              	.LBE468:
 840              	.LBE467:
 841              	.LBE466:
 842              	.LBB471:
 843              	.LBB472:
 844              	.LBB473:
 845              	.LBB474:
 846              	.LBB475:
 847              	@ 548 "/home/peter/ChibiOS_16.1.4/os/ext/CMSIS/include/core_cmFunc.h" 1
 848 0314 80F31188 		MSR basepri, r0
 849              	@ 0 "" 2
 850              	.LVL90:
 851              		.thumb
 852              	.LBE475:
 853              	.LBE474:
 854              	.LBE473:
 855              	.LBE472:
ARM GAS  /tmp/ccTHxsfo.s 			page 16


 856              	.LBE471:
 857              	.LBB476:
 858              	.LBB477:
 859              	.LBB478:
 860              	.LBB479:
 861              	@ 548 "/home/peter/ChibiOS_16.1.4/os/ext/CMSIS/include/core_cmFunc.h" 1
 862 0318 87F31188 		MSR basepri, r7
 863              	@ 0 "" 2
 864              	.LVL91:
 865              		.thumb
 866              	.LBE479:
 867              	.LBE478:
 868              	.LBE477:
 869              	.LBE476:
 870              		.loc 1 115 0
 871 031c A969     		ldr	r1, [r5, #24]
 872 031e 0920     		movs	r0, #9
 873 0320 A1F1050E 		sub	lr, r1, #5
 874 0324 DEF10001 		rsbs	r1, lr, #0
 875 0328 41EB0E01 		adc	r1, r1, lr
 876 032c FFF7FEFF 		bl	_test_assert
 877              	.LVL92:
 878 0330 30B1     		cbz	r0, .L35
 879              	.LVL93:
 880              	.L30:
 881              	.LBB480:
 882              	.LBB481:
 883              	.LBB482:
 884              	.LBB483:
 885              	.LBB484:
 886              		.loc 2 548 0
 887              	@ 548 "/home/peter/ChibiOS_16.1.4/os/ext/CMSIS/include/core_cmFunc.h" 1
 888 0332 84F31188 		MSR basepri, r4
 889              	@ 0 "" 2
 890              		.thumb
 891 0336 99E6     		b	.L1
 892              	.L40:
 893              		.align	2
 894              	.L39:
 895 0338 00000000 		.word	.LANCHOR0
 896 033c 00000000 		.word	.LC0
 897              	.LVL94:
 898              	.L35:
 899              	.LBE484:
 900              	.LBE483:
 901              	.LBE482:
 902              	.LBE481:
 903              	.LBE480:
 904              	.LBB485:
 905              	.LBB486:
 906              	.LBB487:
 907              	.LBB488:
 908              	.LBB489:
 909              	@ 548 "/home/peter/ChibiOS_16.1.4/os/ext/CMSIS/include/core_cmFunc.h" 1
 910 0340 80F31188 		MSR basepri, r0
 911              	@ 0 "" 2
 912              	.LVL95:
ARM GAS  /tmp/ccTHxsfo.s 			page 17


 913              		.thumb
 914              	.LBE489:
 915              	.LBE488:
 916              	.LBE487:
 917              	.LBE486:
 918              	.LBE485:
 919              	.LBB490:
 920              	.LBB491:
 921              	.LBB492:
 922              	.LBB493:
 923              	@ 548 "/home/peter/ChibiOS_16.1.4/os/ext/CMSIS/include/core_cmFunc.h" 1
 924 0344 87F31188 		MSR basepri, r7
 925              	@ 0 "" 2
 926              		.thumb
 927              	.LBE493:
 928              	.LBE492:
 929              	.LBE491:
 930              	.LBE490:
 931              		.loc 1 116 0
 932 0348 E968     		ldr	r1, [r5, #12]
 933 034a AB68     		ldr	r3, [r5, #8]
 934 034c 0A20     		movs	r0, #10
 935 034e CC1A     		subs	r4, r1, r3
 936 0350 6142     		rsbs	r1, r4, #0
 937 0352 6141     		adcs	r1, r1, r4
 938 0354 FFF7FEFF 		bl	_test_assert
 939              	.LVL96:
 940              	.LBB494:
 941              	.LBB495:
 942              	.LBB496:
 943              	.LBB497:
 944              	.LBB498:
 945              		.loc 2 548 0
 946 0358 0023     		movs	r3, #0
 947              	.LBE498:
 948              	.LBE497:
 949              	.LBE496:
 950              	.LBE495:
 951              	.LBE494:
 952              		.loc 1 116 0
 953 035a 0028     		cmp	r0, #0
 954 035c 7FF47BAF 		bne	.L22
 955              	.LVL97:
 956              	.LBB499:
 957              	.LBB500:
 958              	.LBB501:
 959              	.LBB502:
 960              	.LBB503:
 961              		.loc 2 548 0
 962              	@ 548 "/home/peter/ChibiOS_16.1.4/os/ext/CMSIS/include/core_cmFunc.h" 1
 963 0360 83F31188 		MSR basepri, r3
 964              	@ 0 "" 2
 965              	.LVL98:
 966              		.thumb
 967 0364 0525     		movs	r5, #5
 968 0366 05E0     		b	.L9
 969              	.LVL99:
ARM GAS  /tmp/ccTHxsfo.s 			page 18


 970              	.L37:
 971              	.LBE503:
 972              	.LBE502:
 973              	.LBE501:
 974              	.LBE500:
 975              	.LBE499:
 976              		.loc 1 124 0 discriminator 2
 977 0368 9DF80400 		ldrb	r0, [sp, #4]	@ zero_extendqisi2
 978 036c FFF7FEFF 		bl	test_emit_token
 979              	.LVL100:
 980              		.loc 1 121 0 discriminator 2
 981 0370 013D     		subs	r5, r5, #1
 982              	.LVL101:
 983 0372 0FD0     		beq	.L36
 984              	.LVL102:
 985              	.L9:
 986              		.loc 1 122 0
 987 0374 944C     		ldr	r4, .L41
 988 0376 01A9     		add	r1, sp, #4
 989 0378 2046     		mov	r0, r4
 990 037a 4FF0FF32 		mov	r2, #-1
 991 037e FFF7FEFF 		bl	chMBFetch
 992              	.LVL103:
 993              		.loc 1 123 0
 994 0382 B0FA80F1 		clz	r1, r0
 995 0386 0B20     		movs	r0, #11
 996              	.LVL104:
 997 0388 4909     		lsrs	r1, r1, #5
 998 038a FFF7FEFF 		bl	_test_assert
 999              	.LVL105:
 1000 038e 0028     		cmp	r0, #0
 1001 0390 EAD0     		beq	.L37
 1002 0392 6BE6     		b	.L1
 1003              	.L36:
 1004              		.loc 1 126 0
 1005 0394 0C20     		movs	r0, #12
 1006 0396 8D49     		ldr	r1, .L41+4
 1007 0398 FFF7FEFF 		bl	_test_assert_sequence
 1008              	.LVL106:
 1009 039c 0028     		cmp	r0, #0
 1010 039e 7FF465AE 		bne	.L1
 1011              		.loc 1 131 0
 1012 03a2 4721     		movs	r1, #71
 1013 03a4 2046     		mov	r0, r4
 1014 03a6 4FF0FF32 		mov	r2, #-1
 1015 03aa FFF7FEFF 		bl	chMBPost
 1016              	.LVL107:
 1017              		.loc 1 132 0
 1018 03ae B0FA80F1 		clz	r1, r0
 1019 03b2 0D20     		movs	r0, #13
 1020              	.LVL108:
 1021 03b4 4909     		lsrs	r1, r1, #5
 1022 03b6 FFF7FEFF 		bl	_test_assert
 1023              	.LVL109:
 1024 03ba 0028     		cmp	r0, #0
 1025 03bc 7FF456AE 		bne	.L1
 1026              		.loc 1 133 0
ARM GAS  /tmp/ccTHxsfo.s 			page 19


 1027 03c0 01A9     		add	r1, sp, #4
 1028 03c2 2046     		mov	r0, r4
 1029 03c4 4FF0FF32 		mov	r2, #-1
 1030 03c8 FFF7FEFF 		bl	chMBFetch
 1031              	.LVL110:
 1032              		.loc 1 134 0
 1033 03cc B0FA80F1 		clz	r1, r0
 1034 03d0 0E20     		movs	r0, #14
 1035              	.LVL111:
 1036 03d2 4909     		lsrs	r1, r1, #5
 1037 03d4 FFF7FEFF 		bl	_test_assert
 1038              	.LVL112:
 1039 03d8 0028     		cmp	r0, #0
 1040 03da 7FF447AE 		bne	.L1
 1041              		.loc 1 135 0
 1042 03de 2168     		ldr	r1, [r4]
 1043 03e0 A368     		ldr	r3, [r4, #8]
 1044 03e2 0F20     		movs	r0, #15
 1045 03e4 CA1A     		subs	r2, r1, r3
 1046 03e6 5142     		rsbs	r1, r2, #0
 1047 03e8 5141     		adcs	r1, r1, r2
 1048 03ea FFF7FEFF 		bl	_test_assert
 1049              	.LVL113:
 1050 03ee 0028     		cmp	r0, #0
 1051 03f0 7FF43CAE 		bne	.L1
 1052              		.loc 1 136 0
 1053 03f4 2168     		ldr	r1, [r4]
 1054 03f6 E368     		ldr	r3, [r4, #12]
 1055 03f8 1020     		movs	r0, #16
 1056 03fa CB1A     		subs	r3, r1, r3
 1057 03fc 5942     		rsbs	r1, r3, #0
 1058 03fe 5941     		adcs	r1, r1, r3
 1059 0400 FFF7FEFF 		bl	_test_assert
 1060              	.LVL114:
 1061 0404 0028     		cmp	r0, #0
 1062 0406 7FF431AE 		bne	.L1
 1063              		.loc 1 141 0
 1064 040a 01A9     		add	r1, sp, #4
 1065 040c 2046     		mov	r0, r4
 1066 040e 0122     		movs	r2, #1
 1067 0410 FFF7FEFF 		bl	chMBFetch
 1068              	.LVL115:
 1069              		.loc 1 142 0
 1070 0414 00F10108 		add	r8, r0, #1
 1071 0418 D8F10001 		rsbs	r1, r8, #0
 1072 041c 41EB0801 		adc	r1, r1, r8
 1073 0420 1120     		movs	r0, #17
 1074              	.LVL116:
 1075 0422 FFF7FEFF 		bl	_test_assert
 1076              	.LVL117:
 1077 0426 0028     		cmp	r0, #0
 1078 0428 7FF420AE 		bne	.L1
 1079              	.LVL118:
 1080              	.LBB504:
 1081              	.LBB505:
 1082              	.LBB506:
 1083              	.LBB507:
ARM GAS  /tmp/ccTHxsfo.s 			page 20


 1084              		.loc 2 548 0
 1085 042c 2027     		movs	r7, #32
 1086              	@ 548 "/home/peter/ChibiOS_16.1.4/os/ext/CMSIS/include/core_cmFunc.h" 1
 1087 042e 87F31188 		MSR basepri, r7
 1088              	@ 0 "" 2
 1089              		.thumb
 1090              	.LBE507:
 1091              	.LBE506:
 1092              	.LBE505:
 1093              	.LBE504:
 1094              		.loc 1 144 0
 1095 0432 01A9     		add	r1, sp, #4
 1096 0434 2046     		mov	r0, r4
 1097 0436 FFF7FEFF 		bl	chMBFetchI
 1098              	.LVL119:
 1099 043a 0146     		mov	r1, r0
 1100              	.LVL120:
 1101              	.LBB508:
 1102              	.LBB509:
 1103              	.LBB510:
 1104              	.LBB511:
 1105              	.LBB512:
 1106              		.loc 2 548 0
 1107              	@ 548 "/home/peter/ChibiOS_16.1.4/os/ext/CMSIS/include/core_cmFunc.h" 1
 1108 043c 85F31188 		MSR basepri, r5
 1109              	@ 0 "" 2
 1110              		.thumb
 1111              	.LBE512:
 1112              	.LBE511:
 1113              	.LBE510:
 1114              	.LBE509:
 1115              	.LBE508:
 1116              		.loc 1 146 0
 1117 0440 01F1010C 		add	ip, r1, #1
 1118 0444 DCF10001 		rsbs	r1, ip, #0
 1119 0448 41EB0C01 		adc	r1, r1, ip
 1120 044c 1220     		movs	r0, #18
 1121              	.LVL121:
 1122 044e FFF7FEFF 		bl	_test_assert
 1123              	.LVL122:
 1124 0452 0028     		cmp	r0, #0
 1125 0454 7FF40AAE 		bne	.L1
 1126              	.LVL123:
 1127              	.LBB513:
 1128              	.LBB514:
 1129              	.LBB515:
 1130              	.LBB516:
 1131              		.loc 2 548 0
 1132              	@ 548 "/home/peter/ChibiOS_16.1.4/os/ext/CMSIS/include/core_cmFunc.h" 1
 1133 0458 87F31188 		MSR basepri, r7
 1134              	@ 0 "" 2
 1135              	.LVL124:
 1136              		.thumb
 1137              	.LBE516:
 1138              	.LBE515:
 1139              	.LBE514:
 1140              	.LBE513:
ARM GAS  /tmp/ccTHxsfo.s 			page 21


 1141              		.loc 1 151 0
 1142 045c 616A     		ldr	r1, [r4, #36]
 1143 045e 1320     		movs	r0, #19
 1144 0460 A1F1050E 		sub	lr, r1, #5
 1145 0464 DEF10001 		rsbs	r1, lr, #0
 1146 0468 41EB0E01 		adc	r1, r1, lr
 1147 046c FFF7FEFF 		bl	_test_assert
 1148              	.LVL125:
 1149 0470 0028     		cmp	r0, #0
 1150 0472 7FF4EFAE 		bne	.L32
 1151              	.LVL126:
 1152              	.LBB517:
 1153              	.LBB518:
 1154              	.LBB519:
 1155              	.LBB520:
 1156              	.LBB521:
 1157              		.loc 2 548 0
 1158 0476 0027     		movs	r7, #0
 1159              	@ 548 "/home/peter/ChibiOS_16.1.4/os/ext/CMSIS/include/core_cmFunc.h" 1
 1160 0478 87F31188 		MSR basepri, r7
 1161              	@ 0 "" 2
 1162              	.LVL127:
 1163              		.thumb
 1164              	.LBE521:
 1165              	.LBE520:
 1166              	.LBE519:
 1167              	.LBE518:
 1168              	.LBE517:
 1169              	.LBB522:
 1170              	.LBB523:
 1171              	.LBB524:
 1172              	.LBB525:
 1173 047c 2025     		movs	r5, #32
 1174              	.LVL128:
 1175              	@ 548 "/home/peter/ChibiOS_16.1.4/os/ext/CMSIS/include/core_cmFunc.h" 1
 1176 047e 85F31188 		MSR basepri, r5
 1177              	@ 0 "" 2
 1178              	.LVL129:
 1179              		.thumb
 1180              	.LBE525:
 1181              	.LBE524:
 1182              	.LBE523:
 1183              	.LBE522:
 1184              		.loc 1 152 0
 1185 0482 B169     		ldr	r1, [r6, #24]
 1186 0484 1420     		movs	r0, #20
 1187 0486 B1FA81F1 		clz	r1, r1
 1188 048a 4909     		lsrs	r1, r1, #5
 1189 048c FFF7FEFF 		bl	_test_assert
 1190              	.LVL130:
 1191 0490 4D4C     		ldr	r4, .L41
 1192 0492 0646     		mov	r6, r0
 1193 0494 10B1     		cbz	r0, .L11
 1194              	.LVL131:
 1195              	.LBB526:
 1196              	.LBB527:
 1197              	.LBB528:
ARM GAS  /tmp/ccTHxsfo.s 			page 22


 1198              	.LBB529:
 1199              	.LBB530:
 1200              		.loc 2 548 0
 1201              	@ 548 "/home/peter/ChibiOS_16.1.4/os/ext/CMSIS/include/core_cmFunc.h" 1
 1202 0496 87F31188 		MSR basepri, r7
 1203              	@ 0 "" 2
 1204              		.thumb
 1205 049a E7E5     		b	.L1
 1206              	.LVL132:
 1207              	.L11:
 1208              	.LBE530:
 1209              	.LBE529:
 1210              	.LBE528:
 1211              	.LBE527:
 1212              	.LBE526:
 1213              	.LBB531:
 1214              	.LBB532:
 1215              	.LBB533:
 1216              	.LBB534:
 1217              	.LBB535:
 1218              	@ 548 "/home/peter/ChibiOS_16.1.4/os/ext/CMSIS/include/core_cmFunc.h" 1
 1219 049c 80F31188 		MSR basepri, r0
 1220              	@ 0 "" 2
 1221              	.LVL133:
 1222              		.thumb
 1223              	.LBE535:
 1224              	.LBE534:
 1225              	.LBE533:
 1226              	.LBE532:
 1227              	.LBE531:
 1228              	.LBB536:
 1229              	.LBB537:
 1230              	.LBB538:
 1231              	.LBB539:
 1232              	@ 548 "/home/peter/ChibiOS_16.1.4/os/ext/CMSIS/include/core_cmFunc.h" 1
 1233 04a0 85F31188 		MSR basepri, r5
 1234              	@ 0 "" 2
 1235              		.thumb
 1236              	.LBE539:
 1237              	.LBE538:
 1238              	.LBE537:
 1239              	.LBE536:
 1240              		.loc 1 153 0
 1241 04a4 E168     		ldr	r1, [r4, #12]
 1242 04a6 A368     		ldr	r3, [r4, #8]
 1243 04a8 1520     		movs	r0, #21
 1244 04aa CF1A     		subs	r7, r1, r3
 1245 04ac 7942     		rsbs	r1, r7, #0
 1246 04ae 7941     		adcs	r1, r1, r7
 1247 04b0 FFF7FEFF 		bl	_test_assert
 1248              	.LVL134:
 1249 04b4 10B1     		cbz	r0, .L12
 1250              	.LVL135:
 1251              	.LBB540:
 1252              	.LBB541:
 1253              	.LBB542:
 1254              	.LBB543:
ARM GAS  /tmp/ccTHxsfo.s 			page 23


 1255              	.LBB544:
 1256              		.loc 2 548 0
 1257              	@ 548 "/home/peter/ChibiOS_16.1.4/os/ext/CMSIS/include/core_cmFunc.h" 1
 1258 04b6 86F31188 		MSR basepri, r6
 1259              	@ 0 "" 2
 1260              		.thumb
 1261 04ba D7E5     		b	.L1
 1262              	.LVL136:
 1263              	.L12:
 1264              	.LBE544:
 1265              	.LBE543:
 1266              	.LBE542:
 1267              	.LBE541:
 1268              	.LBE540:
 1269              	.LBB545:
 1270              	.LBB546:
 1271              	.LBB547:
 1272              	.LBB548:
 1273              	.LBB549:
 1274              	@ 548 "/home/peter/ChibiOS_16.1.4/os/ext/CMSIS/include/core_cmFunc.h" 1
 1275 04bc 80F31188 		MSR basepri, r0
 1276              	@ 0 "" 2
 1277              	.LVL137:
 1278              		.thumb
 1279              	.LBE549:
 1280              	.LBE548:
 1281              	.LBE547:
 1282              	.LBE546:
 1283              	.LBE545:
 1284              	.LBB550:
 1285              	.LBB551:
 1286              	.LBB552:
 1287              	.LBB553:
 1288              	@ 548 "/home/peter/ChibiOS_16.1.4/os/ext/CMSIS/include/core_cmFunc.h" 1
 1289 04c0 85F31188 		MSR basepri, r5
 1290              	@ 0 "" 2
 1291              		.thumb
 1292              	.LBE553:
 1293              	.LBE552:
 1294              	.LBE551:
 1295              	.LBE550:
 1296              		.loc 1 159 0
 1297 04c4 4121     		movs	r1, #65
 1298 04c6 2046     		mov	r0, r4
 1299 04c8 FFF7FEFF 		bl	chMBPostI
 1300              	.LVL138:
 1301              		.loc 1 160 0
 1302 04cc B0FA80F1 		clz	r1, r0
 1303 04d0 1620     		movs	r0, #22
 1304              	.LVL139:
 1305 04d2 4909     		lsrs	r1, r1, #5
 1306 04d4 FFF7FEFF 		bl	_test_assert
 1307              	.LVL140:
 1308 04d8 0028     		cmp	r0, #0
 1309 04da 7FF4C7AD 		bne	.L1
 1310              		.loc 1 161 0
 1311 04de 4221     		movs	r1, #66
ARM GAS  /tmp/ccTHxsfo.s 			page 24


 1312 04e0 2046     		mov	r0, r4
 1313 04e2 FFF7FEFF 		bl	chMBPostI
 1314              	.LVL141:
 1315              		.loc 1 162 0
 1316 04e6 B0FA80F1 		clz	r1, r0
 1317 04ea 1720     		movs	r0, #23
 1318              	.LVL142:
 1319 04ec 4909     		lsrs	r1, r1, #5
 1320 04ee FFF7FEFF 		bl	_test_assert
 1321              	.LVL143:
 1322 04f2 0028     		cmp	r0, #0
 1323 04f4 7FF4BAAD 		bne	.L1
 1324              		.loc 1 163 0
 1325 04f8 4321     		movs	r1, #67
 1326 04fa 2046     		mov	r0, r4
 1327 04fc FFF7FEFF 		bl	chMBPostI
 1328              	.LVL144:
 1329              		.loc 1 164 0
 1330 0500 B0FA80F1 		clz	r1, r0
 1331 0504 1820     		movs	r0, #24
 1332              	.LVL145:
 1333 0506 4909     		lsrs	r1, r1, #5
 1334 0508 FFF7FEFF 		bl	_test_assert
 1335              	.LVL146:
 1336 050c 0028     		cmp	r0, #0
 1337 050e 7FF4ADAD 		bne	.L1
 1338              		.loc 1 165 0
 1339 0512 4421     		movs	r1, #68
 1340 0514 2046     		mov	r0, r4
 1341 0516 FFF7FEFF 		bl	chMBPostI
 1342              	.LVL147:
 1343              		.loc 1 166 0
 1344 051a B0FA80F1 		clz	r1, r0
 1345 051e 1920     		movs	r0, #25
 1346              	.LVL148:
 1347 0520 4909     		lsrs	r1, r1, #5
 1348 0522 FFF7FEFF 		bl	_test_assert
 1349              	.LVL149:
 1350 0526 0646     		mov	r6, r0
 1351 0528 0028     		cmp	r0, #0
 1352 052a 7FF49FAD 		bne	.L1
 1353              		.loc 1 167 0
 1354 052e 2046     		mov	r0, r4
 1355 0530 4521     		movs	r1, #69
 1356 0532 FFF7FEFF 		bl	chMBPostI
 1357              	.LVL150:
 1358              	.LBB554:
 1359              	.LBB555:
 1360              	.LBB556:
 1361              	.LBB557:
 1362              	.LBB558:
 1363              		.loc 2 548 0
 1364              	@ 548 "/home/peter/ChibiOS_16.1.4/os/ext/CMSIS/include/core_cmFunc.h" 1
 1365 0536 86F31188 		MSR basepri, r6
 1366              	@ 0 "" 2
 1367              		.thumb
 1368              	.LBE558:
ARM GAS  /tmp/ccTHxsfo.s 			page 25


 1369              	.LBE557:
 1370              	.LBE556:
 1371              	.LBE555:
 1372              	.LBE554:
 1373              		.loc 1 169 0
 1374 053a B0FA80F1 		clz	r1, r0
 1375 053e 1A20     		movs	r0, #26
 1376              	.LVL151:
 1377 0540 4909     		lsrs	r1, r1, #5
 1378 0542 FFF7FEFF 		bl	_test_assert
 1379              	.LVL152:
 1380 0546 0028     		cmp	r0, #0
 1381 0548 7FF490AD 		bne	.L1
 1382              		.loc 1 170 0
 1383 054c E168     		ldr	r1, [r4, #12]
 1384 054e A368     		ldr	r3, [r4, #8]
 1385 0550 1B20     		movs	r0, #27
 1386 0552 CC1A     		subs	r4, r1, r3
 1387 0554 6142     		rsbs	r1, r4, #0
 1388 0556 6141     		adcs	r1, r1, r4
 1389 0558 FFF7FEFF 		bl	_test_assert
 1390              	.LVL153:
 1391 055c 0028     		cmp	r0, #0
 1392 055e 7FF485AD 		bne	.L1
 1393              	.LBB559:
 1394              	.LBB560:
 1395              	.LBB561:
 1396              	.LBB562:
 1397              	.LBB563:
 1398              		.loc 2 548 0
 1399 0562 8046     		mov	r8, r0
 1400              	.LBE563:
 1401              	.LBE562:
 1402              	.LBE561:
 1403              	.LBE560:
 1404              	.LBE559:
 1405              	.LBB568:
 1406              	.LBB569:
 1407              	.LBB570:
 1408              	.LBB571:
 1409 0564 2E46     		mov	r6, r5
 1410              	.LBE571:
 1411              	.LBE570:
 1412              	.LBE569:
 1413              	.LBE568:
 1414 0566 0525     		movs	r5, #5
 1415              	.L13:
 1416              	.LVL154:
 1417              	.LBB575:
 1418              	.LBB574:
 1419              	.LBB573:
 1420              	.LBB572:
 1421 0568 2027     		movs	r7, #32
 1422              	@ 548 "/home/peter/ChibiOS_16.1.4/os/ext/CMSIS/include/core_cmFunc.h" 1
 1423 056a 86F31188 		MSR basepri, r6
 1424              	@ 0 "" 2
 1425              		.thumb
ARM GAS  /tmp/ccTHxsfo.s 			page 26


 1426              	.LBE572:
 1427              	.LBE573:
 1428              	.LBE574:
 1429              	.LBE575:
 1430              		.loc 1 173 0
 1431 056e 164C     		ldr	r4, .L41
 1432 0570 01A9     		add	r1, sp, #4
 1433 0572 2046     		mov	r0, r4
 1434 0574 FFF7FEFF 		bl	chMBFetchI
 1435              	.LVL155:
 1436              	.LBB576:
 1437              	.LBB567:
 1438              	.LBB566:
 1439              	.LBB565:
 1440              	.LBB564:
 1441              		.loc 2 548 0
 1442              	@ 548 "/home/peter/ChibiOS_16.1.4/os/ext/CMSIS/include/core_cmFunc.h" 1
 1443 0578 88F31188 		MSR basepri, r8
 1444              	@ 0 "" 2
 1445              		.thumb
 1446              	.LBE564:
 1447              	.LBE565:
 1448              	.LBE566:
 1449              	.LBE567:
 1450              	.LBE576:
 1451              		.loc 1 175 0
 1452 057c B0FA80F1 		clz	r1, r0
 1453 0580 1C20     		movs	r0, #28
 1454              	.LVL156:
 1455 0582 4909     		lsrs	r1, r1, #5
 1456 0584 FFF7FEFF 		bl	_test_assert
 1457              	.LVL157:
 1458 0588 0028     		cmp	r0, #0
 1459 058a 7FF46FAD 		bne	.L1
 1460              		.loc 1 176 0 discriminator 2
 1461 058e 9DF80400 		ldrb	r0, [sp, #4]	@ zero_extendqisi2
 1462 0592 FFF7FEFF 		bl	test_emit_token
 1463              	.LVL158:
 1464              		.loc 1 171 0 discriminator 2
 1465 0596 013D     		subs	r5, r5, #1
 1466              	.LVL159:
 1467 0598 E6D1     		bne	.L13
 1468              		.loc 1 178 0
 1469 059a 1D20     		movs	r0, #29
 1470 059c 0B49     		ldr	r1, .L41+4
 1471 059e FFF7FEFF 		bl	_test_assert_sequence
 1472              	.LVL160:
 1473 05a2 0028     		cmp	r0, #0
 1474 05a4 7FF462AD 		bne	.L1
 1475              	.LVL161:
 1476              	.LBB577:
 1477              	.LBB578:
 1478              	.LBB579:
 1479              	.LBB580:
 1480              		.loc 2 548 0
 1481              	@ 548 "/home/peter/ChibiOS_16.1.4/os/ext/CMSIS/include/core_cmFunc.h" 1
 1482 05a8 87F31188 		MSR basepri, r7
ARM GAS  /tmp/ccTHxsfo.s 			page 27


 1483              	@ 0 "" 2
 1484              	.LVL162:
 1485              		.thumb
 1486              	.LBE580:
 1487              	.LBE579:
 1488              	.LBE578:
 1489              	.LBE577:
 1490              		.loc 1 179 0
 1491 05ac 616A     		ldr	r1, [r4, #36]
 1492 05ae 1E20     		movs	r0, #30
 1493 05b0 4A1F     		subs	r2, r1, #5
 1494 05b2 5142     		rsbs	r1, r2, #0
 1495 05b4 5141     		adcs	r1, r1, r2
 1496 05b6 FFF7FEFF 		bl	_test_assert
 1497              	.LVL163:
 1498 05ba 0028     		cmp	r0, #0
 1499 05bc 3FF459AD 		beq	.L38
 1500              	.LVL164:
 1501              	.L31:
 1502              	.LBB581:
 1503              	.LBB582:
 1504              	.LBB583:
 1505              	.LBB584:
 1506              	.LBB585:
 1507              		.loc 2 548 0
 1508              	@ 548 "/home/peter/ChibiOS_16.1.4/os/ext/CMSIS/include/core_cmFunc.h" 1
 1509 05c0 85F31188 		MSR basepri, r5
 1510              	@ 0 "" 2
 1511              		.thumb
 1512 05c4 52E5     		b	.L1
 1513              	.L42:
 1514 05c6 00BF     		.align	2
 1515              	.L41:
 1516 05c8 00000000 		.word	.LANCHOR0
 1517 05cc 00000000 		.word	.LC0
 1518              	.LBE585:
 1519              	.LBE584:
 1520              	.LBE583:
 1521              	.LBE582:
 1522              	.LBE581:
 1523              		.cfi_endproc
 1524              	.LFE171:
 1525              		.size	mbox1_execute, .-mbox1_execute
 1526              		.section	.text.mbox1_setup,"ax",%progbits
 1527              		.align	2
 1528              		.p2align 4,,15
 1529              		.thumb
 1530              		.thumb_func
 1531              		.type	mbox1_setup, %function
 1532              	mbox1_setup:
 1533              	.LFB170:
 1534              		.loc 1 71 0
 1535              		.cfi_startproc
 1536              		@ args = 0, pretend = 0, frame = 0
 1537              		@ frame_needed = 0, uses_anonymous_args = 0
 1538              		@ link register save eliminated.
 1539              		.loc 1 73 0
ARM GAS  /tmp/ccTHxsfo.s 			page 28


 1540 0000 0248     		ldr	r0, .L44
 1541 0002 0349     		ldr	r1, .L44+4
 1542 0004 0522     		movs	r2, #5
 1543 0006 FFF7FEBF 		b	chMBObjectInit
 1544              	.LVL165:
 1545              	.L45:
 1546 000a 00BF     		.align	2
 1547              	.L44:
 1548 000c 00000000 		.word	.LANCHOR0
 1549 0010 00000000 		.word	test
 1550              		.cfi_endproc
 1551              	.LFE170:
 1552              		.size	mbox1_setup, .-mbox1_setup
 1553              		.global	patternmbox
 1554              		.global	testmbox1
 1555 0014 AFF30080 		.section	.data.mb1,"aw",%progbits
 1555      AFF30080 
 1555      AFF30080 
 1556              		.align	2
 1557              		.set	.LANCHOR0,. + 0
 1558              		.type	mb1, %object
 1559              		.size	mb1, 40
 1560              	mb1:
 1561 0000 00000000 		.word	test
 1562 0004 14000000 		.word	test+20
 1563 0008 00000000 		.word	test
 1564 000c 00000000 		.word	test
 1565 0010 10000000 		.word	mb1+16
 1566 0014 10000000 		.word	mb1+16
 1567 0018 00000000 		.word	0
 1568 001c 1C000000 		.word	mb1+28
 1569 0020 1C000000 		.word	mb1+28
 1570 0024 05000000 		.word	5
 1571              		.section	.rodata.patternmbox,"a",%progbits
 1572              		.align	2
 1573              		.type	patternmbox, %object
 1574              		.size	patternmbox, 8
 1575              	patternmbox:
 1576 0000 00000000 		.word	testmbox1
 1577 0004 00000000 		.word	0
 1578              		.section	.rodata.str1.4,"aMS",%progbits,1
 1579              		.align	2
 1580              	.LC0:
 1581 0000 41424344 		.ascii	"ABCDE\000"
 1581      4500
 1582 0006 0000     		.space	2
 1583              	.LC1:
 1584 0008 4D61696C 		.ascii	"Mailboxes, queuing and timeouts\000"
 1584      626F7865 
 1584      732C2071 
 1584      75657569 
 1584      6E672061 
 1585              		.section	.rodata.testmbox1,"a",%progbits
 1586              		.align	2
 1587              		.type	testmbox1, %object
 1588              		.size	testmbox1, 16
 1589              	testmbox1:
ARM GAS  /tmp/ccTHxsfo.s 			page 29


 1590 0000 08000000 		.word	.LC1
 1591 0004 00000000 		.word	mbox1_setup
 1592 0008 00000000 		.word	0
 1593 000c 00000000 		.word	mbox1_execute
 1594              		.text
 1595              	.Letext0:
 1596              		.file 3 "/usr/lib/gcc/arm-none-eabi/4.9.3/include/stddef.h"
 1597              		.file 4 "/usr/include/newlib/machine/_default_types.h"
 1598              		.file 5 "/usr/include/newlib/stdint.h"
 1599              		.file 6 "/home/peter/ChibiOS_16.1.4/os/rt/ports/ARMCMx/compilers/GCC/chtypes.h"
 1600              		.file 7 "/home/peter/ChibiOS_16.1.4/os/rt/include/chsystypes.h"
 1601              		.file 8 "/home/peter/ChibiOS_16.1.4/os/rt/include/chschd.h"
 1602              		.file 9 "/home/peter/ChibiOS_16.1.4/os/rt/ports/ARMCMx/chcore.h"
 1603              		.file 10 "/home/peter/ChibiOS_16.1.4/os/rt/ports/ARMCMx/chcore_v7m.h"
 1604              		.file 11 "/home/peter/ChibiOS_16.1.4/os/rt/include/chtm.h"
 1605              		.file 12 "/home/peter/ChibiOS_16.1.4/os/rt/include/chsem.h"
 1606              		.file 13 "/home/peter/ChibiOS_16.1.4/os/rt/include/chmtx.h"
 1607              		.file 14 "/home/peter/ChibiOS_16.1.4/os/rt/include/chmboxes.h"
 1608              		.file 15 "/home/peter/ChibiOS_16.1.4/test/rt/test.h"
 1609              		.file 16 "/home/peter/ChibiOS_16.1.4/os/rt/include/chsys.h"
 1610              		.file 17 "/home/peter/ChibiOS_16.1.4/os/ext/CMSIS/include/core_cm3.h"