ARM GAS  /tmp/ccNX1sj0.s 			page 1


   1              		.syntax unified
   2              		.cpu cortex-m3
   3              		.fpu softvfp
   4              		.eabi_attribute 20, 1
   5              		.eabi_attribute 21, 1
   6              		.eabi_attribute 23, 3
   7              		.eabi_attribute 24, 1
   8              		.eabi_attribute 25, 1
   9              		.eabi_attribute 26, 1
  10              		.eabi_attribute 30, 2
  11              		.eabi_attribute 34, 1
  12              		.eabi_attribute 18, 4
  13              		.thumb
  14              		.file	"testmtx.c"
  15              		.text
  16              	.Ltext0:
  17              		.cfi_sections	.debug_frame
  18              		.section	.text.mtx1_execute,"ax",%progbits
  19              		.align	2
  20              		.p2align 4,,15
  21              		.thumb
  22              		.thumb_func
  23              		.type	mtx1_execute, %function
  24              	mtx1_execute:
  25              	.LFB172:
  26              		.file 1 "/home/peter/ChibiOS_16.1.4/test/rt/testmtx.c"
  27              		.loc 1 96 0
  28              		.cfi_startproc
  29              		@ args = 0, pretend = 0, frame = 0
  30              		@ frame_needed = 0, uses_anonymous_args = 0
  31 0000 F0B5     		push	{r4, r5, r6, r7, lr}
  32              		.cfi_def_cfa_offset 20
  33              		.cfi_offset 4, -20
  34              		.cfi_offset 5, -16
  35              		.cfi_offset 6, -12
  36              		.cfi_offset 7, -8
  37              		.cfi_offset 14, -4
  38              	.LBB138:
  39              	.LBB139:
  40              	.LBB140:
  41              	.LBB141:
  42              		.file 2 "/home/peter/ChibiOS_16.1.4/os/rt/include/chthreads.h"
  43              		.loc 2 176 0
  44 0002 2B4F     		ldr	r7, .L6
  45              	.LBE141:
  46              	.LBE140:
  47              	.LBE139:
  48              	.LBE138:
  49              		.loc 1 96 0
  50 0004 83B0     		sub	sp, sp, #12
  51              		.cfi_def_cfa_offset 32
  52              	.LBB144:
  53              	.LBB142:
  54              		.loc 2 189 0
  55 0006 BB69     		ldr	r3, [r7, #24]
  56              	.LBE142:
  57              	.LBE144:
ARM GAS  /tmp/ccNX1sj0.s 			page 2


  58              		.loc 1 99 0
  59 0008 2A48     		ldr	r0, .L6+4
  60              	.LBB145:
  61              	.LBB143:
  62              		.loc 2 189 0
  63 000a 9C68     		ldr	r4, [r3, #8]
  64              	.LBE143:
  65              	.LBE145:
  66              		.loc 1 100 0
  67 000c 2A4E     		ldr	r6, .L6+8
  68              		.loc 1 99 0
  69 000e FFF7FEFF 		bl	chMtxLock
  70              	.LVL0:
  71              		.loc 1 100 0
  72 0012 2A4B     		ldr	r3, .L6+12
  73 0014 621C     		adds	r2, r4, #1
  74 0016 0093     		str	r3, [sp]
  75 0018 4FF4A471 		mov	r1, #328
  76 001c 284B     		ldr	r3, .L6+16
  77 001e 3068     		ldr	r0, [r6]
  78 0020 FFF7FEFF 		bl	chThdCreateStatic
  79              	.LVL1:
  80 0024 274D     		ldr	r5, .L6+20
  81              		.loc 1 101 0
  82 0026 7168     		ldr	r1, [r6, #4]
  83 0028 274B     		ldr	r3, .L6+24
  84              		.loc 1 100 0
  85 002a 2860     		str	r0, [r5]
  86              		.loc 1 101 0
  87 002c A21C     		adds	r2, r4, #2
  88 002e 0846     		mov	r0, r1
  89 0030 0093     		str	r3, [sp]
  90 0032 4FF4A471 		mov	r1, #328
  91 0036 224B     		ldr	r3, .L6+16
  92 0038 FFF7FEFF 		bl	chThdCreateStatic
  93              	.LVL2:
  94              		.loc 1 102 0
  95 003c B168     		ldr	r1, [r6, #8]
  96 003e 234B     		ldr	r3, .L6+28
  97              		.loc 1 101 0
  98 0040 6860     		str	r0, [r5, #4]
  99              		.loc 1 102 0
 100 0042 E21C     		adds	r2, r4, #3
 101 0044 0846     		mov	r0, r1
 102 0046 0093     		str	r3, [sp]
 103 0048 4FF4A471 		mov	r1, #328
 104 004c 1C4B     		ldr	r3, .L6+16
 105 004e FFF7FEFF 		bl	chThdCreateStatic
 106              	.LVL3:
 107              		.loc 1 103 0
 108 0052 F168     		ldr	r1, [r6, #12]
 109 0054 1E4B     		ldr	r3, .L6+32
 110              		.loc 1 102 0
 111 0056 A860     		str	r0, [r5, #8]
 112              		.loc 1 103 0
 113 0058 221D     		adds	r2, r4, #4
 114 005a 0846     		mov	r0, r1
ARM GAS  /tmp/ccNX1sj0.s 			page 3


 115 005c 0093     		str	r3, [sp]
 116 005e 4FF4A471 		mov	r1, #328
 117 0062 174B     		ldr	r3, .L6+16
 118 0064 FFF7FEFF 		bl	chThdCreateStatic
 119              	.LVL4:
 120              		.loc 1 104 0
 121 0068 3169     		ldr	r1, [r6, #16]
 122 006a 1A4B     		ldr	r3, .L6+36
 123 006c 621D     		adds	r2, r4, #5
 124              		.loc 1 103 0
 125 006e E860     		str	r0, [r5, #12]
 126              		.loc 1 104 0
 127 0070 0093     		str	r3, [sp]
 128 0072 0846     		mov	r0, r1
 129 0074 124B     		ldr	r3, .L6+16
 130 0076 4FF4A471 		mov	r1, #328
 131 007a FFF7FEFF 		bl	chThdCreateStatic
 132              	.LVL5:
 133 007e 2861     		str	r0, [r5, #16]
 134              		.loc 1 105 0
 135 0080 0C48     		ldr	r0, .L6+4
 136 0082 FFF7FEFF 		bl	chMtxUnlock
 137              	.LVL6:
 138              		.loc 1 106 0
 139 0086 FFF7FEFF 		bl	test_wait_threads
 140              	.LVL7:
 141              	.LBB146:
 142              	.LBB147:
 143              		.loc 2 189 0
 144 008a BB69     		ldr	r3, [r7, #24]
 145              	.LBE147:
 146              	.LBE146:
 147              		.loc 1 107 0
 148 008c 0120     		movs	r0, #1
 149 008e 9968     		ldr	r1, [r3, #8]
 150 0090 611A     		subs	r1, r4, r1
 151 0092 B1FA81F1 		clz	r1, r1
 152 0096 4909     		lsrs	r1, r1, #5
 153 0098 FFF7FEFF 		bl	_test_assert
 154              	.LVL8:
 155 009c 08B1     		cbz	r0, .L5
 156              		.loc 1 109 0
 157 009e 03B0     		add	sp, sp, #12
 158              		.cfi_remember_state
 159              		.cfi_def_cfa_offset 20
 160              		@ sp needed
 161 00a0 F0BD     		pop	{r4, r5, r6, r7, pc}
 162              	.L5:
 163              		.cfi_restore_state
 164              		.loc 1 108 0
 165 00a2 0D49     		ldr	r1, .L6+40
 166 00a4 0220     		movs	r0, #2
 167              		.loc 1 109 0
 168 00a6 03B0     		add	sp, sp, #12
 169              		.cfi_def_cfa_offset 20
 170              		@ sp needed
 171 00a8 BDE8F040 		pop	{r4, r5, r6, r7, lr}
ARM GAS  /tmp/ccNX1sj0.s 			page 4


 172              		.cfi_restore 14
 173              		.cfi_restore 7
 174              		.cfi_restore 6
 175              		.cfi_restore 5
 176              		.cfi_restore 4
 177              		.cfi_def_cfa_offset 0
 178              		.loc 1 108 0
 179 00ac FFF7FEBF 		b	_test_assert_sequence
 180              	.LVL9:
 181              	.L7:
 182              		.align	2
 183              	.L6:
 184 00b0 00000000 		.word	ch
 185 00b4 00000000 		.word	.LANCHOR0
 186 00b8 00000000 		.word	wa
 187 00bc 00000000 		.word	.LC0
 188 00c0 00000000 		.word	thread1
 189 00c4 00000000 		.word	threads
 190 00c8 04000000 		.word	.LC1
 191 00cc 08000000 		.word	.LC2
 192 00d0 0C000000 		.word	.LC3
 193 00d4 10000000 		.word	.LC4
 194 00d8 14000000 		.word	.LC5
 195              		.cfi_endproc
 196              	.LFE172:
 197              		.size	mtx1_execute, .-mtx1_execute
 198 00dc AFF30080 		.section	.text.thread1,"ax",%progbits
 199              		.align	2
 200              		.p2align 4,,15
 201              		.thumb
 202              		.thumb_func
 203              		.type	thread1, %function
 204              	thread1:
 205              	.LFB171:
 206              		.loc 1 89 0
 207              		.cfi_startproc
 208              		@ args = 0, pretend = 0, frame = 0
 209              		@ frame_needed = 0, uses_anonymous_args = 0
 210              	.LVL10:
 211 0000 38B5     		push	{r3, r4, r5, lr}
 212              		.cfi_def_cfa_offset 16
 213              		.cfi_offset 3, -16
 214              		.cfi_offset 4, -12
 215              		.cfi_offset 5, -8
 216              		.cfi_offset 14, -4
 217              		.loc 1 89 0
 218 0002 0546     		mov	r5, r0
 219              		.loc 1 91 0
 220 0004 054C     		ldr	r4, .L10
 221 0006 2046     		mov	r0, r4
 222              	.LVL11:
 223 0008 FFF7FEFF 		bl	chMtxLock
 224              	.LVL12:
 225              		.loc 1 92 0
 226 000c 2878     		ldrb	r0, [r5]	@ zero_extendqisi2
 227 000e FFF7FEFF 		bl	test_emit_token
 228              	.LVL13:
ARM GAS  /tmp/ccNX1sj0.s 			page 5


 229              		.loc 1 93 0
 230 0012 2046     		mov	r0, r4
 231              		.loc 1 94 0
 232 0014 BDE83840 		pop	{r3, r4, r5, lr}
 233              		.cfi_restore 14
 234              		.cfi_restore 5
 235              		.cfi_restore 4
 236              		.cfi_restore 3
 237              		.cfi_def_cfa_offset 0
 238              	.LVL14:
 239              		.loc 1 93 0
 240 0018 FFF7FEBF 		b	chMtxUnlock
 241              	.LVL15:
 242              	.L11:
 243              		.align	2
 244              	.L10:
 245 001c 00000000 		.word	.LANCHOR0
 246              		.cfi_endproc
 247              	.LFE171:
 248              		.size	thread1, .-thread1
 249              		.section	.text.thread12,"ax",%progbits
 250              		.align	2
 251              		.p2align 4,,15
 252              		.thumb
 253              		.thumb_func
 254              		.type	thread12, %function
 255              	thread12:
 256              	.LFB186:
 257              		.loc 1 576 0
 258              		.cfi_startproc
 259              		@ args = 0, pretend = 0, frame = 0
 260              		@ frame_needed = 0, uses_anonymous_args = 0
 261              	.LVL16:
 262 0000 38B5     		push	{r3, r4, r5, lr}
 263              		.cfi_def_cfa_offset 16
 264              		.cfi_offset 3, -16
 265              		.cfi_offset 4, -12
 266              		.cfi_offset 5, -8
 267              		.cfi_offset 14, -4
 268              		.loc 1 576 0
 269 0002 0546     		mov	r5, r0
 270              		.loc 1 578 0
 271 0004 054C     		ldr	r4, .L14
 272 0006 2046     		mov	r0, r4
 273              	.LVL17:
 274 0008 FFF7FEFF 		bl	chMtxLock
 275              	.LVL18:
 276              		.loc 1 579 0
 277 000c 2878     		ldrb	r0, [r5]	@ zero_extendqisi2
 278 000e FFF7FEFF 		bl	test_emit_token
 279              	.LVL19:
 280              		.loc 1 580 0
 281 0012 2046     		mov	r0, r4
 282              		.loc 1 581 0
 283 0014 BDE83840 		pop	{r3, r4, r5, lr}
 284              		.cfi_restore 14
 285              		.cfi_restore 5
ARM GAS  /tmp/ccNX1sj0.s 			page 6


 286              		.cfi_restore 4
 287              		.cfi_restore 3
 288              		.cfi_def_cfa_offset 0
 289              	.LVL20:
 290              		.loc 1 580 0
 291 0018 FFF7FEBF 		b	chMtxUnlock
 292              	.LVL21:
 293              	.L15:
 294              		.align	2
 295              	.L14:
 296 001c 00000000 		.word	.LANCHOR1
 297              		.cfi_endproc
 298              	.LFE186:
 299              		.size	thread12, .-thread12
 300              		.section	.text.mtx1_setup,"ax",%progbits
 301              		.align	2
 302              		.p2align 4,,15
 303              		.thumb
 304              		.thumb_func
 305              		.type	mtx1_setup, %function
 306              	mtx1_setup:
 307              	.LFB170:
 308              		.loc 1 84 0
 309              		.cfi_startproc
 310              		@ args = 0, pretend = 0, frame = 0
 311              		@ frame_needed = 0, uses_anonymous_args = 0
 312              		@ link register save eliminated.
 313              		.loc 1 86 0
 314 0000 0148     		ldr	r0, .L17
 315 0002 FFF7FEBF 		b	chMtxObjectInit
 316              	.LVL22:
 317              	.L18:
 318 0006 00BF     		.align	2
 319              	.L17:
 320 0008 00000000 		.word	.LANCHOR0
 321              		.cfi_endproc
 322              	.LFE170:
 323              		.size	mtx1_setup, .-mtx1_setup
 324 000c AFF30080 		.section	.text.mtx4_setup,"ax",%progbits
 325              		.align	2
 326              		.p2align 4,,15
 327              		.thumb
 328              		.thumb_func
 329              		.type	mtx4_setup, %function
 330              	mtx4_setup:
 331              	.LFB173:
 332              		.loc 1 332 0
 333              		.cfi_startproc
 334              		@ args = 0, pretend = 0, frame = 0
 335              		@ frame_needed = 0, uses_anonymous_args = 0
 336 0000 08B5     		push	{r3, lr}
 337              		.cfi_def_cfa_offset 8
 338              		.cfi_offset 3, -8
 339              		.cfi_offset 14, -4
 340              		.loc 1 334 0
 341 0002 0448     		ldr	r0, .L21
 342 0004 FFF7FEFF 		bl	chMtxObjectInit
ARM GAS  /tmp/ccNX1sj0.s 			page 7


 343              	.LVL23:
 344              		.loc 1 336 0
 345 0008 BDE80840 		pop	{r3, lr}
 346              		.cfi_restore 14
 347              		.cfi_restore 3
 348              		.cfi_def_cfa_offset 0
 349              		.loc 1 335 0
 350 000c 0248     		ldr	r0, .L21+4
 351 000e FFF7FEBF 		b	chMtxObjectInit
 352              	.LVL24:
 353              	.L22:
 354 0012 00BF     		.align	2
 355              	.L21:
 356 0014 00000000 		.word	.LANCHOR0
 357 0018 00000000 		.word	.LANCHOR1
 358              		.cfi_endproc
 359              	.LFE173:
 360              		.size	mtx4_setup, .-mtx4_setup
 361 001c AFF30080 		.section	.text.mtx5_setup,"ax",%progbits
 362              		.align	2
 363              		.p2align 4,,15
 364              		.thumb
 365              		.thumb_func
 366              		.type	mtx5_setup, %function
 367              	mtx5_setup:
 368              	.LFB177:
 369              		.loc 1 418 0
 370              		.cfi_startproc
 371              		@ args = 0, pretend = 0, frame = 0
 372              		@ frame_needed = 0, uses_anonymous_args = 0
 373              		@ link register save eliminated.
 374              		.loc 1 420 0
 375 0000 0148     		ldr	r0, .L24
 376 0002 FFF7FEBF 		b	chMtxObjectInit
 377              	.LVL25:
 378              	.L25:
 379 0006 00BF     		.align	2
 380              	.L24:
 381 0008 00000000 		.word	.LANCHOR0
 382              		.cfi_endproc
 383              	.LFE177:
 384              		.size	mtx5_setup, .-mtx5_setup
 385 000c AFF30080 		.section	.text.thread4b,"ax",%progbits
 386              		.align	2
 387              		.p2align 4,,15
 388              		.thumb
 389              		.thumb_func
 390              		.type	thread4b, %function
 391              	thread4b:
 392              	.LFB175:
 393              		.loc 1 346 0
 394              		.cfi_startproc
 395              		@ args = 0, pretend = 0, frame = 0
 396              		@ frame_needed = 0, uses_anonymous_args = 0
 397              	.LVL26:
 398 0000 10B5     		push	{r4, lr}
 399              		.cfi_def_cfa_offset 8
ARM GAS  /tmp/ccNX1sj0.s 			page 8


 400              		.cfi_offset 4, -8
 401              		.cfi_offset 14, -4
 402              		.loc 1 350 0
 403 0002 064C     		ldr	r4, .L28
 404              		.loc 1 349 0
 405 0004 40F2DC50 		movw	r0, #1500
 406              	.LVL27:
 407 0008 FFF7FEFF 		bl	chThdSleep
 408              	.LVL28:
 409              		.loc 1 350 0
 410 000c 2046     		mov	r0, r4
 411 000e FFF7FEFF 		bl	chMtxLock
 412              	.LVL29:
 413              		.loc 1 351 0
 414 0012 2046     		mov	r0, r4
 415              		.loc 1 352 0
 416 0014 BDE81040 		pop	{r4, lr}
 417              		.cfi_restore 14
 418              		.cfi_restore 4
 419              		.cfi_def_cfa_offset 0
 420              		.loc 1 351 0
 421 0018 FFF7FEBF 		b	chMtxUnlock
 422              	.LVL30:
 423              	.L29:
 424              		.align	2
 425              	.L28:
 426 001c 00000000 		.word	.LANCHOR0
 427              		.cfi_endproc
 428              	.LFE175:
 429              		.size	thread4b, .-thread4b
 430              		.section	.text.thread4a,"ax",%progbits
 431              		.align	2
 432              		.p2align 4,,15
 433              		.thumb
 434              		.thumb_func
 435              		.type	thread4a, %function
 436              	thread4a:
 437              	.LFB174:
 438              		.loc 1 338 0
 439              		.cfi_startproc
 440              		@ args = 0, pretend = 0, frame = 0
 441              		@ frame_needed = 0, uses_anonymous_args = 0
 442              	.LVL31:
 443 0000 10B5     		push	{r4, lr}
 444              		.cfi_def_cfa_offset 8
 445              		.cfi_offset 4, -8
 446              		.cfi_offset 14, -4
 447              		.loc 1 342 0
 448 0002 064C     		ldr	r4, .L32
 449              		.loc 1 341 0
 450 0004 4FF4FA70 		mov	r0, #500
 451              	.LVL32:
 452 0008 FFF7FEFF 		bl	chThdSleep
 453              	.LVL33:
 454              		.loc 1 342 0
 455 000c 2046     		mov	r0, r4
 456 000e FFF7FEFF 		bl	chMtxLock
ARM GAS  /tmp/ccNX1sj0.s 			page 9


 457              	.LVL34:
 458              		.loc 1 343 0
 459 0012 2046     		mov	r0, r4
 460              		.loc 1 344 0
 461 0014 BDE81040 		pop	{r4, lr}
 462              		.cfi_restore 14
 463              		.cfi_restore 4
 464              		.cfi_def_cfa_offset 0
 465              		.loc 1 343 0
 466 0018 FFF7FEBF 		b	chMtxUnlock
 467              	.LVL35:
 468              	.L33:
 469              		.align	2
 470              	.L32:
 471 001c 00000000 		.word	.LANCHOR1
 472              		.cfi_endproc
 473              	.LFE174:
 474              		.size	thread4a, .-thread4a
 475              		.section	.text.mtx4_execute,"ax",%progbits
 476              		.align	2
 477              		.p2align 4,,15
 478              		.thumb
 479              		.thumb_func
 480              		.type	mtx4_execute, %function
 481              	mtx4_execute:
 482              	.LFB176:
 483              		.loc 1 354 0
 484              		.cfi_startproc
 485              		@ args = 0, pretend = 0, frame = 8
 486              		@ frame_needed = 0, uses_anonymous_args = 0
 487 0000 2DE9F046 		push	{r4, r5, r6, r7, r9, r10, lr}
 488              		.cfi_def_cfa_offset 28
 489              		.cfi_offset 4, -28
 490              		.cfi_offset 5, -24
 491              		.cfi_offset 6, -20
 492              		.cfi_offset 7, -16
 493              		.cfi_offset 9, -12
 494              		.cfi_offset 10, -8
 495              		.cfi_offset 14, -4
 496              	.LBB148:
 497              	.LBB149:
 498              	.LBB150:
 499              	.LBB151:
 500              		.loc 2 176 0
 501 0004 8E4D     		ldr	r5, .L40
 502              	.LBE151:
 503              	.LBE150:
 504              	.LBE149:
 505              	.LBE148:
 506              		.loc 1 360 0
 507 0006 8F4E     		ldr	r6, .L40+4
 508              	.LBB154:
 509              	.LBB152:
 510              		.loc 2 189 0
 511 0008 AB69     		ldr	r3, [r5, #24]
 512              	.LBE152:
 513              	.LBE154:
ARM GAS  /tmp/ccNX1sj0.s 			page 10


 514              		.loc 1 360 0
 515 000a 3268     		ldr	r2, [r6]
 516              	.LBB155:
 517              	.LBB153:
 518              		.loc 2 189 0
 519 000c 9C68     		ldr	r4, [r3, #8]
 520              	.LBE153:
 521              	.LBE155:
 522              		.loc 1 360 0
 523 000e 8E4B     		ldr	r3, .L40+8
 524              		.loc 1 354 0
 525 0010 85B0     		sub	sp, sp, #20
 526              		.cfi_def_cfa_offset 48
 527              		.loc 1 358 0
 528 0012 04F10109 		add	r9, r4, #1
 529              	.LVL36:
 530              		.loc 1 360 0
 531 0016 1046     		mov	r0, r2
 532 0018 0392     		str	r2, [sp, #12]
 533 001a 0093     		str	r3, [sp]
 534 001c 4A46     		mov	r2, r9
 535 001e 4FF4A471 		mov	r1, #328
 536 0022 8A4B     		ldr	r3, .L40+12
 537 0024 FFF7FEFF 		bl	chThdCreateStatic
 538              	.LVL37:
 539 0028 894F     		ldr	r7, .L40+16
 540              		.loc 1 361 0
 541 002a 7668     		ldr	r6, [r6, #4]
 542 002c 894B     		ldr	r3, .L40+20
 543              		.loc 1 359 0
 544 002e 04F1020A 		add	r10, r4, #2
 545              	.LVL38:
 546              		.loc 1 360 0
 547 0032 3860     		str	r0, [r7]
 548              		.loc 1 361 0
 549 0034 4FF4A471 		mov	r1, #328
 550 0038 5246     		mov	r2, r10
 551 003a 0093     		str	r3, [sp]
 552 003c 3046     		mov	r0, r6
 553 003e 864B     		ldr	r3, .L40+24
 554 0040 FFF7FEFF 		bl	chThdCreateStatic
 555              	.LVL39:
 556 0044 7860     		str	r0, [r7, #4]
 557              		.loc 1 362 0
 558 0046 8548     		ldr	r0, .L40+28
 559 0048 FFF7FEFF 		bl	chMtxLock
 560              	.LVL40:
 561              	.LBB156:
 562              	.LBB157:
 563              		.loc 2 189 0
 564 004c AB69     		ldr	r3, [r5, #24]
 565              	.LBE157:
 566              	.LBE156:
 567              		.loc 1 363 0
 568 004e 0120     		movs	r0, #1
 569 0050 9968     		ldr	r1, [r3, #8]
 570 0052 611A     		subs	r1, r4, r1
ARM GAS  /tmp/ccNX1sj0.s 			page 11


 571 0054 B1FA81F1 		clz	r1, r1
 572 0058 4909     		lsrs	r1, r1, #5
 573 005a FFF7FEFF 		bl	_test_assert
 574              	.LVL41:
 575 005e 10B1     		cbz	r0, .L39
 576              	.L34:
 577              		.loc 1 399 0
 578 0060 05B0     		add	sp, sp, #20
 579              		.cfi_remember_state
 580              		.cfi_def_cfa_offset 28
 581              		@ sp needed
 582 0062 BDE8F086 		pop	{r4, r5, r6, r7, r9, r10, pc}
 583              	.LVL42:
 584              	.L39:
 585              		.cfi_restore_state
 586              		.loc 1 364 0
 587 0066 4FF47A70 		mov	r0, #1000
 588 006a FFF7FEFF 		bl	chThdSleep
 589              	.LVL43:
 590              	.LBB158:
 591              	.LBB159:
 592              		.loc 2 189 0
 593 006e AB69     		ldr	r3, [r5, #24]
 594              	.LBE159:
 595              	.LBE158:
 596              		.loc 1 365 0
 597 0070 0220     		movs	r0, #2
 598 0072 9968     		ldr	r1, [r3, #8]
 599 0074 C1EB0901 		rsb	r1, r1, r9
 600 0078 B1FA81F1 		clz	r1, r1
 601 007c 4909     		lsrs	r1, r1, #5
 602 007e FFF7FEFF 		bl	_test_assert
 603              	.LVL44:
 604 0082 0028     		cmp	r0, #0
 605 0084 ECD1     		bne	.L34
 606              		.loc 1 366 0
 607 0086 7648     		ldr	r0, .L40+32
 608 0088 FFF7FEFF 		bl	chMtxLock
 609              	.LVL45:
 610              	.LBB160:
 611              	.LBB161:
 612              		.loc 2 189 0
 613 008c AB69     		ldr	r3, [r5, #24]
 614              	.LBE161:
 615              	.LBE160:
 616              		.loc 1 367 0
 617 008e 0320     		movs	r0, #3
 618 0090 9968     		ldr	r1, [r3, #8]
 619 0092 C1EB0901 		rsb	r1, r1, r9
 620 0096 B1FA81F1 		clz	r1, r1
 621 009a 4909     		lsrs	r1, r1, #5
 622 009c FFF7FEFF 		bl	_test_assert
 623              	.LVL46:
 624 00a0 0028     		cmp	r0, #0
 625 00a2 DDD1     		bne	.L34
 626              		.loc 1 368 0
 627 00a4 4FF47A70 		mov	r0, #1000
ARM GAS  /tmp/ccNX1sj0.s 			page 12


 628 00a8 FFF7FEFF 		bl	chThdSleep
 629              	.LVL47:
 630              	.LBB162:
 631              	.LBB163:
 632              		.loc 2 189 0
 633 00ac AB69     		ldr	r3, [r5, #24]
 634              	.LBE163:
 635              	.LBE162:
 636              		.loc 1 369 0
 637 00ae 0420     		movs	r0, #4
 638 00b0 9968     		ldr	r1, [r3, #8]
 639 00b2 C1EB0A01 		rsb	r1, r1, r10
 640 00b6 B1FA81F1 		clz	r1, r1
 641 00ba 4909     		lsrs	r1, r1, #5
 642 00bc FFF7FEFF 		bl	_test_assert
 643              	.LVL48:
 644 00c0 0028     		cmp	r0, #0
 645 00c2 CDD1     		bne	.L34
 646              		.loc 1 370 0
 647 00c4 6648     		ldr	r0, .L40+32
 648 00c6 FFF7FEFF 		bl	chMtxUnlock
 649              	.LVL49:
 650              	.LBB164:
 651              	.LBB165:
 652              		.loc 2 189 0
 653 00ca AB69     		ldr	r3, [r5, #24]
 654              	.LBE165:
 655              	.LBE164:
 656              		.loc 1 371 0
 657 00cc 0520     		movs	r0, #5
 658 00ce 9968     		ldr	r1, [r3, #8]
 659 00d0 C1EB0901 		rsb	r1, r1, r9
 660 00d4 B1FA81F1 		clz	r1, r1
 661 00d8 4909     		lsrs	r1, r1, #5
 662 00da FFF7FEFF 		bl	_test_assert
 663              	.LVL50:
 664 00de 0028     		cmp	r0, #0
 665 00e0 BED1     		bne	.L34
 666              		.loc 1 372 0
 667 00e2 4FF47A70 		mov	r0, #1000
 668 00e6 FFF7FEFF 		bl	chThdSleep
 669              	.LVL51:
 670              	.LBB166:
 671              	.LBB167:
 672              		.loc 2 189 0
 673 00ea AB69     		ldr	r3, [r5, #24]
 674              	.LBE167:
 675              	.LBE166:
 676              		.loc 1 373 0
 677 00ec 0620     		movs	r0, #6
 678 00ee 9968     		ldr	r1, [r3, #8]
 679 00f0 C1EB0901 		rsb	r1, r1, r9
 680 00f4 B1FA81F1 		clz	r1, r1
 681 00f8 4909     		lsrs	r1, r1, #5
 682 00fa FFF7FEFF 		bl	_test_assert
 683              	.LVL52:
 684 00fe 0028     		cmp	r0, #0
ARM GAS  /tmp/ccNX1sj0.s 			page 13


 685 0100 AED1     		bne	.L34
 686              		.loc 1 374 0
 687 0102 FFF7FEFF 		bl	chMtxUnlockAll
 688              	.LVL53:
 689              	.LBB168:
 690              	.LBB169:
 691              		.loc 2 189 0
 692 0106 AB69     		ldr	r3, [r5, #24]
 693              	.LBE169:
 694              	.LBE168:
 695              		.loc 1 375 0
 696 0108 0720     		movs	r0, #7
 697 010a 9968     		ldr	r1, [r3, #8]
 698 010c 611A     		subs	r1, r4, r1
 699 010e B1FA81F1 		clz	r1, r1
 700 0112 4909     		lsrs	r1, r1, #5
 701 0114 FFF7FEFF 		bl	_test_assert
 702              	.LVL54:
 703 0118 0028     		cmp	r0, #0
 704 011a A1D1     		bne	.L34
 705              		.loc 1 376 0
 706 011c FFF7FEFF 		bl	test_wait_threads
 707              	.LVL55:
 708              		.loc 1 379 0
 709 0120 504B     		ldr	r3, .L40+36
 710 0122 4FF4A471 		mov	r1, #328
 711 0126 0093     		str	r3, [sp]
 712 0128 4A46     		mov	r2, r9
 713 012a 484B     		ldr	r3, .L40+12
 714 012c 0398     		ldr	r0, [sp, #12]
 715 012e FFF7FEFF 		bl	chThdCreateStatic
 716              	.LVL56:
 717              		.loc 1 380 0
 718 0132 4D4B     		ldr	r3, .L40+40
 719              		.loc 1 379 0
 720 0134 3860     		str	r0, [r7]
 721              		.loc 1 380 0
 722 0136 4FF4A471 		mov	r1, #328
 723 013a 0093     		str	r3, [sp]
 724 013c 5246     		mov	r2, r10
 725 013e 464B     		ldr	r3, .L40+24
 726 0140 3046     		mov	r0, r6
 727 0142 FFF7FEFF 		bl	chThdCreateStatic
 728              	.LVL57:
 729 0146 7860     		str	r0, [r7, #4]
 730              		.loc 1 381 0
 731 0148 4448     		ldr	r0, .L40+28
 732 014a FFF7FEFF 		bl	chMtxLock
 733              	.LVL58:
 734              	.LBB170:
 735              	.LBB171:
 736              		.loc 2 189 0
 737 014e AB69     		ldr	r3, [r5, #24]
 738              	.LBE171:
 739              	.LBE170:
 740              		.loc 1 382 0
 741 0150 0820     		movs	r0, #8
ARM GAS  /tmp/ccNX1sj0.s 			page 14


 742 0152 9968     		ldr	r1, [r3, #8]
 743 0154 611A     		subs	r1, r4, r1
 744 0156 B1FA81F1 		clz	r1, r1
 745 015a 4909     		lsrs	r1, r1, #5
 746 015c FFF7FEFF 		bl	_test_assert
 747              	.LVL59:
 748 0160 0028     		cmp	r0, #0
 749 0162 7FF47DAF 		bne	.L34
 750              		.loc 1 383 0
 751 0166 4FF47A70 		mov	r0, #1000
 752 016a FFF7FEFF 		bl	chThdSleep
 753              	.LVL60:
 754              	.LBB172:
 755              	.LBB173:
 756              		.loc 2 189 0
 757 016e AB69     		ldr	r3, [r5, #24]
 758              	.LBE173:
 759              	.LBE172:
 760              		.loc 1 384 0
 761 0170 0920     		movs	r0, #9
 762 0172 9968     		ldr	r1, [r3, #8]
 763 0174 C1EB090C 		rsb	ip, r1, r9
 764 0178 DCF10001 		rsbs	r1, ip, #0
 765 017c 41EB0C01 		adc	r1, r1, ip
 766 0180 FFF7FEFF 		bl	_test_assert
 767              	.LVL61:
 768 0184 0028     		cmp	r0, #0
 769 0186 7FF46BAF 		bne	.L34
 770              		.loc 1 385 0
 771 018a 3548     		ldr	r0, .L40+32
 772 018c FFF7FEFF 		bl	chMtxLock
 773              	.LVL62:
 774              	.LBB174:
 775              	.LBB175:
 776              		.loc 2 189 0
 777 0190 AB69     		ldr	r3, [r5, #24]
 778              	.LBE175:
 779              	.LBE174:
 780              		.loc 1 386 0
 781 0192 0A20     		movs	r0, #10
 782 0194 9968     		ldr	r1, [r3, #8]
 783 0196 C1EB090E 		rsb	lr, r1, r9
 784 019a DEF10001 		rsbs	r1, lr, #0
 785 019e 41EB0E01 		adc	r1, r1, lr
 786 01a2 FFF7FEFF 		bl	_test_assert
 787              	.LVL63:
 788 01a6 0028     		cmp	r0, #0
 789 01a8 7FF45AAF 		bne	.L34
 790              		.loc 1 387 0
 791 01ac 4FF47A70 		mov	r0, #1000
 792 01b0 FFF7FEFF 		bl	chThdSleep
 793              	.LVL64:
 794              	.LBB176:
 795              	.LBB177:
 796              		.loc 2 189 0
 797 01b4 AB69     		ldr	r3, [r5, #24]
 798              	.LBE177:
ARM GAS  /tmp/ccNX1sj0.s 			page 15


 799              	.LBE176:
 800              		.loc 1 388 0
 801 01b6 0B20     		movs	r0, #11
 802 01b8 9968     		ldr	r1, [r3, #8]
 803 01ba C1EB0A07 		rsb	r7, r1, r10
 804 01be 7942     		rsbs	r1, r7, #0
 805 01c0 7941     		adcs	r1, r1, r7
 806 01c2 FFF7FEFF 		bl	_test_assert
 807              	.LVL65:
 808 01c6 0646     		mov	r6, r0
 809 01c8 0028     		cmp	r0, #0
 810 01ca 7FF449AF 		bne	.L34
 811              	.LVL66:
 812              	.LBB178:
 813              	.LBB179:
 814              	.LBB180:
 815              	.LBB181:
 816              		.file 3 "/home/peter/ChibiOS_16.1.4/os/ext/CMSIS/include/core_cmFunc.h"
 817              		.loc 3 548 0
 818 01ce 2023     		movs	r3, #32
 819              	@ 548 "/home/peter/ChibiOS_16.1.4/os/ext/CMSIS/include/core_cmFunc.h" 1
 820 01d0 83F31188 		MSR basepri, r3
 821              	@ 0 "" 2
 822              		.thumb
 823              	.LBE181:
 824              	.LBE180:
 825              	.LBE179:
 826              	.LBE178:
 827              		.loc 1 390 0
 828 01d4 2248     		ldr	r0, .L40+32
 829 01d6 FFF7FEFF 		bl	chMtxUnlockS
 830              	.LVL67:
 831              		.loc 1 391 0
 832 01da FFF7FEFF 		bl	chSchRescheduleS
 833              	.LVL68:
 834              	.LBB182:
 835              	.LBB183:
 836              	.LBB184:
 837              	.LBB185:
 838              	.LBB186:
 839              		.loc 3 548 0
 840              	@ 548 "/home/peter/ChibiOS_16.1.4/os/ext/CMSIS/include/core_cmFunc.h" 1
 841 01de 86F31188 		MSR basepri, r6
 842              	@ 0 "" 2
 843              		.thumb
 844              	.LBE186:
 845              	.LBE185:
 846              	.LBE184:
 847              	.LBE183:
 848              	.LBE182:
 849              	.LBB187:
 850              	.LBB188:
 851              		.loc 2 189 0
 852 01e2 AB69     		ldr	r3, [r5, #24]
 853              	.LBE188:
 854              	.LBE187:
 855              		.loc 1 393 0
ARM GAS  /tmp/ccNX1sj0.s 			page 16


 856 01e4 0C20     		movs	r0, #12
 857 01e6 9968     		ldr	r1, [r3, #8]
 858 01e8 C1EB0906 		rsb	r6, r1, r9
 859 01ec 7142     		rsbs	r1, r6, #0
 860 01ee 7141     		adcs	r1, r1, r6
 861 01f0 FFF7FEFF 		bl	_test_assert
 862              	.LVL69:
 863 01f4 0028     		cmp	r0, #0
 864 01f6 7FF433AF 		bne	.L34
 865              		.loc 1 394 0
 866 01fa 4FF47A70 		mov	r0, #1000
 867 01fe FFF7FEFF 		bl	chThdSleep
 868              	.LVL70:
 869              	.LBB189:
 870              	.LBB190:
 871              		.loc 2 189 0
 872 0202 AB69     		ldr	r3, [r5, #24]
 873              	.LBE190:
 874              	.LBE189:
 875              		.loc 1 395 0
 876 0204 0D20     		movs	r0, #13
 877 0206 9968     		ldr	r1, [r3, #8]
 878 0208 C1EB0902 		rsb	r2, r1, r9
 879 020c 5142     		rsbs	r1, r2, #0
 880 020e 5141     		adcs	r1, r1, r2
 881 0210 FFF7FEFF 		bl	_test_assert
 882              	.LVL71:
 883 0214 0028     		cmp	r0, #0
 884 0216 7FF423AF 		bne	.L34
 885              		.loc 1 396 0
 886 021a FFF7FEFF 		bl	chMtxUnlockAll
 887              	.LVL72:
 888              	.LBB191:
 889              	.LBB192:
 890              		.loc 2 189 0
 891 021e AB69     		ldr	r3, [r5, #24]
 892              	.LBE192:
 893              	.LBE191:
 894              		.loc 1 397 0
 895 0220 0E20     		movs	r0, #14
 896 0222 9968     		ldr	r1, [r3, #8]
 897 0224 631A     		subs	r3, r4, r1
 898 0226 5942     		rsbs	r1, r3, #0
 899 0228 5941     		adcs	r1, r1, r3
 900 022a FFF7FEFF 		bl	_test_assert
 901              	.LVL73:
 902 022e 0028     		cmp	r0, #0
 903 0230 7FF416AF 		bne	.L34
 904              		.loc 1 399 0
 905 0234 05B0     		add	sp, sp, #20
 906              		.cfi_def_cfa_offset 28
 907              		@ sp needed
 908 0236 BDE8F046 		pop	{r4, r5, r6, r7, r9, r10, lr}
 909              		.cfi_restore 14
 910              		.cfi_restore 10
 911              		.cfi_restore 9
 912              		.cfi_restore 7
ARM GAS  /tmp/ccNX1sj0.s 			page 17


 913              		.cfi_restore 6
 914              		.cfi_restore 5
 915              		.cfi_restore 4
 916              		.cfi_def_cfa_offset 0
 917              	.LVL74:
 918              		.loc 1 398 0
 919 023a FFF7FEBF 		b	test_wait_threads
 920              	.LVL75:
 921              	.L41:
 922 023e 00BF     		.align	2
 923              	.L40:
 924 0240 00000000 		.word	ch
 925 0244 00000000 		.word	wa
 926 0248 0C000000 		.word	.LC3
 927 024c 00000000 		.word	thread4a
 928 0250 00000000 		.word	threads
 929 0254 10000000 		.word	.LC4
 930 0258 00000000 		.word	thread4b
 931 025c 00000000 		.word	.LANCHOR1
 932 0260 00000000 		.word	.LANCHOR0
 933 0264 04000000 		.word	.LC1
 934 0268 08000000 		.word	.LC2
 935              		.cfi_endproc
 936              	.LFE176:
 937              		.size	mtx4_execute, .-mtx4_execute
 938 026c AFF30080 		.section	.text.mtx5_execute,"ax",%progbits
 939              		.align	2
 940              		.p2align 4,,15
 941              		.thumb
 942              		.thumb_func
 943              		.type	mtx5_execute, %function
 944              	mtx5_execute:
 945              	.LFB178:
 946              		.loc 1 423 0
 947              		.cfi_startproc
 948              		@ args = 0, pretend = 0, frame = 0
 949              		@ frame_needed = 0, uses_anonymous_args = 0
 950 0000 F8B5     		push	{r3, r4, r5, r6, r7, lr}
 951              		.cfi_def_cfa_offset 24
 952              		.cfi_offset 3, -24
 953              		.cfi_offset 4, -20
 954              		.cfi_offset 5, -16
 955              		.cfi_offset 6, -12
 956              		.cfi_offset 7, -8
 957              		.cfi_offset 14, -4
 958              	.LBB193:
 959              	.LBB194:
 960              	.LBB195:
 961              	.LBB196:
 962              		.loc 2 176 0
 963 0002 2B4D     		ldr	r5, .L48
 964              	.LBE196:
 965              	.LBE195:
 966              	.LBE194:
 967              	.LBE193:
 968              		.loc 1 429 0
 969 0004 2B4C     		ldr	r4, .L48+4
ARM GAS  /tmp/ccNX1sj0.s 			page 18


 970              	.LBB199:
 971              	.LBB197:
 972              		.loc 2 189 0
 973 0006 AB69     		ldr	r3, [r5, #24]
 974              	.LBE197:
 975              	.LBE199:
 976              		.loc 1 429 0
 977 0008 2046     		mov	r0, r4
 978              	.LBB200:
 979              	.LBB198:
 980              		.loc 2 189 0
 981 000a 9E68     		ldr	r6, [r3, #8]
 982              	.LBE198:
 983              	.LBE200:
 984              		.loc 1 429 0
 985 000c FFF7FEFF 		bl	chMtxTryLock
 986              	.LVL76:
 987 0010 0146     		mov	r1, r0
 988              	.LVL77:
 989              		.loc 1 430 0
 990 0012 0120     		movs	r0, #1
 991 0014 FFF7FEFF 		bl	_test_assert
 992              	.LVL78:
 993 0018 00B1     		cbz	r0, .L47
 994              	.L42:
 995 001a F8BD     		pop	{r3, r4, r5, r6, r7, pc}
 996              	.L47:
 997              		.loc 1 432 0
 998 001c 2046     		mov	r0, r4
 999 001e FFF7FEFF 		bl	chMtxTryLock
 1000              	.LVL79:
 1001              		.loc 1 433 0
 1002 0022 80F00101 		eor	r1, r0, #1
 1003 0026 C9B2     		uxtb	r1, r1
 1004 0028 0220     		movs	r0, #2
 1005              	.LVL80:
 1006 002a FFF7FEFF 		bl	_test_assert
 1007              	.LVL81:
 1008 002e 0746     		mov	r7, r0
 1009 0030 0028     		cmp	r0, #0
 1010 0032 F2D1     		bne	.L42
 1011              	.LVL82:
 1012              	.LBB201:
 1013              	.LBB202:
 1014              	.LBB203:
 1015              	.LBB204:
 1016              		.loc 3 548 0
 1017 0034 2023     		movs	r3, #32
 1018              	@ 548 "/home/peter/ChibiOS_16.1.4/os/ext/CMSIS/include/core_cmFunc.h" 1
 1019 0036 83F31188 		MSR basepri, r3
 1020              	@ 0 "" 2
 1021              		.thumb
 1022              	.LBE204:
 1023              	.LBE203:
 1024              	.LBE202:
 1025              	.LBE201:
 1026              		.loc 1 436 0
ARM GAS  /tmp/ccNX1sj0.s 			page 19


 1027 003a 2046     		mov	r0, r4
 1028 003c FFF7FEFF 		bl	chMtxUnlockS
 1029              	.LVL83:
 1030              	.LBB205:
 1031              	.LBB206:
 1032              	.LBB207:
 1033              	.LBB208:
 1034              	.LBB209:
 1035              		.loc 3 548 0
 1036              	@ 548 "/home/peter/ChibiOS_16.1.4/os/ext/CMSIS/include/core_cmFunc.h" 1
 1037 0040 87F31188 		MSR basepri, r7
 1038              	@ 0 "" 2
 1039              	.LVL84:
 1040              		.thumb
 1041              	.LBE209:
 1042              	.LBE208:
 1043              	.LBE207:
 1044              	.LBE206:
 1045              	.LBE205:
 1046              	.LBB210:
 1047              	.LBB211:
 1048              		.file 4 "/home/peter/ChibiOS_16.1.4/os/rt/include/chschd.h"
 1049              		.loc 4 618 0
 1050 0044 2168     		ldr	r1, [r4]
 1051              	.LBE211:
 1052              	.LBE210:
 1053              		.loc 1 439 0
 1054 0046 0320     		movs	r0, #3
 1055 0048 091B     		subs	r1, r1, r4
 1056 004a B1FA81F1 		clz	r1, r1
 1057 004e 4909     		lsrs	r1, r1, #5
 1058 0050 FFF7FEFF 		bl	_test_assert
 1059              	.LVL85:
 1060 0054 0028     		cmp	r0, #0
 1061 0056 E0D1     		bne	.L42
 1062              		.loc 1 440 0
 1063 0058 A168     		ldr	r1, [r4, #8]
 1064 005a 0420     		movs	r0, #4
 1065 005c B1FA81F1 		clz	r1, r1
 1066 0060 4909     		lsrs	r1, r1, #5
 1067 0062 FFF7FEFF 		bl	_test_assert
 1068              	.LVL86:
 1069 0066 0028     		cmp	r0, #0
 1070 0068 D7D1     		bne	.L42
 1071              	.LBB212:
 1072              	.LBB213:
 1073              		.loc 2 189 0
 1074 006a AB69     		ldr	r3, [r5, #24]
 1075              	.LBE213:
 1076              	.LBE212:
 1077              		.loc 1 441 0
 1078 006c 0520     		movs	r0, #5
 1079 006e 9968     		ldr	r1, [r3, #8]
 1080 0070 711A     		subs	r1, r6, r1
 1081 0072 B1FA81F1 		clz	r1, r1
 1082 0076 4909     		lsrs	r1, r1, #5
 1083 0078 FFF7FEFF 		bl	_test_assert
ARM GAS  /tmp/ccNX1sj0.s 			page 20


 1084              	.LVL87:
 1085 007c 0028     		cmp	r0, #0
 1086 007e CCD1     		bne	.L42
 1087              		.loc 1 444 0
 1088 0080 2046     		mov	r0, r4
 1089 0082 FFF7FEFF 		bl	chMtxLock
 1090              	.LVL88:
 1091              		.loc 1 445 0
 1092 0086 FFF7FEFF 		bl	chMtxUnlockAll
 1093              	.LVL89:
 1094              	.LBB214:
 1095              	.LBB215:
 1096              		.loc 4 618 0
 1097 008a 2168     		ldr	r1, [r4]
 1098              	.LBE215:
 1099              	.LBE214:
 1100              		.loc 1 446 0
 1101 008c 0620     		movs	r0, #6
 1102 008e 091B     		subs	r1, r1, r4
 1103 0090 B1FA81F1 		clz	r1, r1
 1104 0094 4909     		lsrs	r1, r1, #5
 1105 0096 FFF7FEFF 		bl	_test_assert
 1106              	.LVL90:
 1107 009a 0028     		cmp	r0, #0
 1108 009c BDD1     		bne	.L42
 1109              		.loc 1 447 0
 1110 009e A168     		ldr	r1, [r4, #8]
 1111 00a0 0720     		movs	r0, #7
 1112 00a2 B1FA81F1 		clz	r1, r1
 1113              		.loc 1 448 0
 1114 00a6 BDE8F840 		pop	{r3, r4, r5, r6, r7, lr}
 1115              		.cfi_restore 14
 1116              		.cfi_restore 7
 1117              		.cfi_restore 6
 1118              		.cfi_restore 5
 1119              		.cfi_restore 4
 1120              		.cfi_restore 3
 1121              		.cfi_def_cfa_offset 0
 1122              		.loc 1 447 0
 1123 00aa 4909     		lsrs	r1, r1, #5
 1124 00ac FFF7FEBF 		b	_test_assert
 1125              	.LVL91:
 1126              	.L49:
 1127              		.align	2
 1128              	.L48:
 1129 00b0 00000000 		.word	ch
 1130 00b4 00000000 		.word	.LANCHOR0
 1131              		.cfi_endproc
 1132              	.LFE178:
 1133              		.size	mtx5_execute, .-mtx5_execute
 1134 00b8 AFF30080 		.section	.text.mtx6_execute,"ax",%progbits
 1134      AFF30080 
 1135              		.align	2
 1136              		.p2align 4,,15
 1137              		.thumb
 1138              		.thumb_func
 1139              		.type	mtx6_execute, %function
ARM GAS  /tmp/ccNX1sj0.s 			page 21


 1140              	mtx6_execute:
 1141              	.LFB181:
 1142              		.loc 1 483 0
 1143              		.cfi_startproc
 1144              		@ args = 0, pretend = 0, frame = 0
 1145              		@ frame_needed = 0, uses_anonymous_args = 0
 1146 0000 F0B5     		push	{r4, r5, r6, r7, lr}
 1147              		.cfi_def_cfa_offset 20
 1148              		.cfi_offset 4, -20
 1149              		.cfi_offset 5, -16
 1150              		.cfi_offset 6, -12
 1151              		.cfi_offset 7, -8
 1152              		.cfi_offset 14, -4
 1153              	.LBB216:
 1154              	.LBB217:
 1155              	.LBB218:
 1156              	.LBB219:
 1157              		.loc 2 176 0
 1158 0002 2F4B     		ldr	r3, .L52
 1159              	.LBE219:
 1160              	.LBE218:
 1161              	.LBE217:
 1162              	.LBE216:
 1163              		.loc 1 486 0
 1164 0004 2F4F     		ldr	r7, .L52+4
 1165              	.LBB222:
 1166              	.LBB220:
 1167              		.loc 2 189 0
 1168 0006 9B69     		ldr	r3, [r3, #24]
 1169              	.LBE220:
 1170              	.LBE222:
 1171              		.loc 1 486 0
 1172 0008 2F4D     		ldr	r5, .L52+8
 1173              	.LBB223:
 1174              	.LBB221:
 1175              		.loc 2 189 0
 1176 000a 9E68     		ldr	r6, [r3, #8]
 1177              	.LBE221:
 1178              	.LBE223:
 1179              		.loc 1 486 0
 1180 000c 2F49     		ldr	r1, .L52+12
 1181              		.loc 1 483 0
 1182 000e 83B0     		sub	sp, sp, #12
 1183              		.cfi_def_cfa_offset 32
 1184              		.loc 1 486 0
 1185 0010 721C     		adds	r2, r6, #1
 1186 0012 2B46     		mov	r3, r5
 1187 0014 0091     		str	r1, [sp]
 1188 0016 3868     		ldr	r0, [r7]
 1189 0018 4FF4A471 		mov	r1, #328
 1190 001c FFF7FEFF 		bl	chThdCreateStatic
 1191              	.LVL92:
 1192 0020 2B4C     		ldr	r4, .L52+16
 1193              		.loc 1 487 0
 1194 0022 7B68     		ldr	r3, [r7, #4]
 1195 0024 2B49     		ldr	r1, .L52+20
 1196              		.loc 1 486 0
ARM GAS  /tmp/ccNX1sj0.s 			page 22


 1197 0026 2060     		str	r0, [r4]
 1198              		.loc 1 487 0
 1199 0028 B21C     		adds	r2, r6, #2
 1200 002a 0091     		str	r1, [sp]
 1201 002c 1846     		mov	r0, r3
 1202 002e 4FF4A471 		mov	r1, #328
 1203 0032 2B46     		mov	r3, r5
 1204 0034 FFF7FEFF 		bl	chThdCreateStatic
 1205              	.LVL93:
 1206              		.loc 1 488 0
 1207 0038 BB68     		ldr	r3, [r7, #8]
 1208 003a 2749     		ldr	r1, .L52+24
 1209              		.loc 1 487 0
 1210 003c 6060     		str	r0, [r4, #4]
 1211              		.loc 1 488 0
 1212 003e F21C     		adds	r2, r6, #3
 1213 0040 0091     		str	r1, [sp]
 1214 0042 1846     		mov	r0, r3
 1215 0044 4FF4A471 		mov	r1, #328
 1216 0048 2B46     		mov	r3, r5
 1217 004a FFF7FEFF 		bl	chThdCreateStatic
 1218              	.LVL94:
 1219              		.loc 1 489 0
 1220 004e FB68     		ldr	r3, [r7, #12]
 1221 0050 2249     		ldr	r1, .L52+28
 1222              		.loc 1 488 0
 1223 0052 A060     		str	r0, [r4, #8]
 1224              		.loc 1 489 0
 1225 0054 321D     		adds	r2, r6, #4
 1226 0056 0091     		str	r1, [sp]
 1227 0058 1846     		mov	r0, r3
 1228 005a 4FF4A471 		mov	r1, #328
 1229 005e 2B46     		mov	r3, r5
 1230 0060 FFF7FEFF 		bl	chThdCreateStatic
 1231              	.LVL95:
 1232              		.loc 1 490 0
 1233 0064 3B69     		ldr	r3, [r7, #16]
 1234 0066 1E49     		ldr	r1, .L52+32
 1235              		.loc 1 489 0
 1236 0068 E060     		str	r0, [r4, #12]
 1237              		.loc 1 490 0
 1238 006a 721D     		adds	r2, r6, #5
 1239 006c 0091     		str	r1, [sp]
 1240 006e 1846     		mov	r0, r3
 1241 0070 4FF4A471 		mov	r1, #328
 1242 0074 2B46     		mov	r3, r5
 1243 0076 FFF7FEFF 		bl	chThdCreateStatic
 1244              	.LVL96:
 1245              	.LBB224:
 1246              	.LBB225:
 1247              	.LBB226:
 1248              	.LBB227:
 1249              		.loc 3 548 0
 1250 007a 2023     		movs	r3, #32
 1251              	.LBE227:
 1252              	.LBE226:
 1253              	.LBE225:
ARM GAS  /tmp/ccNX1sj0.s 			page 23


 1254              	.LBE224:
 1255              		.loc 1 490 0
 1256 007c 2061     		str	r0, [r4, #16]
 1257              	.LVL97:
 1258              	.LBB231:
 1259              	.LBB230:
 1260              	.LBB229:
 1261              	.LBB228:
 1262              		.loc 3 548 0
 1263              	@ 548 "/home/peter/ChibiOS_16.1.4/os/ext/CMSIS/include/core_cmFunc.h" 1
 1264 007e 83F31188 		MSR basepri, r3
 1265              	@ 0 "" 2
 1266              		.thumb
 1267              	.LBE228:
 1268              	.LBE229:
 1269              	.LBE230:
 1270              	.LBE231:
 1271              		.loc 1 492 0
 1272 0082 184C     		ldr	r4, .L52+36
 1273 0084 2046     		mov	r0, r4
 1274 0086 FFF7FEFF 		bl	chCondSignalI
 1275              	.LVL98:
 1276              		.loc 1 493 0
 1277 008a 2046     		mov	r0, r4
 1278 008c FFF7FEFF 		bl	chCondSignalI
 1279              	.LVL99:
 1280              		.loc 1 494 0
 1281 0090 2046     		mov	r0, r4
 1282 0092 FFF7FEFF 		bl	chCondSignalI
 1283              	.LVL100:
 1284              		.loc 1 495 0
 1285 0096 2046     		mov	r0, r4
 1286 0098 FFF7FEFF 		bl	chCondSignalI
 1287              	.LVL101:
 1288              		.loc 1 496 0
 1289 009c 2046     		mov	r0, r4
 1290 009e FFF7FEFF 		bl	chCondSignalI
 1291              	.LVL102:
 1292              		.loc 1 497 0
 1293 00a2 FFF7FEFF 		bl	chSchRescheduleS
 1294              	.LVL103:
 1295              	.LBB232:
 1296              	.LBB233:
 1297              	.LBB234:
 1298              	.LBB235:
 1299              	.LBB236:
 1300              		.loc 3 548 0
 1301 00a6 0023     		movs	r3, #0
 1302              	@ 548 "/home/peter/ChibiOS_16.1.4/os/ext/CMSIS/include/core_cmFunc.h" 1
 1303 00a8 83F31188 		MSR basepri, r3
 1304              	@ 0 "" 2
 1305              		.thumb
 1306              	.LBE236:
 1307              	.LBE235:
 1308              	.LBE234:
 1309              	.LBE233:
 1310              	.LBE232:
ARM GAS  /tmp/ccNX1sj0.s 			page 24


 1311              		.loc 1 499 0
 1312 00ac FFF7FEFF 		bl	test_wait_threads
 1313              	.LVL104:
 1314              		.loc 1 500 0
 1315 00b0 0D49     		ldr	r1, .L52+40
 1316 00b2 0120     		movs	r0, #1
 1317              		.loc 1 501 0
 1318 00b4 03B0     		add	sp, sp, #12
 1319              		.cfi_def_cfa_offset 20
 1320              		@ sp needed
 1321 00b6 BDE8F040 		pop	{r4, r5, r6, r7, lr}
 1322              		.cfi_restore 14
 1323              		.cfi_restore 7
 1324              		.cfi_restore 6
 1325              		.cfi_restore 5
 1326              		.cfi_restore 4
 1327              		.cfi_def_cfa_offset 0
 1328              		.loc 1 500 0
 1329 00ba FFF7FEBF 		b	_test_assert_sequence
 1330              	.LVL105:
 1331              	.L53:
 1332 00be 00BF     		.align	2
 1333              	.L52:
 1334 00c0 00000000 		.word	ch
 1335 00c4 00000000 		.word	wa
 1336 00c8 00000000 		.word	thread10
 1337 00cc 00000000 		.word	.LC0
 1338 00d0 00000000 		.word	threads
 1339 00d4 04000000 		.word	.LC1
 1340 00d8 08000000 		.word	.LC2
 1341 00dc 0C000000 		.word	.LC3
 1342 00e0 10000000 		.word	.LC4
 1343 00e4 00000000 		.word	.LANCHOR2
 1344 00e8 14000000 		.word	.LC5
 1345              		.cfi_endproc
 1346              	.LFE181:
 1347              		.size	mtx6_execute, .-mtx6_execute
 1348 00ec AFF30080 		.section	.text.thread10,"ax",%progbits
 1349              		.align	2
 1350              		.p2align 4,,15
 1351              		.thumb
 1352              		.thumb_func
 1353              		.type	thread10, %function
 1354              	thread10:
 1355              	.LFB180:
 1356              		.loc 1 475 0
 1357              		.cfi_startproc
 1358              		@ args = 0, pretend = 0, frame = 0
 1359              		@ frame_needed = 0, uses_anonymous_args = 0
 1360              	.LVL106:
 1361 0000 38B5     		push	{r3, r4, r5, lr}
 1362              		.cfi_def_cfa_offset 16
 1363              		.cfi_offset 3, -16
 1364              		.cfi_offset 4, -12
 1365              		.cfi_offset 5, -8
 1366              		.cfi_offset 14, -4
 1367              		.loc 1 475 0
ARM GAS  /tmp/ccNX1sj0.s 			page 25


 1368 0002 0546     		mov	r5, r0
 1369              		.loc 1 477 0
 1370 0004 074C     		ldr	r4, .L56
 1371 0006 2046     		mov	r0, r4
 1372              	.LVL107:
 1373 0008 FFF7FEFF 		bl	chMtxLock
 1374              	.LVL108:
 1375              		.loc 1 478 0
 1376 000c 0648     		ldr	r0, .L56+4
 1377 000e FFF7FEFF 		bl	chCondWait
 1378              	.LVL109:
 1379              		.loc 1 479 0
 1380 0012 2878     		ldrb	r0, [r5]	@ zero_extendqisi2
 1381 0014 FFF7FEFF 		bl	test_emit_token
 1382              	.LVL110:
 1383              		.loc 1 480 0
 1384 0018 2046     		mov	r0, r4
 1385              		.loc 1 481 0
 1386 001a BDE83840 		pop	{r3, r4, r5, lr}
 1387              		.cfi_restore 14
 1388              		.cfi_restore 5
 1389              		.cfi_restore 4
 1390              		.cfi_restore 3
 1391              		.cfi_def_cfa_offset 0
 1392              	.LVL111:
 1393              		.loc 1 480 0
 1394 001e FFF7FEBF 		b	chMtxUnlock
 1395              	.LVL112:
 1396              	.L57:
 1397 0022 00BF     		.align	2
 1398              	.L56:
 1399 0024 00000000 		.word	.LANCHOR0
 1400 0028 00000000 		.word	.LANCHOR2
 1401              		.cfi_endproc
 1402              	.LFE180:
 1403              		.size	thread10, .-thread10
 1404 002c AFF30080 		.section	.text.mtx6_setup,"ax",%progbits
 1405              		.align	2
 1406              		.p2align 4,,15
 1407              		.thumb
 1408              		.thumb_func
 1409              		.type	mtx6_setup, %function
 1410              	mtx6_setup:
 1411              	.LFB179:
 1412              		.loc 1 469 0
 1413              		.cfi_startproc
 1414              		@ args = 0, pretend = 0, frame = 0
 1415              		@ frame_needed = 0, uses_anonymous_args = 0
 1416 0000 08B5     		push	{r3, lr}
 1417              		.cfi_def_cfa_offset 8
 1418              		.cfi_offset 3, -8
 1419              		.cfi_offset 14, -4
 1420              		.loc 1 471 0
 1421 0002 0448     		ldr	r0, .L60
 1422 0004 FFF7FEFF 		bl	chCondObjectInit
 1423              	.LVL113:
 1424              		.loc 1 473 0
ARM GAS  /tmp/ccNX1sj0.s 			page 26


 1425 0008 BDE80840 		pop	{r3, lr}
 1426              		.cfi_restore 14
 1427              		.cfi_restore 3
 1428              		.cfi_def_cfa_offset 0
 1429              		.loc 1 472 0
 1430 000c 0248     		ldr	r0, .L60+4
 1431 000e FFF7FEBF 		b	chMtxObjectInit
 1432              	.LVL114:
 1433              	.L61:
 1434 0012 00BF     		.align	2
 1435              	.L60:
 1436 0014 00000000 		.word	.LANCHOR2
 1437 0018 00000000 		.word	.LANCHOR0
 1438              		.cfi_endproc
 1439              	.LFE179:
 1440              		.size	mtx6_setup, .-mtx6_setup
 1441 001c AFF30080 		.section	.text.mtx7_setup,"ax",%progbits
 1442              		.align	2
 1443              		.p2align 4,,15
 1444              		.thumb
 1445              		.thumb_func
 1446              		.type	mtx7_setup, %function
 1447              	mtx7_setup:
 1448              	.LFB182:
 1449              		.loc 1 520 0
 1450              		.cfi_startproc
 1451              		@ args = 0, pretend = 0, frame = 0
 1452              		@ frame_needed = 0, uses_anonymous_args = 0
 1453 0000 08B5     		push	{r3, lr}
 1454              		.cfi_def_cfa_offset 8
 1455              		.cfi_offset 3, -8
 1456              		.cfi_offset 14, -4
 1457              		.loc 1 522 0
 1458 0002 0448     		ldr	r0, .L64
 1459 0004 FFF7FEFF 		bl	chCondObjectInit
 1460              	.LVL115:
 1461              		.loc 1 524 0
 1462 0008 BDE80840 		pop	{r3, lr}
 1463              		.cfi_restore 14
 1464              		.cfi_restore 3
 1465              		.cfi_def_cfa_offset 0
 1466              		.loc 1 523 0
 1467 000c 0248     		ldr	r0, .L64+4
 1468 000e FFF7FEBF 		b	chMtxObjectInit
 1469              	.LVL116:
 1470              	.L65:
 1471 0012 00BF     		.align	2
 1472              	.L64:
 1473 0014 00000000 		.word	.LANCHOR2
 1474 0018 00000000 		.word	.LANCHOR0
 1475              		.cfi_endproc
 1476              	.LFE182:
 1477              		.size	mtx7_setup, .-mtx7_setup
 1478 001c AFF30080 		.section	.text.mtx8_setup,"ax",%progbits
 1479              		.align	2
 1480              		.p2align 4,,15
 1481              		.thumb
ARM GAS  /tmp/ccNX1sj0.s 			page 27


 1482              		.thumb_func
 1483              		.type	mtx8_setup, %function
 1484              	mtx8_setup:
 1485              	.LFB184:
 1486              		.loc 1 555 0
 1487              		.cfi_startproc
 1488              		@ args = 0, pretend = 0, frame = 0
 1489              		@ frame_needed = 0, uses_anonymous_args = 0
 1490 0000 08B5     		push	{r3, lr}
 1491              		.cfi_def_cfa_offset 8
 1492              		.cfi_offset 3, -8
 1493              		.cfi_offset 14, -4
 1494              		.loc 1 557 0
 1495 0002 0548     		ldr	r0, .L68
 1496 0004 FFF7FEFF 		bl	chCondObjectInit
 1497              	.LVL117:
 1498              		.loc 1 558 0
 1499 0008 0448     		ldr	r0, .L68+4
 1500 000a FFF7FEFF 		bl	chMtxObjectInit
 1501              	.LVL118:
 1502              		.loc 1 560 0
 1503 000e BDE80840 		pop	{r3, lr}
 1504              		.cfi_restore 14
 1505              		.cfi_restore 3
 1506              		.cfi_def_cfa_offset 0
 1507              		.loc 1 559 0
 1508 0012 0348     		ldr	r0, .L68+8
 1509 0014 FFF7FEBF 		b	chMtxObjectInit
 1510              	.LVL119:
 1511              	.L69:
 1512              		.align	2
 1513              	.L68:
 1514 0018 00000000 		.word	.LANCHOR2
 1515 001c 00000000 		.word	.LANCHOR0
 1516 0020 00000000 		.word	.LANCHOR1
 1517              		.cfi_endproc
 1518              	.LFE184:
 1519              		.size	mtx8_setup, .-mtx8_setup
 1520 0024 AFF30080 		.section	.text.mtx7_execute,"ax",%progbits
 1520      AFF30080 
 1520      AFF30080 
 1521              		.align	2
 1522              		.p2align 4,,15
 1523              		.thumb
 1524              		.thumb_func
 1525              		.type	mtx7_execute, %function
 1526              	mtx7_execute:
 1527              	.LFB183:
 1528              		.loc 1 526 0
 1529              		.cfi_startproc
 1530              		@ args = 0, pretend = 0, frame = 0
 1531              		@ frame_needed = 0, uses_anonymous_args = 0
 1532 0000 F0B5     		push	{r4, r5, r6, r7, lr}
 1533              		.cfi_def_cfa_offset 20
 1534              		.cfi_offset 4, -20
 1535              		.cfi_offset 5, -16
 1536              		.cfi_offset 6, -12
ARM GAS  /tmp/ccNX1sj0.s 			page 28


 1537              		.cfi_offset 7, -8
 1538              		.cfi_offset 14, -4
 1539              	.LBB237:
 1540              	.LBB238:
 1541              	.LBB239:
 1542              	.LBB240:
 1543              		.loc 2 176 0
 1544 0002 244B     		ldr	r3, .L72
 1545              	.LBE240:
 1546              	.LBE239:
 1547              	.LBE238:
 1548              	.LBE237:
 1549              		.loc 1 529 0
 1550 0004 244F     		ldr	r7, .L72+4
 1551              	.LBB243:
 1552              	.LBB241:
 1553              		.loc 2 189 0
 1554 0006 9B69     		ldr	r3, [r3, #24]
 1555              	.LBE241:
 1556              	.LBE243:
 1557              		.loc 1 529 0
 1558 0008 244D     		ldr	r5, .L72+8
 1559              	.LBB244:
 1560              	.LBB242:
 1561              		.loc 2 189 0
 1562 000a 9E68     		ldr	r6, [r3, #8]
 1563              	.LBE242:
 1564              	.LBE244:
 1565              		.loc 1 529 0
 1566 000c 2449     		ldr	r1, .L72+12
 1567              		.loc 1 526 0
 1568 000e 83B0     		sub	sp, sp, #12
 1569              		.cfi_def_cfa_offset 32
 1570              		.loc 1 529 0
 1571 0010 721C     		adds	r2, r6, #1
 1572 0012 2B46     		mov	r3, r5
 1573 0014 0091     		str	r1, [sp]
 1574 0016 3868     		ldr	r0, [r7]
 1575 0018 4FF4A471 		mov	r1, #328
 1576 001c FFF7FEFF 		bl	chThdCreateStatic
 1577              	.LVL120:
 1578 0020 204C     		ldr	r4, .L72+16
 1579              		.loc 1 530 0
 1580 0022 7B68     		ldr	r3, [r7, #4]
 1581 0024 2049     		ldr	r1, .L72+20
 1582              		.loc 1 529 0
 1583 0026 2060     		str	r0, [r4]
 1584              		.loc 1 530 0
 1585 0028 B21C     		adds	r2, r6, #2
 1586 002a 0091     		str	r1, [sp]
 1587 002c 1846     		mov	r0, r3
 1588 002e 4FF4A471 		mov	r1, #328
 1589 0032 2B46     		mov	r3, r5
 1590 0034 FFF7FEFF 		bl	chThdCreateStatic
 1591              	.LVL121:
 1592              		.loc 1 531 0
 1593 0038 BB68     		ldr	r3, [r7, #8]
ARM GAS  /tmp/ccNX1sj0.s 			page 29


 1594 003a 1C49     		ldr	r1, .L72+24
 1595              		.loc 1 530 0
 1596 003c 6060     		str	r0, [r4, #4]
 1597              		.loc 1 531 0
 1598 003e F21C     		adds	r2, r6, #3
 1599 0040 0091     		str	r1, [sp]
 1600 0042 1846     		mov	r0, r3
 1601 0044 4FF4A471 		mov	r1, #328
 1602 0048 2B46     		mov	r3, r5
 1603 004a FFF7FEFF 		bl	chThdCreateStatic
 1604              	.LVL122:
 1605              		.loc 1 532 0
 1606 004e FB68     		ldr	r3, [r7, #12]
 1607 0050 1749     		ldr	r1, .L72+28
 1608              		.loc 1 531 0
 1609 0052 A060     		str	r0, [r4, #8]
 1610              		.loc 1 532 0
 1611 0054 321D     		adds	r2, r6, #4
 1612 0056 0091     		str	r1, [sp]
 1613 0058 1846     		mov	r0, r3
 1614 005a 4FF4A471 		mov	r1, #328
 1615 005e 2B46     		mov	r3, r5
 1616 0060 FFF7FEFF 		bl	chThdCreateStatic
 1617              	.LVL123:
 1618              		.loc 1 533 0
 1619 0064 3B69     		ldr	r3, [r7, #16]
 1620 0066 1349     		ldr	r1, .L72+32
 1621 0068 721D     		adds	r2, r6, #5
 1622              		.loc 1 532 0
 1623 006a E060     		str	r0, [r4, #12]
 1624              		.loc 1 533 0
 1625 006c 0091     		str	r1, [sp]
 1626 006e 1846     		mov	r0, r3
 1627 0070 4FF4A471 		mov	r1, #328
 1628 0074 2B46     		mov	r3, r5
 1629 0076 FFF7FEFF 		bl	chThdCreateStatic
 1630              	.LVL124:
 1631 007a 2061     		str	r0, [r4, #16]
 1632              		.loc 1 534 0
 1633 007c 0E48     		ldr	r0, .L72+36
 1634 007e FFF7FEFF 		bl	chCondBroadcast
 1635              	.LVL125:
 1636              		.loc 1 535 0
 1637 0082 FFF7FEFF 		bl	test_wait_threads
 1638              	.LVL126:
 1639              		.loc 1 536 0
 1640 0086 0D49     		ldr	r1, .L72+40
 1641 0088 0120     		movs	r0, #1
 1642              		.loc 1 537 0
 1643 008a 03B0     		add	sp, sp, #12
 1644              		.cfi_def_cfa_offset 20
 1645              		@ sp needed
 1646 008c BDE8F040 		pop	{r4, r5, r6, r7, lr}
 1647              		.cfi_restore 14
 1648              		.cfi_restore 7
 1649              		.cfi_restore 6
 1650              		.cfi_restore 5
ARM GAS  /tmp/ccNX1sj0.s 			page 30


 1651              		.cfi_restore 4
 1652              		.cfi_def_cfa_offset 0
 1653              		.loc 1 536 0
 1654 0090 FFF7FEBF 		b	_test_assert_sequence
 1655              	.LVL127:
 1656              	.L73:
 1657              		.align	2
 1658              	.L72:
 1659 0094 00000000 		.word	ch
 1660 0098 00000000 		.word	wa
 1661 009c 00000000 		.word	thread10
 1662 00a0 00000000 		.word	.LC0
 1663 00a4 00000000 		.word	threads
 1664 00a8 04000000 		.word	.LC1
 1665 00ac 08000000 		.word	.LC2
 1666 00b0 0C000000 		.word	.LC3
 1667 00b4 10000000 		.word	.LC4
 1668 00b8 00000000 		.word	.LANCHOR2
 1669 00bc 14000000 		.word	.LC5
 1670              		.cfi_endproc
 1671              	.LFE183:
 1672              		.size	mtx7_execute, .-mtx7_execute
 1673              		.section	.text.mtx8_execute,"ax",%progbits
 1674              		.align	2
 1675              		.p2align 4,,15
 1676              		.thumb
 1677              		.thumb_func
 1678              		.type	mtx8_execute, %function
 1679              	mtx8_execute:
 1680              	.LFB187:
 1681              		.loc 1 583 0
 1682              		.cfi_startproc
 1683              		@ args = 0, pretend = 0, frame = 0
 1684              		@ frame_needed = 0, uses_anonymous_args = 0
 1685 0000 70B5     		push	{r4, r5, r6, lr}
 1686              		.cfi_def_cfa_offset 16
 1687              		.cfi_offset 4, -16
 1688              		.cfi_offset 5, -12
 1689              		.cfi_offset 6, -8
 1690              		.cfi_offset 14, -4
 1691              	.LBB245:
 1692              	.LBB246:
 1693              	.LBB247:
 1694              	.LBB248:
 1695              		.loc 2 176 0
 1696 0002 1B4B     		ldr	r3, .L76
 1697              	.LBE248:
 1698              	.LBE247:
 1699              	.LBE246:
 1700              	.LBE245:
 1701              		.loc 1 586 0
 1702 0004 1B4E     		ldr	r6, .L76+4
 1703              	.LBB251:
 1704              	.LBB249:
 1705              		.loc 2 189 0
 1706 0006 9B69     		ldr	r3, [r3, #24]
 1707              	.LBE249:
ARM GAS  /tmp/ccNX1sj0.s 			page 31


 1708              	.LBE251:
 1709              		.loc 1 583 0
 1710 0008 82B0     		sub	sp, sp, #8
 1711              		.cfi_def_cfa_offset 24
 1712              	.LBB252:
 1713              	.LBB250:
 1714              		.loc 2 189 0
 1715 000a 9D68     		ldr	r5, [r3, #8]
 1716              	.LBE250:
 1717              	.LBE252:
 1718              		.loc 1 586 0
 1719 000c 1A4B     		ldr	r3, .L76+8
 1720 000e 6A1C     		adds	r2, r5, #1
 1721 0010 0093     		str	r3, [sp]
 1722 0012 3068     		ldr	r0, [r6]
 1723 0014 4FF4A471 		mov	r1, #328
 1724 0018 184B     		ldr	r3, .L76+12
 1725 001a FFF7FEFF 		bl	chThdCreateStatic
 1726              	.LVL128:
 1727 001e 184C     		ldr	r4, .L76+16
 1728              		.loc 1 587 0
 1729 0020 7168     		ldr	r1, [r6, #4]
 1730 0022 184B     		ldr	r3, .L76+20
 1731              		.loc 1 586 0
 1732 0024 2060     		str	r0, [r4]
 1733              		.loc 1 587 0
 1734 0026 AA1C     		adds	r2, r5, #2
 1735 0028 0093     		str	r3, [sp]
 1736 002a 0846     		mov	r0, r1
 1737 002c 164B     		ldr	r3, .L76+24
 1738 002e 4FF4A471 		mov	r1, #328
 1739 0032 FFF7FEFF 		bl	chThdCreateStatic
 1740              	.LVL129:
 1741              		.loc 1 588 0
 1742 0036 B168     		ldr	r1, [r6, #8]
 1743 0038 144B     		ldr	r3, .L76+28
 1744 003a EA1C     		adds	r2, r5, #3
 1745              		.loc 1 587 0
 1746 003c 6060     		str	r0, [r4, #4]
 1747              		.loc 1 588 0
 1748 003e 0093     		str	r3, [sp]
 1749 0040 0846     		mov	r0, r1
 1750 0042 134B     		ldr	r3, .L76+32
 1751 0044 4FF4A471 		mov	r1, #328
 1752 0048 FFF7FEFF 		bl	chThdCreateStatic
 1753              	.LVL130:
 1754              		.loc 1 589 0
 1755 004c 114D     		ldr	r5, .L76+36
 1756              		.loc 1 588 0
 1757 004e A060     		str	r0, [r4, #8]
 1758              		.loc 1 589 0
 1759 0050 2846     		mov	r0, r5
 1760 0052 FFF7FEFF 		bl	chCondSignal
 1761              	.LVL131:
 1762              		.loc 1 590 0
 1763 0056 2846     		mov	r0, r5
 1764 0058 FFF7FEFF 		bl	chCondSignal
ARM GAS  /tmp/ccNX1sj0.s 			page 32


 1765              	.LVL132:
 1766              		.loc 1 591 0
 1767 005c FFF7FEFF 		bl	test_wait_threads
 1768              	.LVL133:
 1769              		.loc 1 592 0
 1770 0060 0D49     		ldr	r1, .L76+40
 1771 0062 0120     		movs	r0, #1
 1772              		.loc 1 593 0
 1773 0064 02B0     		add	sp, sp, #8
 1774              		.cfi_def_cfa_offset 16
 1775              		@ sp needed
 1776 0066 BDE87040 		pop	{r4, r5, r6, lr}
 1777              		.cfi_restore 14
 1778              		.cfi_restore 6
 1779              		.cfi_restore 5
 1780              		.cfi_restore 4
 1781              		.cfi_def_cfa_offset 0
 1782              		.loc 1 592 0
 1783 006a FFF7FEBF 		b	_test_assert_sequence
 1784              	.LVL134:
 1785              	.L77:
 1786 006e 00BF     		.align	2
 1787              	.L76:
 1788 0070 00000000 		.word	ch
 1789 0074 00000000 		.word	wa
 1790 0078 10000000 		.word	.LC4
 1791 007c 00000000 		.word	thread11
 1792 0080 00000000 		.word	threads
 1793 0084 08000000 		.word	.LC2
 1794 0088 00000000 		.word	thread10
 1795 008c 0C000000 		.word	.LC3
 1796 0090 00000000 		.word	thread12
 1797 0094 00000000 		.word	.LANCHOR2
 1798 0098 1C000000 		.word	.LC6
 1799              		.cfi_endproc
 1800              	.LFE187:
 1801              		.size	mtx8_execute, .-mtx8_execute
 1802 009c AFF30080 		.section	.text.thread11,"ax",%progbits
 1803              		.align	2
 1804              		.p2align 4,,15
 1805              		.thumb
 1806              		.thumb_func
 1807              		.type	thread11, %function
 1808              	thread11:
 1809              	.LFB185:
 1810              		.loc 1 562 0
 1811              		.cfi_startproc
 1812              		@ args = 0, pretend = 0, frame = 0
 1813              		@ frame_needed = 0, uses_anonymous_args = 0
 1814              	.LVL135:
 1815 0000 70B5     		push	{r4, r5, r6, lr}
 1816              		.cfi_def_cfa_offset 16
 1817              		.cfi_offset 4, -16
 1818              		.cfi_offset 5, -12
 1819              		.cfi_offset 6, -8
 1820              		.cfi_offset 14, -4
 1821              		.loc 1 562 0
ARM GAS  /tmp/ccNX1sj0.s 			page 33


 1822 0002 0646     		mov	r6, r0
 1823              		.loc 1 564 0
 1824 0004 0B4C     		ldr	r4, .L80
 1825              		.loc 1 565 0
 1826 0006 0C4D     		ldr	r5, .L80+4
 1827              		.loc 1 564 0
 1828 0008 2046     		mov	r0, r4
 1829              	.LVL136:
 1830 000a FFF7FEFF 		bl	chMtxLock
 1831              	.LVL137:
 1832              		.loc 1 565 0
 1833 000e 2846     		mov	r0, r5
 1834 0010 FFF7FEFF 		bl	chMtxLock
 1835              	.LVL138:
 1836              		.loc 1 567 0
 1837 0014 4FF0FF31 		mov	r1, #-1
 1838 0018 0848     		ldr	r0, .L80+8
 1839 001a FFF7FEFF 		bl	chCondWaitTimeout
 1840              	.LVL139:
 1841              		.loc 1 571 0
 1842 001e 3078     		ldrb	r0, [r6]	@ zero_extendqisi2
 1843 0020 FFF7FEFF 		bl	test_emit_token
 1844              	.LVL140:
 1845              		.loc 1 572 0
 1846 0024 2846     		mov	r0, r5
 1847 0026 FFF7FEFF 		bl	chMtxUnlock
 1848              	.LVL141:
 1849              		.loc 1 573 0
 1850 002a 2046     		mov	r0, r4
 1851              		.loc 1 574 0
 1852 002c BDE87040 		pop	{r4, r5, r6, lr}
 1853              		.cfi_restore 14
 1854              		.cfi_restore 6
 1855              		.cfi_restore 5
 1856              		.cfi_restore 4
 1857              		.cfi_def_cfa_offset 0
 1858              	.LVL142:
 1859              		.loc 1 573 0
 1860 0030 FFF7FEBF 		b	chMtxUnlock
 1861              	.LVL143:
 1862              	.L81:
 1863              		.align	2
 1864              	.L80:
 1865 0034 00000000 		.word	.LANCHOR1
 1866 0038 00000000 		.word	.LANCHOR0
 1867 003c 00000000 		.word	.LANCHOR2
 1868              		.cfi_endproc
 1869              	.LFE185:
 1870              		.size	thread11, .-thread11
 1871              		.global	patternmtx
 1872              		.global	testmtx8
 1873              		.global	testmtx7
 1874              		.global	testmtx6
 1875              		.global	testmtx5
 1876              		.global	testmtx4
 1877              		.global	testmtx1
 1878              		.section	.rodata.testmtx5,"a",%progbits
ARM GAS  /tmp/ccNX1sj0.s 			page 34


 1879              		.align	2
 1880              		.type	testmtx5, %object
 1881              		.size	testmtx5, 16
 1882              	testmtx5:
 1883 0000 64000000 		.word	.LC10
 1884 0004 00000000 		.word	mtx5_setup
 1885 0008 00000000 		.word	0
 1886 000c 00000000 		.word	mtx5_execute
 1887              		.section	.rodata.testmtx6,"a",%progbits
 1888              		.align	2
 1889              		.type	testmtx6, %object
 1890              		.size	testmtx6, 16
 1891              	testmtx6:
 1892 0000 4C000000 		.word	.LC9
 1893 0004 00000000 		.word	mtx6_setup
 1894 0008 00000000 		.word	0
 1895 000c 00000000 		.word	mtx6_execute
 1896              		.section	.rodata.testmtx7,"a",%progbits
 1897              		.align	2
 1898              		.type	testmtx7, %object
 1899              		.size	testmtx7, 16
 1900              	testmtx7:
 1901 0000 34000000 		.word	.LC8
 1902 0004 00000000 		.word	mtx7_setup
 1903 0008 00000000 		.word	0
 1904 000c 00000000 		.word	mtx7_execute
 1905              		.section	.rodata.testmtx8,"a",%progbits
 1906              		.align	2
 1907              		.type	testmtx8, %object
 1908              		.size	testmtx8, 16
 1909              	testmtx8:
 1910 0000 20000000 		.word	.LC7
 1911 0004 00000000 		.word	mtx8_setup
 1912 0008 00000000 		.word	0
 1913 000c 00000000 		.word	mtx8_execute
 1914              		.section	.data.m1,"aw",%progbits
 1915              		.align	2
 1916              		.set	.LANCHOR0,. + 0
 1917              		.type	m1, %object
 1918              		.size	m1, 16
 1919              	m1:
 1920 0000 00000000 		.word	m1
 1921 0004 00000000 		.word	m1
 1922 0008 00000000 		.word	0
 1923 000c 00000000 		.word	0
 1924              		.section	.data.m2,"aw",%progbits
 1925              		.align	2
 1926              		.set	.LANCHOR1,. + 0
 1927              		.type	m2, %object
 1928              		.size	m2, 16
 1929              	m2:
 1930 0000 00000000 		.word	m2
 1931 0004 00000000 		.word	m2
 1932 0008 00000000 		.word	0
 1933 000c 00000000 		.word	0
 1934              		.section	.rodata.str1.4,"aMS",%progbits,1
 1935              		.align	2
ARM GAS  /tmp/ccNX1sj0.s 			page 35


 1936              	.LC0:
 1937 0000 4500     		.ascii	"E\000"
 1938 0002 0000     		.space	2
 1939              	.LC1:
 1940 0004 4400     		.ascii	"D\000"
 1941 0006 0000     		.space	2
 1942              	.LC2:
 1943 0008 4300     		.ascii	"C\000"
 1944 000a 0000     		.space	2
 1945              	.LC3:
 1946 000c 4200     		.ascii	"B\000"
 1947 000e 0000     		.space	2
 1948              	.LC4:
 1949 0010 4100     		.ascii	"A\000"
 1950 0012 0000     		.space	2
 1951              	.LC5:
 1952 0014 41424344 		.ascii	"ABCDE\000"
 1952      4500
 1953 001a 0000     		.space	2
 1954              	.LC6:
 1955 001c 41424300 		.ascii	"ABC\000"
 1956              	.LC7:
 1957 0020 436F6E64 		.ascii	"CondVar, boost test\000"
 1957      5661722C 
 1957      20626F6F 
 1957      73742074 
 1957      65737400 
 1958              	.LC8:
 1959 0034 436F6E64 		.ascii	"CondVar, broadcast test\000"
 1959      5661722C 
 1959      2062726F 
 1959      61646361 
 1959      73742074 
 1960              	.LC9:
 1961 004c 436F6E64 		.ascii	"CondVar, signal test\000"
 1961      5661722C 
 1961      20736967 
 1961      6E616C20 
 1961      74657374 
 1962 0061 000000   		.space	3
 1963              	.LC10:
 1964 0064 4D757465 		.ascii	"Mutexes, status\000"
 1964      7865732C 
 1964      20737461 
 1964      74757300 
 1965              	.LC11:
 1966 0074 4D757465 		.ascii	"Mutexes, priority return\000"
 1966      7865732C 
 1966      20707269 
 1966      6F726974 
 1966      79207265 
 1967 008d 000000   		.space	3
 1968              	.LC12:
 1969 0090 4D757465 		.ascii	"Mutexes, priority enqueuing test\000"
 1969      7865732C 
 1969      20707269 
 1969      6F726974 
ARM GAS  /tmp/ccNX1sj0.s 			page 36


 1969      7920656E 
 1970 00b1 000000   		.section	.rodata.patternmtx,"a",%progbits
 1971              		.align	2
 1972              		.type	patternmtx, %object
 1973              		.size	patternmtx, 28
 1974              	patternmtx:
 1975 0000 00000000 		.word	testmtx1
 1976 0004 00000000 		.word	testmtx4
 1977 0008 00000000 		.word	testmtx5
 1978 000c 00000000 		.word	testmtx6
 1979 0010 00000000 		.word	testmtx7
 1980 0014 00000000 		.word	testmtx8
 1981 0018 00000000 		.word	0
 1982              		.section	.data.c1,"aw",%progbits
 1983              		.align	2
 1984              		.set	.LANCHOR2,. + 0
 1985              		.type	c1, %object
 1986              		.size	c1, 8
 1987              	c1:
 1988 0000 00000000 		.word	c1
 1989 0004 00000000 		.word	c1
 1990              		.section	.rodata.testmtx1,"a",%progbits
 1991              		.align	2
 1992              		.type	testmtx1, %object
 1993              		.size	testmtx1, 16
 1994              	testmtx1:
 1995 0000 90000000 		.word	.LC12
 1996 0004 00000000 		.word	mtx1_setup
 1997 0008 00000000 		.word	0
 1998 000c 00000000 		.word	mtx1_execute
 1999              		.section	.rodata.testmtx4,"a",%progbits
 2000              		.align	2
 2001              		.type	testmtx4, %object
 2002              		.size	testmtx4, 16
 2003              	testmtx4:
 2004 0000 74000000 		.word	.LC11
 2005 0004 00000000 		.word	mtx4_setup
 2006 0008 00000000 		.word	0
 2007 000c 00000000 		.word	mtx4_execute
 2008              		.text
 2009              	.Letext0:
 2010              		.file 5 "/usr/lib/gcc/arm-none-eabi/4.9.3/include/stddef.h"
 2011              		.file 6 "/usr/include/newlib/machine/_default_types.h"
 2012              		.file 7 "/usr/include/newlib/stdint.h"
 2013              		.file 8 "/home/peter/ChibiOS_16.1.4/os/rt/ports/ARMCMx/compilers/GCC/chtypes.h"
 2014              		.file 9 "/home/peter/ChibiOS_16.1.4/os/rt/include/chsystypes.h"
 2015              		.file 10 "/home/peter/ChibiOS_16.1.4/os/rt/ports/ARMCMx/chcore.h"
 2016              		.file 11 "/home/peter/ChibiOS_16.1.4/os/rt/ports/ARMCMx/chcore_v7m.h"
 2017              		.file 12 "/home/peter/ChibiOS_16.1.4/os/rt/include/chtm.h"
 2018              		.file 13 "/home/peter/ChibiOS_16.1.4/os/rt/include/chsem.h"
 2019              		.file 14 "/home/peter/ChibiOS_16.1.4/os/rt/include/chmtx.h"
 2020              		.file 15 "/home/peter/ChibiOS_16.1.4/os/rt/include/chcond.h"
 2021              		.file 16 "/home/peter/ChibiOS_16.1.4/test/rt/test.h"
 2022              		.file 17 "/home/peter/ChibiOS_16.1.4/os/rt/include/chsys.h"
 2023              		.file 18 "/home/peter/ChibiOS_16.1.4/os/ext/CMSIS/include/core_cm3.h"