ARM GAS  /tmp/ccIkObLr.s 			page 1


   1              		.syntax unified
   2              		.cpu cortex-m3
   3              		.fpu softvfp
   4              		.eabi_attribute 20, 1
   5              		.eabi_attribute 21, 1
   6              		.eabi_attribute 23, 3
   7              		.eabi_attribute 24, 1
   8              		.eabi_attribute 25, 1
   9              		.eabi_attribute 26, 1
  10              		.eabi_attribute 30, 2
  11              		.eabi_attribute 34, 1
  12              		.eabi_attribute 18, 4
  13              		.thumb
  14              		.file	"test.c"
  15              		.text
  16              	.Ltext0:
  17              		.cfi_sections	.debug_frame
  18              		.section	.text.tmr,"ax",%progbits
  19              		.align	2
  20              		.p2align 4,,15
  21              		.thumb
  22              		.thumb_func
  23              		.type	tmr, %function
  24              	tmr:
  25              	.LFB220:
  26              		.file 1 "/home/peter/ChibiOS_16.1.4/test/rt/test.c"
  27              		.loc 1 264 0
  28              		.cfi_startproc
  29              		@ args = 0, pretend = 0, frame = 0
  30              		@ frame_needed = 0, uses_anonymous_args = 0
  31              		@ link register save eliminated.
  32              	.LVL0:
  33              		.loc 1 267 0
  34 0000 014B     		ldr	r3, .L2
  35 0002 0122     		movs	r2, #1
  36 0004 1A70     		strb	r2, [r3]
  37 0006 7047     		bx	lr
  38              	.L3:
  39              		.align	2
  40              	.L2:
  41 0008 00000000 		.word	.LANCHOR0
  42              		.cfi_endproc
  43              	.LFE220:
  44              		.size	tmr, .-tmr
  45 000c AFF30080 		.section	.text.print_line,"ax",%progbits
  46              		.align	2
  47              		.p2align 4,,15
  48              		.thumb
  49              		.thumb_func
  50              		.type	print_line, %function
  51              	print_line:
  52              	.LFB223:
  53              		.loc 1 303 0
  54              		.cfi_startproc
  55              		@ args = 0, pretend = 0, frame = 0
  56              		@ frame_needed = 0, uses_anonymous_args = 0
  57              	.LVL1:
ARM GAS  /tmp/ccIkObLr.s 			page 2


  58 0000 70B5     		push	{r4, r5, r6, lr}
  59              		.cfi_def_cfa_offset 16
  60              		.cfi_offset 4, -16
  61              		.cfi_offset 5, -12
  62              		.cfi_offset 6, -8
  63              		.cfi_offset 14, -4
  64 0002 094E     		ldr	r6, .L9
  65              		.loc 1 303 0
  66 0004 4C24     		movs	r4, #76
  67              	.LVL2:
  68              	.L5:
  69              		.loc 1 307 0 discriminator 3
  70 0006 3068     		ldr	r0, [r6]
  71 0008 2D21     		movs	r1, #45
  72 000a 0368     		ldr	r3, [r0]
  73 000c 064D     		ldr	r5, .L9
  74 000e 9B68     		ldr	r3, [r3, #8]
  75 0010 9847     		blx	r3
  76              	.LVL3:
  77              		.loc 1 306 0 discriminator 3
  78 0012 013C     		subs	r4, r4, #1
  79              	.LVL4:
  80 0014 F7D1     		bne	.L5
  81              		.loc 1 308 0
  82 0016 2868     		ldr	r0, [r5]
  83 0018 0449     		ldr	r1, .L9+4
  84 001a 0368     		ldr	r3, [r0]
  85 001c 0222     		movs	r2, #2
  86 001e 1B68     		ldr	r3, [r3]
  87              		.loc 1 309 0
  88 0020 BDE87040 		pop	{r4, r5, r6, lr}
  89              		.cfi_restore 14
  90              		.cfi_restore 6
  91              		.cfi_restore 5
  92              		.cfi_restore 4
  93              		.cfi_def_cfa_offset 0
  94              	.LVL5:
  95              		.loc 1 308 0
  96 0024 1847     		bx	r3
  97              	.LVL6:
  98              	.L10:
  99 0026 00BF     		.align	2
 100              	.L9:
 101 0028 00000000 		.word	.LANCHOR1
 102 002c 00000000 		.word	.LC0
 103              		.cfi_endproc
 104              	.LFE223:
 105              		.size	print_line, .-print_line
 106              		.section	.text.test_printn,"ax",%progbits
 107              		.align	2
 108              		.p2align 4,,15
 109              		.global	test_printn
 110              		.thumb
 111              		.thumb_func
 112              		.type	test_printn, %function
 113              	test_printn:
 114              	.LFB207:
ARM GAS  /tmp/ccIkObLr.s 			page 3


 115              		.loc 1 94 0
 116              		.cfi_startproc
 117              		@ args = 0, pretend = 0, frame = 16
 118              		@ frame_needed = 0, uses_anonymous_args = 0
 119              	.LVL7:
 120              		.loc 1 97 0
 121 0000 10B3     		cbz	r0, .L20
 122              		.loc 1 94 0
 123 0002 70B5     		push	{r4, r5, r6, lr}
 124              		.cfi_def_cfa_offset 16
 125              		.cfi_offset 4, -16
 126              		.cfi_offset 5, -12
 127              		.cfi_offset 6, -8
 128              		.cfi_offset 14, -4
 129 0004 84B0     		sub	sp, sp, #16
 130              		.cfi_def_cfa_offset 32
 131              		.loc 1 97 0
 132 0006 6D46     		mov	r5, sp
 133 0008 6C46     		mov	r4, sp
 134              		.loc 1 102 0
 135 000a 124A     		ldr	r2, .L22
 136              	.L13:
 137              	.LVL8:
 138 000c A2FB0013 		umull	r1, r3, r2, r0
 139 0010 DB08     		lsrs	r3, r3, #3
 140 0012 03EB8301 		add	r1, r3, r3, lsl #2
 141 0016 A0EB4100 		sub	r0, r0, r1, lsl #1
 142              	.LVL9:
 143 001a 00F13001 		add	r1, r0, #48
 144 001e C9B2     		uxtb	r1, r1
 145 0020 04F8011B 		strb	r1, [r4], #1
 146              	.LVL10:
 147              		.loc 1 101 0
 148 0024 1846     		mov	r0, r3
 149 0026 002B     		cmp	r3, #0
 150 0028 F0D1     		bne	.L13
 151              		.loc 1 103 0
 152 002a AC42     		cmp	r4, r5
 153 002c 0AD9     		bls	.L11
 154 002e 0A4E     		ldr	r6, .L22+4
 155 0030 013C     		subs	r4, r4, #1
 156              	.LVL11:
 157 0032 01E0     		b	.L17
 158              	.LVL12:
 159              	.L21:
 160 0034 14F8011D 		ldrb	r1, [r4, #-1]!	@ zero_extendqisi2
 161              	.LVL13:
 162              	.L17:
 163              		.loc 1 104 0
 164 0038 3068     		ldr	r0, [r6]
 165              	.LVL14:
 166 003a 0368     		ldr	r3, [r0]
 167 003c 9B68     		ldr	r3, [r3, #8]
 168 003e 9847     		blx	r3
 169              	.LVL15:
 170              		.loc 1 103 0
 171 0040 AC42     		cmp	r4, r5
ARM GAS  /tmp/ccIkObLr.s 			page 4


 172 0042 F7D1     		bne	.L21
 173              	.LVL16:
 174              	.L11:
 175              		.loc 1 106 0
 176 0044 04B0     		add	sp, sp, #16
 177              		.cfi_def_cfa_offset 16
 178              		@ sp needed
 179 0046 70BD     		pop	{r4, r5, r6, pc}
 180              	.LVL17:
 181              	.L20:
 182              		.cfi_def_cfa_offset 0
 183              		.cfi_restore 4
 184              		.cfi_restore 5
 185              		.cfi_restore 6
 186              		.cfi_restore 14
 187              	.LBB156:
 188              	.LBB157:
 189              		.loc 1 98 0
 190 0048 034B     		ldr	r3, .L22+4
 191 004a 3021     		movs	r1, #48
 192 004c 1868     		ldr	r0, [r3]
 193              	.LVL18:
 194 004e 0368     		ldr	r3, [r0]
 195 0050 9B68     		ldr	r3, [r3, #8]
 196 0052 1847     		bx	r3
 197              	.LVL19:
 198              	.L23:
 199              		.align	2
 200              	.L22:
 201 0054 CDCCCCCC 		.word	-858993459
 202 0058 00000000 		.word	.LANCHOR1
 203              	.LBE157:
 204              	.LBE156:
 205              		.cfi_endproc
 206              	.LFE207:
 207              		.size	test_printn, .-test_printn
 208 005c AFF30080 		.section	.text.test_print,"ax",%progbits
 209              		.align	2
 210              		.p2align 4,,15
 211              		.global	test_print
 212              		.thumb
 213              		.thumb_func
 214              		.type	test_print, %function
 215              	test_print:
 216              	.LFB208:
 217              		.loc 1 113 0
 218              		.cfi_startproc
 219              		@ args = 0, pretend = 0, frame = 0
 220              		@ frame_needed = 0, uses_anonymous_args = 0
 221              	.LVL20:
 222 0000 38B5     		push	{r3, r4, r5, lr}
 223              		.cfi_def_cfa_offset 16
 224              		.cfi_offset 3, -16
 225              		.cfi_offset 4, -12
 226              		.cfi_offset 5, -8
 227              		.cfi_offset 14, -4
 228              		.loc 1 115 0
ARM GAS  /tmp/ccIkObLr.s 			page 5


 229 0002 0178     		ldrb	r1, [r0]	@ zero_extendqisi2
 230              		.loc 1 113 0
 231 0004 0446     		mov	r4, r0
 232              		.loc 1 115 0
 233 0006 41B1     		cbz	r1, .L24
 234 0008 044D     		ldr	r5, .L30
 235              	.LVL21:
 236              	.L26:
 237              		.loc 1 116 0
 238 000a 2868     		ldr	r0, [r5]
 239 000c 0368     		ldr	r3, [r0]
 240 000e 9B68     		ldr	r3, [r3, #8]
 241 0010 9847     		blx	r3
 242              	.LVL22:
 243              		.loc 1 115 0
 244 0012 14F8011F 		ldrb	r1, [r4, #1]!	@ zero_extendqisi2
 245              	.LVL23:
 246 0016 0029     		cmp	r1, #0
 247 0018 F7D1     		bne	.L26
 248              	.LVL24:
 249              	.L24:
 250 001a 38BD     		pop	{r3, r4, r5, pc}
 251              	.L31:
 252              		.align	2
 253              	.L30:
 254 001c 00000000 		.word	.LANCHOR1
 255              		.cfi_endproc
 256              	.LFE208:
 257              		.size	test_print, .-test_print
 258              		.section	.text.test_println,"ax",%progbits
 259              		.align	2
 260              		.p2align 4,,15
 261              		.global	test_println
 262              		.thumb
 263              		.thumb_func
 264              		.type	test_println, %function
 265              	test_println:
 266              	.LFB209:
 267              		.loc 1 124 0
 268              		.cfi_startproc
 269              		@ args = 0, pretend = 0, frame = 0
 270              		@ frame_needed = 0, uses_anonymous_args = 0
 271              	.LVL25:
 272 0000 70B5     		push	{r4, r5, r6, lr}
 273              		.cfi_def_cfa_offset 16
 274              		.cfi_offset 4, -16
 275              		.cfi_offset 5, -12
 276              		.cfi_offset 6, -8
 277              		.cfi_offset 14, -4
 278              	.LBB158:
 279              	.LBB159:
 280              		.loc 1 115 0
 281 0002 0178     		ldrb	r1, [r0]	@ zero_extendqisi2
 282              	.LBE159:
 283              	.LBE158:
 284              		.loc 1 124 0
 285 0004 0446     		mov	r4, r0
ARM GAS  /tmp/ccIkObLr.s 			page 6


 286              	.LVL26:
 287 0006 094D     		ldr	r5, .L38
 288              	.LBB161:
 289              	.LBB160:
 290              		.loc 1 115 0
 291 0008 39B1     		cbz	r1, .L35
 292              	.LVL27:
 293              	.L34:
 294              		.loc 1 116 0
 295 000a 2868     		ldr	r0, [r5]
 296 000c 0368     		ldr	r3, [r0]
 297 000e 9B68     		ldr	r3, [r3, #8]
 298 0010 9847     		blx	r3
 299              	.LVL28:
 300              		.loc 1 115 0
 301 0012 14F8011F 		ldrb	r1, [r4, #1]!	@ zero_extendqisi2
 302              	.LVL29:
 303 0016 0029     		cmp	r1, #0
 304 0018 F7D1     		bne	.L34
 305              	.LVL30:
 306              	.L35:
 307              	.LBE160:
 308              	.LBE161:
 309              		.loc 1 127 0
 310 001a 2868     		ldr	r0, [r5]
 311 001c 0449     		ldr	r1, .L38+4
 312 001e 0368     		ldr	r3, [r0]
 313 0020 0222     		movs	r2, #2
 314 0022 1B68     		ldr	r3, [r3]
 315              		.loc 1 128 0
 316 0024 BDE87040 		pop	{r4, r5, r6, lr}
 317              		.cfi_restore 14
 318              		.cfi_restore 6
 319              		.cfi_restore 5
 320              		.cfi_restore 4
 321              		.cfi_def_cfa_offset 0
 322              		.loc 1 127 0
 323 0028 1847     		bx	r3
 324              	.LVL31:
 325              	.L39:
 326 002a 00BF     		.align	2
 327              	.L38:
 328 002c 00000000 		.word	.LANCHOR1
 329 0030 00000000 		.word	.LC0
 330              		.cfi_endproc
 331              	.LFE209:
 332              		.size	test_println, .-test_println
 333 0034 AFF30080 		.section	.text.test_emit_token,"ax",%progbits
 333      AFF30080 
 333      AFF30080 
 334              		.align	2
 335              		.p2align 4,,15
 336              		.global	test_emit_token
 337              		.thumb
 338              		.thumb_func
 339              		.type	test_emit_token, %function
 340              	test_emit_token:
ARM GAS  /tmp/ccIkObLr.s 			page 7


 341              	.LFB212:
 342              		.loc 1 150 0
 343              		.cfi_startproc
 344              		@ args = 0, pretend = 0, frame = 0
 345              		@ frame_needed = 0, uses_anonymous_args = 0
 346              		@ link register save eliminated.
 347              	.LVL32:
 348 0000 10B4     		push	{r4}
 349              		.cfi_def_cfa_offset 4
 350              		.cfi_offset 4, -4
 351              	.LBB162:
 352              	.LBB163:
 353              	.LBB164:
 354              	.LBB165:
 355              		.file 2 "/home/peter/ChibiOS_16.1.4/os/ext/CMSIS/include/core_cmFunc.h"
 356              		.loc 2 548 0
 357 0002 2023     		movs	r3, #32
 358              	@ 548 "/home/peter/ChibiOS_16.1.4/os/ext/CMSIS/include/core_cmFunc.h" 1
 359 0004 83F31188 		MSR basepri, r3
 360              	@ 0 "" 2
 361              		.thumb
 362              	.LBE165:
 363              	.LBE164:
 364              	.LBE163:
 365              	.LBE162:
 366              		.loc 1 153 0
 367 0008 054B     		ldr	r3, .L42
 368              	.LBB166:
 369              	.LBB167:
 370              	.LBB168:
 371              	.LBB169:
 372              	.LBB170:
 373              		.loc 2 548 0
 374 000a 0021     		movs	r1, #0
 375              	.LBE170:
 376              	.LBE169:
 377              	.LBE168:
 378              	.LBE167:
 379              	.LBE166:
 380              		.loc 1 153 0
 381 000c 1A68     		ldr	r2, [r3]
 382 000e 541C     		adds	r4, r2, #1
 383 0010 1070     		strb	r0, [r2]
 384              	.LVL33:
 385 0012 1C60     		str	r4, [r3]
 386              	.LBB175:
 387              	.LBB174:
 388              	.LBB173:
 389              	.LBB172:
 390              	.LBB171:
 391              		.loc 2 548 0
 392              	@ 548 "/home/peter/ChibiOS_16.1.4/os/ext/CMSIS/include/core_cmFunc.h" 1
 393 0014 81F31188 		MSR basepri, r1
 394              	@ 0 "" 2
 395              		.thumb
 396              	.LBE171:
 397              	.LBE172:
ARM GAS  /tmp/ccIkObLr.s 			page 8


 398              	.LBE173:
 399              	.LBE174:
 400              	.LBE175:
 401              		.loc 1 155 0
 402 0018 5DF8044B 		ldr	r4, [sp], #4
 403              		.cfi_restore 4
 404              		.cfi_def_cfa_offset 0
 405 001c 7047     		bx	lr
 406              	.L43:
 407 001e 00BF     		.align	2
 408              	.L42:
 409 0020 00000000 		.word	.LANCHOR2
 410              		.cfi_endproc
 411              	.LFE212:
 412              		.size	test_emit_token, .-test_emit_token
 413 0024 AFF30080 		.section	.text._test_fail,"ax",%progbits
 413      AFF30080 
 413      AFF30080 
 414              		.align	2
 415              		.p2align 4,,15
 416              		.global	_test_fail
 417              		.thumb
 418              		.thumb_func
 419              		.type	_test_fail, %function
 420              	_test_fail:
 421              	.LFB213:
 422              		.loc 1 160 0
 423              		.cfi_startproc
 424              		@ args = 0, pretend = 0, frame = 0
 425              		@ frame_needed = 0, uses_anonymous_args = 0
 426              		@ link register save eliminated.
 427              	.LVL34:
 428 0000 10B4     		push	{r4}
 429              		.cfi_def_cfa_offset 4
 430              		.cfi_offset 4, -4
 431              		.loc 1 162 0
 432 0002 0549     		ldr	r1, .L46
 433              		.loc 1 164 0
 434 0004 054C     		ldr	r4, .L46+4
 435              		.loc 1 163 0
 436 0006 064A     		ldr	r2, .L46+8
 437              		.loc 1 162 0
 438 0008 0123     		movs	r3, #1
 439              		.loc 1 164 0
 440 000a 2060     		str	r0, [r4]
 441              		.loc 1 162 0
 442 000c 0B70     		strb	r3, [r1]
 443              		.loc 1 166 0
 444 000e 1846     		mov	r0, r3
 445              	.LVL35:
 446              		.loc 1 163 0
 447 0010 1370     		strb	r3, [r2]
 448              		.loc 1 166 0
 449 0012 5DF8044B 		ldr	r4, [sp], #4
 450              		.cfi_restore 4
 451              		.cfi_def_cfa_offset 0
 452 0016 7047     		bx	lr
ARM GAS  /tmp/ccIkObLr.s 			page 9


 453              	.L47:
 454              		.align	2
 455              	.L46:
 456 0018 00000000 		.word	.LANCHOR3
 457 001c 00000000 		.word	.LANCHOR5
 458 0020 00000000 		.word	.LANCHOR4
 459              		.cfi_endproc
 460              	.LFE213:
 461              		.size	_test_fail, .-_test_fail
 462 0024 AFF30080 		.section	.text._test_assert,"ax",%progbits
 462      AFF30080 
 462      AFF30080 
 463              		.align	2
 464              		.p2align 4,,15
 465              		.global	_test_assert
 466              		.thumb
 467              		.thumb_func
 468              		.type	_test_assert, %function
 469              	_test_assert:
 470              	.LFB214:
 471              		.loc 1 168 0
 472              		.cfi_startproc
 473              		@ args = 0, pretend = 0, frame = 0
 474              		@ frame_needed = 0, uses_anonymous_args = 0
 475              		@ link register save eliminated.
 476              	.LVL36:
 477              		.loc 1 170 0
 478 0000 59B9     		cbnz	r1, .L50
 479              	.LVL37:
 480              		.loc 1 168 0
 481 0002 10B4     		push	{r4}
 482              		.cfi_def_cfa_offset 4
 483              		.cfi_offset 4, -4
 484              	.LBB176:
 485              	.LBB177:
 486              		.loc 1 163 0
 487 0004 0649     		ldr	r1, .L53
 488              	.LVL38:
 489              		.loc 1 162 0
 490 0006 074C     		ldr	r4, .L53+4
 491              		.loc 1 164 0
 492 0008 074A     		ldr	r2, .L53+8
 493              		.loc 1 162 0
 494 000a 0123     		movs	r3, #1
 495 000c 2370     		strb	r3, [r4]
 496              		.loc 1 164 0
 497 000e 1060     		str	r0, [r2]
 498              		.loc 1 163 0
 499 0010 0B70     		strb	r3, [r1]
 500              	.LBE177:
 501              	.LBE176:
 502              		.loc 1 173 0
 503 0012 1846     		mov	r0, r3
 504              	.LVL39:
 505 0014 5DF8044B 		ldr	r4, [sp], #4
 506              		.cfi_restore 4
 507              		.cfi_def_cfa_offset 0
ARM GAS  /tmp/ccIkObLr.s 			page 10


 508 0018 7047     		bx	lr
 509              	.LVL40:
 510              	.L50:
 511              		.loc 1 172 0
 512 001a 0023     		movs	r3, #0
 513              		.loc 1 173 0
 514 001c 1846     		mov	r0, r3
 515              	.LVL41:
 516 001e 7047     		bx	lr
 517              	.L54:
 518              		.align	2
 519              	.L53:
 520 0020 00000000 		.word	.LANCHOR4
 521 0024 00000000 		.word	.LANCHOR3
 522 0028 00000000 		.word	.LANCHOR5
 523              		.cfi_endproc
 524              	.LFE214:
 525              		.size	_test_assert, .-_test_assert
 526 002c AFF30080 		.section	.text._test_assert_sequence,"ax",%progbits
 527              		.align	2
 528              		.p2align 4,,15
 529              		.global	_test_assert_sequence
 530              		.thumb
 531              		.thumb_func
 532              		.type	_test_assert_sequence, %function
 533              	_test_assert_sequence:
 534              	.LFB215:
 535              		.loc 1 175 0
 536              		.cfi_startproc
 537              		@ args = 0, pretend = 0, frame = 0
 538              		@ frame_needed = 0, uses_anonymous_args = 0
 539              		@ link register save eliminated.
 540              	.LVL42:
 541 0000 F0B4     		push	{r4, r5, r6, r7}
 542              		.cfi_def_cfa_offset 16
 543              		.cfi_offset 4, -16
 544              		.cfi_offset 5, -12
 545              		.cfi_offset 6, -8
 546              		.cfi_offset 7, -4
 547 0002 0E4E     		ldr	r6, .L62
 548              		.loc 1 176 0
 549 0004 0E4F     		ldr	r7, .L62+4
 550 0006 3568     		ldr	r5, [r6]
 551 0008 3B46     		mov	r3, r7
 552              		.loc 1 177 0
 553 000a 05E0     		b	.L56
 554              	.LVL43:
 555              	.L58:
 556              		.loc 1 178 0
 557 000c 13F8014B 		ldrb	r4, [r3], #1	@ zero_extendqisi2
 558              	.LVL44:
 559 0010 11F8012B 		ldrb	r2, [r1], #1	@ zero_extendqisi2
 560              	.LVL45:
 561 0014 9442     		cmp	r4, r2
 562 0016 07D1     		bne	.L59
 563              	.LVL46:
 564              	.L56:
ARM GAS  /tmp/ccIkObLr.s 			page 11


 565              		.loc 1 177 0
 566 0018 AB42     		cmp	r3, r5
 567 001a F7D3     		bcc	.L58
 568              		.loc 1 181 0
 569 001c 0B78     		ldrb	r3, [r1]	@ zero_extendqisi2
 570              	.LVL47:
 571 001e 1BB9     		cbnz	r3, .L59
 572              	.LBB178:
 573              	.LBB179:
 574              		.loc 1 135 0
 575 0020 3760     		str	r7, [r6]
 576              	.LBE179:
 577              	.LBE178:
 578              		.loc 1 185 0
 579 0022 1846     		mov	r0, r3
 580              	.LVL48:
 581 0024 F0BC     		pop	{r4, r5, r6, r7}
 582              		.cfi_remember_state
 583              		.cfi_restore 4
 584              		.cfi_restore 5
 585              		.cfi_restore 6
 586              		.cfi_restore 7
 587              		.cfi_def_cfa_offset 0
 588 0026 7047     		bx	lr
 589              	.LVL49:
 590              	.L59:
 591              		.cfi_restore_state
 592              	.LBB180:
 593              	.LBB181:
 594              		.loc 1 162 0
 595 0028 064C     		ldr	r4, .L62+8
 596              		.loc 1 163 0
 597 002a 0749     		ldr	r1, .L62+12
 598              		.loc 1 164 0
 599 002c 074A     		ldr	r2, .L62+16
 600              		.loc 1 162 0
 601 002e 0123     		movs	r3, #1
 602 0030 2370     		strb	r3, [r4]
 603              		.loc 1 164 0
 604 0032 1060     		str	r0, [r2]
 605              		.loc 1 163 0
 606 0034 0B70     		strb	r3, [r1]
 607              	.LBE181:
 608              	.LBE180:
 609              		.loc 1 185 0
 610 0036 1846     		mov	r0, r3
 611              	.LVL50:
 612 0038 F0BC     		pop	{r4, r5, r6, r7}
 613              		.cfi_restore 7
 614              		.cfi_restore 6
 615              		.cfi_restore 5
 616              		.cfi_restore 4
 617              		.cfi_def_cfa_offset 0
 618 003a 7047     		bx	lr
 619              	.L63:
 620              		.align	2
 621              	.L62:
ARM GAS  /tmp/ccIkObLr.s 			page 12


 622 003c 00000000 		.word	.LANCHOR2
 623 0040 00000000 		.word	.LANCHOR6
 624 0044 00000000 		.word	.LANCHOR3
 625 0048 00000000 		.word	.LANCHOR4
 626 004c 00000000 		.word	.LANCHOR5
 627              		.cfi_endproc
 628              	.LFE215:
 629              		.size	_test_assert_sequence, .-_test_assert_sequence
 630              		.section	.text._test_assert_time_window,"ax",%progbits
 631              		.align	2
 632              		.p2align 4,,15
 633              		.global	_test_assert_time_window
 634              		.thumb
 635              		.thumb_func
 636              		.type	_test_assert_time_window, %function
 637              	_test_assert_time_window:
 638              	.LFB216:
 639              		.loc 1 187 0
 640              		.cfi_startproc
 641              		@ args = 0, pretend = 0, frame = 0
 642              		@ frame_needed = 0, uses_anonymous_args = 0
 643              		@ link register save eliminated.
 644              	.LVL51:
 645 0000 10B4     		push	{r4}
 646              		.cfi_def_cfa_offset 4
 647              		.cfi_offset 4, -4
 648              	.LBB182:
 649              	.LBB183:
 650              	.LBB184:
 651              	.LBB185:
 652              	.LBB186:
 653              	.LBB187:
 654              	.LBB188:
 655              		.loc 2 548 0
 656 0002 2023     		movs	r3, #32
 657              	@ 548 "/home/peter/ChibiOS_16.1.4/os/ext/CMSIS/include/core_cmFunc.h" 1
 658 0004 83F31188 		MSR basepri, r3
 659              	@ 0 "" 2
 660              		.thumb
 661              	.LBE188:
 662              	.LBE187:
 663              	.LBE186:
 664              	.LBE185:
 665              	.LBB189:
 666              	.LBB190:
 667              		.file 3 "/home/peter/ChibiOS_16.1.4/os/rt/include/chvt.h"
 668              		.loc 3 231 0
 669 0008 094C     		ldr	r4, .L68
 670              	.LBE190:
 671              	.LBE189:
 672              	.LBB192:
 673              	.LBB193:
 674              	.LBB194:
 675              	.LBB195:
 676              	.LBB196:
 677              		.loc 2 548 0
 678 000a 0023     		movs	r3, #0
ARM GAS  /tmp/ccIkObLr.s 			page 13


 679              	.LBE196:
 680              	.LBE195:
 681              	.LBE194:
 682              	.LBE193:
 683              	.LBE192:
 684              	.LBB201:
 685              	.LBB191:
 686              		.loc 3 231 0
 687 000c A46A     		ldr	r4, [r4, #40]
 688              	.LVL52:
 689              	.LBE191:
 690              	.LBE201:
 691              	.LBB202:
 692              	.LBB200:
 693              	.LBB199:
 694              	.LBB198:
 695              	.LBB197:
 696              		.loc 2 548 0
 697              	@ 548 "/home/peter/ChibiOS_16.1.4/os/ext/CMSIS/include/core_cmFunc.h" 1
 698 000e 83F31188 		MSR basepri, r3
 699              	@ 0 "" 2
 700              	.LVL53:
 701              		.thumb
 702              	.LBE197:
 703              	.LBE198:
 704              	.LBE199:
 705              	.LBE200:
 706              	.LBE202:
 707              	.LBE184:
 708              	.LBE183:
 709              	.LBB203:
 710              	.LBB204:
 711              		.loc 3 288 0
 712 0012 641A     		subs	r4, r4, r1
 713              	.LVL54:
 714 0014 521A     		subs	r2, r2, r1
 715              	.LVL55:
 716              	.LBE204:
 717              	.LBE203:
 718              	.LBE182:
 719              	.LBB205:
 720              	.LBB206:
 721              		.loc 1 170 0
 722 0016 9442     		cmp	r4, r2
 723 0018 06D3     		bcc	.L65
 724              	.LVL56:
 725              	.LBB207:
 726              	.LBB208:
 727              		.loc 1 162 0
 728 001a 064C     		ldr	r4, .L68+4
 729              		.loc 1 163 0
 730 001c 0649     		ldr	r1, .L68+8
 731              	.LVL57:
 732              		.loc 1 164 0
 733 001e 074A     		ldr	r2, .L68+12
 734              		.loc 1 162 0
 735 0020 0123     		movs	r3, #1
ARM GAS  /tmp/ccIkObLr.s 			page 14


 736 0022 2370     		strb	r3, [r4]
 737              		.loc 1 163 0
 738 0024 0B70     		strb	r3, [r1]
 739              		.loc 1 164 0
 740 0026 1060     		str	r0, [r2]
 741              	.LVL58:
 742              	.L65:
 743              	.LBE208:
 744              	.LBE207:
 745              	.LBE206:
 746              	.LBE205:
 747              		.loc 1 190 0
 748 0028 1846     		mov	r0, r3
 749              	.LVL59:
 750 002a 5DF8044B 		ldr	r4, [sp], #4
 751              		.cfi_restore 4
 752              		.cfi_def_cfa_offset 0
 753 002e 7047     		bx	lr
 754              	.L69:
 755              		.align	2
 756              	.L68:
 757 0030 00000000 		.word	ch
 758 0034 00000000 		.word	.LANCHOR3
 759 0038 00000000 		.word	.LANCHOR4
 760 003c 00000000 		.word	.LANCHOR5
 761              		.cfi_endproc
 762              	.LFE216:
 763              		.size	_test_assert_time_window, .-_test_assert_time_window
 764              		.section	.text.test_terminate_threads,"ax",%progbits
 765              		.align	2
 766              		.p2align 4,,15
 767              		.global	test_terminate_threads
 768              		.thumb
 769              		.thumb_func
 770              		.type	test_terminate_threads, %function
 771              	test_terminate_threads:
 772              	.LFB217:
 773              		.loc 1 199 0
 774              		.cfi_startproc
 775              		@ args = 0, pretend = 0, frame = 0
 776              		@ frame_needed = 0, uses_anonymous_args = 0
 777              	.LVL60:
 778 0000 38B5     		push	{r3, r4, r5, lr}
 779              		.cfi_def_cfa_offset 16
 780              		.cfi_offset 3, -16
 781              		.cfi_offset 4, -12
 782              		.cfi_offset 5, -8
 783              		.cfi_offset 14, -4
 784 0002 054C     		ldr	r4, .L78
 785 0004 04F11405 		add	r5, r4, #20
 786              	.LVL61:
 787              	.L72:
 788              		.loc 1 203 0
 789 0008 54F8040B 		ldr	r0, [r4], #4
 790 000c 08B1     		cbz	r0, .L71
 791              		.loc 1 204 0
 792 000e FFF7FEFF 		bl	chThdTerminate
ARM GAS  /tmp/ccIkObLr.s 			page 15


 793              	.LVL62:
 794              	.L71:
 795              		.loc 1 202 0 discriminator 2
 796 0012 AC42     		cmp	r4, r5
 797 0014 F8D1     		bne	.L72
 798              		.loc 1 205 0
 799 0016 38BD     		pop	{r3, r4, r5, pc}
 800              	.L79:
 801              		.align	2
 802              	.L78:
 803 0018 00000000 		.word	.LANCHOR7
 804              		.cfi_endproc
 805              	.LFE217:
 806              		.size	test_terminate_threads, .-test_terminate_threads
 807 001c AFF30080 		.section	.text.test_wait_threads,"ax",%progbits
 808              		.align	2
 809              		.p2align 4,,15
 810              		.global	test_wait_threads
 811              		.thumb
 812              		.thumb_func
 813              		.type	test_wait_threads, %function
 814              	test_wait_threads:
 815              	.LFB218:
 816              		.loc 1 210 0
 817              		.cfi_startproc
 818              		@ args = 0, pretend = 0, frame = 0
 819              		@ frame_needed = 0, uses_anonymous_args = 0
 820              	.LVL63:
 821 0000 70B5     		push	{r4, r5, r6, lr}
 822              		.cfi_def_cfa_offset 16
 823              		.cfi_offset 4, -16
 824              		.cfi_offset 5, -12
 825              		.cfi_offset 6, -8
 826              		.cfi_offset 14, -4
 827 0002 074C     		ldr	r4, .L88
 828              		.loc 1 216 0
 829 0004 0026     		movs	r6, #0
 830 0006 04F11405 		add	r5, r4, #20
 831              	.LVL64:
 832              	.L82:
 833              		.loc 1 214 0
 834 000a 54F8040B 		ldr	r0, [r4], #4
 835 000e 18B1     		cbz	r0, .L81
 836              		.loc 1 215 0
 837 0010 FFF7FEFF 		bl	chThdWait
 838              	.LVL65:
 839              		.loc 1 216 0
 840 0014 44F8046C 		str	r6, [r4, #-4]
 841              	.L81:
 842              		.loc 1 213 0 discriminator 2
 843 0018 AC42     		cmp	r4, r5
 844 001a F6D1     		bne	.L82
 845              		.loc 1 218 0
 846 001c 70BD     		pop	{r4, r5, r6, pc}
 847              	.L89:
 848 001e 00BF     		.align	2
 849              	.L88:
ARM GAS  /tmp/ccIkObLr.s 			page 16


 850 0020 00000000 		.word	.LANCHOR7
 851              		.cfi_endproc
 852              	.LFE218:
 853              		.size	test_wait_threads, .-test_wait_threads
 854 0024 AFF30080 		.section	.text.test_wait_tick,"ax",%progbits
 854      AFF30080 
 854      AFF30080 
 855              		.align	2
 856              		.p2align 4,,15
 857              		.global	test_wait_tick
 858              		.thumb
 859              		.thumb_func
 860              		.type	test_wait_tick, %function
 861              	test_wait_tick:
 862              	.LFB219:
 863              		.loc 1 248 0
 864              		.cfi_startproc
 865              		@ args = 0, pretend = 0, frame = 0
 866              		@ frame_needed = 0, uses_anonymous_args = 0
 867 0000 08B5     		push	{r3, lr}
 868              		.cfi_def_cfa_offset 8
 869              		.cfi_offset 3, -8
 870              		.cfi_offset 14, -4
 871              		.loc 1 250 0
 872 0002 0120     		movs	r0, #1
 873 0004 FFF7FEFF 		bl	chThdSleep
 874              	.LVL66:
 875              	.LBB209:
 876              	.LBB210:
 877              	.LBB211:
 878              	.LBB212:
 879              	.LBB213:
 880              	.LBB214:
 881              		.loc 2 548 0
 882 0008 2023     		movs	r3, #32
 883              	@ 548 "/home/peter/ChibiOS_16.1.4/os/ext/CMSIS/include/core_cmFunc.h" 1
 884 000a 83F31188 		MSR basepri, r3
 885              	@ 0 "" 2
 886              		.thumb
 887              	.LBE214:
 888              	.LBE213:
 889              	.LBE212:
 890              	.LBE211:
 891              	.LBB215:
 892              	.LBB216:
 893              		.loc 3 231 0
 894 000e 034A     		ldr	r2, .L92
 895              	.LBE216:
 896              	.LBE215:
 897              	.LBB218:
 898              	.LBB219:
 899              	.LBB220:
 900              	.LBB221:
 901              	.LBB222:
 902              		.loc 2 548 0
 903 0010 0023     		movs	r3, #0
 904              	.LBE222:
ARM GAS  /tmp/ccIkObLr.s 			page 17


 905              	.LBE221:
 906              	.LBE220:
 907              	.LBE219:
 908              	.LBE218:
 909              	.LBB227:
 910              	.LBB217:
 911              		.loc 3 231 0
 912 0012 906A     		ldr	r0, [r2, #40]
 913              	.LVL67:
 914              	.LBE217:
 915              	.LBE227:
 916              	.LBB228:
 917              	.LBB226:
 918              	.LBB225:
 919              	.LBB224:
 920              	.LBB223:
 921              		.loc 2 548 0
 922              	@ 548 "/home/peter/ChibiOS_16.1.4/os/ext/CMSIS/include/core_cmFunc.h" 1
 923 0014 83F31188 		MSR basepri, r3
 924              	@ 0 "" 2
 925              		.thumb
 926              	.LBE223:
 927              	.LBE224:
 928              	.LBE225:
 929              	.LBE226:
 930              	.LBE228:
 931              	.LBE210:
 932              	.LBE209:
 933              		.loc 1 252 0
 934 0018 08BD     		pop	{r3, pc}
 935              	.L93:
 936 001a 00BF     		.align	2
 937              	.L92:
 938 001c 00000000 		.word	ch
 939              		.cfi_endproc
 940              	.LFE219:
 941              		.size	test_wait_tick, .-test_wait_tick
 942              		.section	.text.test_start_timer,"ax",%progbits
 943              		.align	2
 944              		.p2align 4,,15
 945              		.global	test_start_timer
 946              		.thumb
 947              		.thumb_func
 948              		.type	test_start_timer, %function
 949              	test_start_timer:
 950              	.LFB221:
 951              		.loc 1 275 0
 952              		.cfi_startproc
 953              		@ args = 0, pretend = 0, frame = 0
 954              		@ frame_needed = 0, uses_anonymous_args = 0
 955              	.LVL68:
 956 0000 10B5     		push	{r4, lr}
 957              		.cfi_def_cfa_offset 8
 958              		.cfi_offset 4, -8
 959              		.cfi_offset 14, -4
 960              		.loc 1 277 0
 961 0002 42F21074 		movw	r4, #10000
ARM GAS  /tmp/ccIkObLr.s 			page 18


 962 0006 04FB00F0 		mul	r0, r4, r0
 963              	.LVL69:
 964 000a 0D49     		ldr	r1, .L100
 965 000c 00F2E734 		addw	r4, r0, #999
 966 0010 A1FB0434 		umull	r3, r4, r1, r4
 967              		.loc 1 278 0
 968 0014 0B4B     		ldr	r3, .L100+4
 969 0016 0022     		movs	r2, #0
 970 0018 1A70     		strb	r2, [r3]
 971              		.loc 1 277 0
 972 001a A409     		lsrs	r4, r4, #6
 973              	.LVL70:
 974              	.LBB244:
 975              	.LBB245:
 976              	.LBB246:
 977              	.LBB247:
 978              	.LBB248:
 979              		.loc 2 548 0
 980 001c 2023     		movs	r3, #32
 981              	@ 548 "/home/peter/ChibiOS_16.1.4/os/ext/CMSIS/include/core_cmFunc.h" 1
 982 001e 83F31188 		MSR basepri, r3
 983              	@ 0 "" 2
 984              	.LVL71:
 985              		.thumb
 986 0022 0948     		ldr	r0, .L100+8
 987              	.LBE248:
 988              	.LBE247:
 989              	.LBE246:
 990              	.LBE245:
 991              	.LBB249:
 992              	.LBB250:
 993              	.LBB251:
 994              	.LBB252:
 995              		.loc 3 412 0
 996 0024 C368     		ldr	r3, [r0, #12]
 997 0026 0BB1     		cbz	r3, .L95
 998              		.loc 3 413 0
 999 0028 FFF7FEFF 		bl	chVTDoResetI
 1000              	.LVL72:
 1001              	.L95:
 1002              	.LBE252:
 1003              	.LBE251:
 1004              		.loc 3 460 0
 1005 002c 2146     		mov	r1, r4
 1006 002e 0648     		ldr	r0, .L100+8
 1007 0030 064A     		ldr	r2, .L100+12
 1008 0032 0023     		movs	r3, #0
 1009 0034 FFF7FEFF 		bl	chVTDoSetI
 1010              	.LVL73:
 1011              	.LBE250:
 1012              	.LBE249:
 1013              	.LBB253:
 1014              	.LBB254:
 1015              	.LBB255:
 1016              	.LBB256:
 1017              	.LBB257:
 1018              		.loc 2 548 0
ARM GAS  /tmp/ccIkObLr.s 			page 19


 1019 0038 0023     		movs	r3, #0
 1020              	@ 548 "/home/peter/ChibiOS_16.1.4/os/ext/CMSIS/include/core_cmFunc.h" 1
 1021 003a 83F31188 		MSR basepri, r3
 1022              	@ 0 "" 2
 1023              		.thumb
 1024 003e 10BD     		pop	{r4, pc}
 1025              	.LVL74:
 1026              	.L101:
 1027              		.align	2
 1028              	.L100:
 1029 0040 D34D6210 		.word	274877907
 1030 0044 00000000 		.word	.LANCHOR0
 1031 0048 00000000 		.word	.LANCHOR8
 1032 004c 00000000 		.word	tmr
 1033              	.LBE257:
 1034              	.LBE256:
 1035              	.LBE255:
 1036              	.LBE254:
 1037              	.LBE253:
 1038              	.LBE244:
 1039              		.cfi_endproc
 1040              	.LFE221:
 1041              		.size	test_start_timer, .-test_start_timer
 1042              		.section	.text.TestThread,"ax",%progbits
 1043              		.align	2
 1044              		.p2align 4,,15
 1045              		.global	TestThread
 1046              		.thumb
 1047              		.thumb_func
 1048              		.type	TestThread, %function
 1049              	TestThread:
 1050              	.LFB224:
 1051              		.loc 1 316 0
 1052              		.cfi_startproc
 1053              		@ args = 0, pretend = 0, frame = 8
 1054              		@ frame_needed = 0, uses_anonymous_args = 0
 1055              	.LVL75:
 1056 0000 2DE9F04F 		push	{r4, r5, r6, r7, r8, r9, r10, fp, lr}
 1057              		.cfi_def_cfa_offset 36
 1058              		.cfi_offset 4, -36
 1059              		.cfi_offset 5, -32
 1060              		.cfi_offset 6, -28
 1061              		.cfi_offset 7, -24
 1062              		.cfi_offset 8, -20
 1063              		.cfi_offset 9, -16
 1064              		.cfi_offset 10, -12
 1065              		.cfi_offset 11, -8
 1066              		.cfi_offset 14, -4
 1067              		.loc 1 319 0
 1068 0004 9F4C     		ldr	r4, .L186
 1069              		.loc 1 316 0
 1070 0006 83B0     		sub	sp, sp, #12
 1071              		.cfi_def_cfa_offset 48
 1072              		.loc 1 319 0
 1073 0008 2060     		str	r0, [r4]
 1074              		.loc 1 320 0
 1075 000a 9F48     		ldr	r0, .L186+4
ARM GAS  /tmp/ccIkObLr.s 			page 20


 1076              	.LVL76:
 1077 000c FFF7FEFF 		bl	test_println
 1078              	.LVL77:
 1079              		.loc 1 321 0
 1080 0010 9E48     		ldr	r0, .L186+8
 1081 0012 FFF7FEFF 		bl	test_println
 1082              	.LVL78:
 1083              		.loc 1 322 0
 1084 0016 9E4D     		ldr	r5, .L186+12
 1085 0018 9E48     		ldr	r0, .L186+16
 1086 001a FFF7FEFF 		bl	test_println
 1087              	.LVL79:
 1088 001e 2A21     		movs	r1, #42
 1089              	.LVL80:
 1090              	.L103:
 1091              	.LBB294:
 1092              	.LBB295:
 1093              		.loc 1 116 0
 1094 0020 2068     		ldr	r0, [r4]
 1095 0022 0368     		ldr	r3, [r0]
 1096 0024 9B68     		ldr	r3, [r3, #8]
 1097 0026 9847     		blx	r3
 1098              	.LVL81:
 1099              		.loc 1 115 0
 1100 0028 15F8011F 		ldrb	r1, [r5, #1]!	@ zero_extendqisi2
 1101              	.LVL82:
 1102 002c 0029     		cmp	r1, #0
 1103 002e F7D1     		bne	.L103
 1104              	.LBE295:
 1105              	.LBE294:
 1106              		.loc 1 324 0
 1107 0030 9948     		ldr	r0, .L186+20
 1108 0032 9A4D     		ldr	r5, .L186+24
 1109              	.LVL83:
 1110 0034 FFF7FEFF 		bl	test_println
 1111              	.LVL84:
 1112 0038 2A21     		movs	r1, #42
 1113              	.LVL85:
 1114              	.L105:
 1115              	.LBB296:
 1116              	.LBB297:
 1117              		.loc 1 116 0
 1118 003a 2068     		ldr	r0, [r4]
 1119 003c 0368     		ldr	r3, [r0]
 1120 003e 9B68     		ldr	r3, [r3, #8]
 1121 0040 9847     		blx	r3
 1122              	.LVL86:
 1123              		.loc 1 115 0
 1124 0042 15F8011F 		ldrb	r1, [r5, #1]!	@ zero_extendqisi2
 1125              	.LVL87:
 1126 0046 0029     		cmp	r1, #0
 1127 0048 F7D1     		bne	.L105
 1128              	.LBE297:
 1129              	.LBE296:
 1130              		.loc 1 326 0
 1131 004a 9548     		ldr	r0, .L186+28
 1132 004c 954D     		ldr	r5, .L186+32
ARM GAS  /tmp/ccIkObLr.s 			page 21


 1133              	.LVL88:
 1134 004e FFF7FEFF 		bl	test_println
 1135              	.LVL89:
 1136 0052 2A21     		movs	r1, #42
 1137              	.LVL90:
 1138              	.L107:
 1139              	.LBB298:
 1140              	.LBB299:
 1141              		.loc 1 116 0
 1142 0054 2068     		ldr	r0, [r4]
 1143 0056 0368     		ldr	r3, [r0]
 1144 0058 9B68     		ldr	r3, [r3, #8]
 1145 005a 9847     		blx	r3
 1146              	.LVL91:
 1147              		.loc 1 115 0
 1148 005c 15F8011F 		ldrb	r1, [r5, #1]!	@ zero_extendqisi2
 1149              	.LVL92:
 1150 0060 0029     		cmp	r1, #0
 1151 0062 F7D1     		bne	.L107
 1152              	.LBE299:
 1153              	.LBE298:
 1154              		.loc 1 329 0
 1155 0064 9048     		ldr	r0, .L186+36
 1156 0066 914D     		ldr	r5, .L186+40
 1157              	.LVL93:
 1158 0068 FFF7FEFF 		bl	test_println
 1159              	.LVL94:
 1160 006c 2A21     		movs	r1, #42
 1161              	.LVL95:
 1162              	.L109:
 1163              	.LBB300:
 1164              	.LBB301:
 1165              		.loc 1 116 0
 1166 006e 2068     		ldr	r0, [r4]
 1167 0070 0368     		ldr	r3, [r0]
 1168 0072 9B68     		ldr	r3, [r3, #8]
 1169 0074 9847     		blx	r3
 1170              	.LVL96:
 1171              		.loc 1 115 0
 1172 0076 15F8011F 		ldrb	r1, [r5, #1]!	@ zero_extendqisi2
 1173              	.LVL97:
 1174 007a 0029     		cmp	r1, #0
 1175 007c F7D1     		bne	.L109
 1176              	.LBE301:
 1177              	.LBE300:
 1178              		.loc 1 332 0
 1179 007e 8C48     		ldr	r0, .L186+44
 1180 0080 8C4D     		ldr	r5, .L186+48
 1181              	.LVL98:
 1182 0082 FFF7FEFF 		bl	test_println
 1183              	.LVL99:
 1184 0086 2A21     		movs	r1, #42
 1185              	.LVL100:
 1186              	.L111:
 1187              	.LBB302:
 1188              	.LBB303:
 1189              		.loc 1 116 0
ARM GAS  /tmp/ccIkObLr.s 			page 22


 1190 0088 2068     		ldr	r0, [r4]
 1191 008a 0368     		ldr	r3, [r0]
 1192 008c 9B68     		ldr	r3, [r3, #8]
 1193 008e 9847     		blx	r3
 1194              	.LVL101:
 1195              		.loc 1 115 0
 1196 0090 15F8011F 		ldrb	r1, [r5, #1]!	@ zero_extendqisi2
 1197              	.LVL102:
 1198 0094 0029     		cmp	r1, #0
 1199 0096 F7D1     		bne	.L111
 1200              	.LBE303:
 1201              	.LBE302:
 1202              		.loc 1 335 0
 1203 0098 8748     		ldr	r0, .L186+52
 1204 009a 884D     		ldr	r5, .L186+56
 1205              	.LVL103:
 1206 009c FFF7FEFF 		bl	test_println
 1207              	.LVL104:
 1208 00a0 2A21     		movs	r1, #42
 1209              	.LVL105:
 1210              	.L113:
 1211              	.LBB304:
 1212              	.LBB305:
 1213              		.loc 1 116 0
 1214 00a2 2068     		ldr	r0, [r4]
 1215 00a4 0368     		ldr	r3, [r0]
 1216 00a6 9B68     		ldr	r3, [r3, #8]
 1217 00a8 9847     		blx	r3
 1218              	.LVL106:
 1219              		.loc 1 115 0
 1220 00aa 15F8011F 		ldrb	r1, [r5, #1]!	@ zero_extendqisi2
 1221              	.LVL107:
 1222 00ae 0029     		cmp	r1, #0
 1223 00b0 F7D1     		bne	.L113
 1224              	.LBE305:
 1225              	.LBE304:
 1226              		.loc 1 339 0
 1227 00b2 8348     		ldr	r0, .L186+60
 1228 00b4 834D     		ldr	r5, .L186+64
 1229              	.LVL108:
 1230 00b6 FFF7FEFF 		bl	test_println
 1231              	.LVL109:
 1232 00ba 2A21     		movs	r1, #42
 1233              	.LVL110:
 1234              	.L115:
 1235              	.LBB306:
 1236              	.LBB307:
 1237              		.loc 1 116 0
 1238 00bc 2068     		ldr	r0, [r4]
 1239 00be 0368     		ldr	r3, [r0]
 1240 00c0 9B68     		ldr	r3, [r3, #8]
 1241 00c2 9847     		blx	r3
 1242              	.LVL111:
 1243              		.loc 1 115 0
 1244 00c4 15F8011F 		ldrb	r1, [r5, #1]!	@ zero_extendqisi2
 1245              	.LVL112:
 1246 00c8 0029     		cmp	r1, #0
ARM GAS  /tmp/ccIkObLr.s 			page 23


 1247 00ca F7D1     		bne	.L115
 1248              	.LBE307:
 1249              	.LBE306:
 1250              		.loc 1 343 0
 1251 00cc 7E48     		ldr	r0, .L186+68
 1252 00ce 7F4D     		ldr	r5, .L186+72
 1253              	.LVL113:
 1254 00d0 FFF7FEFF 		bl	test_println
 1255              	.LVL114:
 1256 00d4 2A21     		movs	r1, #42
 1257              	.LVL115:
 1258              	.L117:
 1259              	.LBB308:
 1260              	.LBB309:
 1261              		.loc 1 116 0
 1262 00d6 2068     		ldr	r0, [r4]
 1263 00d8 0368     		ldr	r3, [r0]
 1264 00da 9B68     		ldr	r3, [r3, #8]
 1265 00dc 9847     		blx	r3
 1266              	.LVL116:
 1267              		.loc 1 115 0
 1268 00de 15F8011F 		ldrb	r1, [r5, #1]!	@ zero_extendqisi2
 1269              	.LVL117:
 1270 00e2 0029     		cmp	r1, #0
 1271 00e4 F7D1     		bne	.L117
 1272              	.LBE309:
 1273              	.LBE308:
 1274              		.loc 1 347 0
 1275 00e6 7A48     		ldr	r0, .L186+76
 1276 00e8 0091     		str	r1, [sp]
 1277 00ea FFF7FEFF 		bl	test_println
 1278              	.LVL118:
 1279              		.loc 1 349 0
 1280 00ee 6648     		ldr	r0, .L186+4
 1281 00f0 FFF7FEFF 		bl	test_println
 1282              	.LVL119:
 1283              		.loc 1 351 0
 1284 00f4 774B     		ldr	r3, .L186+80
 1285 00f6 0099     		ldr	r1, [sp]
 1286 00f8 774F     		ldr	r7, .L186+84
 1287 00fa 1970     		strb	r1, [r3]
 1288              	.LVL120:
 1289 00fc 774B     		ldr	r3, .L186+88
 1290              	.LBB310:
 1291              	.LBB311:
 1292              		.loc 1 116 0
 1293 00fe DFF884B1 		ldr	fp, .L186
 1294 0102 0193     		str	r3, [sp, #4]
 1295              	.LVL121:
 1296              	.L140:
 1297 0104 009B     		ldr	r3, [sp]
 1298              	.LBE311:
 1299              	.LBE310:
 1300              	.LBB313:
 1301              	.LBB314:
 1302              		.loc 1 141 0
 1303 0106 0026     		movs	r6, #0
ARM GAS  /tmp/ccIkObLr.s 			page 24


 1304 0108 0133     		adds	r3, r3, #1
 1305 010a 0093     		str	r3, [sp]
 1306              	.LVL122:
 1307              	.L137:
 1308              	.LBE314:
 1309              	.LBE313:
 1310              		.loc 1 355 0
 1311 010c 57F82630 		ldr	r3, [r7, r6, lsl #2]
 1312 0110 07EB8608 		add	r8, r7, r6, lsl #2
 1313 0114 002B     		cmp	r3, #0
 1314 0116 00F08B80 		beq	.L184
 1315              	.L135:
 1316              		.loc 1 356 0
 1317 011a 714D     		ldr	r5, .L186+92
 1318 011c FFF7FEFF 		bl	print_line
 1319              	.LVL123:
 1320 0120 2D21     		movs	r1, #45
 1321              	.LVL124:
 1322              	.L119:
 1323              	.LBB316:
 1324              	.LBB312:
 1325              		.loc 1 116 0
 1326 0122 2068     		ldr	r0, [r4]
 1327 0124 0368     		ldr	r3, [r0]
 1328 0126 9B68     		ldr	r3, [r3, #8]
 1329 0128 9847     		blx	r3
 1330              	.LVL125:
 1331              		.loc 1 115 0
 1332 012a 15F8011F 		ldrb	r1, [r5, #1]!	@ zero_extendqisi2
 1333              	.LVL126:
 1334 012e 0029     		cmp	r1, #0
 1335 0130 F7D1     		bne	.L119
 1336              	.LBE312:
 1337              	.LBE316:
 1338              		.loc 1 358 0
 1339 0132 0098     		ldr	r0, [sp]
 1340 0134 FFF7FEFF 		bl	test_printn
 1341              	.LVL127:
 1342              	.LBB317:
 1343              	.LBB318:
 1344              		.loc 1 116 0
 1345 0138 DBF80000 		ldr	r0, [fp]
 1346              	.LVL128:
 1347 013c 2E21     		movs	r1, #46
 1348 013e 0368     		ldr	r3, [r0]
 1349              	.LBE318:
 1350              	.LBE317:
 1351              		.loc 1 360 0
 1352 0140 0136     		adds	r6, r6, #1
 1353              	.LVL129:
 1354              	.LBB320:
 1355              	.LBB319:
 1356              		.loc 1 116 0
 1357 0142 9B68     		ldr	r3, [r3, #8]
 1358 0144 9847     		blx	r3
 1359              	.LVL130:
 1360              	.LBE319:
ARM GAS  /tmp/ccIkObLr.s 			page 25


 1361              	.LBE320:
 1362              		.loc 1 360 0
 1363 0146 674D     		ldr	r5, .L186+96
 1364              	.LVL131:
 1365 0148 3046     		mov	r0, r6
 1366 014a FFF7FEFF 		bl	test_printn
 1367              	.LVL132:
 1368 014e 2021     		movs	r1, #32
 1369              	.LVL133:
 1370              	.L121:
 1371              	.LBB321:
 1372              	.LBB322:
 1373              		.loc 1 116 0
 1374 0150 2068     		ldr	r0, [r4]
 1375 0152 0368     		ldr	r3, [r0]
 1376 0154 9B68     		ldr	r3, [r3, #8]
 1377 0156 9847     		blx	r3
 1378              	.LVL134:
 1379              		.loc 1 115 0
 1380 0158 15F8011F 		ldrb	r1, [r5, #1]!	@ zero_extendqisi2
 1381              	.LVL135:
 1382 015c 0029     		cmp	r1, #0
 1383 015e F7D1     		bne	.L121
 1384              	.LBE322:
 1385              	.LBE321:
 1386              		.loc 1 362 0
 1387 0160 D8F80030 		ldr	r3, [r8]
 1388 0164 1D68     		ldr	r5, [r3]
 1389              	.LVL136:
 1390              	.LBB323:
 1391              	.LBB324:
 1392              		.loc 1 115 0
 1393 0166 2978     		ldrb	r1, [r5]	@ zero_extendqisi2
 1394 0168 39B1     		cbz	r1, .L126
 1395              	.LVL137:
 1396              	.L125:
 1397              		.loc 1 116 0
 1398 016a 2068     		ldr	r0, [r4]
 1399 016c 0368     		ldr	r3, [r0]
 1400 016e 9B68     		ldr	r3, [r3, #8]
 1401 0170 9847     		blx	r3
 1402              	.LVL138:
 1403              		.loc 1 115 0
 1404 0172 15F8011F 		ldrb	r1, [r5, #1]!	@ zero_extendqisi2
 1405              	.LVL139:
 1406 0176 0029     		cmp	r1, #0
 1407 0178 F7D1     		bne	.L125
 1408              	.LVL140:
 1409              	.L126:
 1410              	.LBE324:
 1411              	.LBE323:
 1412              		.loc 1 363 0
 1413 017a 5B48     		ldr	r0, .L186+100
 1414 017c FFF7FEFF 		bl	test_println
 1415              	.LVL141:
 1416              		.loc 1 365 0
 1417 0180 4FF4FA60 		mov	r0, #2000
ARM GAS  /tmp/ccIkObLr.s 			page 26


 1418 0184 FFF7FEFF 		bl	chThdSleep
 1419              	.LVL142:
 1420              	.LBB325:
 1421              	.LBB326:
 1422              		.loc 1 292 0
 1423 0188 584A     		ldr	r2, .L186+104
 1424              	.LBE326:
 1425              	.LBE325:
 1426              		.loc 1 367 0
 1427 018a D8F800A0 		ldr	r10, [r8]
 1428              	.LVL143:
 1429              	.LBB332:
 1430              	.LBB331:
 1431              		.loc 1 290 0
 1432 018e 0023     		movs	r3, #0
 1433              		.loc 1 292 0
 1434 0190 1360     		str	r3, [r2]
 1435 0192 5360     		str	r3, [r2, #4]
 1436 0194 9360     		str	r3, [r2, #8]
 1437 0196 D360     		str	r3, [r2, #12]
 1438 0198 1361     		str	r3, [r2, #16]
 1439              		.loc 1 290 0
 1440 019a DFF87C81 		ldr	r8, .L186+148
 1441              	.LBB327:
 1442              	.LBB328:
 1443              		.loc 1 135 0
 1444 019e 544D     		ldr	r5, .L186+108
 1445 01a0 DFF85C91 		ldr	r9, .L186+124
 1446              	.LBE328:
 1447              	.LBE327:
 1448              		.loc 1 294 0
 1449 01a4 DAF80420 		ldr	r2, [r10, #4]
 1450              		.loc 1 290 0
 1451 01a8 88F80030 		strb	r3, [r8]
 1452              	.LVL144:
 1453              	.LBB330:
 1454              	.LBB329:
 1455              		.loc 1 135 0
 1456 01ac C5F80090 		str	r9, [r5]
 1457              	.LBE329:
 1458              	.LBE330:
 1459              		.loc 1 294 0
 1460 01b0 02B1     		cbz	r2, .L124
 1461              		.loc 1 295 0
 1462 01b2 9047     		blx	r2
 1463              	.LVL145:
 1464              	.L124:
 1465              		.loc 1 296 0
 1466 01b4 DAF80C30 		ldr	r3, [r10, #12]
 1467 01b8 9847     		blx	r3
 1468              	.LVL146:
 1469              		.loc 1 297 0
 1470 01ba DAF80830 		ldr	r3, [r10, #8]
 1471 01be 03B1     		cbz	r3, .L172
 1472              		.loc 1 298 0
 1473 01c0 9847     		blx	r3
 1474              	.LVL147:
ARM GAS  /tmp/ccIkObLr.s 			page 27


 1475              	.L172:
 1476              		.loc 1 300 0
 1477 01c2 FFF7FEFF 		bl	test_wait_threads
 1478              	.LVL148:
 1479              	.LBE331:
 1480              	.LBE332:
 1481              		.loc 1 368 0
 1482 01c6 98F80030 		ldrb	r3, [r8]	@ zero_extendqisi2
 1483 01ca 002B     		cmp	r3, #0
 1484 01cc 4FD0     		beq	.L128
 1485              	.LVL149:
 1486              		.loc 1 360 0
 1487 01ce 494F     		ldr	r7, .L186+112
 1488 01d0 2D21     		movs	r1, #45
 1489              	.LVL150:
 1490              	.L129:
 1491              	.LBB333:
 1492              	.LBB334:
 1493              		.loc 1 116 0
 1494 01d2 2068     		ldr	r0, [r4]
 1495 01d4 0368     		ldr	r3, [r0]
 1496 01d6 9B68     		ldr	r3, [r3, #8]
 1497 01d8 9847     		blx	r3
 1498              	.LVL151:
 1499              		.loc 1 115 0
 1500 01da 17F8011F 		ldrb	r1, [r7, #1]!	@ zero_extendqisi2
 1501              	.LVL152:
 1502 01de 0029     		cmp	r1, #0
 1503 01e0 F7D1     		bne	.L129
 1504              	.LBE334:
 1505              	.LBE333:
 1506              		.loc 1 370 0
 1507 01e2 454B     		ldr	r3, .L186+116
 1508 01e4 454F     		ldr	r7, .L186+120
 1509              	.LVL153:
 1510 01e6 1868     		ldr	r0, [r3]
 1511 01e8 FFF7FEFF 		bl	test_printn
 1512              	.LVL154:
 1513 01ec 2021     		movs	r1, #32
 1514              	.LVL155:
 1515              	.L131:
 1516              	.LBB335:
 1517              	.LBB336:
 1518              		.loc 1 116 0
 1519 01ee 2068     		ldr	r0, [r4]
 1520 01f0 0368     		ldr	r3, [r0]
 1521 01f2 9B68     		ldr	r3, [r3, #8]
 1522 01f4 9847     		blx	r3
 1523              	.LVL156:
 1524              		.loc 1 115 0
 1525 01f6 17F8011F 		ldrb	r1, [r7, #1]!	@ zero_extendqisi2
 1526              	.LVL157:
 1527 01fa 0029     		cmp	r1, #0
 1528 01fc F7D1     		bne	.L131
 1529              	.LVL158:
 1530              	.LBE336:
 1531              	.LBE335:
ARM GAS  /tmp/ccIkObLr.s 			page 28


 1532              	.LBB337:
 1533              	.LBB315:
 1534              		.loc 1 141 0
 1535 01fe 2B68     		ldr	r3, [r5]
 1536 0200 4B45     		cmp	r3, r9
 1537 0202 09D9     		bls	.L134
 1538 0204 3E4F     		ldr	r7, .L186+124
 1539              	.LVL159:
 1540              	.L132:
 1541              		.loc 1 142 0
 1542 0206 2068     		ldr	r0, [r4]
 1543 0208 17F8011B 		ldrb	r1, [r7], #1	@ zero_extendqisi2
 1544              	.LVL160:
 1545 020c 0368     		ldr	r3, [r0]
 1546 020e 9B68     		ldr	r3, [r3, #8]
 1547 0210 9847     		blx	r3
 1548              	.LVL161:
 1549              		.loc 1 141 0
 1550 0212 2B68     		ldr	r3, [r5]
 1551 0214 9F42     		cmp	r7, r3
 1552 0216 F6D3     		bcc	.L132
 1553              	.LVL162:
 1554              	.L134:
 1555              	.LBE315:
 1556              	.LBE337:
 1557              		.loc 1 373 0
 1558 0218 3A48     		ldr	r0, .L186+128
 1559 021a FFF7FEFF 		bl	test_println
 1560              	.LVL163:
 1561 021e 019B     		ldr	r3, [sp, #4]
 1562 0220 1F68     		ldr	r7, [r3]
 1563              	.LVL164:
 1564              		.loc 1 355 0
 1565 0222 57F82630 		ldr	r3, [r7, r6, lsl #2]
 1566 0226 07EB8608 		add	r8, r7, r6, lsl #2
 1567 022a 002B     		cmp	r3, #0
 1568 022c 7FF475AF 		bne	.L135
 1569              	.LVL165:
 1570              	.L184:
 1571              		.loc 1 353 0
 1572 0230 019B     		ldr	r3, [sp, #4]
 1573 0232 53F8047F 		ldr	r7, [r3, #4]!
 1574 0236 0193     		str	r3, [sp, #4]
 1575 0238 002F     		cmp	r7, #0
 1576 023a 7FF463AF 		bne	.L140
 1577              		.loc 1 381 0
 1578 023e FFF7FEFF 		bl	print_line
 1579              	.LVL166:
 1580              		.loc 1 382 0
 1581 0242 314D     		ldr	r5, .L186+132
 1582 0244 1048     		ldr	r0, .L186+4
 1583 0246 FFF7FEFF 		bl	test_println
 1584              	.LVL167:
 1585 024a 4621     		movs	r1, #70
 1586              	.LVL168:
 1587              	.L138:
 1588              	.LBB338:
ARM GAS  /tmp/ccIkObLr.s 			page 29


 1589              	.LBB339:
 1590              		.loc 1 116 0
 1591 024c 2068     		ldr	r0, [r4]
 1592 024e 0368     		ldr	r3, [r0]
 1593 0250 9B68     		ldr	r3, [r3, #8]
 1594 0252 9847     		blx	r3
 1595              	.LVL169:
 1596              		.loc 1 115 0
 1597 0254 15F8011F 		ldrb	r1, [r5, #1]!	@ zero_extendqisi2
 1598              	.LVL170:
 1599 0258 0029     		cmp	r1, #0
 1600 025a F7D1     		bne	.L138
 1601              	.LBE339:
 1602              	.LBE338:
 1603              		.loc 1 384 0
 1604 025c 1D4B     		ldr	r3, .L186+80
 1605 025e 1B78     		ldrb	r3, [r3]	@ zero_extendqisi2
 1606 0260 4BB9     		cbnz	r3, .L185
 1607              		.loc 1 387 0
 1608 0262 2A48     		ldr	r0, .L186+136
 1609              		.loc 1 388 0
 1610 0264 03B0     		add	sp, sp, #12
 1611              		.cfi_remember_state
 1612              		.cfi_def_cfa_offset 36
 1613              	.LVL171:
 1614              		@ sp needed
 1615 0266 BDE8F04F 		pop	{r4, r5, r6, r7, r8, r9, r10, fp, lr}
 1616              		.cfi_restore 14
 1617              		.cfi_restore 11
 1618              		.cfi_restore 10
 1619              		.cfi_restore 9
 1620              		.cfi_restore 8
 1621              		.cfi_restore 7
 1622              		.cfi_restore 6
 1623              		.cfi_restore 5
 1624              		.cfi_restore 4
 1625              		.cfi_def_cfa_offset 0
 1626              	.LVL172:
 1627              		.loc 1 387 0
 1628 026a FFF7FEBF 		b	test_println
 1629              	.LVL173:
 1630              	.L128:
 1631              		.cfi_restore_state
 1632              		.loc 1 376 0
 1633 026e 2848     		ldr	r0, .L186+140
 1634 0270 FFF7FEFF 		bl	test_println
 1635              	.LVL174:
 1636 0274 4AE7     		b	.L137
 1637              	.LVL175:
 1638              	.L185:
 1639              		.loc 1 385 0
 1640 0276 2748     		ldr	r0, .L186+144
 1641              		.loc 1 388 0
 1642 0278 03B0     		add	sp, sp, #12
 1643              		.cfi_def_cfa_offset 36
 1644              	.LVL176:
 1645              		@ sp needed
ARM GAS  /tmp/ccIkObLr.s 			page 30


 1646 027a BDE8F04F 		pop	{r4, r5, r6, r7, r8, r9, r10, fp, lr}
 1647              		.cfi_restore 4
 1648              		.cfi_restore 5
 1649              		.cfi_restore 6
 1650              		.cfi_restore 7
 1651              		.cfi_restore 8
 1652              		.cfi_restore 9
 1653              		.cfi_restore 10
 1654              		.cfi_restore 11
 1655              		.cfi_restore 14
 1656              		.cfi_def_cfa_offset 0
 1657              	.LVL177:
 1658              		.loc 1 387 0
 1659 027e FFF7FEBF 		b	test_println
 1660              	.LVL178:
 1661              	.L187:
 1662 0282 00BF     		.align	2
 1663              	.L186:
 1664 0284 00000000 		.word	.LANCHOR1
 1665 0288 E4000000 		.word	.LC14
 1666 028c E8000000 		.word	.LC15
 1667 0290 04000000 		.word	.LC1
 1668 0294 04010000 		.word	.LC16
 1669 0298 34010000 		.word	.LC22
 1670 029c 18000000 		.word	.LC2
 1671 02a0 3C010000 		.word	.LC23
 1672 02a4 2C000000 		.word	.LC3
 1673 02a8 54010000 		.word	.LC24
 1674 02ac 40000000 		.word	.LC4
 1675 02b0 74010000 		.word	.LC25
 1676 02b4 54000000 		.word	.LC5
 1677 02b8 7C010000 		.word	.LC26
 1678 02bc 68000000 		.word	.LC6
 1679 02c0 88010000 		.word	.LC27
 1680 02c4 7C000000 		.word	.LC7
 1681 02c8 A0010000 		.word	.LC28
 1682 02cc 90000000 		.word	.LC8
 1683 02d0 BC010000 		.word	.LC29
 1684 02d4 00000000 		.word	.LANCHOR3
 1685 02d8 00000000 		.word	patternsys
 1686 02dc 00000000 		.word	.LANCHOR9
 1687 02e0 A4000000 		.word	.LC9
 1688 02e4 B4000000 		.word	.LC10
 1689 02e8 08010000 		.word	.LC17
 1690 02ec 00000000 		.word	.LANCHOR7
 1691 02f0 00000000 		.word	.LANCHOR2
 1692 02f4 B8000000 		.word	.LC11
 1693 02f8 00000000 		.word	.LANCHOR5
 1694 02fc D0000000 		.word	.LC12
 1695 0300 00000000 		.word	.LANCHOR6
 1696 0304 0C010000 		.word	.LC18
 1697 0308 D4000000 		.word	.LC13
 1698 030c 2C010000 		.word	.LC21
 1699 0310 10010000 		.word	.LC19
 1700 0314 24010000 		.word	.LC20
 1701 0318 00000000 		.word	.LANCHOR4
 1702              		.cfi_endproc
ARM GAS  /tmp/ccIkObLr.s 			page 31


 1703              	.LFE224:
 1704              		.size	TestThread, .-TestThread
 1705              		.global	test_timer_done
 1706              		.global	wa
 1707              		.global	threads
 1708              		.global	test
 1709              		.global	test_global_fail
 1710 031c AFF30080 		.section	.bss.test,"aw",%nobits
 1711              		.align	3
 1712              		.type	test, %object
 1713              		.size	test, 1640
 1714              	test:
 1715 0000 00000000 		.space	1640
 1715      00000000 
 1715      00000000 
 1715      00000000 
 1715      00000000 
 1716              		.section	.bss.failpoint,"aw",%nobits
 1717              		.align	2
 1718              		.set	.LANCHOR5,. + 0
 1719              		.type	failpoint, %object
 1720              		.size	failpoint, 4
 1721              	failpoint:
 1722 0000 00000000 		.space	4
 1723              		.section	.bss.local_fail,"aw",%nobits
 1724              		.set	.LANCHOR4,. + 0
 1725              		.type	local_fail, %object
 1726              		.size	local_fail, 1
 1727              	local_fail:
 1728 0000 00       		.space	1
 1729              		.section	.bss.test_timer_done,"aw",%nobits
 1730              		.set	.LANCHOR0,. + 0
 1731              		.type	test_timer_done, %object
 1732              		.size	test_timer_done, 1
 1733              	test_timer_done:
 1734 0000 00       		.space	1
 1735              		.section	.rodata.wa,"a",%progbits
 1736              		.align	2
 1737              		.type	wa, %object
 1738              		.size	wa, 20
 1739              	wa:
 1740 0000 00000000 		.word	test
 1741 0004 48010000 		.word	test+328
 1742 0008 90020000 		.word	test+656
 1743 000c D8030000 		.word	test+984
 1744 0010 20050000 		.word	test+1312
 1745              		.section	.bss.tokp,"aw",%nobits
 1746              		.align	2
 1747              		.set	.LANCHOR2,. + 0
 1748              		.type	tokp, %object
 1749              		.size	tokp, 4
 1750              	tokp:
 1751 0000 00000000 		.space	4
 1752              		.section	.rodata.patterns,"a",%progbits
 1753              		.align	2
 1754              		.set	.LANCHOR9,. + 0
 1755              		.type	patterns, %object
ARM GAS  /tmp/ccIkObLr.s 			page 32


 1756              		.size	patterns, 52
 1757              	patterns:
 1758 0000 00000000 		.word	patternsys
 1759 0004 00000000 		.word	patternthd
 1760 0008 00000000 		.word	patternsem
 1761 000c 00000000 		.word	patternmtx
 1762 0010 00000000 		.word	patternmsg
 1763 0014 00000000 		.word	patternmbox
 1764 0018 00000000 		.word	patternevt
 1765 001c 00000000 		.word	patternheap
 1766 0020 00000000 		.word	patternpools
 1767 0024 00000000 		.word	patterndyn
 1768 0028 00000000 		.word	patternqueues
 1769 002c 00000000 		.word	patternbmk
 1770 0030 00000000 		.word	0
 1771              		.section	.rodata.str1.4,"aMS",%progbits,1
 1772              		.align	2
 1773              	.LC0:
 1774 0000 0D0A00   		.ascii	"\015\012\000"
 1775 0003 00       		.space	1
 1776              	.LC1:
 1777 0004 2A2A2A20 		.ascii	"*** Kernel:       \000"
 1777      4B65726E 
 1777      656C3A20 
 1777      20202020 
 1777      202000
 1778 0017 00       		.space	1
 1779              	.LC2:
 1780 0018 2A2A2A20 		.ascii	"*** Compiled:     \000"
 1780      436F6D70 
 1780      696C6564 
 1780      3A202020 
 1780      202000
 1781 002b 00       		.space	1
 1782              	.LC3:
 1783 002c 2A2A2A20 		.ascii	"*** Compiler:     \000"
 1783      436F6D70 
 1783      696C6572 
 1783      3A202020 
 1783      202000
 1784 003f 00       		.space	1
 1785              	.LC4:
 1786 0040 2A2A2A20 		.ascii	"*** Architecture: \000"
 1786      41726368 
 1786      69746563 
 1786      74757265 
 1786      3A2000
 1787 0053 00       		.space	1
 1788              	.LC5:
 1789 0054 2A2A2A20 		.ascii	"*** Core Variant: \000"
 1789      436F7265 
 1789      20566172 
 1789      69616E74 
 1789      3A2000
 1790 0067 00       		.space	1
 1791              	.LC6:
 1792 0068 2A2A2A20 		.ascii	"*** Port Info:    \000"
ARM GAS  /tmp/ccIkObLr.s 			page 33


 1792      506F7274 
 1792      20496E66 
 1792      6F3A2020 
 1792      202000
 1793 007b 00       		.space	1
 1794              	.LC7:
 1795 007c 2A2A2A20 		.ascii	"*** Platform:     \000"
 1795      506C6174 
 1795      666F726D 
 1795      3A202020 
 1795      202000
 1796 008f 00       		.space	1
 1797              	.LC8:
 1798 0090 2A2A2A20 		.ascii	"*** Test Board:   \000"
 1798      54657374 
 1798      20426F61 
 1798      72643A20 
 1798      202000
 1799 00a3 00       		.space	1
 1800              	.LC9:
 1801 00a4 2D2D2D20 		.ascii	"--- Test Case \000"
 1801      54657374 
 1801      20436173 
 1801      652000
 1802 00b3 00       		.space	1
 1803              	.LC10:
 1804 00b4 202800   		.ascii	" (\000"
 1805 00b7 00       		.space	1
 1806              	.LC11:
 1807 00b8 2D2D2D20 		.ascii	"--- Result: FAILURE (#\000"
 1807      52657375 
 1807      6C743A20 
 1807      4641494C 
 1807      55524520 
 1808 00cf 00       		.space	1
 1809              	.LC12:
 1810 00d0 205B00   		.ascii	" [\000"
 1811 00d3 00       		.space	1
 1812              	.LC13:
 1813 00d4 46696E61 		.ascii	"Final result: \000"
 1813      6C207265 
 1813      73756C74 
 1813      3A2000
 1814 00e3 00       		.space	1
 1815              	.LC14:
 1816 00e4 00       		.ascii	"\000"
 1817 00e5 000000   		.space	3
 1818              	.LC15:
 1819 00e8 2A2A2A20 		.ascii	"*** ChibiOS/RT test suite\000"
 1819      43686962 
 1819      694F532F 
 1819      52542074 
 1819      65737420 
 1820 0102 0000     		.space	2
 1821              	.LC16:
 1822 0104 2A2A2A00 		.ascii	"***\000"
 1823              	.LC17:
ARM GAS  /tmp/ccIkObLr.s 			page 34


 1824 0108 2900     		.ascii	")\000"
 1825 010a 0000     		.space	2
 1826              	.LC18:
 1827 010c 5D2900   		.ascii	"])\000"
 1828 010f 00       		.space	1
 1829              	.LC19:
 1830 0110 2D2D2D20 		.ascii	"--- Result: SUCCESS\000"
 1830      52657375 
 1830      6C743A20 
 1830      53554343 
 1830      45535300 
 1831              	.LC20:
 1832 0124 4641494C 		.ascii	"FAILURE\000"
 1832      55524500 
 1833              	.LC21:
 1834 012c 53554343 		.ascii	"SUCCESS\000"
 1834      45535300 
 1835              	.LC22:
 1836 0134 332E312E 		.ascii	"3.1.3\000"
 1836      3300
 1837 013a 0000     		.space	2
 1838              	.LC23:
 1839 013c 4D617920 		.ascii	"May 16 2017 - 09:24:31\000"
 1839      31362032 
 1839      30313720 
 1839      2D203039 
 1839      3A32343A 
 1840 0153 00       		.space	1
 1841              	.LC24:
 1842 0154 47434320 		.ascii	"GCC 4.9.3 20150529 (prerelease)\000"
 1842      342E392E 
 1842      33203230 
 1842      31353035 
 1842      32392028 
 1843              	.LC25:
 1844 0174 41524D76 		.ascii	"ARMv7-M\000"
 1844      372D4D00 
 1845              	.LC26:
 1846 017c 436F7274 		.ascii	"Cortex-M3\000"
 1846      65782D4D 
 1846      3300
 1847 0186 0000     		.space	2
 1848              	.LC27:
 1849 0188 41647661 		.ascii	"Advanced kernel mode\000"
 1849      6E636564 
 1849      206B6572 
 1849      6E656C20 
 1849      6D6F6465 
 1850 019d 000000   		.space	3
 1851              	.LC28:
 1852 01a0 53544D33 		.ascii	"STM32F405 High Performance\000"
 1852      32463430 
 1852      35204869 
 1852      67682050 
 1852      6572666F 
 1853 01bb 00       		.space	1
 1854              	.LC29:
ARM GAS  /tmp/ccIkObLr.s 			page 35


 1855 01bc 4E697465 		.ascii	"Nite 4 V1.0\000"
 1855      20342056 
 1855      312E3000 
 1856              		.section	.bss.vt,"aw",%nobits
 1857              		.align	2
 1858              		.set	.LANCHOR8,. + 0
 1859              		.type	vt, %object
 1860              		.size	vt, 20
 1861              	vt:
 1862 0000 00000000 		.space	20
 1862      00000000 
 1862      00000000 
 1862      00000000 
 1862      00000000 
 1863              		.section	.bss.threads,"aw",%nobits
 1864              		.align	2
 1865              		.set	.LANCHOR7,. + 0
 1866              		.type	threads, %object
 1867              		.size	threads, 20
 1868              	threads:
 1869 0000 00000000 		.space	20
 1869      00000000 
 1869      00000000 
 1869      00000000 
 1869      00000000 
 1870              		.section	.bss.chp,"aw",%nobits
 1871              		.align	2
 1872              		.set	.LANCHOR1,. + 0
 1873              		.type	chp, %object
 1874              		.size	chp, 4
 1875              	chp:
 1876 0000 00000000 		.space	4
 1877              		.section	.bss.tokens_buffer,"aw",%nobits
 1878              		.align	2
 1879              		.set	.LANCHOR6,. + 0
 1880              		.type	tokens_buffer, %object
 1881              		.size	tokens_buffer, 16
 1882              	tokens_buffer:
 1883 0000 00000000 		.space	16
 1883      00000000 
 1883      00000000 
 1883      00000000 
 1884              		.section	.bss.test_global_fail,"aw",%nobits
 1885              		.set	.LANCHOR3,. + 0
 1886              		.type	test_global_fail, %object
 1887              		.size	test_global_fail, 1
 1888              	test_global_fail:
 1889 0000 00       		.space	1
 1890              		.text
 1891              	.Letext0:
 1892              		.file 4 "/usr/lib/gcc/arm-none-eabi/4.9.3/include/stddef.h"
 1893              		.file 5 "/usr/include/newlib/machine/_default_types.h"
 1894              		.file 6 "/usr/include/newlib/stdint.h"
 1895              		.file 7 "/home/peter/ChibiOS_16.1.4/os/rt/ports/ARMCMx/compilers/GCC/chtypes.h"
 1896              		.file 8 "/home/peter/ChibiOS_16.1.4/os/rt/include/chsystypes.h"
 1897              		.file 9 "/home/peter/ChibiOS_16.1.4/os/rt/include/chschd.h"
 1898              		.file 10 "/home/peter/ChibiOS_16.1.4/os/rt/ports/ARMCMx/chcore.h"
ARM GAS  /tmp/ccIkObLr.s 			page 36


 1899              		.file 11 "/home/peter/ChibiOS_16.1.4/os/rt/ports/ARMCMx/chcore_v7m.h"
 1900              		.file 12 "/home/peter/ChibiOS_16.1.4/os/rt/include/chtm.h"
 1901              		.file 13 "/home/peter/ChibiOS_16.1.4/os/rt/include/chsem.h"
 1902              		.file 14 "/home/peter/ChibiOS_16.1.4/os/rt/include/chmtx.h"
 1903              		.file 15 "/home/peter/ChibiOS_16.1.4/os/rt/include/chstreams.h"
 1904              		.file 16 "/home/peter/ChibiOS_16.1.4/test/rt/test.h"
 1905              		.file 17 "/home/peter/ChibiOS_16.1.4/os/rt/include/chsys.h"
 1906              		.file 18 "/home/peter/ChibiOS_16.1.4/os/ext/CMSIS/include/core_cm3.h"
 1907              		.file 19 "/home/peter/ChibiOS_16.1.4/test/rt/testsys.h"
 1908              		.file 20 "/home/peter/ChibiOS_16.1.4/test/rt/testthd.h"
 1909              		.file 21 "/home/peter/ChibiOS_16.1.4/test/rt/testsem.h"
 1910              		.file 22 "/home/peter/ChibiOS_16.1.4/test/rt/testmtx.h"
 1911              		.file 23 "/home/peter/ChibiOS_16.1.4/test/rt/testmsg.h"
 1912              		.file 24 "/home/peter/ChibiOS_16.1.4/test/rt/testmbox.h"
 1913              		.file 25 "/home/peter/ChibiOS_16.1.4/test/rt/testevt.h"
 1914              		.file 26 "/home/peter/ChibiOS_16.1.4/test/rt/testheap.h"
 1915              		.file 27 "/home/peter/ChibiOS_16.1.4/test/rt/testpools.h"
 1916              		.file 28 "/home/peter/ChibiOS_16.1.4/test/rt/testdyn.h"
 1917              		.file 29 "/home/peter/ChibiOS_16.1.4/test/rt/testqueues.h"
 1918              		.file 30 "/home/peter/ChibiOS_16.1.4/test/rt/testbmk.h"
 1919              		.file 31 "/home/peter/ChibiOS_16.1.4/os/rt/include/chthreads.h"