ARM GAS  /tmp/ccAMQp6n.s 			page 1


   1              		.syntax unified
   2              		.cpu cortex-m3
   3              		.fpu softvfp
   4              		.eabi_attribute 20, 1
   5              		.eabi_attribute 21, 1
   6              		.eabi_attribute 23, 3
   7              		.eabi_attribute 24, 1
   8              		.eabi_attribute 25, 1
   9              		.eabi_attribute 26, 1
  10              		.eabi_attribute 30, 2
  11              		.eabi_attribute 34, 1
  12              		.eabi_attribute 18, 4
  13              		.thumb
  14              		.file	"testsys.c"
  15              		.text
  16              	.Ltext0:
  17              		.cfi_sections	.debug_frame
  18              		.section	.text.sys2_execute,"ax",%progbits
  19              		.align	2
  20              		.p2align 4,,15
  21              		.thumb
  22              		.thumb_func
  23              		.type	sys2_execute, %function
  24              	sys2_execute:
  25              	.LFB172:
  26              		.file 1 "/home/peter/ChibiOS_16.1.4/test/rt/testsys.c"
  27              		.loc 1 115 0
  28              		.cfi_startproc
  29              		@ args = 0, pretend = 0, frame = 0
  30              		@ frame_needed = 0, uses_anonymous_args = 0
  31              		@ link register save eliminated.
  32              	.LVL0:
  33              	.LBB324:
  34              	.LBB325:
  35              	.LBB326:
  36              	.LBB327:
  37              		.file 2 "/home/peter/ChibiOS_16.1.4/os/ext/CMSIS/include/core_cmFunc.h"
  38              		.loc 2 548 0
  39 0000 2023     		movs	r3, #32
  40              	@ 548 "/home/peter/ChibiOS_16.1.4/os/ext/CMSIS/include/core_cmFunc.h" 1
  41 0002 83F31188 		MSR basepri, r3
  42              	@ 0 "" 2
  43              		.thumb
  44              	.LBE327:
  45              	.LBE326:
  46              	.LBB328:
  47              	.LBB329:
  48              		.loc 2 333 0
  49              	@ 333 "/home/peter/ChibiOS_16.1.4/os/ext/CMSIS/include/core_cmFunc.h" 1
  50 0006 62B6     		cpsie i
  51              	@ 0 "" 2
  52              		.thumb
  53              	.LBE329:
  54              	.LBE328:
  55              	.LBE325:
  56              	.LBE324:
  57              	.LBB330:
ARM GAS  /tmp/ccAMQp6n.s 			page 2


  58              	.LBB331:
  59              	.LBB332:
  60              	.LBB333:
  61              		.loc 2 344 0
  62              	@ 344 "/home/peter/ChibiOS_16.1.4/os/ext/CMSIS/include/core_cmFunc.h" 1
  63 0008 72B6     		cpsid i
  64              	@ 0 "" 2
  65              	.LVL1:
  66              		.thumb
  67              	.LBE333:
  68              	.LBE332:
  69              	.LBE331:
  70              	.LBE330:
  71              	.LBB334:
  72              	.LBB335:
  73              	.LBB336:
  74              	.LBB337:
  75              		.loc 2 548 0
  76              	@ 548 "/home/peter/ChibiOS_16.1.4/os/ext/CMSIS/include/core_cmFunc.h" 1
  77 000a 83F31188 		MSR basepri, r3
  78              	@ 0 "" 2
  79              		.thumb
  80              	.LBE337:
  81              	.LBE336:
  82              	.LBB338:
  83              	.LBB339:
  84              		.loc 2 333 0
  85              	@ 333 "/home/peter/ChibiOS_16.1.4/os/ext/CMSIS/include/core_cmFunc.h" 1
  86 000e 62B6     		cpsie i
  87              	@ 0 "" 2
  88              	.LVL2:
  89              		.thumb
  90              	.LBE339:
  91              	.LBE338:
  92              	.LBE335:
  93              	.LBE334:
  94              	.LBB340:
  95              	.LBB341:
  96              	.LBB342:
  97              	.LBB343:
  98              		.loc 2 548 0
  99 0010 0023     		movs	r3, #0
 100              	@ 548 "/home/peter/ChibiOS_16.1.4/os/ext/CMSIS/include/core_cmFunc.h" 1
 101 0012 83F31188 		MSR basepri, r3
 102              	@ 0 "" 2
 103              		.thumb
 104              	.LBE343:
 105              	.LBE342:
 106              	.LBB344:
 107              	.LBB345:
 108              		.loc 2 333 0
 109              	@ 333 "/home/peter/ChibiOS_16.1.4/os/ext/CMSIS/include/core_cmFunc.h" 1
 110 0016 62B6     		cpsie i
 111              	@ 0 "" 2
 112              		.thumb
 113 0018 7047     		bx	lr
 114              	.LBE345:
ARM GAS  /tmp/ccAMQp6n.s 			page 3


 115              	.LBE344:
 116              	.LBE341:
 117              	.LBE340:
 118              		.cfi_endproc
 119              	.LFE172:
 120              		.size	sys2_execute, .-sys2_execute
 121 001a 00BFAFF3 		.section	.text.vtcb,"ax",%progbits
 121      0080
 122              		.align	2
 123              		.p2align 4,,15
 124              		.thumb
 125              		.thumb_func
 126              		.type	vtcb, %function
 127              	vtcb:
 128              	.LFB170:
 129              		.loc 1 53 0
 130              		.cfi_startproc
 131              		@ args = 0, pretend = 0, frame = 0
 132              		@ frame_needed = 0, uses_anonymous_args = 0
 133              	.LVL3:
 134 0000 10B5     		push	{r4, lr}
 135              		.cfi_def_cfa_offset 8
 136              		.cfi_offset 4, -8
 137              		.cfi_offset 14, -4
 138              	.LBB346:
 139              	.LBB347:
 140              	.LBB348:
 141              	.LBB349:
 142              	.LBB350:
 143              		.loc 2 548 0
 144 0002 2023     		movs	r3, #32
 145              	@ 548 "/home/peter/ChibiOS_16.1.4/os/ext/CMSIS/include/core_cmFunc.h" 1
 146 0004 83F31188 		MSR basepri, r3
 147              	@ 0 "" 2
 148              	.LVL4:
 149              		.thumb
 150              	.LBE350:
 151              	.LBE349:
 152              	.LBE348:
 153              	.LBE347:
 154              	.LBE346:
 155              	.LBB351:
 156              	.LBB352:
 157              	.LBB353:
 158              	.LBB354:
 159              	.LBB355:
 160 0008 0024     		movs	r4, #0
 161              	@ 548 "/home/peter/ChibiOS_16.1.4/os/ext/CMSIS/include/core_cmFunc.h" 1
 162 000a 84F31188 		MSR basepri, r4
 163              	@ 0 "" 2
 164              	.LVL5:
 165              		.thumb
 166              	.LBE355:
 167              	.LBE354:
 168              	.LBE353:
 169              	.LBE352:
 170              	.LBE351:
ARM GAS  /tmp/ccAMQp6n.s 			page 4


 171              	.LBB356:
 172              	.LBB357:
 173              	.LBB358:
 174              	.LBB359:
 175              	.LBB360:
 176              	@ 548 "/home/peter/ChibiOS_16.1.4/os/ext/CMSIS/include/core_cmFunc.h" 1
 177 000e 83F31188 		MSR basepri, r3
 178              	@ 0 "" 2
 179              		.thumb
 180              	.LBE360:
 181              	.LBE359:
 182              	.LBE358:
 183              	.LBE357:
 184              	.LBE356:
 185              		.loc 1 64 0
 186 0012 FFF7FEFF 		bl	chSysGetStatusAndLockX
 187              	.LVL6:
 188              		.loc 1 65 0
 189 0016 FFF7FEFF 		bl	chSysRestoreStatusX
 190              	.LVL7:
 191              	.LBB361:
 192              	.LBB362:
 193              	.LBB363:
 194              	.LBB364:
 195              	.LBB365:
 196              		.loc 2 548 0
 197              	@ 548 "/home/peter/ChibiOS_16.1.4/os/ext/CMSIS/include/core_cmFunc.h" 1
 198 001a 84F31188 		MSR basepri, r4
 199              	@ 0 "" 2
 200              		.thumb
 201 001e 10BD     		pop	{r4, pc}
 202              	.LBE365:
 203              	.LBE364:
 204              	.LBE363:
 205              	.LBE362:
 206              	.LBE361:
 207              		.cfi_endproc
 208              	.LFE170:
 209              		.size	vtcb, .-vtcb
 210              		.section	.text.sys3_execute,"ax",%progbits
 211              		.align	2
 212              		.p2align 4,,15
 213              		.thumb
 214              		.thumb_func
 215              		.type	sys3_execute, %function
 216              	sys3_execute:
 217              	.LFB173:
 218              		.loc 1 138 0
 219              		.cfi_startproc
 220              		@ args = 0, pretend = 0, frame = 0
 221              		@ frame_needed = 0, uses_anonymous_args = 0
 222              	.LVL8:
 223 0000 38B5     		push	{r3, r4, r5, lr}
 224              		.cfi_def_cfa_offset 16
 225              		.cfi_offset 3, -16
 226              		.cfi_offset 4, -12
 227              		.cfi_offset 5, -8
ARM GAS  /tmp/ccAMQp6n.s 			page 5


 228              		.cfi_offset 14, -4
 229              	.LBB431:
 230              	.LBB432:
 231              	.LBB433:
 232              	.LBB434:
 233              		.loc 2 548 0
 234 0002 2024     		movs	r4, #32
 235              	@ 548 "/home/peter/ChibiOS_16.1.4/os/ext/CMSIS/include/core_cmFunc.h" 1
 236 0004 84F31188 		MSR basepri, r4
 237              	@ 0 "" 2
 238              		.thumb
 239              	.LBE434:
 240              	.LBE433:
 241              	.LBE432:
 242              	.LBE431:
 243              		.loc 1 142 0
 244 0008 0120     		movs	r0, #1
 245 000a FFF7FEFF 		bl	chSysIntegrityCheckI
 246              	.LVL9:
 247              	.LBB435:
 248              	.LBB436:
 249              	.LBB437:
 250              	.LBB438:
 251              	.LBB439:
 252              		.loc 2 548 0
 253 000e 0023     		movs	r3, #0
 254              	@ 548 "/home/peter/ChibiOS_16.1.4/os/ext/CMSIS/include/core_cmFunc.h" 1
 255 0010 83F31188 		MSR basepri, r3
 256              	@ 0 "" 2
 257              		.thumb
 258              	.LBE439:
 259              	.LBE438:
 260              	.LBE437:
 261              	.LBE436:
 262              	.LBE435:
 263              		.loc 1 144 0
 264 0014 80F00101 		eor	r1, r0, #1
 265 0018 C9B2     		uxtb	r1, r1
 266 001a 0120     		movs	r0, #1
 267              	.LVL10:
 268 001c FFF7FEFF 		bl	_test_assert
 269              	.LVL11:
 270 0020 0546     		mov	r5, r0
 271 0022 00B1     		cbz	r0, .L10
 272              	.L4:
 273 0024 38BD     		pop	{r3, r4, r5, pc}
 274              	.L10:
 275              	.LVL12:
 276              	.LBB440:
 277              	.LBB441:
 278              	.LBB442:
 279              	.LBB443:
 280              		.loc 2 548 0
 281              	@ 548 "/home/peter/ChibiOS_16.1.4/os/ext/CMSIS/include/core_cmFunc.h" 1
 282 0026 84F31188 		MSR basepri, r4
 283              	@ 0 "" 2
 284              		.thumb
ARM GAS  /tmp/ccAMQp6n.s 			page 6


 285              	.LBE443:
 286              	.LBE442:
 287              	.LBE441:
 288              	.LBE440:
 289              		.loc 1 147 0
 290 002a 0220     		movs	r0, #2
 291 002c FFF7FEFF 		bl	chSysIntegrityCheckI
 292              	.LVL13:
 293              	.LBB444:
 294              	.LBB445:
 295              	.LBB446:
 296              	.LBB447:
 297              	.LBB448:
 298              		.loc 2 548 0
 299              	@ 548 "/home/peter/ChibiOS_16.1.4/os/ext/CMSIS/include/core_cmFunc.h" 1
 300 0030 85F31188 		MSR basepri, r5
 301              	@ 0 "" 2
 302              		.thumb
 303              	.LBE448:
 304              	.LBE447:
 305              	.LBE446:
 306              	.LBE445:
 307              	.LBE444:
 308              		.loc 1 149 0
 309 0034 80F00101 		eor	r1, r0, #1
 310 0038 C9B2     		uxtb	r1, r1
 311 003a 0220     		movs	r0, #2
 312              	.LVL14:
 313 003c FFF7FEFF 		bl	_test_assert
 314              	.LVL15:
 315 0040 0546     		mov	r5, r0
 316 0042 0028     		cmp	r0, #0
 317 0044 EED1     		bne	.L4
 318              	.LVL16:
 319              	.LBB449:
 320              	.LBB450:
 321              	.LBB451:
 322              	.LBB452:
 323              		.loc 2 548 0
 324              	@ 548 "/home/peter/ChibiOS_16.1.4/os/ext/CMSIS/include/core_cmFunc.h" 1
 325 0046 84F31188 		MSR basepri, r4
 326              	@ 0 "" 2
 327              		.thumb
 328              	.LBE452:
 329              	.LBE451:
 330              	.LBE450:
 331              	.LBE449:
 332              		.loc 1 152 0
 333 004a 0420     		movs	r0, #4
 334 004c FFF7FEFF 		bl	chSysIntegrityCheckI
 335              	.LVL17:
 336              	.LBB453:
 337              	.LBB454:
 338              	.LBB455:
 339              	.LBB456:
 340              	.LBB457:
 341              		.loc 2 548 0
ARM GAS  /tmp/ccAMQp6n.s 			page 7


 342              	@ 548 "/home/peter/ChibiOS_16.1.4/os/ext/CMSIS/include/core_cmFunc.h" 1
 343 0050 85F31188 		MSR basepri, r5
 344              	@ 0 "" 2
 345              		.thumb
 346              	.LBE457:
 347              	.LBE456:
 348              	.LBE455:
 349              	.LBE454:
 350              	.LBE453:
 351              		.loc 1 154 0
 352 0054 80F00101 		eor	r1, r0, #1
 353 0058 C9B2     		uxtb	r1, r1
 354 005a 0320     		movs	r0, #3
 355              	.LVL18:
 356 005c FFF7FEFF 		bl	_test_assert
 357              	.LVL19:
 358 0060 0546     		mov	r5, r0
 359 0062 0028     		cmp	r0, #0
 360 0064 DED1     		bne	.L4
 361              	.LVL20:
 362              	.LBB458:
 363              	.LBB459:
 364              	.LBB460:
 365              	.LBB461:
 366              	.LBB462:
 367              	.LBB463:
 368              		.loc 2 548 0
 369              	@ 548 "/home/peter/ChibiOS_16.1.4/os/ext/CMSIS/include/core_cmFunc.h" 1
 370 0066 84F31188 		MSR basepri, r4
 371              	@ 0 "" 2
 372              		.thumb
 373              	.LBE463:
 374              	.LBE462:
 375              	.LBE461:
 376              	.LBE460:
 377              		.loc 1 157 0
 378 006a 0820     		movs	r0, #8
 379 006c FFF7FEFF 		bl	chSysIntegrityCheckI
 380              	.LVL21:
 381              	.LBB464:
 382              	.LBB465:
 383              	.LBB466:
 384              	.LBB467:
 385              	.LBB468:
 386              		.loc 2 548 0
 387              	@ 548 "/home/peter/ChibiOS_16.1.4/os/ext/CMSIS/include/core_cmFunc.h" 1
 388 0070 85F31188 		MSR basepri, r5
 389              	@ 0 "" 2
 390              		.thumb
 391              	.LBE468:
 392              	.LBE467:
 393              	.LBE466:
 394              	.LBE465:
 395              	.LBE464:
 396              	.LBE459:
 397              	.LBE458:
 398              		.loc 1 160 0
ARM GAS  /tmp/ccAMQp6n.s 			page 8


 399 0074 BDE83840 		pop	{r3, r4, r5, lr}
 400              		.cfi_restore 14
 401              		.cfi_restore 5
 402              		.cfi_restore 4
 403              		.cfi_restore 3
 404              		.cfi_def_cfa_offset 0
 405              	.LBB470:
 406              	.LBB469:
 407              		.loc 1 159 0
 408 0078 80F00101 		eor	r1, r0, #1
 409 007c C9B2     		uxtb	r1, r1
 410 007e 0420     		movs	r0, #4
 411              	.LVL22:
 412 0080 FFF7FEBF 		b	_test_assert
 413              	.LVL23:
 414              	.LBE469:
 415              	.LBE470:
 416              		.cfi_endproc
 417              	.LFE173:
 418              		.size	sys3_execute, .-sys3_execute
 419 0084 AFF30080 		.section	.text.sys1_execute,"ax",%progbits
 419      AFF30080 
 419      AFF30080 
 420              		.align	2
 421              		.p2align 4,,15
 422              		.thumb
 423              		.thumb_func
 424              		.type	sys1_execute, %function
 425              	sys1_execute:
 426              	.LFB171:
 427              		.loc 1 69 0
 428              		.cfi_startproc
 429              		@ args = 0, pretend = 0, frame = 24
 430              		@ frame_needed = 0, uses_anonymous_args = 0
 431 0000 10B5     		push	{r4, lr}
 432              		.cfi_def_cfa_offset 8
 433              		.cfi_offset 4, -8
 434              		.cfi_offset 14, -4
 435 0002 86B0     		sub	sp, sp, #24
 436              		.cfi_def_cfa_offset 32
 437              		.loc 1 74 0
 438 0004 FFF7FEFF 		bl	chSysGetStatusAndLockX
 439              	.LVL24:
 440              		.loc 1 75 0
 441 0008 FFF7FEFF 		bl	chSysRestoreStatusX
 442              	.LVL25:
 443              	.LBB561:
 444              	.LBB562:
 445              	.LBB563:
 446              	.LBB564:
 447              		.loc 2 548 0
 448 000c 2024     		movs	r4, #32
 449              	@ 548 "/home/peter/ChibiOS_16.1.4/os/ext/CMSIS/include/core_cmFunc.h" 1
 450 000e 84F31188 		MSR basepri, r4
 451              	@ 0 "" 2
 452              		.thumb
 453              	.LBE564:
ARM GAS  /tmp/ccAMQp6n.s 			page 9


 454              	.LBE563:
 455              	.LBE562:
 456              	.LBE561:
 457              		.loc 1 79 0
 458 0012 FFF7FEFF 		bl	chSysGetStatusAndLockX
 459              	.LVL26:
 460              		.loc 1 80 0
 461 0016 FFF7FEFF 		bl	chSysRestoreStatusX
 462              	.LVL27:
 463              	.LBB565:
 464              	.LBB566:
 465              	.LBB567:
 466              	.LBB568:
 467              	.LBB569:
 468              		.loc 2 548 0
 469 001a 0023     		movs	r3, #0
 470              	@ 548 "/home/peter/ChibiOS_16.1.4/os/ext/CMSIS/include/core_cmFunc.h" 1
 471 001c 83F31188 		MSR basepri, r3
 472              	@ 0 "" 2
 473              		.thumb
 474              	.LBE569:
 475              	.LBE568:
 476              	.LBE567:
 477              	.LBE566:
 478              	.LBE565:
 479              	.LBB570:
 480              	.LBB571:
 481              	.LBB572:
 482              	.LBB573:
 483              	.LBB574:
 484              	.LBB575:
 485              		.loc 2 535 0
 486              	@ 535 "/home/peter/ChibiOS_16.1.4/os/ext/CMSIS/include/core_cmFunc.h" 1
 487 0020 EFF31183 		MRS r3, basepri
 488              	@ 0 "" 2
 489              	.LVL28:
 490              		.thumb
 491              	.LBE575:
 492              	.LBE574:
 493              	.LBE573:
 494              	.LBE572:
 495              		.file 3 "/home/peter/ChibiOS_16.1.4/os/rt/include/chsys.h"
 496              		.loc 3 422 0
 497 0024 0BB9     		cbnz	r3, .L12
 498              	.LVL29:
 499              	.LBB576:
 500              	.LBB577:
 501              	.LBB578:
 502              	.LBB579:
 503              		.loc 2 548 0
 504              	@ 548 "/home/peter/ChibiOS_16.1.4/os/ext/CMSIS/include/core_cmFunc.h" 1
 505 0026 84F31188 		MSR basepri, r4
 506              	@ 0 "" 2
 507              	.LVL30:
 508              		.thumb
 509              	.L12:
 510              	.LBE579:
ARM GAS  /tmp/ccAMQp6n.s 			page 10


 511              	.LBE578:
 512              	.LBE577:
 513              	.LBE576:
 514              	.LBE571:
 515              	.LBE570:
 516              	.LBB580:
 517              	.LBB581:
 518              	.LBB582:
 519              	.LBB583:
 520              	.LBB584:
 521              	.LBB585:
 522              		.loc 2 535 0
 523              	@ 535 "/home/peter/ChibiOS_16.1.4/os/ext/CMSIS/include/core_cmFunc.h" 1
 524 002a EFF31183 		MRS r3, basepri
 525              	@ 0 "" 2
 526              	.LVL31:
 527              		.thumb
 528              	.LBE585:
 529              	.LBE584:
 530              	.LBE583:
 531              	.LBE582:
 532              		.loc 3 422 0
 533 002e 13B9     		cbnz	r3, .L13
 534              	.LVL32:
 535              	.LBB586:
 536              	.LBB587:
 537              	.LBB588:
 538              	.LBB589:
 539              		.loc 2 548 0
 540 0030 2023     		movs	r3, #32
 541              	.LVL33:
 542              	@ 548 "/home/peter/ChibiOS_16.1.4/os/ext/CMSIS/include/core_cmFunc.h" 1
 543 0032 83F31188 		MSR basepri, r3
 544              	@ 0 "" 2
 545              	.LVL34:
 546              		.thumb
 547              	.L13:
 548              	.LBE589:
 549              	.LBE588:
 550              	.LBE587:
 551              	.LBE586:
 552              	.LBE581:
 553              	.LBE580:
 554              	.LBB590:
 555              	.LBB591:
 556              	.LBB592:
 557              	.LBB593:
 558              	.LBB594:
 559 0036 0023     		movs	r3, #0
 560              	@ 548 "/home/peter/ChibiOS_16.1.4/os/ext/CMSIS/include/core_cmFunc.h" 1
 561 0038 83F31188 		MSR basepri, r3
 562              	@ 0 "" 2
 563              	.LVL35:
 564              		.thumb
 565              	.LBE594:
 566              	.LBE593:
 567              	.LBE592:
ARM GAS  /tmp/ccAMQp6n.s 			page 11


 568              	.LBE591:
 569              	.LBE590:
 570              	.LBB595:
 571              	.LBB596:
 572              	.LBB597:
 573              	.LBB598:
 574 003c 2022     		movs	r2, #32
 575              	@ 548 "/home/peter/ChibiOS_16.1.4/os/ext/CMSIS/include/core_cmFunc.h" 1
 576 003e 82F31188 		MSR basepri, r2
 577              	@ 0 "" 2
 578              		.thumb
 579              	.LBE598:
 580              	.LBE597:
 581              	.LBE596:
 582              	.LBE595:
 583              	.LBB599:
 584              	.LBB600:
 585              	.LBB601:
 586              	.LBB602:
 587              	.LBB603:
 588              	.LBB604:
 589              		.loc 2 535 0
 590              	@ 535 "/home/peter/ChibiOS_16.1.4/os/ext/CMSIS/include/core_cmFunc.h" 1
 591 0042 EFF31182 		MRS r2, basepri
 592              	@ 0 "" 2
 593              	.LVL36:
 594              		.thumb
 595              	.LBE604:
 596              	.LBE603:
 597              	.LBE602:
 598              	.LBE601:
 599              		.loc 3 436 0
 600 0046 0AB1     		cbz	r2, .L14
 601              	.LVL37:
 602              	.LBB605:
 603              	.LBB606:
 604              	.LBB607:
 605              	.LBB608:
 606              	.LBB609:
 607              		.loc 2 548 0
 608              	@ 548 "/home/peter/ChibiOS_16.1.4/os/ext/CMSIS/include/core_cmFunc.h" 1
 609 0048 83F31188 		MSR basepri, r3
 610              	@ 0 "" 2
 611              	.LVL38:
 612              		.thumb
 613              	.L14:
 614              	.LBE609:
 615              	.LBE608:
 616              	.LBE607:
 617              	.LBE606:
 618              	.LBE605:
 619              	.LBE600:
 620              	.LBE599:
 621              	.LBB610:
 622              	.LBB611:
 623              	.LBB612:
 624              	.LBB613:
ARM GAS  /tmp/ccAMQp6n.s 			page 12


 625              	.LBB614:
 626              	.LBB615:
 627              		.loc 2 535 0
 628              	@ 535 "/home/peter/ChibiOS_16.1.4/os/ext/CMSIS/include/core_cmFunc.h" 1
 629 004c EFF31183 		MRS r3, basepri
 630              	@ 0 "" 2
 631              	.LVL39:
 632              		.thumb
 633              	.LBE615:
 634              	.LBE614:
 635              	.LBE613:
 636              	.LBE612:
 637              		.loc 3 436 0
 638 0050 13B1     		cbz	r3, .L15
 639              	.LVL40:
 640              	.LBB616:
 641              	.LBB617:
 642              	.LBB618:
 643              	.LBB619:
 644              	.LBB620:
 645              		.loc 2 548 0
 646 0052 0023     		movs	r3, #0
 647              	.LVL41:
 648              	@ 548 "/home/peter/ChibiOS_16.1.4/os/ext/CMSIS/include/core_cmFunc.h" 1
 649 0054 83F31188 		MSR basepri, r3
 650              	@ 0 "" 2
 651              	.LVL42:
 652              		.thumb
 653              	.L15:
 654              	.LBE620:
 655              	.LBE619:
 656              	.LBE618:
 657              	.LBE617:
 658              	.LBE616:
 659              	.LBE611:
 660              	.LBE610:
 661              	.LBB621:
 662              	.LBB622:
 663              		.file 4 "/home/peter/ChibiOS_16.1.4/os/rt/include/chvt.h"
 664              		.loc 4 212 0
 665 0058 0023     		movs	r3, #0
 666 005a 0493     		str	r3, [sp, #16]
 667              	.LVL43:
 668              	.LBE622:
 669              	.LBE621:
 670              	.LBB623:
 671              	.LBB624:
 672              	.LBB625:
 673              	.LBB626:
 674              	.LBB627:
 675              		.loc 2 548 0
 676 005c 2023     		movs	r3, #32
 677              	@ 548 "/home/peter/ChibiOS_16.1.4/os/ext/CMSIS/include/core_cmFunc.h" 1
 678 005e 83F31188 		MSR basepri, r3
 679              	@ 0 "" 2
 680              	.LVL44:
 681              		.thumb
ARM GAS  /tmp/ccAMQp6n.s 			page 13


 682              	.LBE627:
 683              	.LBE626:
 684              	.LBE625:
 685              	.LBE624:
 686              	.LBB628:
 687              	.LBB629:
 688              	.LBB630:
 689              	.LBB631:
 690              		.loc 4 412 0
 691 0062 049B     		ldr	r3, [sp, #16]
 692              		.loc 4 413 0
 693 0064 01AC     		add	r4, sp, #4
 694              	.LVL45:
 695              		.loc 4 412 0
 696 0066 13B1     		cbz	r3, .L16
 697              		.loc 4 413 0
 698 0068 2046     		mov	r0, r4
 699 006a FFF7FEFF 		bl	chVTDoResetI
 700              	.LVL46:
 701              	.L16:
 702              	.LBE631:
 703              	.LBE630:
 704              		.loc 4 460 0
 705 006e 2046     		mov	r0, r4
 706 0070 0121     		movs	r1, #1
 707 0072 0C4A     		ldr	r2, .L29
 708 0074 0023     		movs	r3, #0
 709 0076 FFF7FEFF 		bl	chVTDoSetI
 710              	.LVL47:
 711              	.LBE629:
 712              	.LBE628:
 713              	.LBB632:
 714              	.LBB633:
 715              	.LBB634:
 716              	.LBB635:
 717              	.LBB636:
 718              		.loc 2 548 0
 719 007a 0024     		movs	r4, #0
 720              	.LVL48:
 721              	@ 548 "/home/peter/ChibiOS_16.1.4/os/ext/CMSIS/include/core_cmFunc.h" 1
 722 007c 84F31188 		MSR basepri, r4
 723              	@ 0 "" 2
 724              		.thumb
 725              	.LBE636:
 726              	.LBE635:
 727              	.LBE634:
 728              	.LBE633:
 729              	.LBE632:
 730              	.LBE623:
 731              		.loc 1 96 0
 732 0080 0A20     		movs	r0, #10
 733 0082 FFF7FEFF 		bl	chThdSleep
 734              	.LVL49:
 735              	.LBB637:
 736              	.LBB638:
 737              	.LBB639:
 738              	.LBB640:
ARM GAS  /tmp/ccAMQp6n.s 			page 14


 739              	.LBB641:
 740              	.LBB642:
 741              		.loc 2 548 0
 742 0086 2023     		movs	r3, #32
 743              	@ 548 "/home/peter/ChibiOS_16.1.4/os/ext/CMSIS/include/core_cmFunc.h" 1
 744 0088 83F31188 		MSR basepri, r3
 745              	@ 0 "" 2
 746              		.thumb
 747 008c 0499     		ldr	r1, [sp, #16]
 748              	.LVL50:
 749              	.LBE642:
 750              	.LBE641:
 751              	.LBE640:
 752              	.LBE639:
 753              	.LBB643:
 754              	.LBB644:
 755              	.LBB645:
 756              	.LBB646:
 757              	.LBB647:
 758              	@ 548 "/home/peter/ChibiOS_16.1.4/os/ext/CMSIS/include/core_cmFunc.h" 1
 759 008e 84F31188 		MSR basepri, r4
 760              	@ 0 "" 2
 761              		.thumb
 762              	.LBE647:
 763              	.LBE646:
 764              	.LBE645:
 765              	.LBE644:
 766              	.LBE643:
 767              	.LBE638:
 768              	.LBE637:
 769              		.loc 1 98 0
 770 0092 B1FA81F1 		clz	r1, r1
 771 0096 0120     		movs	r0, #1
 772 0098 4909     		lsrs	r1, r1, #5
 773 009a FFF7FEFF 		bl	_test_assert
 774              	.LVL51:
 775              		.loc 1 99 0
 776 009e 06B0     		add	sp, sp, #24
 777              		.cfi_def_cfa_offset 8
 778              		@ sp needed
 779 00a0 10BD     		pop	{r4, pc}
 780              	.LVL52:
 781              	.L30:
 782 00a2 00BF     		.align	2
 783              	.L29:
 784 00a4 00000000 		.word	vtcb
 785              		.cfi_endproc
 786              	.LFE171:
 787              		.size	sys1_execute, .-sys1_execute
 788              		.global	patternsys
 789              		.global	testsys3
 790              		.global	testsys2
 791              		.global	testsys1
 792 00a8 AFF30080 		.section	.rodata.testsys1,"a",%progbits
 792      AFF30080 
 793              		.align	2
 794              		.type	testsys1, %object
ARM GAS  /tmp/ccAMQp6n.s 			page 15


 795              		.size	testsys1, 16
 796              	testsys1:
 797 0000 30000000 		.word	.LC2
 798 0004 00000000 		.word	0
 799 0008 00000000 		.word	0
 800 000c 00000000 		.word	sys1_execute
 801              		.section	.rodata.testsys2,"a",%progbits
 802              		.align	2
 803              		.type	testsys2, %object
 804              		.size	testsys2, 16
 805              	testsys2:
 806 0000 14000000 		.word	.LC1
 807 0004 00000000 		.word	0
 808 0008 00000000 		.word	0
 809 000c 00000000 		.word	sys2_execute
 810              		.section	.rodata.testsys3,"a",%progbits
 811              		.align	2
 812              		.type	testsys3, %object
 813              		.size	testsys3, 16
 814              	testsys3:
 815 0000 00000000 		.word	.LC0
 816 0004 00000000 		.word	0
 817 0008 00000000 		.word	0
 818 000c 00000000 		.word	sys3_execute
 819              		.section	.rodata.str1.4,"aMS",%progbits,1
 820              		.align	2
 821              	.LC0:
 822 0000 53797374 		.ascii	"System, integrity\000"
 822      656D2C20 
 822      696E7465 
 822      67726974 
 822      7900
 823 0012 0000     		.space	2
 824              	.LC1:
 825 0014 53797374 		.ascii	"System, interrupts handling\000"
 825      656D2C20 
 825      696E7465 
 825      72727570 
 825      74732068 
 826              	.LC2:
 827 0030 53797374 		.ascii	"System, critical zones\000"
 827      656D2C20 
 827      63726974 
 827      6963616C 
 827      207A6F6E 
 828 0047 00       		.section	.rodata.patternsys,"a",%progbits
 829              		.align	2
 830              		.type	patternsys, %object
 831              		.size	patternsys, 16
 832              	patternsys:
 833 0000 00000000 		.word	testsys1
 834 0004 00000000 		.word	testsys2
 835 0008 00000000 		.word	testsys3
 836 000c 00000000 		.word	0
 837              		.text
 838              	.Letext0:
 839              		.file 5 "/usr/lib/gcc/arm-none-eabi/4.9.3/include/stddef.h"
ARM GAS  /tmp/ccAMQp6n.s 			page 16


 840              		.file 6 "/usr/include/newlib/machine/_default_types.h"
 841              		.file 7 "/usr/include/newlib/stdint.h"
 842              		.file 8 "/home/peter/ChibiOS_16.1.4/os/rt/ports/ARMCMx/compilers/GCC/chtypes.h"
 843              		.file 9 "/home/peter/ChibiOS_16.1.4/os/rt/include/chsystypes.h"
 844              		.file 10 "/home/peter/ChibiOS_16.1.4/os/rt/include/chschd.h"
 845              		.file 11 "/home/peter/ChibiOS_16.1.4/os/rt/ports/ARMCMx/chcore.h"
 846              		.file 12 "/home/peter/ChibiOS_16.1.4/os/rt/ports/ARMCMx/chcore_v7m.h"
 847              		.file 13 "/home/peter/ChibiOS_16.1.4/os/rt/include/chtm.h"
 848              		.file 14 "/home/peter/ChibiOS_16.1.4/os/rt/include/chsem.h"
 849              		.file 15 "/home/peter/ChibiOS_16.1.4/os/rt/include/chmtx.h"
 850              		.file 16 "/home/peter/ChibiOS_16.1.4/test/rt/test.h"
 851              		.file 17 "/home/peter/ChibiOS_16.1.4/os/ext/CMSIS/include/core_cm3.h"
 852              		.file 18 "/home/peter/ChibiOS_16.1.4/os/rt/include/chthreads.h"