ARM GAS  /tmp/ccstjkpx.s 			page 1


   1              		.syntax unified
   2              		.cpu cortex-m3
   3              		.fpu softvfp
   4              		.eabi_attribute 20, 1
   5              		.eabi_attribute 21, 1
   6              		.eabi_attribute 23, 3
   7              		.eabi_attribute 24, 1
   8              		.eabi_attribute 25, 1
   9              		.eabi_attribute 26, 1
  10              		.eabi_attribute 30, 2
  11              		.eabi_attribute 34, 1
  12              		.eabi_attribute 18, 4
  13              		.thumb
  14              		.file	"testbmk.c"
  15              		.text
  16              	.Ltext0:
  17              		.cfi_sections	.debug_frame
  18              		.section	.text.tmo,"ax",%progbits
  19              		.align	2
  20              		.p2align 4,,15
  21              		.thumb
  22              		.thumb_func
  23              		.type	tmo, %function
  24              	tmo:
  25              	.LFB186:
  26              		.file 1 "/home/peter/ChibiOS_16.1.4/test/rt/testbmk.c"
  27              		.loc 1 505 0
  28              		.cfi_startproc
  29              		@ args = 0, pretend = 0, frame = 0
  30              		@ frame_needed = 0, uses_anonymous_args = 0
  31              		@ link register save eliminated.
  32              	.LVL0:
  33 0000 7047     		bx	lr
  34              		.cfi_endproc
  35              	.LFE186:
  36              		.size	tmo, .-tmo
  37 0002 00BFAFF3 		.section	.text.bmk13_execute,"ax",%progbits
  37      0080AFF3 
  37      0080AFF3 
  37      0080
  38              		.align	2
  39              		.p2align 4,,15
  40              		.thumb
  41              		.thumb_func
  42              		.type	bmk13_execute, %function
  43              	bmk13_execute:
  44              	.LFB192:
  45              		.loc 1 640 0
  46              		.cfi_startproc
  47              		@ args = 0, pretend = 0, frame = 0
  48              		@ frame_needed = 0, uses_anonymous_args = 0
  49              		.loc 1 640 0
  50 0000 10B5     		push	{r4, lr}
  51              		.cfi_def_cfa_offset 8
  52              		.cfi_offset 4, -8
  53              		.cfi_offset 14, -4
  54              		.loc 1 642 0
ARM GAS  /tmp/ccstjkpx.s 			page 2


  55 0002 2F48     		ldr	r0, .L4
  56              		.loc 1 644 0
  57 0004 2F4C     		ldr	r4, .L4+4
  58              		.loc 1 642 0
  59 0006 FFF7FEFF 		bl	test_print
  60              	.LVL1:
  61              		.loc 1 643 0
  62 000a 4FF4A870 		mov	r0, #336
  63 000e FFF7FEFF 		bl	test_printn
  64              	.LVL2:
  65              		.loc 1 644 0
  66 0012 2046     		mov	r0, r4
  67 0014 FFF7FEFF 		bl	test_println
  68              	.LVL3:
  69              		.loc 1 645 0
  70 0018 2B48     		ldr	r0, .L4+8
  71 001a FFF7FEFF 		bl	test_print
  72              	.LVL4:
  73              		.loc 1 646 0
  74 001e 4420     		movs	r0, #68
  75 0020 FFF7FEFF 		bl	test_printn
  76              	.LVL5:
  77              		.loc 1 647 0
  78 0024 2046     		mov	r0, r4
  79 0026 FFF7FEFF 		bl	test_println
  80              	.LVL6:
  81              		.loc 1 648 0
  82 002a 2848     		ldr	r0, .L4+12
  83 002c FFF7FEFF 		bl	test_print
  84              	.LVL7:
  85              		.loc 1 649 0
  86 0030 1420     		movs	r0, #20
  87 0032 FFF7FEFF 		bl	test_printn
  88              	.LVL8:
  89              		.loc 1 650 0
  90 0036 2046     		mov	r0, r4
  91 0038 FFF7FEFF 		bl	test_println
  92              	.LVL9:
  93              		.loc 1 652 0
  94 003c 2448     		ldr	r0, .L4+16
  95 003e FFF7FEFF 		bl	test_print
  96              	.LVL10:
  97              		.loc 1 653 0
  98 0042 0C20     		movs	r0, #12
  99 0044 FFF7FEFF 		bl	test_printn
 100              	.LVL11:
 101              		.loc 1 654 0
 102 0048 2046     		mov	r0, r4
 103 004a FFF7FEFF 		bl	test_println
 104              	.LVL12:
 105              		.loc 1 657 0
 106 004e 2148     		ldr	r0, .L4+20
 107 0050 FFF7FEFF 		bl	test_print
 108              	.LVL13:
 109              		.loc 1 658 0
 110 0054 0420     		movs	r0, #4
 111 0056 FFF7FEFF 		bl	test_printn
ARM GAS  /tmp/ccstjkpx.s 			page 3


 112              	.LVL14:
 113              		.loc 1 659 0
 114 005a 2046     		mov	r0, r4
 115 005c FFF7FEFF 		bl	test_println
 116              	.LVL15:
 117              		.loc 1 660 0
 118 0060 1D48     		ldr	r0, .L4+24
 119 0062 FFF7FEFF 		bl	test_print
 120              	.LVL16:
 121              		.loc 1 661 0
 122 0066 1420     		movs	r0, #20
 123 0068 FFF7FEFF 		bl	test_printn
 124              	.LVL17:
 125              		.loc 1 662 0
 126 006c 2046     		mov	r0, r4
 127 006e FFF7FEFF 		bl	test_println
 128              	.LVL18:
 129              		.loc 1 665 0
 130 0072 1A48     		ldr	r0, .L4+28
 131 0074 FFF7FEFF 		bl	test_print
 132              	.LVL19:
 133              		.loc 1 666 0
 134 0078 1020     		movs	r0, #16
 135 007a FFF7FEFF 		bl	test_printn
 136              	.LVL20:
 137              		.loc 1 667 0
 138 007e 2046     		mov	r0, r4
 139 0080 FFF7FEFF 		bl	test_println
 140              	.LVL21:
 141              		.loc 1 670 0
 142 0084 1648     		ldr	r0, .L4+32
 143 0086 FFF7FEFF 		bl	test_print
 144              	.LVL22:
 145              		.loc 1 671 0
 146 008a 0820     		movs	r0, #8
 147 008c FFF7FEFF 		bl	test_printn
 148              	.LVL23:
 149              		.loc 1 672 0
 150 0090 2046     		mov	r0, r4
 151 0092 FFF7FEFF 		bl	test_println
 152              	.LVL24:
 153              		.loc 1 675 0
 154 0096 1348     		ldr	r0, .L4+36
 155 0098 FFF7FEFF 		bl	test_print
 156              	.LVL25:
 157              		.loc 1 676 0
 158 009c 2420     		movs	r0, #36
 159 009e FFF7FEFF 		bl	test_printn
 160              	.LVL26:
 161              		.loc 1 677 0
 162 00a2 2046     		mov	r0, r4
 163 00a4 FFF7FEFF 		bl	test_println
 164              	.LVL27:
 165              		.loc 1 680 0
 166 00a8 0F48     		ldr	r0, .L4+40
 167 00aa FFF7FEFF 		bl	test_print
 168              	.LVL28:
ARM GAS  /tmp/ccstjkpx.s 			page 4


 169              		.loc 1 681 0
 170 00ae 2820     		movs	r0, #40
 171 00b0 FFF7FEFF 		bl	test_printn
 172              	.LVL29:
 173              		.loc 1 682 0
 174 00b4 2046     		mov	r0, r4
 175              		.loc 1 684 0
 176 00b6 BDE81040 		pop	{r4, lr}
 177              		.cfi_restore 14
 178              		.cfi_restore 4
 179              		.cfi_def_cfa_offset 0
 180              		.loc 1 682 0
 181 00ba FFF7FEBF 		b	test_println
 182              	.LVL30:
 183              	.L5:
 184 00be 00BF     		.align	2
 185              	.L4:
 186 00c0 00000000 		.word	.LC0
 187 00c4 10000000 		.word	.LC1
 188 00c8 18000000 		.word	.LC2
 189 00cc 28000000 		.word	.LC3
 190 00d0 38000000 		.word	.LC4
 191 00d4 48000000 		.word	.LC5
 192 00d8 58000000 		.word	.LC6
 193 00dc 68000000 		.word	.LC7
 194 00e0 78000000 		.word	.LC8
 195 00e4 88000000 		.word	.LC9
 196 00e8 98000000 		.word	.LC10
 197              		.cfi_endproc
 198              	.LFE192:
 199              		.size	bmk13_execute, .-bmk13_execute
 200 00ec AFF30080 		.section	.text.thread2,"ax",%progbits
 201              		.align	2
 202              		.p2align 4,,15
 203              		.thumb
 204              		.thumb_func
 205              		.type	thread2, %function
 206              	thread2:
 207              	.LFB171:
 208              		.loc 1 72 0
 209              		.cfi_startproc
 210              		@ args = 0, pretend = 0, frame = 0
 211              		@ frame_needed = 0, uses_anonymous_args = 0
 212              	.LVL31:
 213 0000 10B5     		push	{r4, lr}
 214              		.cfi_def_cfa_offset 8
 215              		.cfi_offset 4, -8
 216              		.cfi_offset 14, -4
 217              	.LVL32:
 218              	.L7:
 219              		.loc 1 78 0 discriminator 1
 220 0002 FFF7FEFF 		bl	chMsgWait
 221              	.LVL33:
 222 0006 046B     		ldr	r4, [r0, #48]
 223              	.LVL34:
 224              		.loc 1 80 0 discriminator 1
 225 0008 2146     		mov	r1, r4
ARM GAS  /tmp/ccstjkpx.s 			page 5


 226 000a FFF7FEFF 		bl	chMsgRelease
 227              	.LVL35:
 228              		.loc 1 81 0 discriminator 1
 229 000e 002C     		cmp	r4, #0
 230 0010 F7D1     		bne	.L7
 231              		.loc 1 82 0
 232 0012 10BD     		pop	{r4, pc}
 233              		.cfi_endproc
 234              	.LFE171:
 235              		.size	thread2, .-thread2
 236 0014 AFF30080 		.section	.text.bmk6_execute,"ax",%progbits
 236      AFF30080 
 236      AFF30080 
 237              		.align	2
 238              		.p2align 4,,15
 239              		.thumb
 240              		.thumb_func
 241              		.type	bmk6_execute, %function
 242              	bmk6_execute:
 243              	.LFB179:
 244              		.loc 1 307 0
 245              		.cfi_startproc
 246              		@ args = 0, pretend = 0, frame = 0
 247              		@ frame_needed = 0, uses_anonymous_args = 0
 248              	.LVL36:
 249 0000 2DE9F041 		push	{r4, r5, r6, r7, r8, lr}
 250              		.cfi_def_cfa_offset 24
 251              		.cfi_offset 4, -24
 252              		.cfi_offset 5, -20
 253              		.cfi_offset 6, -16
 254              		.cfi_offset 7, -12
 255              		.cfi_offset 8, -8
 256              		.cfi_offset 14, -4
 257              	.LBB168:
 258              	.LBB169:
 259              	.LBB170:
 260              	.LBB171:
 261              		.file 2 "/home/peter/ChibiOS_16.1.4/os/rt/include/chthreads.h"
 262              		.loc 2 176 0
 263 0004 144B     		ldr	r3, .L16
 264              	.LBE171:
 265              	.LBE170:
 266              	.LBE169:
 267              	.LBE168:
 268              		.loc 1 310 0
 269 0006 154A     		ldr	r2, .L16+4
 270              	.LBB173:
 271              	.LBB172:
 272              		.loc 2 189 0
 273 0008 9B69     		ldr	r3, [r3, #24]
 274              	.LBE172:
 275              	.LBE173:
 276              		.loc 1 307 0
 277 000a 82B0     		sub	sp, sp, #8
 278              		.cfi_def_cfa_offset 32
 279              		.loc 1 311 0
 280 000c 9D68     		ldr	r5, [r3, #8]
ARM GAS  /tmp/ccstjkpx.s 			page 6


 281              		.loc 1 310 0
 282 000e D2F80080 		ldr	r8, [r2]
 283              	.LVL37:
 284              		.loc 1 309 0
 285 0012 0024     		movs	r4, #0
 286              		.loc 1 312 0
 287 0014 FFF7FEFF 		bl	test_wait_tick
 288              	.LVL38:
 289              		.loc 1 313 0
 290 0018 4FF47A70 		mov	r0, #1000
 291 001c FFF7FEFF 		bl	test_start_timer
 292              	.LVL39:
 293              		.loc 1 315 0
 294 0020 2746     		mov	r7, r4
 295 0022 0F4E     		ldr	r6, .L16+8
 296              		.loc 1 311 0
 297 0024 0135     		adds	r5, r5, #1
 298              	.LVL40:
 299              	.L12:
 300              		.loc 1 315 0 discriminator 1
 301 0026 0F4B     		ldr	r3, .L16+12
 302 0028 0097     		str	r7, [sp]
 303 002a 4046     		mov	r0, r8
 304 002c 4FF4A471 		mov	r1, #328
 305 0030 2A46     		mov	r2, r5
 306 0032 FFF7FEFF 		bl	chThdCreateStatic
 307              	.LVL41:
 308              		.loc 1 320 0 discriminator 1
 309 0036 3378     		ldrb	r3, [r6]	@ zero_extendqisi2
 310              		.loc 1 316 0 discriminator 1
 311 0038 0134     		adds	r4, r4, #1
 312              	.LVL42:
 313              		.loc 1 320 0 discriminator 1
 314 003a 002B     		cmp	r3, #0
 315 003c F3D0     		beq	.L12
 316              		.loc 1 321 0
 317 003e 0A48     		ldr	r0, .L16+16
 318 0040 FFF7FEFF 		bl	test_print
 319              	.LVL43:
 320              		.loc 1 322 0
 321 0044 2046     		mov	r0, r4
 322 0046 FFF7FEFF 		bl	test_printn
 323              	.LVL44:
 324              		.loc 1 323 0
 325 004a 0848     		ldr	r0, .L16+20
 326              		.loc 1 324 0
 327 004c 02B0     		add	sp, sp, #8
 328              		.cfi_def_cfa_offset 24
 329              		@ sp needed
 330 004e BDE8F041 		pop	{r4, r5, r6, r7, r8, lr}
 331              		.cfi_restore 14
 332              		.cfi_restore 8
 333              		.cfi_restore 7
 334              		.cfi_restore 6
 335              		.cfi_restore 5
 336              		.cfi_restore 4
 337              		.cfi_def_cfa_offset 0
ARM GAS  /tmp/ccstjkpx.s 			page 7


 338              	.LVL45:
 339              		.loc 1 323 0
 340 0052 FFF7FEBF 		b	test_println
 341              	.LVL46:
 342              	.L17:
 343 0056 00BF     		.align	2
 344              	.L16:
 345 0058 00000000 		.word	ch
 346 005c 00000000 		.word	wa
 347 0060 00000000 		.word	test_timer_done
 348 0064 00000000 		.word	thread1
 349 0068 A8000000 		.word	.LC11
 350 006c B8000000 		.word	.LC12
 351              		.cfi_endproc
 352              	.LFE179:
 353              		.size	bmk6_execute, .-bmk6_execute
 354              		.section	.text.msg_loop_test,"ax",%progbits
 355              		.align	2
 356              		.p2align 4,,15
 357              		.thumb
 358              		.thumb_func
 359              		.type	msg_loop_test, %function
 360              	msg_loop_test:
 361              	.LFB172:
 362              		.loc 1 87 0
 363              		.cfi_startproc
 364              		@ args = 0, pretend = 0, frame = 0
 365              		@ frame_needed = 0, uses_anonymous_args = 0
 366              	.LVL47:
 367 0000 70B5     		push	{r4, r5, r6, lr}
 368              		.cfi_def_cfa_offset 16
 369              		.cfi_offset 4, -16
 370              		.cfi_offset 5, -12
 371              		.cfi_offset 6, -8
 372              		.cfi_offset 14, -4
 373              		.loc 1 87 0
 374 0002 0546     		mov	r5, r0
 375              		.loc 1 90 0
 376 0004 FFF7FEFF 		bl	test_wait_tick
 377              	.LVL48:
 378              		.loc 1 91 0
 379 0008 4FF47A70 		mov	r0, #1000
 380 000c FFF7FEFF 		bl	test_start_timer
 381              	.LVL49:
 382 0010 074E     		ldr	r6, .L23
 383              		.loc 1 89 0
 384 0012 0024     		movs	r4, #0
 385              	.LVL50:
 386              	.L19:
 387              		.loc 1 93 0 discriminator 1
 388 0014 2846     		mov	r0, r5
 389 0016 0121     		movs	r1, #1
 390 0018 FFF7FEFF 		bl	chMsgSend
 391              	.LVL51:
 392              		.loc 1 98 0 discriminator 1
 393 001c 3378     		ldrb	r3, [r6]	@ zero_extendqisi2
 394              		.loc 1 94 0 discriminator 1
ARM GAS  /tmp/ccstjkpx.s 			page 8


 395 001e 0134     		adds	r4, r4, #1
 396              	.LVL52:
 397              		.loc 1 98 0 discriminator 1
 398 0020 002B     		cmp	r3, #0
 399 0022 F7D0     		beq	.L19
 400              		.loc 1 99 0
 401 0024 2846     		mov	r0, r5
 402 0026 0021     		movs	r1, #0
 403 0028 FFF7FEFF 		bl	chMsgSend
 404              	.LVL53:
 405              		.loc 1 101 0
 406 002c 2046     		mov	r0, r4
 407 002e 70BD     		pop	{r4, r5, r6, pc}
 408              	.LVL54:
 409              	.L24:
 410              		.align	2
 411              	.L23:
 412 0030 00000000 		.word	test_timer_done
 413              		.cfi_endproc
 414              	.LFE172:
 415              		.size	msg_loop_test, .-msg_loop_test
 416 0034 AFF30080 		.section	.text.bmk1_execute,"ax",%progbits
 416      AFF30080 
 416      AFF30080 
 417              		.align	2
 418              		.p2align 4,,15
 419              		.thumb
 420              		.thumb_func
 421              		.type	bmk1_execute, %function
 422              	bmk1_execute:
 423              	.LFB173:
 424              		.loc 1 112 0
 425              		.cfi_startproc
 426              		@ args = 0, pretend = 0, frame = 0
 427              		@ frame_needed = 0, uses_anonymous_args = 0
 428 0000 10B5     		push	{r4, lr}
 429              		.cfi_def_cfa_offset 8
 430              		.cfi_offset 4, -8
 431              		.cfi_offset 14, -4
 432              	.LBB174:
 433              	.LBB175:
 434              	.LBB176:
 435              	.LBB177:
 436              		.loc 2 176 0
 437 0002 134B     		ldr	r3, .L27
 438              	.LBE177:
 439              	.LBE176:
 440              	.LBE175:
 441              	.LBE174:
 442              		.loc 1 115 0
 443 0004 134A     		ldr	r2, .L27+4
 444              	.LBB179:
 445              	.LBB178:
 446              		.loc 2 189 0
 447 0006 9B69     		ldr	r3, [r3, #24]
 448              	.LBE178:
 449              	.LBE179:
ARM GAS  /tmp/ccstjkpx.s 			page 9


 450              		.loc 1 115 0
 451 0008 1068     		ldr	r0, [r2]
 452 000a 9A68     		ldr	r2, [r3, #8]
 453              		.loc 1 112 0
 454 000c 82B0     		sub	sp, sp, #8
 455              		.cfi_def_cfa_offset 16
 456              		.loc 1 115 0
 457 000e 0023     		movs	r3, #0
 458 0010 013A     		subs	r2, r2, #1
 459 0012 4FF4A471 		mov	r1, #328
 460 0016 0093     		str	r3, [sp]
 461 0018 0F4B     		ldr	r3, .L27+8
 462 001a FFF7FEFF 		bl	chThdCreateStatic
 463              	.LVL55:
 464 001e 0F4B     		ldr	r3, .L27+12
 465 0020 1860     		str	r0, [r3]
 466              		.loc 1 116 0
 467 0022 FFF7FEFF 		bl	msg_loop_test
 468              	.LVL56:
 469 0026 0446     		mov	r4, r0
 470              	.LVL57:
 471              		.loc 1 117 0
 472 0028 FFF7FEFF 		bl	test_wait_threads
 473              	.LVL58:
 474              		.loc 1 118 0
 475 002c 0C48     		ldr	r0, .L27+16
 476 002e FFF7FEFF 		bl	test_print
 477              	.LVL59:
 478              		.loc 1 119 0
 479 0032 2046     		mov	r0, r4
 480 0034 FFF7FEFF 		bl	test_printn
 481              	.LVL60:
 482              		.loc 1 120 0
 483 0038 0A48     		ldr	r0, .L27+20
 484 003a FFF7FEFF 		bl	test_print
 485              	.LVL61:
 486              		.loc 1 121 0
 487 003e 6000     		lsls	r0, r4, #1
 488 0040 FFF7FEFF 		bl	test_printn
 489              	.LVL62:
 490              		.loc 1 122 0
 491 0044 0848     		ldr	r0, .L27+24
 492              		.loc 1 123 0
 493 0046 02B0     		add	sp, sp, #8
 494              		.cfi_def_cfa_offset 8
 495              		@ sp needed
 496 0048 BDE81040 		pop	{r4, lr}
 497              		.cfi_restore 14
 498              		.cfi_restore 4
 499              		.cfi_def_cfa_offset 0
 500              	.LVL63:
 501              		.loc 1 122 0
 502 004c FFF7FEBF 		b	test_println
 503              	.LVL64:
 504              	.L28:
 505              		.align	2
 506              	.L27:
ARM GAS  /tmp/ccstjkpx.s 			page 10


 507 0050 00000000 		.word	ch
 508 0054 00000000 		.word	wa
 509 0058 00000000 		.word	thread2
 510 005c 00000000 		.word	threads
 511 0060 A8000000 		.word	.LC11
 512 0064 C4000000 		.word	.LC13
 513 0068 D0000000 		.word	.LC14
 514              		.cfi_endproc
 515              	.LFE173:
 516              		.size	bmk1_execute, .-bmk1_execute
 517 006c AFF30080 		.section	.text.bmk2_execute,"ax",%progbits
 518              		.align	2
 519              		.p2align 4,,15
 520              		.thumb
 521              		.thumb_func
 522              		.type	bmk2_execute, %function
 523              	bmk2_execute:
 524              	.LFB174:
 525              		.loc 1 141 0
 526              		.cfi_startproc
 527              		@ args = 0, pretend = 0, frame = 0
 528              		@ frame_needed = 0, uses_anonymous_args = 0
 529 0000 10B5     		push	{r4, lr}
 530              		.cfi_def_cfa_offset 8
 531              		.cfi_offset 4, -8
 532              		.cfi_offset 14, -4
 533              	.LBB180:
 534              	.LBB181:
 535              	.LBB182:
 536              	.LBB183:
 537              		.loc 2 176 0
 538 0002 134B     		ldr	r3, .L31
 539              	.LBE183:
 540              	.LBE182:
 541              	.LBE181:
 542              	.LBE180:
 543              		.loc 1 144 0
 544 0004 134A     		ldr	r2, .L31+4
 545              	.LBB185:
 546              	.LBB184:
 547              		.loc 2 189 0
 548 0006 9B69     		ldr	r3, [r3, #24]
 549              	.LBE184:
 550              	.LBE185:
 551              		.loc 1 144 0
 552 0008 1068     		ldr	r0, [r2]
 553 000a 9A68     		ldr	r2, [r3, #8]
 554              		.loc 1 141 0
 555 000c 82B0     		sub	sp, sp, #8
 556              		.cfi_def_cfa_offset 16
 557              		.loc 1 144 0
 558 000e 0023     		movs	r3, #0
 559 0010 0132     		adds	r2, r2, #1
 560 0012 4FF4A471 		mov	r1, #328
 561 0016 0093     		str	r3, [sp]
 562 0018 0F4B     		ldr	r3, .L31+8
 563 001a FFF7FEFF 		bl	chThdCreateStatic
ARM GAS  /tmp/ccstjkpx.s 			page 11


 564              	.LVL65:
 565 001e 0F4B     		ldr	r3, .L31+12
 566 0020 1860     		str	r0, [r3]
 567              		.loc 1 145 0
 568 0022 FFF7FEFF 		bl	msg_loop_test
 569              	.LVL66:
 570 0026 0446     		mov	r4, r0
 571              	.LVL67:
 572              		.loc 1 146 0
 573 0028 FFF7FEFF 		bl	test_wait_threads
 574              	.LVL68:
 575              		.loc 1 147 0
 576 002c 0C48     		ldr	r0, .L31+16
 577 002e FFF7FEFF 		bl	test_print
 578              	.LVL69:
 579              		.loc 1 148 0
 580 0032 2046     		mov	r0, r4
 581 0034 FFF7FEFF 		bl	test_printn
 582              	.LVL70:
 583              		.loc 1 149 0
 584 0038 0A48     		ldr	r0, .L31+20
 585 003a FFF7FEFF 		bl	test_print
 586              	.LVL71:
 587              		.loc 1 150 0
 588 003e 6000     		lsls	r0, r4, #1
 589 0040 FFF7FEFF 		bl	test_printn
 590              	.LVL72:
 591              		.loc 1 151 0
 592 0044 0848     		ldr	r0, .L31+24
 593              		.loc 1 152 0
 594 0046 02B0     		add	sp, sp, #8
 595              		.cfi_def_cfa_offset 8
 596              		@ sp needed
 597 0048 BDE81040 		pop	{r4, lr}
 598              		.cfi_restore 14
 599              		.cfi_restore 4
 600              		.cfi_def_cfa_offset 0
 601              	.LVL73:
 602              		.loc 1 151 0
 603 004c FFF7FEBF 		b	test_println
 604              	.LVL74:
 605              	.L32:
 606              		.align	2
 607              	.L31:
 608 0050 00000000 		.word	ch
 609 0054 00000000 		.word	wa
 610 0058 00000000 		.word	thread2
 611 005c 00000000 		.word	threads
 612 0060 A8000000 		.word	.LC11
 613 0064 C4000000 		.word	.LC13
 614 0068 D0000000 		.word	.LC14
 615              		.cfi_endproc
 616              	.LFE174:
 617              		.size	bmk2_execute, .-bmk2_execute
 618 006c AFF30080 		.section	.text.bmk3_execute,"ax",%progbits
 619              		.align	2
 620              		.p2align 4,,15
ARM GAS  /tmp/ccstjkpx.s 			page 12


 621              		.thumb
 622              		.thumb_func
 623              		.type	bmk3_execute, %function
 624              	bmk3_execute:
 625              	.LFB175:
 626              		.loc 1 171 0
 627              		.cfi_startproc
 628              		@ args = 0, pretend = 0, frame = 0
 629              		@ frame_needed = 0, uses_anonymous_args = 0
 630 0000 2DE9F041 		push	{r4, r5, r6, r7, r8, lr}
 631              		.cfi_def_cfa_offset 24
 632              		.cfi_offset 4, -24
 633              		.cfi_offset 5, -20
 634              		.cfi_offset 6, -16
 635              		.cfi_offset 7, -12
 636              		.cfi_offset 8, -8
 637              		.cfi_offset 14, -4
 638              	.LBB186:
 639              	.LBB187:
 640              	.LBB188:
 641              	.LBB189:
 642              		.loc 2 176 0
 643 0004 2C4F     		ldr	r7, .L35
 644              	.LBE189:
 645              	.LBE188:
 646              	.LBE187:
 647              	.LBE186:
 648              		.loc 1 174 0
 649 0006 2D4E     		ldr	r6, .L35+4
 650              	.LBB191:
 651              	.LBB190:
 652              		.loc 2 189 0
 653 0008 BB69     		ldr	r3, [r7, #24]
 654              	.LBE190:
 655              	.LBE191:
 656              		.loc 1 171 0
 657 000a 82B0     		sub	sp, sp, #8
 658              		.cfi_def_cfa_offset 32
 659              		.loc 1 174 0
 660 000c 9A68     		ldr	r2, [r3, #8]
 661 000e 0025     		movs	r5, #0
 662 0010 3068     		ldr	r0, [r6]
 663 0012 0132     		adds	r2, r2, #1
 664 0014 0095     		str	r5, [sp]
 665 0016 4FF4A471 		mov	r1, #328
 666 001a 294B     		ldr	r3, .L35+8
 667 001c FFF7FEFF 		bl	chThdCreateStatic
 668              	.LVL75:
 669              	.LBB192:
 670              	.LBB193:
 671              		.loc 2 189 0
 672 0020 BB69     		ldr	r3, [r7, #24]
 673              	.LBE193:
 674              	.LBE192:
 675              		.loc 1 174 0
 676 0022 284C     		ldr	r4, .L35+12
 677              		.loc 1 175 0
ARM GAS  /tmp/ccstjkpx.s 			page 13


 678 0024 9A68     		ldr	r2, [r3, #8]
 679 0026 DFF8AC80 		ldr	r8, .L35+28
 680 002a 7368     		ldr	r3, [r6, #4]
 681              		.loc 1 174 0
 682 002c 2060     		str	r0, [r4]
 683              		.loc 1 175 0
 684 002e 023A     		subs	r2, r2, #2
 685 0030 0095     		str	r5, [sp]
 686 0032 1846     		mov	r0, r3
 687 0034 4FF4A471 		mov	r1, #328
 688 0038 4346     		mov	r3, r8
 689 003a FFF7FEFF 		bl	chThdCreateStatic
 690              	.LVL76:
 691              	.LBB194:
 692              	.LBB195:
 693              		.loc 2 189 0
 694 003e BA69     		ldr	r2, [r7, #24]
 695              	.LBE195:
 696              	.LBE194:
 697              		.loc 1 176 0
 698 0040 B368     		ldr	r3, [r6, #8]
 699 0042 9268     		ldr	r2, [r2, #8]
 700 0044 4FF4A471 		mov	r1, #328
 701              		.loc 1 175 0
 702 0048 6060     		str	r0, [r4, #4]
 703              		.loc 1 176 0
 704 004a 033A     		subs	r2, r2, #3
 705 004c 0095     		str	r5, [sp]
 706 004e 1846     		mov	r0, r3
 707 0050 4346     		mov	r3, r8
 708 0052 FFF7FEFF 		bl	chThdCreateStatic
 709              	.LVL77:
 710              	.LBB196:
 711              	.LBB197:
 712              		.loc 2 189 0
 713 0056 BA69     		ldr	r2, [r7, #24]
 714              	.LBE197:
 715              	.LBE196:
 716              		.loc 1 177 0
 717 0058 F368     		ldr	r3, [r6, #12]
 718 005a 9268     		ldr	r2, [r2, #8]
 719 005c 4FF4A471 		mov	r1, #328
 720              		.loc 1 176 0
 721 0060 A060     		str	r0, [r4, #8]
 722              		.loc 1 177 0
 723 0062 043A     		subs	r2, r2, #4
 724 0064 0095     		str	r5, [sp]
 725 0066 1846     		mov	r0, r3
 726 0068 4346     		mov	r3, r8
 727 006a FFF7FEFF 		bl	chThdCreateStatic
 728              	.LVL78:
 729              	.LBB198:
 730              	.LBB199:
 731              		.loc 2 189 0
 732 006e BA69     		ldr	r2, [r7, #24]
 733              	.LBE199:
 734              	.LBE198:
ARM GAS  /tmp/ccstjkpx.s 			page 14


 735              		.loc 1 178 0
 736 0070 3369     		ldr	r3, [r6, #16]
 737 0072 9268     		ldr	r2, [r2, #8]
 738 0074 4FF4A471 		mov	r1, #328
 739 0078 053A     		subs	r2, r2, #5
 740              		.loc 1 177 0
 741 007a E060     		str	r0, [r4, #12]
 742              		.loc 1 178 0
 743 007c 1846     		mov	r0, r3
 744 007e 0095     		str	r5, [sp]
 745 0080 4346     		mov	r3, r8
 746 0082 FFF7FEFF 		bl	chThdCreateStatic
 747              	.LVL79:
 748 0086 2061     		str	r0, [r4, #16]
 749              		.loc 1 179 0
 750 0088 2068     		ldr	r0, [r4]
 751 008a FFF7FEFF 		bl	msg_loop_test
 752              	.LVL80:
 753 008e 0446     		mov	r4, r0
 754              	.LVL81:
 755              		.loc 1 180 0
 756 0090 FFF7FEFF 		bl	test_wait_threads
 757              	.LVL82:
 758              		.loc 1 181 0
 759 0094 0C48     		ldr	r0, .L35+16
 760 0096 FFF7FEFF 		bl	test_print
 761              	.LVL83:
 762              		.loc 1 182 0
 763 009a 2046     		mov	r0, r4
 764 009c FFF7FEFF 		bl	test_printn
 765              	.LVL84:
 766              		.loc 1 183 0
 767 00a0 0A48     		ldr	r0, .L35+20
 768 00a2 FFF7FEFF 		bl	test_print
 769              	.LVL85:
 770              		.loc 1 184 0
 771 00a6 6000     		lsls	r0, r4, #1
 772 00a8 FFF7FEFF 		bl	test_printn
 773              	.LVL86:
 774              		.loc 1 185 0
 775 00ac 0848     		ldr	r0, .L35+24
 776              		.loc 1 186 0
 777 00ae 02B0     		add	sp, sp, #8
 778              		.cfi_def_cfa_offset 24
 779              		@ sp needed
 780 00b0 BDE8F041 		pop	{r4, r5, r6, r7, r8, lr}
 781              		.cfi_restore 14
 782              		.cfi_restore 8
 783              		.cfi_restore 7
 784              		.cfi_restore 6
 785              		.cfi_restore 5
 786              		.cfi_restore 4
 787              		.cfi_def_cfa_offset 0
 788              	.LVL87:
 789              		.loc 1 185 0
 790 00b4 FFF7FEBF 		b	test_println
 791              	.LVL88:
ARM GAS  /tmp/ccstjkpx.s 			page 15


 792              	.L36:
 793              		.align	2
 794              	.L35:
 795 00b8 00000000 		.word	ch
 796 00bc 00000000 		.word	wa
 797 00c0 00000000 		.word	thread2
 798 00c4 00000000 		.word	threads
 799 00c8 A8000000 		.word	.LC11
 800 00cc C4000000 		.word	.LC13
 801 00d0 D0000000 		.word	.LC14
 802 00d4 00000000 		.word	thread1
 803              		.cfi_endproc
 804              	.LFE175:
 805              		.size	bmk3_execute, .-bmk3_execute
 806 00d8 AFF30080 		.section	.text.thread1,"ax",%progbits
 806      AFF30080 
 807              		.align	2
 808              		.p2align 4,,15
 809              		.thumb
 810              		.thumb_func
 811              		.type	thread1, %function
 812              	thread1:
 813              	.LFB170:
 814              		.loc 1 66 0
 815              		.cfi_startproc
 816              		@ args = 0, pretend = 0, frame = 0
 817              		@ frame_needed = 0, uses_anonymous_args = 0
 818              		@ link register save eliminated.
 819              	.LVL89:
 820              		.loc 1 68 0
 821 0000 FFF7FEBF 		b	chThdExit
 822              	.LVL90:
 823              		.cfi_endproc
 824              	.LFE170:
 825              		.size	thread1, .-thread1
 826 0004 AFF30080 		.section	.text.bmk4_execute,"ax",%progbits
 826      AFF30080 
 826      AFF30080 
 827              		.align	2
 828              		.p2align 4,,15
 829              		.thumb
 830              		.thumb_func
 831              		.type	bmk4_execute, %function
 832              	bmk4_execute:
 833              	.LFB177:
 834              		.loc 1 219 0
 835              		.cfi_startproc
 836              		@ args = 0, pretend = 0, frame = 0
 837              		@ frame_needed = 0, uses_anonymous_args = 0
 838 0000 2DE9F047 		push	{r4, r5, r6, r7, r8, r9, r10, lr}
 839              		.cfi_def_cfa_offset 32
 840              		.cfi_offset 4, -32
 841              		.cfi_offset 5, -28
 842              		.cfi_offset 6, -24
 843              		.cfi_offset 7, -20
 844              		.cfi_offset 8, -16
 845              		.cfi_offset 9, -12
ARM GAS  /tmp/ccstjkpx.s 			page 16


 846              		.cfi_offset 10, -8
 847              		.cfi_offset 14, -4
 848              	.LBB200:
 849              	.LBB201:
 850              	.LBB202:
 851              	.LBB203:
 852              		.loc 2 176 0
 853 0004 264B     		ldr	r3, .L43
 854              	.LBE203:
 855              	.LBE202:
 856              	.LBE201:
 857              	.LBE200:
 858              		.loc 1 223 0
 859 0006 274A     		ldr	r2, .L43+4
 860              	.LBB205:
 861              	.LBB204:
 862              		.loc 2 189 0
 863 0008 9B69     		ldr	r3, [r3, #24]
 864              	.LBE204:
 865              	.LBE205:
 866              		.loc 1 223 0
 867 000a 1068     		ldr	r0, [r2]
 868 000c 9A68     		ldr	r2, [r3, #8]
 869              		.loc 1 219 0
 870 000e 82B0     		sub	sp, sp, #8
 871              		.cfi_def_cfa_offset 40
 872              		.loc 1 223 0
 873 0010 0025     		movs	r5, #0
 874 0012 0132     		adds	r2, r2, #1
 875 0014 4FF4A471 		mov	r1, #328
 876 0018 234B     		ldr	r3, .L43+8
 877 001a 0095     		str	r5, [sp]
 878 001c FFF7FEFF 		bl	chThdCreateStatic
 879              	.LVL91:
 880 0020 224B     		ldr	r3, .L43+12
 881 0022 0446     		mov	r4, r0
 882 0024 1860     		str	r0, [r3]
 883              	.LVL92:
 884              		.loc 1 226 0
 885 0026 FFF7FEFF 		bl	test_wait_tick
 886              	.LVL93:
 887              		.loc 1 227 0
 888 002a 4FF47A70 		mov	r0, #1000
 889              		.loc 1 230 0
 890 002e AA46     		mov	r10, r5
 891              		.loc 1 227 0
 892 0030 FFF7FEFF 		bl	test_start_timer
 893              	.LVL94:
 894 0034 DFF88090 		ldr	r9, .L43+24
 895              	.LBB206:
 896              	.LBB207:
 897              	.LBB208:
 898              	.LBB209:
 899              		.file 3 "/home/peter/ChibiOS_16.1.4/os/ext/CMSIS/include/core_cmFunc.h"
 900              		.loc 3 548 0
 901 0038 4FF02008 		mov	r8, #32
 902              	.LVL95:
ARM GAS  /tmp/ccstjkpx.s 			page 17


 903              	.L39:
 904              		.loc 3 548 0 is_stmt 0 discriminator 1
 905 003c 2027     		movs	r7, #32
 906              	@ 548 "/home/peter/ChibiOS_16.1.4/os/ext/CMSIS/include/core_cmFunc.h" 1
 907 003e 88F31188 		MSR basepri, r8
 908              	@ 0 "" 2
 909              		.thumb
 910              	.LBE209:
 911              	.LBE208:
 912              	.LBE207:
 913              	.LBE206:
 914              		.loc 1 230 0 is_stmt 1 discriminator 1
 915 0042 0021     		movs	r1, #0
 916 0044 2046     		mov	r0, r4
 917 0046 FFF7FEFF 		bl	chSchWakeupS
 918              	.LVL96:
 919              		.loc 1 231 0 discriminator 1
 920 004a 2046     		mov	r0, r4
 921 004c 0021     		movs	r1, #0
 922 004e FFF7FEFF 		bl	chSchWakeupS
 923              	.LVL97:
 924              		.loc 1 232 0 discriminator 1
 925 0052 2046     		mov	r0, r4
 926 0054 0021     		movs	r1, #0
 927 0056 FFF7FEFF 		bl	chSchWakeupS
 928              	.LVL98:
 929              		.loc 1 233 0 discriminator 1
 930 005a 2046     		mov	r0, r4
 931 005c 0021     		movs	r1, #0
 932 005e FFF7FEFF 		bl	chSchWakeupS
 933              	.LVL99:
 934              	.LBB210:
 935              	.LBB211:
 936              	.LBB212:
 937              	.LBB213:
 938              	.LBB214:
 939              		.loc 3 548 0 discriminator 1
 940 0062 0026     		movs	r6, #0
 941              	@ 548 "/home/peter/ChibiOS_16.1.4/os/ext/CMSIS/include/core_cmFunc.h" 1
 942 0064 8AF31188 		MSR basepri, r10
 943              	@ 0 "" 2
 944              		.thumb
 945              	.LBE214:
 946              	.LBE213:
 947              	.LBE212:
 948              	.LBE211:
 949              	.LBE210:
 950              		.loc 1 239 0 discriminator 1
 951 0068 99F80030 		ldrb	r3, [r9]	@ zero_extendqisi2
 952              		.loc 1 235 0 discriminator 1
 953 006c 0435     		adds	r5, r5, #4
 954              	.LVL100:
 955              		.loc 1 239 0 discriminator 1
 956 006e 002B     		cmp	r3, #0
 957 0070 E4D0     		beq	.L39
 958              	.LVL101:
 959              	.LBB215:
ARM GAS  /tmp/ccstjkpx.s 			page 18


 960              	.LBB216:
 961              	.LBB217:
 962              	.LBB218:
 963              		.loc 3 548 0
 964              	@ 548 "/home/peter/ChibiOS_16.1.4/os/ext/CMSIS/include/core_cmFunc.h" 1
 965 0072 87F31188 		MSR basepri, r7
 966              	@ 0 "" 2
 967              		.thumb
 968              	.LBE218:
 969              	.LBE217:
 970              	.LBE216:
 971              	.LBE215:
 972              		.loc 1 241 0
 973 0076 4FF0FF31 		mov	r1, #-1
 974 007a 2046     		mov	r0, r4
 975 007c FFF7FEFF 		bl	chSchWakeupS
 976              	.LVL102:
 977              	.LBB219:
 978              	.LBB220:
 979              	.LBB221:
 980              	.LBB222:
 981              	.LBB223:
 982              		.loc 3 548 0
 983              	@ 548 "/home/peter/ChibiOS_16.1.4/os/ext/CMSIS/include/core_cmFunc.h" 1
 984 0080 86F31188 		MSR basepri, r6
 985              	@ 0 "" 2
 986              		.thumb
 987              	.LBE223:
 988              	.LBE222:
 989              	.LBE221:
 990              	.LBE220:
 991              	.LBE219:
 992              		.loc 1 244 0
 993 0084 FFF7FEFF 		bl	test_wait_threads
 994              	.LVL103:
 995              		.loc 1 245 0
 996 0088 0948     		ldr	r0, .L43+16
 997 008a FFF7FEFF 		bl	test_print
 998              	.LVL104:
 999              		.loc 1 246 0
 1000 008e 6800     		lsls	r0, r5, #1
 1001 0090 FFF7FEFF 		bl	test_printn
 1002              	.LVL105:
 1003              		.loc 1 247 0
 1004 0094 0748     		ldr	r0, .L43+20
 1005              		.loc 1 248 0
 1006 0096 02B0     		add	sp, sp, #8
 1007              		.cfi_def_cfa_offset 32
 1008              		@ sp needed
 1009 0098 BDE8F047 		pop	{r4, r5, r6, r7, r8, r9, r10, lr}
 1010              		.cfi_restore 14
 1011              		.cfi_restore 10
 1012              		.cfi_restore 9
 1013              		.cfi_restore 8
 1014              		.cfi_restore 7
 1015              		.cfi_restore 6
 1016              		.cfi_restore 5
ARM GAS  /tmp/ccstjkpx.s 			page 19


 1017              		.cfi_restore 4
 1018              		.cfi_def_cfa_offset 0
 1019              	.LVL106:
 1020              		.loc 1 247 0
 1021 009c FFF7FEBF 		b	test_println
 1022              	.LVL107:
 1023              	.L44:
 1024              		.align	2
 1025              	.L43:
 1026 00a0 00000000 		.word	ch
 1027 00a4 00000000 		.word	wa
 1028 00a8 00000000 		.word	thread4
 1029 00ac 00000000 		.word	threads
 1030 00b0 A8000000 		.word	.LC11
 1031 00b4 D0000000 		.word	.LC14
 1032 00b8 00000000 		.word	test_timer_done
 1033              		.cfi_endproc
 1034              	.LFE177:
 1035              		.size	bmk4_execute, .-bmk4_execute
 1036 00bc AFF30080 		.section	.text.thread4,"ax",%progbits
 1037              		.align	2
 1038              		.p2align 4,,15
 1039              		.thumb
 1040              		.thumb_func
 1041              		.type	thread4, %function
 1042              	thread4:
 1043              	.LFB176:
 1044              		.loc 1 206 0
 1045              		.cfi_startproc
 1046              		@ args = 0, pretend = 0, frame = 0
 1047              		@ frame_needed = 0, uses_anonymous_args = 0
 1048              	.LVL108:
 1049              	.LBB224:
 1050              	.LBB225:
 1051              		.loc 2 176 0
 1052 0000 074A     		ldr	r2, .L50
 1053              	.LBE225:
 1054              	.LBE224:
 1055              		.loc 1 206 0
 1056 0002 10B5     		push	{r4, lr}
 1057              		.cfi_def_cfa_offset 8
 1058              		.cfi_offset 4, -8
 1059              		.cfi_offset 14, -4
 1060              	.LBB227:
 1061              	.LBB228:
 1062              	.LBB229:
 1063              	.LBB230:
 1064              		.loc 3 548 0
 1065 0004 2023     		movs	r3, #32
 1066              	.LBE230:
 1067              	.LBE229:
 1068              	.LBE228:
 1069              	.LBE227:
 1070              	.LBB234:
 1071              	.LBB226:
 1072              		.loc 2 176 0
 1073 0006 9469     		ldr	r4, [r2, #24]
ARM GAS  /tmp/ccstjkpx.s 			page 20


 1074              	.LVL109:
 1075              	.LBE226:
 1076              	.LBE234:
 1077              	.LBB235:
 1078              	.LBB233:
 1079              	.LBB232:
 1080              	.LBB231:
 1081              		.loc 3 548 0
 1082              	@ 548 "/home/peter/ChibiOS_16.1.4/os/ext/CMSIS/include/core_cmFunc.h" 1
 1083 0008 83F31188 		MSR basepri, r3
 1084              	@ 0 "" 2
 1085              	.LVL110:
 1086              		.thumb
 1087              	.L46:
 1088              	.LBE231:
 1089              	.LBE232:
 1090              	.LBE233:
 1091              	.LBE235:
 1092              		.loc 1 213 0 discriminator 1
 1093 000c 0320     		movs	r0, #3
 1094 000e FFF7FEFF 		bl	chSchGoSleepS
 1095              	.LVL111:
 1096              		.loc 1 215 0 discriminator 1
 1097 0012 236A     		ldr	r3, [r4, #32]
 1098 0014 002B     		cmp	r3, #0
 1099 0016 F9D0     		beq	.L46
 1100              	.LVL112:
 1101              	.LBB236:
 1102              	.LBB237:
 1103              	.LBB238:
 1104              	.LBB239:
 1105              	.LBB240:
 1106              		.loc 3 548 0
 1107 0018 0023     		movs	r3, #0
 1108              	@ 548 "/home/peter/ChibiOS_16.1.4/os/ext/CMSIS/include/core_cmFunc.h" 1
 1109 001a 83F31188 		MSR basepri, r3
 1110              	@ 0 "" 2
 1111              		.thumb
 1112 001e 10BD     		pop	{r4, pc}
 1113              	.LVL113:
 1114              	.L51:
 1115              		.align	2
 1116              	.L50:
 1117 0020 00000000 		.word	ch
 1118              	.LBE240:
 1119              	.LBE239:
 1120              	.LBE238:
 1121              	.LBE237:
 1122              	.LBE236:
 1123              		.cfi_endproc
 1124              	.LFE176:
 1125              		.size	thread4, .-thread4
 1126 0024 AFF30080 		.section	.text.bmk5_execute,"ax",%progbits
 1126      AFF30080 
 1126      AFF30080 
 1127              		.align	2
 1128              		.p2align 4,,15
ARM GAS  /tmp/ccstjkpx.s 			page 21


 1129              		.thumb
 1130              		.thumb_func
 1131              		.type	bmk5_execute, %function
 1132              	bmk5_execute:
 1133              	.LFB178:
 1134              		.loc 1 268 0
 1135              		.cfi_startproc
 1136              		@ args = 0, pretend = 0, frame = 0
 1137              		@ frame_needed = 0, uses_anonymous_args = 0
 1138              	.LVL114:
 1139 0000 2DE9F041 		push	{r4, r5, r6, r7, r8, lr}
 1140              		.cfi_def_cfa_offset 24
 1141              		.cfi_offset 4, -24
 1142              		.cfi_offset 5, -20
 1143              		.cfi_offset 6, -16
 1144              		.cfi_offset 7, -12
 1145              		.cfi_offset 8, -8
 1146              		.cfi_offset 14, -4
 1147              	.LBB241:
 1148              	.LBB242:
 1149              	.LBB243:
 1150              	.LBB244:
 1151              		.loc 2 176 0
 1152 0004 154B     		ldr	r3, .L57
 1153              	.LBE244:
 1154              	.LBE243:
 1155              	.LBE242:
 1156              	.LBE241:
 1157              		.loc 1 271 0
 1158 0006 164A     		ldr	r2, .L57+4
 1159              	.LBB246:
 1160              	.LBB245:
 1161              		.loc 2 189 0
 1162 0008 9B69     		ldr	r3, [r3, #24]
 1163              	.LBE245:
 1164              	.LBE246:
 1165              		.loc 1 268 0
 1166 000a 82B0     		sub	sp, sp, #8
 1167              		.cfi_def_cfa_offset 32
 1168              		.loc 1 272 0
 1169 000c 9D68     		ldr	r5, [r3, #8]
 1170              		.loc 1 271 0
 1171 000e D2F80080 		ldr	r8, [r2]
 1172              	.LVL115:
 1173              		.loc 1 270 0
 1174 0012 0024     		movs	r4, #0
 1175              		.loc 1 273 0
 1176 0014 FFF7FEFF 		bl	test_wait_tick
 1177              	.LVL116:
 1178              		.loc 1 274 0
 1179 0018 4FF47A70 		mov	r0, #1000
 1180 001c FFF7FEFF 		bl	test_start_timer
 1181              	.LVL117:
 1182              		.loc 1 276 0
 1183 0020 2746     		mov	r7, r4
 1184 0022 104E     		ldr	r6, .L57+8
 1185              		.loc 1 272 0
ARM GAS  /tmp/ccstjkpx.s 			page 22


 1186 0024 013D     		subs	r5, r5, #1
 1187              	.LVL118:
 1188              	.L53:
 1189              		.loc 1 276 0 discriminator 1
 1190 0026 104B     		ldr	r3, .L57+12
 1191 0028 4FF4A471 		mov	r1, #328
 1192 002c 2A46     		mov	r2, r5
 1193 002e 0097     		str	r7, [sp]
 1194 0030 4046     		mov	r0, r8
 1195 0032 FFF7FEFF 		bl	chThdCreateStatic
 1196              	.LVL119:
 1197 0036 FFF7FEFF 		bl	chThdWait
 1198              	.LVL120:
 1199              		.loc 1 281 0 discriminator 1
 1200 003a 3378     		ldrb	r3, [r6]	@ zero_extendqisi2
 1201              		.loc 1 277 0 discriminator 1
 1202 003c 0134     		adds	r4, r4, #1
 1203              	.LVL121:
 1204              		.loc 1 281 0 discriminator 1
 1205 003e 002B     		cmp	r3, #0
 1206 0040 F1D0     		beq	.L53
 1207              		.loc 1 282 0
 1208 0042 0A48     		ldr	r0, .L57+16
 1209 0044 FFF7FEFF 		bl	test_print
 1210              	.LVL122:
 1211              		.loc 1 283 0
 1212 0048 2046     		mov	r0, r4
 1213 004a FFF7FEFF 		bl	test_printn
 1214              	.LVL123:
 1215              		.loc 1 284 0
 1216 004e 0848     		ldr	r0, .L57+20
 1217              		.loc 1 285 0
 1218 0050 02B0     		add	sp, sp, #8
 1219              		.cfi_def_cfa_offset 24
 1220              		@ sp needed
 1221 0052 BDE8F041 		pop	{r4, r5, r6, r7, r8, lr}
 1222              		.cfi_restore 14
 1223              		.cfi_restore 8
 1224              		.cfi_restore 7
 1225              		.cfi_restore 6
 1226              		.cfi_restore 5
 1227              		.cfi_restore 4
 1228              		.cfi_def_cfa_offset 0
 1229              	.LVL124:
 1230              		.loc 1 284 0
 1231 0056 FFF7FEBF 		b	test_println
 1232              	.LVL125:
 1233              	.L58:
 1234 005a 00BF     		.align	2
 1235              	.L57:
 1236 005c 00000000 		.word	ch
 1237 0060 00000000 		.word	wa
 1238 0064 00000000 		.word	test_timer_done
 1239 0068 00000000 		.word	thread1
 1240 006c A8000000 		.word	.LC11
 1241 0070 B8000000 		.word	.LC12
 1242              		.cfi_endproc
ARM GAS  /tmp/ccstjkpx.s 			page 23


 1243              	.LFE178:
 1244              		.size	bmk5_execute, .-bmk5_execute
 1245 0074 AFF30080 		.section	.text.bmk7_execute,"ax",%progbits
 1245      AFF30080 
 1245      AFF30080 
 1246              		.align	2
 1247              		.p2align 4,,15
 1248              		.thumb
 1249              		.thumb_func
 1250              		.type	bmk7_execute, %function
 1251              	bmk7_execute:
 1252              	.LFB182:
 1253              		.loc 1 357 0
 1254              		.cfi_startproc
 1255              		@ args = 0, pretend = 0, frame = 0
 1256              		@ frame_needed = 0, uses_anonymous_args = 0
 1257 0000 F0B5     		push	{r4, r5, r6, r7, lr}
 1258              		.cfi_def_cfa_offset 20
 1259              		.cfi_offset 4, -20
 1260              		.cfi_offset 5, -16
 1261              		.cfi_offset 6, -12
 1262              		.cfi_offset 7, -8
 1263              		.cfi_offset 14, -4
 1264              	.LBB247:
 1265              	.LBB248:
 1266              	.LBB249:
 1267              	.LBB250:
 1268              		.loc 2 176 0
 1269 0002 354F     		ldr	r7, .L64
 1270              	.LBE250:
 1271              	.LBE249:
 1272              	.LBE248:
 1273              	.LBE247:
 1274              		.loc 1 360 0
 1275 0004 354E     		ldr	r6, .L64+4
 1276              	.LBB252:
 1277              	.LBB251:
 1278              		.loc 2 189 0
 1279 0006 BB69     		ldr	r3, [r7, #24]
 1280              	.LBE251:
 1281              	.LBE252:
 1282              		.loc 1 357 0
 1283 0008 83B0     		sub	sp, sp, #12
 1284              		.cfi_def_cfa_offset 32
 1285              		.loc 1 360 0
 1286 000a 9A68     		ldr	r2, [r3, #8]
 1287 000c 0024     		movs	r4, #0
 1288 000e 0532     		adds	r2, r2, #5
 1289 0010 4FF4A471 		mov	r1, #328
 1290 0014 324B     		ldr	r3, .L64+8
 1291 0016 3068     		ldr	r0, [r6]
 1292 0018 0094     		str	r4, [sp]
 1293 001a FFF7FEFF 		bl	chThdCreateStatic
 1294              	.LVL126:
 1295              	.LBB253:
 1296              	.LBB254:
 1297              		.loc 2 189 0
ARM GAS  /tmp/ccstjkpx.s 			page 24


 1298 001e BB69     		ldr	r3, [r7, #24]
 1299              	.LBE254:
 1300              	.LBE253:
 1301              		.loc 1 360 0
 1302 0020 304D     		ldr	r5, .L64+12
 1303              		.loc 1 361 0
 1304 0022 9A68     		ldr	r2, [r3, #8]
 1305 0024 7368     		ldr	r3, [r6, #4]
 1306              		.loc 1 360 0
 1307 0026 2860     		str	r0, [r5]
 1308              		.loc 1 361 0
 1309 0028 0432     		adds	r2, r2, #4
 1310 002a 1846     		mov	r0, r3
 1311 002c 4FF4A471 		mov	r1, #328
 1312 0030 2B4B     		ldr	r3, .L64+8
 1313 0032 0094     		str	r4, [sp]
 1314 0034 FFF7FEFF 		bl	chThdCreateStatic
 1315              	.LVL127:
 1316              	.LBB255:
 1317              	.LBB256:
 1318              		.loc 2 189 0
 1319 0038 BA69     		ldr	r2, [r7, #24]
 1320              	.LBE256:
 1321              	.LBE255:
 1322              		.loc 1 362 0
 1323 003a B368     		ldr	r3, [r6, #8]
 1324 003c 9268     		ldr	r2, [r2, #8]
 1325 003e 4FF4A471 		mov	r1, #328
 1326              		.loc 1 361 0
 1327 0042 6860     		str	r0, [r5, #4]
 1328              		.loc 1 362 0
 1329 0044 0332     		adds	r2, r2, #3
 1330 0046 1846     		mov	r0, r3
 1331 0048 0094     		str	r4, [sp]
 1332 004a 254B     		ldr	r3, .L64+8
 1333 004c FFF7FEFF 		bl	chThdCreateStatic
 1334              	.LVL128:
 1335              	.LBB257:
 1336              	.LBB258:
 1337              		.loc 2 189 0
 1338 0050 BA69     		ldr	r2, [r7, #24]
 1339              	.LBE258:
 1340              	.LBE257:
 1341              		.loc 1 363 0
 1342 0052 F368     		ldr	r3, [r6, #12]
 1343 0054 9268     		ldr	r2, [r2, #8]
 1344 0056 4FF4A471 		mov	r1, #328
 1345              		.loc 1 362 0
 1346 005a A860     		str	r0, [r5, #8]
 1347              		.loc 1 363 0
 1348 005c 0232     		adds	r2, r2, #2
 1349 005e 1846     		mov	r0, r3
 1350 0060 0094     		str	r4, [sp]
 1351 0062 1F4B     		ldr	r3, .L64+8
 1352 0064 FFF7FEFF 		bl	chThdCreateStatic
 1353              	.LVL129:
 1354              	.LBB259:
ARM GAS  /tmp/ccstjkpx.s 			page 25


 1355              	.LBB260:
 1356              		.loc 2 189 0
 1357 0068 BA69     		ldr	r2, [r7, #24]
 1358              	.LBE260:
 1359              	.LBE259:
 1360              		.loc 1 364 0
 1361 006a 3369     		ldr	r3, [r6, #16]
 1362 006c 9268     		ldr	r2, [r2, #8]
 1363 006e 4FF4A471 		mov	r1, #328
 1364              		.loc 1 363 0
 1365 0072 E860     		str	r0, [r5, #12]
 1366              		.loc 1 364 0
 1367 0074 0132     		adds	r2, r2, #1
 1368 0076 1846     		mov	r0, r3
 1369 0078 0094     		str	r4, [sp]
 1370 007a 194B     		ldr	r3, .L64+8
 1371 007c FFF7FEFF 		bl	chThdCreateStatic
 1372              	.LVL130:
 1373 0080 2861     		str	r0, [r5, #16]
 1374              	.LVL131:
 1375              		.loc 1 367 0
 1376 0082 FFF7FEFF 		bl	test_wait_tick
 1377              	.LVL132:
 1378              		.loc 1 368 0
 1379 0086 4FF47A70 		mov	r0, #1000
 1380 008a FFF7FEFF 		bl	test_start_timer
 1381              	.LVL133:
 1382 008e 164D     		ldr	r5, .L64+16
 1383              	.LVL134:
 1384              	.L60:
 1385              		.loc 1 370 0 discriminator 1
 1386 0090 1648     		ldr	r0, .L64+20
 1387 0092 0021     		movs	r1, #0
 1388 0094 FFF7FEFF 		bl	chSemReset
 1389              	.LVL135:
 1390              		.loc 1 375 0 discriminator 1
 1391 0098 2B78     		ldrb	r3, [r5]	@ zero_extendqisi2
 1392              		.loc 1 371 0 discriminator 1
 1393 009a 0134     		adds	r4, r4, #1
 1394              	.LVL136:
 1395              		.loc 1 375 0 discriminator 1
 1396 009c 002B     		cmp	r3, #0
 1397 009e F7D0     		beq	.L60
 1398              		.loc 1 376 0
 1399 00a0 FFF7FEFF 		bl	test_terminate_threads
 1400              	.LVL137:
 1401              		.loc 1 377 0
 1402 00a4 0021     		movs	r1, #0
 1403 00a6 1148     		ldr	r0, .L64+20
 1404 00a8 FFF7FEFF 		bl	chSemReset
 1405              	.LVL138:
 1406              		.loc 1 378 0
 1407 00ac FFF7FEFF 		bl	test_wait_threads
 1408              	.LVL139:
 1409              		.loc 1 380 0
 1410 00b0 0F48     		ldr	r0, .L64+24
 1411 00b2 FFF7FEFF 		bl	test_print
ARM GAS  /tmp/ccstjkpx.s 			page 26


 1412              	.LVL140:
 1413              		.loc 1 381 0
 1414 00b6 2046     		mov	r0, r4
 1415 00b8 FFF7FEFF 		bl	test_printn
 1416              	.LVL141:
 1417              		.loc 1 382 0
 1418 00bc 0D48     		ldr	r0, .L64+28
 1419 00be FFF7FEFF 		bl	test_print
 1420              	.LVL142:
 1421              		.loc 1 383 0
 1422 00c2 04EB4400 		add	r0, r4, r4, lsl #1
 1423 00c6 4000     		lsls	r0, r0, #1
 1424 00c8 FFF7FEFF 		bl	test_printn
 1425              	.LVL143:
 1426              		.loc 1 384 0
 1427 00cc 0A48     		ldr	r0, .L64+32
 1428              		.loc 1 385 0
 1429 00ce 03B0     		add	sp, sp, #12
 1430              		.cfi_def_cfa_offset 20
 1431              		@ sp needed
 1432 00d0 BDE8F040 		pop	{r4, r5, r6, r7, lr}
 1433              		.cfi_restore 14
 1434              		.cfi_restore 7
 1435              		.cfi_restore 6
 1436              		.cfi_restore 5
 1437              		.cfi_restore 4
 1438              		.cfi_def_cfa_offset 0
 1439              	.LVL144:
 1440              		.loc 1 384 0
 1441 00d4 FFF7FEBF 		b	test_println
 1442              	.LVL145:
 1443              	.L65:
 1444              		.align	2
 1445              	.L64:
 1446 00d8 00000000 		.word	ch
 1447 00dc 00000000 		.word	wa
 1448 00e0 00000000 		.word	thread3
 1449 00e4 00000000 		.word	threads
 1450 00e8 00000000 		.word	test_timer_done
 1451 00ec 00000000 		.word	.LANCHOR0
 1452 00f0 A8000000 		.word	.LC11
 1453 00f4 DC000000 		.word	.LC15
 1454 00f8 D0000000 		.word	.LC14
 1455              		.cfi_endproc
 1456              	.LFE182:
 1457              		.size	bmk7_execute, .-bmk7_execute
 1458 00fc AFF30080 		.section	.text.thread3,"ax",%progbits
 1459              		.align	2
 1460              		.p2align 4,,15
 1461              		.thumb
 1462              		.thumb_func
 1463              		.type	thread3, %function
 1464              	thread3:
 1465              	.LFB180:
 1466              		.loc 1 345 0
 1467              		.cfi_startproc
 1468              		@ args = 0, pretend = 0, frame = 0
ARM GAS  /tmp/ccstjkpx.s 			page 27


 1469              		@ frame_needed = 0, uses_anonymous_args = 0
 1470              	.LVL146:
 1471 0000 10B5     		push	{r4, lr}
 1472              		.cfi_def_cfa_offset 8
 1473              		.cfi_offset 4, -8
 1474              		.cfi_offset 14, -4
 1475              	.LBB261:
 1476              	.LBB262:
 1477              	.LBB263:
 1478              	.LBB264:
 1479              		.loc 2 176 0
 1480 0002 064C     		ldr	r4, .L73
 1481              	.LBE264:
 1482              	.LBE263:
 1483              		.loc 2 233 0
 1484 0004 A369     		ldr	r3, [r4, #24]
 1485 0006 5B7F     		ldrb	r3, [r3, #29]	@ zero_extendqisi2
 1486              	.LBE262:
 1487              	.LBE261:
 1488              		.loc 1 348 0
 1489 0008 5A07     		lsls	r2, r3, #29
 1490 000a 06D4     		bmi	.L66
 1491              	.LVL147:
 1492              	.L67:
 1493              		.loc 1 349 0
 1494 000c 0448     		ldr	r0, .L73+4
 1495 000e FFF7FEFF 		bl	chSemWait
 1496              	.LVL148:
 1497              	.LBB266:
 1498              	.LBB265:
 1499              		.loc 2 233 0
 1500 0012 A369     		ldr	r3, [r4, #24]
 1501 0014 5B7F     		ldrb	r3, [r3, #29]	@ zero_extendqisi2
 1502              	.LBE265:
 1503              	.LBE266:
 1504              		.loc 1 348 0
 1505 0016 5B07     		lsls	r3, r3, #29
 1506 0018 F8D5     		bpl	.L67
 1507              	.L66:
 1508 001a 10BD     		pop	{r4, pc}
 1509              	.L74:
 1510              		.align	2
 1511              	.L73:
 1512 001c 00000000 		.word	ch
 1513 0020 00000000 		.word	.LANCHOR0
 1514              		.cfi_endproc
 1515              	.LFE180:
 1516              		.size	thread3, .-thread3
 1517 0024 AFF30080 		.section	.text.bmk7_setup,"ax",%progbits
 1517      AFF30080 
 1517      AFF30080 
 1518              		.align	2
 1519              		.p2align 4,,15
 1520              		.thumb
 1521              		.thumb_func
 1522              		.type	bmk7_setup, %function
 1523              	bmk7_setup:
ARM GAS  /tmp/ccstjkpx.s 			page 28


 1524              	.LFB181:
 1525              		.loc 1 352 0
 1526              		.cfi_startproc
 1527              		@ args = 0, pretend = 0, frame = 0
 1528              		@ frame_needed = 0, uses_anonymous_args = 0
 1529              		@ link register save eliminated.
 1530              		.loc 1 354 0
 1531 0000 0148     		ldr	r0, .L76
 1532 0002 0021     		movs	r1, #0
 1533 0004 FFF7FEBF 		b	chSemObjectInit
 1534              	.LVL149:
 1535              	.L77:
 1536              		.align	2
 1537              	.L76:
 1538 0008 00000000 		.word	.LANCHOR0
 1539              		.cfi_endproc
 1540              	.LFE181:
 1541              		.size	bmk7_setup, .-bmk7_setup
 1542 000c AFF30080 		.section	.text.bmk11_setup,"ax",%progbits
 1543              		.align	2
 1544              		.p2align 4,,15
 1545              		.thumb
 1546              		.thumb_func
 1547              		.type	bmk11_setup, %function
 1548              	bmk11_setup:
 1549              	.LFB188:
 1550              		.loc 1 548 0
 1551              		.cfi_startproc
 1552              		@ args = 0, pretend = 0, frame = 0
 1553              		@ frame_needed = 0, uses_anonymous_args = 0
 1554              		@ link register save eliminated.
 1555              		.loc 1 550 0
 1556 0000 0148     		ldr	r0, .L79
 1557 0002 0121     		movs	r1, #1
 1558 0004 FFF7FEBF 		b	chSemObjectInit
 1559              	.LVL150:
 1560              	.L80:
 1561              		.align	2
 1562              	.L79:
 1563 0008 00000000 		.word	.LANCHOR0
 1564              		.cfi_endproc
 1565              	.LFE188:
 1566              		.size	bmk11_setup, .-bmk11_setup
 1567 000c AFF30080 		.section	.text.bmk8_execute,"ax",%progbits
 1568              		.align	2
 1569              		.p2align 4,,15
 1570              		.thumb
 1571              		.thumb_func
 1572              		.type	bmk8_execute, %function
 1573              	bmk8_execute:
 1574              	.LFB184:
 1575              		.loc 1 419 0
 1576              		.cfi_startproc
 1577              		@ args = 0, pretend = 0, frame = 8
 1578              		@ frame_needed = 0, uses_anonymous_args = 0
 1579 0000 2DE9F041 		push	{r4, r5, r6, r7, r8, lr}
 1580              		.cfi_def_cfa_offset 24
ARM GAS  /tmp/ccstjkpx.s 			page 29


 1581              		.cfi_offset 4, -24
 1582              		.cfi_offset 5, -20
 1583              		.cfi_offset 6, -16
 1584              		.cfi_offset 7, -12
 1585              		.cfi_offset 8, -8
 1586              		.cfi_offset 14, -4
 1587              	.LBB267:
 1588              	.LBB268:
 1589              	.LBB269:
 1590              	.LBB270:
 1591              		.loc 2 176 0
 1592 0004 DFF8D080 		ldr	r8, .L83+20
 1593              	.LBE270:
 1594              	.LBE269:
 1595              	.LBE268:
 1596              	.LBE267:
 1597              		.loc 1 419 0
 1598 0008 84B0     		sub	sp, sp, #16
 1599              		.cfi_def_cfa_offset 40
 1600              		.loc 1 422 0
 1601 000a 04AC     		add	r4, sp, #16
 1602 000c 0023     		movs	r3, #0
 1603 000e 44F8043D 		str	r3, [r4, #-4]!
 1604              		.loc 1 423 0
 1605 0012 FFF7FEFF 		bl	test_wait_tick
 1606              	.LVL151:
 1607              	.LBB272:
 1608              	.LBB271:
 1609              		.loc 2 189 0
 1610 0016 D8F81830 		ldr	r3, [r8, #24]
 1611              	.LBE271:
 1612              	.LBE272:
 1613              		.loc 1 425 0
 1614 001a 2A4F     		ldr	r7, .L83
 1615 001c 2A4E     		ldr	r6, .L83+4
 1616 001e 9A68     		ldr	r2, [r3, #8]
 1617 0020 3868     		ldr	r0, [r7]
 1618 0022 3346     		mov	r3, r6
 1619 0024 013A     		subs	r2, r2, #1
 1620 0026 0094     		str	r4, [sp]
 1621 0028 4FF4A471 		mov	r1, #328
 1622 002c FFF7FEFF 		bl	chThdCreateStatic
 1623              	.LVL152:
 1624              	.LBB273:
 1625              	.LBB274:
 1626              		.loc 2 189 0
 1627 0030 D8F81830 		ldr	r3, [r8, #24]
 1628              	.LBE274:
 1629              	.LBE273:
 1630              		.loc 1 425 0
 1631 0034 254D     		ldr	r5, .L83+8
 1632              		.loc 1 426 0
 1633 0036 9A68     		ldr	r2, [r3, #8]
 1634 0038 7B68     		ldr	r3, [r7, #4]
 1635              		.loc 1 425 0
 1636 003a 2860     		str	r0, [r5]
 1637              		.loc 1 426 0
ARM GAS  /tmp/ccstjkpx.s 			page 30


 1638 003c 013A     		subs	r2, r2, #1
 1639 003e 0094     		str	r4, [sp]
 1640 0040 1846     		mov	r0, r3
 1641 0042 4FF4A471 		mov	r1, #328
 1642 0046 3346     		mov	r3, r6
 1643 0048 FFF7FEFF 		bl	chThdCreateStatic
 1644              	.LVL153:
 1645              	.LBB275:
 1646              	.LBB276:
 1647              		.loc 2 189 0
 1648 004c D8F81820 		ldr	r2, [r8, #24]
 1649              	.LBE276:
 1650              	.LBE275:
 1651              		.loc 1 427 0
 1652 0050 BB68     		ldr	r3, [r7, #8]
 1653 0052 9268     		ldr	r2, [r2, #8]
 1654 0054 4FF4A471 		mov	r1, #328
 1655              		.loc 1 426 0
 1656 0058 6860     		str	r0, [r5, #4]
 1657              		.loc 1 427 0
 1658 005a 013A     		subs	r2, r2, #1
 1659 005c 0094     		str	r4, [sp]
 1660 005e 1846     		mov	r0, r3
 1661 0060 3346     		mov	r3, r6
 1662 0062 FFF7FEFF 		bl	chThdCreateStatic
 1663              	.LVL154:
 1664              	.LBB277:
 1665              	.LBB278:
 1666              		.loc 2 189 0
 1667 0066 D8F81820 		ldr	r2, [r8, #24]
 1668              	.LBE278:
 1669              	.LBE277:
 1670              		.loc 1 428 0
 1671 006a FB68     		ldr	r3, [r7, #12]
 1672 006c 9268     		ldr	r2, [r2, #8]
 1673 006e 4FF4A471 		mov	r1, #328
 1674              		.loc 1 427 0
 1675 0072 A860     		str	r0, [r5, #8]
 1676              		.loc 1 428 0
 1677 0074 013A     		subs	r2, r2, #1
 1678 0076 0094     		str	r4, [sp]
 1679 0078 1846     		mov	r0, r3
 1680 007a 3346     		mov	r3, r6
 1681 007c FFF7FEFF 		bl	chThdCreateStatic
 1682              	.LVL155:
 1683              	.LBB279:
 1684              	.LBB280:
 1685              		.loc 2 189 0
 1686 0080 D8F81820 		ldr	r2, [r8, #24]
 1687              	.LBE280:
 1688              	.LBE279:
 1689              		.loc 1 429 0
 1690 0084 3B69     		ldr	r3, [r7, #16]
 1691 0086 9268     		ldr	r2, [r2, #8]
 1692 0088 4FF4A471 		mov	r1, #328
 1693 008c 013A     		subs	r2, r2, #1
 1694              		.loc 1 428 0
ARM GAS  /tmp/ccstjkpx.s 			page 31


 1695 008e E860     		str	r0, [r5, #12]
 1696              		.loc 1 429 0
 1697 0090 0094     		str	r4, [sp]
 1698 0092 1846     		mov	r0, r3
 1699 0094 3346     		mov	r3, r6
 1700 0096 FFF7FEFF 		bl	chThdCreateStatic
 1701              	.LVL156:
 1702 009a 2861     		str	r0, [r5, #16]
 1703              		.loc 1 431 0
 1704 009c 42F21070 		movw	r0, #10000
 1705 00a0 FFF7FEFF 		bl	chThdSleep
 1706              	.LVL157:
 1707              		.loc 1 432 0
 1708 00a4 FFF7FEFF 		bl	test_terminate_threads
 1709              	.LVL158:
 1710              		.loc 1 433 0
 1711 00a8 FFF7FEFF 		bl	test_wait_threads
 1712              	.LVL159:
 1713              		.loc 1 435 0
 1714 00ac 0848     		ldr	r0, .L83+12
 1715 00ae FFF7FEFF 		bl	test_print
 1716              	.LVL160:
 1717              		.loc 1 436 0
 1718 00b2 0398     		ldr	r0, [sp, #12]
 1719 00b4 FFF7FEFF 		bl	test_printn
 1720              	.LVL161:
 1721              		.loc 1 437 0
 1722 00b8 0648     		ldr	r0, .L83+16
 1723 00ba FFF7FEFF 		bl	test_println
 1724              	.LVL162:
 1725              		.loc 1 438 0
 1726 00be 04B0     		add	sp, sp, #16
 1727              		.cfi_def_cfa_offset 24
 1728              		@ sp needed
 1729 00c0 BDE8F081 		pop	{r4, r5, r6, r7, r8, pc}
 1730              	.L84:
 1731              		.align	2
 1732              	.L83:
 1733 00c4 00000000 		.word	wa
 1734 00c8 00000000 		.word	thread8
 1735 00cc 00000000 		.word	threads
 1736 00d0 A8000000 		.word	.LC11
 1737 00d4 D0000000 		.word	.LC14
 1738 00d8 00000000 		.word	ch
 1739              		.cfi_endproc
 1740              	.LFE184:
 1741              		.size	bmk8_execute, .-bmk8_execute
 1742 00dc AFF30080 		.section	.text.thread8,"ax",%progbits
 1743              		.align	2
 1744              		.p2align 4,,15
 1745              		.thumb
 1746              		.thumb_func
 1747              		.type	thread8, %function
 1748              	thread8:
 1749              	.LFB183:
 1750              		.loc 1 405 0
 1751              		.cfi_startproc
ARM GAS  /tmp/ccstjkpx.s 			page 32


 1752              		@ args = 0, pretend = 0, frame = 0
 1753              		@ frame_needed = 0, uses_anonymous_args = 0
 1754              	.LVL163:
 1755 0000 38B5     		push	{r3, r4, r5, lr}
 1756              		.cfi_def_cfa_offset 16
 1757              		.cfi_offset 3, -16
 1758              		.cfi_offset 4, -12
 1759              		.cfi_offset 5, -8
 1760              		.cfi_offset 14, -4
 1761              		.loc 1 405 0
 1762 0002 0446     		mov	r4, r0
 1763 0004 084D     		ldr	r5, .L90
 1764              	.LVL164:
 1765              	.L86:
 1766              		.loc 1 408 0 discriminator 1
 1767 0006 FFF7FEFF 		bl	chThdYield
 1768              	.LVL165:
 1769              		.loc 1 409 0 discriminator 1
 1770 000a FFF7FEFF 		bl	chThdYield
 1771              	.LVL166:
 1772              		.loc 1 410 0 discriminator 1
 1773 000e FFF7FEFF 		bl	chThdYield
 1774              	.LVL167:
 1775              		.loc 1 411 0 discriminator 1
 1776 0012 FFF7FEFF 		bl	chThdYield
 1777              	.LVL168:
 1778              		.loc 1 412 0 discriminator 1
 1779 0016 2368     		ldr	r3, [r4]
 1780              	.LBB281:
 1781              	.LBB282:
 1782              		.loc 2 233 0 discriminator 1
 1783 0018 AA69     		ldr	r2, [r5, #24]
 1784              	.LBE282:
 1785              	.LBE281:
 1786              		.loc 1 412 0 discriminator 1
 1787 001a 0433     		adds	r3, r3, #4
 1788 001c 2360     		str	r3, [r4]
 1789              	.LBB284:
 1790              	.LBB283:
 1791              		.loc 2 233 0 discriminator 1
 1792 001e 537F     		ldrb	r3, [r2, #29]	@ zero_extendqisi2
 1793              	.LBE283:
 1794              	.LBE284:
 1795              		.loc 1 416 0 discriminator 1
 1796 0020 5B07     		lsls	r3, r3, #29
 1797 0022 F0D5     		bpl	.L86
 1798              		.loc 1 417 0
 1799 0024 38BD     		pop	{r3, r4, r5, pc}
 1800              	.LVL169:
 1801              	.L91:
 1802 0026 00BF     		.align	2
 1803              	.L90:
 1804 0028 00000000 		.word	ch
 1805              		.cfi_endproc
 1806              	.LFE183:
 1807              		.size	thread8, .-thread8
 1808 002c AFF30080 		.section	.text.bmk9_execute,"ax",%progbits
ARM GAS  /tmp/ccstjkpx.s 			page 33


 1809              		.align	2
 1810              		.p2align 4,,15
 1811              		.thumb
 1812              		.thumb_func
 1813              		.type	bmk9_execute, %function
 1814              	bmk9_execute:
 1815              	.LFB185:
 1816              		.loc 1 458 0
 1817              		.cfi_startproc
 1818              		@ args = 0, pretend = 0, frame = 0
 1819              		@ frame_needed = 0, uses_anonymous_args = 0
 1820              		.loc 1 463 0
 1821 0000 0023     		movs	r3, #0
 1822              		.loc 1 458 0
 1823 0002 F0B5     		push	{r4, r5, r6, r7, lr}
 1824              		.cfi_def_cfa_offset 20
 1825              		.cfi_offset 4, -20
 1826              		.cfi_offset 5, -16
 1827              		.cfi_offset 6, -12
 1828              		.cfi_offset 7, -8
 1829              		.cfi_offset 14, -4
 1830              		.loc 1 464 0
 1831 0004 1C46     		mov	r4, r3
 1832              		.loc 1 458 0
 1833 0006 83B0     		sub	sp, sp, #12
 1834              		.cfi_def_cfa_offset 32
 1835              		.loc 1 463 0
 1836 0008 0093     		str	r3, [sp]
 1837 000a 2349     		ldr	r1, .L97
 1838 000c 1022     		movs	r2, #16
 1839 000e 2348     		ldr	r0, .L97+4
 1840 0010 FFF7FEFF 		bl	chIQObjectInit
 1841              	.LVL170:
 1842              		.loc 1 465 0
 1843 0014 FFF7FEFF 		bl	test_wait_tick
 1844              	.LVL171:
 1845              		.loc 1 466 0
 1846 0018 4FF47A70 		mov	r0, #1000
 1847              		.loc 1 469 0
 1848 001c 2746     		mov	r7, r4
 1849              		.loc 1 466 0
 1850 001e FFF7FEFF 		bl	test_start_timer
 1851              	.LVL172:
 1852 0022 1F4E     		ldr	r6, .L97+8
 1853              	.LBB285:
 1854              	.LBB286:
 1855              	.LBB287:
 1856              	.LBB288:
 1857              		.loc 3 548 0
 1858 0024 2025     		movs	r5, #32
 1859              	.LVL173:
 1860              	.L93:
 1861              		.loc 3 548 0 is_stmt 0 discriminator 1
 1862              	@ 548 "/home/peter/ChibiOS_16.1.4/os/ext/CMSIS/include/core_cmFunc.h" 1
 1863 0026 85F31188 		MSR basepri, r5
 1864              	@ 0 "" 2
 1865              		.thumb
ARM GAS  /tmp/ccstjkpx.s 			page 34


 1866              	.LBE288:
 1867              	.LBE287:
 1868              	.LBE286:
 1869              	.LBE285:
 1870              		.loc 1 469 0 is_stmt 1 discriminator 1
 1871 002a 0021     		movs	r1, #0
 1872 002c 1B48     		ldr	r0, .L97+4
 1873 002e FFF7FEFF 		bl	chIQPutI
 1874              	.LVL174:
 1875              		.loc 1 470 0 discriminator 1
 1876 0032 0121     		movs	r1, #1
 1877 0034 1948     		ldr	r0, .L97+4
 1878 0036 FFF7FEFF 		bl	chIQPutI
 1879              	.LVL175:
 1880              		.loc 1 471 0 discriminator 1
 1881 003a 0221     		movs	r1, #2
 1882 003c 1748     		ldr	r0, .L97+4
 1883 003e FFF7FEFF 		bl	chIQPutI
 1884              	.LVL176:
 1885              		.loc 1 472 0 discriminator 1
 1886 0042 0321     		movs	r1, #3
 1887 0044 1548     		ldr	r0, .L97+4
 1888 0046 FFF7FEFF 		bl	chIQPutI
 1889              	.LVL177:
 1890              	.LBB289:
 1891              	.LBB290:
 1892              	.LBB291:
 1893              	.LBB292:
 1894              	.LBB293:
 1895              		.loc 3 548 0 discriminator 1
 1896              	@ 548 "/home/peter/ChibiOS_16.1.4/os/ext/CMSIS/include/core_cmFunc.h" 1
 1897 004a 87F31188 		MSR basepri, r7
 1898              	@ 0 "" 2
 1899              	.LVL178:
 1900              		.thumb
 1901              	.LBE293:
 1902              	.LBE292:
 1903              	.LBE291:
 1904              	.LBE290:
 1905              	.LBE289:
 1906              	.LBB294:
 1907              	.LBB295:
 1908              		.file 4 "/home/peter/ChibiOS_16.1.4/os/rt/include/chqueues.h"
 1909              		.loc 4 343 0 discriminator 1
 1910 004e 4FF0FF31 		mov	r1, #-1
 1911 0052 1248     		ldr	r0, .L97+4
 1912 0054 FFF7FEFF 		bl	chIQGetTimeout
 1913              	.LVL179:
 1914              	.LBE295:
 1915              	.LBE294:
 1916              	.LBB296:
 1917              	.LBB297:
 1918 0058 4FF0FF31 		mov	r1, #-1
 1919 005c 0F48     		ldr	r0, .L97+4
 1920 005e FFF7FEFF 		bl	chIQGetTimeout
 1921              	.LVL180:
 1922              	.LBE297:
ARM GAS  /tmp/ccstjkpx.s 			page 35


 1923              	.LBE296:
 1924              	.LBB298:
 1925              	.LBB299:
 1926 0062 4FF0FF31 		mov	r1, #-1
 1927 0066 0D48     		ldr	r0, .L97+4
 1928 0068 FFF7FEFF 		bl	chIQGetTimeout
 1929              	.LVL181:
 1930              	.LBE299:
 1931              	.LBE298:
 1932              	.LBB300:
 1933              	.LBB301:
 1934 006c 0B48     		ldr	r0, .L97+4
 1935 006e 4FF0FF31 		mov	r1, #-1
 1936 0072 FFF7FEFF 		bl	chIQGetTimeout
 1937              	.LVL182:
 1938              	.LBE301:
 1939              	.LBE300:
 1940              		.loc 1 482 0 discriminator 1
 1941 0076 3378     		ldrb	r3, [r6]	@ zero_extendqisi2
 1942              		.loc 1 478 0 discriminator 1
 1943 0078 0134     		adds	r4, r4, #1
 1944              	.LVL183:
 1945              		.loc 1 482 0 discriminator 1
 1946 007a 002B     		cmp	r3, #0
 1947 007c D3D0     		beq	.L93
 1948              		.loc 1 483 0
 1949 007e 0948     		ldr	r0, .L97+12
 1950 0080 FFF7FEFF 		bl	test_print
 1951              	.LVL184:
 1952              		.loc 1 484 0
 1953 0084 A000     		lsls	r0, r4, #2
 1954 0086 FFF7FEFF 		bl	test_printn
 1955              	.LVL185:
 1956              		.loc 1 485 0
 1957 008a 0748     		ldr	r0, .L97+16
 1958              		.loc 1 486 0
 1959 008c 03B0     		add	sp, sp, #12
 1960              		.cfi_def_cfa_offset 20
 1961              		@ sp needed
 1962 008e BDE8F040 		pop	{r4, r5, r6, r7, lr}
 1963              		.cfi_restore 14
 1964              		.cfi_restore 7
 1965              		.cfi_restore 6
 1966              		.cfi_restore 5
 1967              		.cfi_restore 4
 1968              		.cfi_def_cfa_offset 0
 1969              	.LVL186:
 1970              		.loc 1 485 0
 1971 0092 FFF7FEBF 		b	test_println
 1972              	.LVL187:
 1973              	.L98:
 1974 0096 00BF     		.align	2
 1975              	.L97:
 1976 0098 00000000 		.word	.LANCHOR2
 1977 009c 00000000 		.word	.LANCHOR1
 1978 00a0 00000000 		.word	test_timer_done
 1979 00a4 A8000000 		.word	.LC11
ARM GAS  /tmp/ccstjkpx.s 			page 36


 1980 00a8 F0000000 		.word	.LC16
 1981              		.cfi_endproc
 1982              	.LFE185:
 1983              		.size	bmk9_execute, .-bmk9_execute
 1984 00ac AFF30080 		.section	.text.bmk10_execute,"ax",%progbits
 1985              		.align	2
 1986              		.p2align 4,,15
 1987              		.thumb
 1988              		.thumb_func
 1989              		.type	bmk10_execute, %function
 1990              	bmk10_execute:
 1991              	.LFB187:
 1992              		.loc 1 507 0
 1993              		.cfi_startproc
 1994              		@ args = 0, pretend = 0, frame = 0
 1995              		@ frame_needed = 0, uses_anonymous_args = 0
 1996              	.LVL188:
 1997 0000 38B5     		push	{r3, r4, r5, lr}
 1998              		.cfi_def_cfa_offset 16
 1999              		.cfi_offset 3, -16
 2000              		.cfi_offset 4, -12
 2001              		.cfi_offset 5, -8
 2002              		.cfi_offset 14, -4
 2003              		.loc 1 511 0
 2004 0002 FFF7FEFF 		bl	test_wait_tick
 2005              	.LVL189:
 2006              		.loc 1 512 0
 2007 0006 4FF47A70 		mov	r0, #1000
 2008 000a FFF7FEFF 		bl	test_start_timer
 2009              	.LVL190:
 2010 000e 154D     		ldr	r5, .L104
 2011              		.loc 1 509 0
 2012 0010 0024     		movs	r4, #0
 2013              	.LVL191:
 2014              	.L100:
 2015              	.LBB302:
 2016              	.LBB303:
 2017              	.LBB304:
 2018              	.LBB305:
 2019              		.loc 3 548 0 discriminator 1
 2020 0012 2023     		movs	r3, #32
 2021              	@ 548 "/home/peter/ChibiOS_16.1.4/os/ext/CMSIS/include/core_cmFunc.h" 1
 2022 0014 83F31188 		MSR basepri, r3
 2023              	@ 0 "" 2
 2024              		.thumb
 2025              	.LBE305:
 2026              	.LBE304:
 2027              	.LBE303:
 2028              	.LBE302:
 2029              		.loc 1 515 0 discriminator 1
 2030 0018 1348     		ldr	r0, .L104+4
 2031 001a 0121     		movs	r1, #1
 2032 001c 134A     		ldr	r2, .L104+8
 2033 001e 0023     		movs	r3, #0
 2034 0020 FFF7FEFF 		bl	chVTDoSetI
 2035              	.LVL192:
 2036              		.loc 1 516 0 discriminator 1
ARM GAS  /tmp/ccstjkpx.s 			page 37


 2037 0024 42F21071 		movw	r1, #10000
 2038 0028 104A     		ldr	r2, .L104+8
 2039 002a 0023     		movs	r3, #0
 2040 002c 1048     		ldr	r0, .L104+12
 2041 002e FFF7FEFF 		bl	chVTDoSetI
 2042              	.LVL193:
 2043              		.loc 1 517 0 discriminator 1
 2044 0032 0D48     		ldr	r0, .L104+4
 2045 0034 FFF7FEFF 		bl	chVTDoResetI
 2046              	.LVL194:
 2047              		.loc 1 518 0 discriminator 1
 2048 0038 0D48     		ldr	r0, .L104+12
 2049 003a FFF7FEFF 		bl	chVTDoResetI
 2050              	.LVL195:
 2051              	.LBB306:
 2052              	.LBB307:
 2053              	.LBB308:
 2054              	.LBB309:
 2055              	.LBB310:
 2056              		.loc 3 548 0 discriminator 1
 2057 003e 0023     		movs	r3, #0
 2058              	@ 548 "/home/peter/ChibiOS_16.1.4/os/ext/CMSIS/include/core_cmFunc.h" 1
 2059 0040 83F31188 		MSR basepri, r3
 2060              	@ 0 "" 2
 2061              		.thumb
 2062              	.LBE310:
 2063              	.LBE309:
 2064              	.LBE308:
 2065              	.LBE307:
 2066              	.LBE306:
 2067              		.loc 1 524 0 discriminator 1
 2068 0044 2B78     		ldrb	r3, [r5]	@ zero_extendqisi2
 2069              		.loc 1 520 0 discriminator 1
 2070 0046 0134     		adds	r4, r4, #1
 2071              	.LVL196:
 2072              		.loc 1 524 0 discriminator 1
 2073 0048 002B     		cmp	r3, #0
 2074 004a E2D0     		beq	.L100
 2075              		.loc 1 525 0
 2076 004c 0948     		ldr	r0, .L104+16
 2077 004e FFF7FEFF 		bl	test_print
 2078              	.LVL197:
 2079              		.loc 1 526 0
 2080 0052 6000     		lsls	r0, r4, #1
 2081 0054 FFF7FEFF 		bl	test_printn
 2082              	.LVL198:
 2083              		.loc 1 528 0
 2084 0058 BDE83840 		pop	{r3, r4, r5, lr}
 2085              		.cfi_restore 14
 2086              		.cfi_restore 5
 2087              		.cfi_restore 4
 2088              		.cfi_restore 3
 2089              		.cfi_def_cfa_offset 0
 2090              	.LVL199:
 2091              		.loc 1 527 0
 2092 005c 0648     		ldr	r0, .L104+20
 2093 005e FFF7FEBF 		b	test_println
ARM GAS  /tmp/ccstjkpx.s 			page 38


 2094              	.LVL200:
 2095              	.L105:
 2096 0062 00BF     		.align	2
 2097              	.L104:
 2098 0064 00000000 		.word	test_timer_done
 2099 0068 00000000 		.word	.LANCHOR3
 2100 006c 00000000 		.word	tmo
 2101 0070 00000000 		.word	.LANCHOR4
 2102 0074 A8000000 		.word	.LC11
 2103 0078 FC000000 		.word	.LC17
 2104              		.cfi_endproc
 2105              	.LFE187:
 2106              		.size	bmk10_execute, .-bmk10_execute
 2107 007c AFF30080 		.section	.text.bmk11_execute,"ax",%progbits
 2108              		.align	2
 2109              		.p2align 4,,15
 2110              		.thumb
 2111              		.thumb_func
 2112              		.type	bmk11_execute, %function
 2113              	bmk11_execute:
 2114              	.LFB189:
 2115              		.loc 1 553 0
 2116              		.cfi_startproc
 2117              		@ args = 0, pretend = 0, frame = 0
 2118              		@ frame_needed = 0, uses_anonymous_args = 0
 2119              	.LVL201:
 2120 0000 38B5     		push	{r3, r4, r5, lr}
 2121              		.cfi_def_cfa_offset 16
 2122              		.cfi_offset 3, -16
 2123              		.cfi_offset 4, -12
 2124              		.cfi_offset 5, -8
 2125              		.cfi_offset 14, -4
 2126              		.loc 1 556 0
 2127 0002 FFF7FEFF 		bl	test_wait_tick
 2128              	.LVL202:
 2129              		.loc 1 557 0
 2130 0006 4FF47A70 		mov	r0, #1000
 2131 000a FFF7FEFF 		bl	test_start_timer
 2132              	.LVL203:
 2133 000e 144D     		ldr	r5, .L111
 2134              		.loc 1 554 0
 2135 0010 0024     		movs	r4, #0
 2136              	.LVL204:
 2137              	.L107:
 2138              		.loc 1 559 0 discriminator 1
 2139 0012 1448     		ldr	r0, .L111+4
 2140 0014 FFF7FEFF 		bl	chSemWait
 2141              	.LVL205:
 2142              		.loc 1 560 0 discriminator 1
 2143 0018 1248     		ldr	r0, .L111+4
 2144 001a FFF7FEFF 		bl	chSemSignal
 2145              	.LVL206:
 2146              		.loc 1 561 0 discriminator 1
 2147 001e 1148     		ldr	r0, .L111+4
 2148 0020 FFF7FEFF 		bl	chSemWait
 2149              	.LVL207:
 2150              		.loc 1 562 0 discriminator 1
ARM GAS  /tmp/ccstjkpx.s 			page 39


 2151 0024 0F48     		ldr	r0, .L111+4
 2152 0026 FFF7FEFF 		bl	chSemSignal
 2153              	.LVL208:
 2154              		.loc 1 563 0 discriminator 1
 2155 002a 0E48     		ldr	r0, .L111+4
 2156 002c FFF7FEFF 		bl	chSemWait
 2157              	.LVL209:
 2158              		.loc 1 564 0 discriminator 1
 2159 0030 0C48     		ldr	r0, .L111+4
 2160 0032 FFF7FEFF 		bl	chSemSignal
 2161              	.LVL210:
 2162              		.loc 1 565 0 discriminator 1
 2163 0036 0B48     		ldr	r0, .L111+4
 2164 0038 FFF7FEFF 		bl	chSemWait
 2165              	.LVL211:
 2166              		.loc 1 566 0 discriminator 1
 2167 003c 0948     		ldr	r0, .L111+4
 2168 003e FFF7FEFF 		bl	chSemSignal
 2169              	.LVL212:
 2170              		.loc 1 571 0 discriminator 1
 2171 0042 2B78     		ldrb	r3, [r5]	@ zero_extendqisi2
 2172              		.loc 1 567 0 discriminator 1
 2173 0044 0134     		adds	r4, r4, #1
 2174              	.LVL213:
 2175              		.loc 1 571 0 discriminator 1
 2176 0046 002B     		cmp	r3, #0
 2177 0048 E3D0     		beq	.L107
 2178              		.loc 1 572 0
 2179 004a 0748     		ldr	r0, .L111+8
 2180 004c FFF7FEFF 		bl	test_print
 2181              	.LVL214:
 2182              		.loc 1 573 0
 2183 0050 A000     		lsls	r0, r4, #2
 2184 0052 FFF7FEFF 		bl	test_printn
 2185              	.LVL215:
 2186              		.loc 1 575 0
 2187 0056 BDE83840 		pop	{r3, r4, r5, lr}
 2188              		.cfi_restore 14
 2189              		.cfi_restore 5
 2190              		.cfi_restore 4
 2191              		.cfi_restore 3
 2192              		.cfi_def_cfa_offset 0
 2193              	.LVL216:
 2194              		.loc 1 574 0
 2195 005a 0448     		ldr	r0, .L111+12
 2196 005c FFF7FEBF 		b	test_println
 2197              	.LVL217:
 2198              	.L112:
 2199              		.align	2
 2200              	.L111:
 2201 0060 00000000 		.word	test_timer_done
 2202 0064 00000000 		.word	.LANCHOR0
 2203 0068 A8000000 		.word	.LC11
 2204 006c 08010000 		.word	.LC18
 2205              		.cfi_endproc
 2206              	.LFE189:
 2207              		.size	bmk11_execute, .-bmk11_execute
ARM GAS  /tmp/ccstjkpx.s 			page 40


 2208              		.section	.text.bmk12_execute,"ax",%progbits
 2209              		.align	2
 2210              		.p2align 4,,15
 2211              		.thumb
 2212              		.thumb_func
 2213              		.type	bmk12_execute, %function
 2214              	bmk12_execute:
 2215              	.LFB191:
 2216              		.loc 1 601 0
 2217              		.cfi_startproc
 2218              		@ args = 0, pretend = 0, frame = 0
 2219              		@ frame_needed = 0, uses_anonymous_args = 0
 2220              	.LVL218:
 2221 0000 38B5     		push	{r3, r4, r5, lr}
 2222              		.cfi_def_cfa_offset 16
 2223              		.cfi_offset 3, -16
 2224              		.cfi_offset 4, -12
 2225              		.cfi_offset 5, -8
 2226              		.cfi_offset 14, -4
 2227              		.loc 1 604 0
 2228 0002 FFF7FEFF 		bl	test_wait_tick
 2229              	.LVL219:
 2230              		.loc 1 605 0
 2231 0006 4FF47A70 		mov	r0, #1000
 2232 000a FFF7FEFF 		bl	test_start_timer
 2233              	.LVL220:
 2234 000e 144D     		ldr	r5, .L118
 2235              		.loc 1 602 0
 2236 0010 0024     		movs	r4, #0
 2237              	.LVL221:
 2238              	.L114:
 2239              		.loc 1 607 0 discriminator 1
 2240 0012 1448     		ldr	r0, .L118+4
 2241 0014 FFF7FEFF 		bl	chMtxLock
 2242              	.LVL222:
 2243              		.loc 1 608 0 discriminator 1
 2244 0018 1248     		ldr	r0, .L118+4
 2245 001a FFF7FEFF 		bl	chMtxUnlock
 2246              	.LVL223:
 2247              		.loc 1 609 0 discriminator 1
 2248 001e 1148     		ldr	r0, .L118+4
 2249 0020 FFF7FEFF 		bl	chMtxLock
 2250              	.LVL224:
 2251              		.loc 1 610 0 discriminator 1
 2252 0024 0F48     		ldr	r0, .L118+4
 2253 0026 FFF7FEFF 		bl	chMtxUnlock
 2254              	.LVL225:
 2255              		.loc 1 611 0 discriminator 1
 2256 002a 0E48     		ldr	r0, .L118+4
 2257 002c FFF7FEFF 		bl	chMtxLock
 2258              	.LVL226:
 2259              		.loc 1 612 0 discriminator 1
 2260 0030 0C48     		ldr	r0, .L118+4
 2261 0032 FFF7FEFF 		bl	chMtxUnlock
 2262              	.LVL227:
 2263              		.loc 1 613 0 discriminator 1
 2264 0036 0B48     		ldr	r0, .L118+4
ARM GAS  /tmp/ccstjkpx.s 			page 41


 2265 0038 FFF7FEFF 		bl	chMtxLock
 2266              	.LVL228:
 2267              		.loc 1 614 0 discriminator 1
 2268 003c 0948     		ldr	r0, .L118+4
 2269 003e FFF7FEFF 		bl	chMtxUnlock
 2270              	.LVL229:
 2271              		.loc 1 619 0 discriminator 1
 2272 0042 2B78     		ldrb	r3, [r5]	@ zero_extendqisi2
 2273              		.loc 1 615 0 discriminator 1
 2274 0044 0134     		adds	r4, r4, #1
 2275              	.LVL230:
 2276              		.loc 1 619 0 discriminator 1
 2277 0046 002B     		cmp	r3, #0
 2278 0048 E3D0     		beq	.L114
 2279              		.loc 1 620 0
 2280 004a 0748     		ldr	r0, .L118+8
 2281 004c FFF7FEFF 		bl	test_print
 2282              	.LVL231:
 2283              		.loc 1 621 0
 2284 0050 A000     		lsls	r0, r4, #2
 2285 0052 FFF7FEFF 		bl	test_printn
 2286              	.LVL232:
 2287              		.loc 1 623 0
 2288 0056 BDE83840 		pop	{r3, r4, r5, lr}
 2289              		.cfi_restore 14
 2290              		.cfi_restore 5
 2291              		.cfi_restore 4
 2292              		.cfi_restore 3
 2293              		.cfi_def_cfa_offset 0
 2294              	.LVL233:
 2295              		.loc 1 622 0
 2296 005a 0448     		ldr	r0, .L118+12
 2297 005c FFF7FEBF 		b	test_println
 2298              	.LVL234:
 2299              	.L119:
 2300              		.align	2
 2301              	.L118:
 2302 0060 00000000 		.word	test_timer_done
 2303 0064 00000000 		.word	.LANCHOR5
 2304 0068 A8000000 		.word	.LC11
 2305 006c 18010000 		.word	.LC19
 2306              		.cfi_endproc
 2307              	.LFE191:
 2308              		.size	bmk12_execute, .-bmk12_execute
 2309              		.section	.text.bmk12_setup,"ax",%progbits
 2310              		.align	2
 2311              		.p2align 4,,15
 2312              		.thumb
 2313              		.thumb_func
 2314              		.type	bmk12_setup, %function
 2315              	bmk12_setup:
 2316              	.LFB190:
 2317              		.loc 1 596 0
 2318              		.cfi_startproc
 2319              		@ args = 0, pretend = 0, frame = 0
 2320              		@ frame_needed = 0, uses_anonymous_args = 0
 2321              		@ link register save eliminated.
ARM GAS  /tmp/ccstjkpx.s 			page 42


 2322              		.loc 1 598 0
 2323 0000 0148     		ldr	r0, .L121
 2324 0002 FFF7FEBF 		b	chMtxObjectInit
 2325              	.LVL235:
 2326              	.L122:
 2327 0006 00BF     		.align	2
 2328              	.L121:
 2329 0008 00000000 		.word	.LANCHOR5
 2330              		.cfi_endproc
 2331              	.LFE190:
 2332              		.size	bmk12_setup, .-bmk12_setup
 2333              		.global	patternbmk
 2334              		.global	testbmk13
 2335              		.global	testbmk12
 2336              		.global	testbmk11
 2337              		.global	testbmk10
 2338              		.global	testbmk9
 2339              		.global	testbmk8
 2340              		.global	testbmk7
 2341              		.global	testbmk6
 2342              		.global	testbmk5
 2343              		.global	testbmk4
 2344              		.global	testbmk3
 2345              		.global	testbmk2
 2346              		.global	testbmk1
 2347 000c AFF30080 		.section	.rodata.testbmk8,"a",%progbits
 2348              		.align	2
 2349              		.type	testbmk8, %object
 2350              		.size	testbmk8, 16
 2351              	testbmk8:
 2352 0000 D0010000 		.word	.LC25
 2353 0004 00000000 		.word	0
 2354 0008 00000000 		.word	0
 2355 000c 00000000 		.word	bmk8_execute
 2356              		.section	.rodata.patternbmk,"a",%progbits
 2357              		.align	2
 2358              		.type	patternbmk, %object
 2359              		.size	patternbmk, 56
 2360              	patternbmk:
 2361 0000 00000000 		.word	testbmk1
 2362 0004 00000000 		.word	testbmk2
 2363 0008 00000000 		.word	testbmk3
 2364 000c 00000000 		.word	testbmk4
 2365 0010 00000000 		.word	testbmk5
 2366 0014 00000000 		.word	testbmk6
 2367 0018 00000000 		.word	testbmk7
 2368 001c 00000000 		.word	testbmk8
 2369 0020 00000000 		.word	testbmk9
 2370 0024 00000000 		.word	testbmk10
 2371 0028 00000000 		.word	testbmk11
 2372 002c 00000000 		.word	testbmk12
 2373 0030 00000000 		.word	testbmk13
 2374 0034 00000000 		.word	0
 2375              		.section	.bss.vt1.6104,"aw",%nobits
 2376              		.align	2
 2377              		.set	.LANCHOR3,. + 0
 2378              		.type	vt1.6104, %object
ARM GAS  /tmp/ccstjkpx.s 			page 43


 2379              		.size	vt1.6104, 20
 2380              	vt1.6104:
 2381 0000 00000000 		.space	20
 2381      00000000 
 2381      00000000 
 2381      00000000 
 2381      00000000 
 2382              		.section	.rodata.testbmk2,"a",%progbits
 2383              		.align	2
 2384              		.type	testbmk2, %object
 2385              		.size	testbmk2, 16
 2386              	testbmk2:
 2387 0000 98020000 		.word	.LC31
 2388 0004 00000000 		.word	0
 2389 0008 00000000 		.word	0
 2390 000c 00000000 		.word	bmk2_execute
 2391              		.section	.bss.iq.6094,"aw",%nobits
 2392              		.align	2
 2393              		.set	.LANCHOR1,. + 0
 2394              		.type	iq.6094, %object
 2395              		.size	iq.6094, 36
 2396              	iq.6094:
 2397 0000 00000000 		.space	36
 2397      00000000 
 2397      00000000 
 2397      00000000 
 2397      00000000 
 2398              		.section	.rodata.testbmk10,"a",%progbits
 2399              		.align	2
 2400              		.type	testbmk10, %object
 2401              		.size	testbmk10, 16
 2402              	testbmk10:
 2403 0000 88010000 		.word	.LC23
 2404 0004 00000000 		.word	0
 2405 0008 00000000 		.word	0
 2406 000c 00000000 		.word	bmk10_execute
 2407              		.section	.rodata.testbmk5,"a",%progbits
 2408              		.align	2
 2409              		.type	testbmk5, %object
 2410              		.size	testbmk5, 16
 2411              	testbmk5:
 2412 0000 44020000 		.word	.LC28
 2413 0004 00000000 		.word	0
 2414 0008 00000000 		.word	0
 2415 000c 00000000 		.word	bmk5_execute
 2416              		.section	.rodata.testbmk4,"a",%progbits
 2417              		.align	2
 2418              		.type	testbmk4, %object
 2419              		.size	testbmk4, 16
 2420              	testbmk4:
 2421 0000 64020000 		.word	.LC29
 2422 0004 00000000 		.word	0
 2423 0008 00000000 		.word	0
 2424 000c 00000000 		.word	bmk4_execute
 2425              		.section	.bss.mtx1,"aw",%nobits
 2426              		.align	2
 2427              		.set	.LANCHOR5,. + 0
ARM GAS  /tmp/ccstjkpx.s 			page 44


 2428              		.type	mtx1, %object
 2429              		.size	mtx1, 16
 2430              	mtx1:
 2431 0000 00000000 		.space	16
 2431      00000000 
 2431      00000000 
 2431      00000000 
 2432              		.section	.rodata.testbmk3,"a",%progbits
 2433              		.align	2
 2434              		.type	testbmk3, %object
 2435              		.size	testbmk3, 16
 2436              	testbmk3:
 2437 0000 80020000 		.word	.LC30
 2438 0004 00000000 		.word	0
 2439 0008 00000000 		.word	0
 2440 000c 00000000 		.word	bmk3_execute
 2441              		.section	.rodata.str1.4,"aMS",%progbits,1
 2442              		.align	2
 2443              	.LC0:
 2444 0000 2D2D2D20 		.ascii	"--- System: \000"
 2444      53797374 
 2444      656D3A20 
 2444      00
 2445 000d 000000   		.space	3
 2446              	.LC1:
 2447 0010 20627974 		.ascii	" bytes\000"
 2447      657300
 2448 0017 00       		.space	1
 2449              	.LC2:
 2450 0018 2D2D2D20 		.ascii	"--- Thread: \000"
 2450      54687265 
 2450      61643A20 
 2450      00
 2451 0025 000000   		.space	3
 2452              	.LC3:
 2453 0028 2D2D2D20 		.ascii	"--- Timer : \000"
 2453      54696D65 
 2453      72203A20 
 2453      00
 2454 0035 000000   		.space	3
 2455              	.LC4:
 2456 0038 2D2D2D20 		.ascii	"--- Semaph: \000"
 2456      53656D61 
 2456      70683A20 
 2456      00
 2457 0045 000000   		.space	3
 2458              	.LC5:
 2459 0048 2D2D2D20 		.ascii	"--- EventS: \000"
 2459      4576656E 
 2459      74533A20 
 2459      00
 2460 0055 000000   		.space	3
 2461              	.LC6:
 2462 0058 2D2D2D20 		.ascii	"--- EventL: \000"
 2462      4576656E 
 2462      744C3A20 
 2462      00
ARM GAS  /tmp/ccstjkpx.s 			page 45


 2463 0065 000000   		.space	3
 2464              	.LC7:
 2465 0068 2D2D2D20 		.ascii	"--- Mutex : \000"
 2465      4D757465 
 2465      78203A20 
 2465      00
 2466 0075 000000   		.space	3
 2467              	.LC8:
 2468 0078 2D2D2D20 		.ascii	"--- CondV.: \000"
 2468      436F6E64 
 2468      562E3A20 
 2468      00
 2469 0085 000000   		.space	3
 2470              	.LC9:
 2471 0088 2D2D2D20 		.ascii	"--- Queue : \000"
 2471      51756575 
 2471      65203A20 
 2471      00
 2472 0095 000000   		.space	3
 2473              	.LC10:
 2474 0098 2D2D2D20 		.ascii	"--- MailB.: \000"
 2474      4D61696C 
 2474      422E3A20 
 2474      00
 2475 00a5 000000   		.space	3
 2476              	.LC11:
 2477 00a8 2D2D2D20 		.ascii	"--- Score : \000"
 2477      53636F72 
 2477      65203A20 
 2477      00
 2478 00b5 000000   		.space	3
 2479              	.LC12:
 2480 00b8 20746872 		.ascii	" threads/S\000"
 2480      65616473 
 2480      2F5300
 2481 00c3 00       		.space	1
 2482              	.LC13:
 2483 00c4 206D7367 		.ascii	" msgs/S, \000"
 2483      732F532C 
 2483      2000
 2484 00ce 0000     		.space	2
 2485              	.LC14:
 2486 00d0 20637478 		.ascii	" ctxswc/S\000"
 2486      7377632F 
 2486      5300
 2487 00da 0000     		.space	2
 2488              	.LC15:
 2489 00dc 20726573 		.ascii	" reschedules/S, \000"
 2489      63686564 
 2489      756C6573 
 2489      2F532C20 
 2489      00
 2490 00ed 000000   		.space	3
 2491              	.LC16:
 2492 00f0 20627974 		.ascii	" bytes/S\000"
 2492      65732F53 
 2492      00
ARM GAS  /tmp/ccstjkpx.s 			page 46


 2493 00f9 000000   		.space	3
 2494              	.LC17:
 2495 00fc 2074696D 		.ascii	" timers/S\000"
 2495      6572732F 
 2495      5300
 2496 0106 0000     		.space	2
 2497              	.LC18:
 2498 0108 20776169 		.ascii	" wait+signal/S\000"
 2498      742B7369 
 2498      676E616C 
 2498      2F5300
 2499 0117 00       		.space	1
 2500              	.LC19:
 2501 0118 206C6F63 		.ascii	" lock+unlock/S\000"
 2501      6B2B756E 
 2501      6C6F636B 
 2501      2F5300
 2502 0127 00       		.space	1
 2503              	.LC20:
 2504 0128 42656E63 		.ascii	"Benchmark, RAM footprint\000"
 2504      686D6172 
 2504      6B2C2052 
 2504      414D2066 
 2504      6F6F7470 
 2505 0141 000000   		.space	3
 2506              	.LC21:
 2507 0144 42656E63 		.ascii	"Benchmark, mutexes lock/unlock\000"
 2507      686D6172 
 2507      6B2C206D 
 2507      75746578 
 2507      6573206C 
 2508 0163 00       		.space	1
 2509              	.LC22:
 2510 0164 42656E63 		.ascii	"Benchmark, semaphores wait/signal\000"
 2510      686D6172 
 2510      6B2C2073 
 2510      656D6170 
 2510      686F7265 
 2511 0186 0000     		.space	2
 2512              	.LC23:
 2513 0188 42656E63 		.ascii	"Benchmark, virtual timers set/reset\000"
 2513      686D6172 
 2513      6B2C2076 
 2513      69727475 
 2513      616C2074 
 2514              	.LC24:
 2515 01ac 42656E63 		.ascii	"Benchmark, I/O Queues throughput\000"
 2515      686D6172 
 2515      6B2C2049 
 2515      2F4F2051 
 2515      75657565 
 2516 01cd 000000   		.space	3
 2517              	.LC25:
 2518 01d0 42656E63 		.ascii	"Benchmark, round robin context switching\000"
 2518      686D6172 
 2518      6B2C2072 
 2518      6F756E64 
ARM GAS  /tmp/ccstjkpx.s 			page 47


 2518      20726F62 
 2519 01f9 000000   		.space	3
 2520              	.LC26:
 2521 01fc 42656E63 		.ascii	"Benchmark, mass reschedule, 5 threads\000"
 2521      686D6172 
 2521      6B2C206D 
 2521      61737320 
 2521      72657363 
 2522 0222 0000     		.space	2
 2523              	.LC27:
 2524 0224 42656E63 		.ascii	"Benchmark, threads, create only\000"
 2524      686D6172 
 2524      6B2C2074 
 2524      68726561 
 2524      64732C20 
 2525              	.LC28:
 2526 0244 42656E63 		.ascii	"Benchmark, threads, full cycle\000"
 2526      686D6172 
 2526      6B2C2074 
 2526      68726561 
 2526      64732C20 
 2527 0263 00       		.space	1
 2528              	.LC29:
 2529 0264 42656E63 		.ascii	"Benchmark, context switch\000"
 2529      686D6172 
 2529      6B2C2063 
 2529      6F6E7465 
 2529      78742073 
 2530 027e 0000     		.space	2
 2531              	.LC30:
 2532 0280 42656E63 		.ascii	"Benchmark, messages #3\000"
 2532      686D6172 
 2532      6B2C206D 
 2532      65737361 
 2532      67657320 
 2533 0297 00       		.space	1
 2534              	.LC31:
 2535 0298 42656E63 		.ascii	"Benchmark, messages #2\000"
 2535      686D6172 
 2535      6B2C206D 
 2535      65737361 
 2535      67657320 
 2536 02af 00       		.space	1
 2537              	.LC32:
 2538 02b0 42656E63 		.ascii	"Benchmark, messages #1\000"
 2538      686D6172 
 2538      6B2C206D 
 2538      65737361 
 2538      67657320 
 2539 02c7 00       		.section	.rodata.testbmk9,"a",%progbits
 2540              		.align	2
 2541              		.type	testbmk9, %object
 2542              		.size	testbmk9, 16
 2543              	testbmk9:
 2544 0000 AC010000 		.word	.LC24
 2545 0004 00000000 		.word	0
 2546 0008 00000000 		.word	0
ARM GAS  /tmp/ccstjkpx.s 			page 48


 2547 000c 00000000 		.word	bmk9_execute
 2548              		.section	.bss.sem1,"aw",%nobits
 2549              		.align	2
 2550              		.set	.LANCHOR0,. + 0
 2551              		.type	sem1, %object
 2552              		.size	sem1, 12
 2553              	sem1:
 2554 0000 00000000 		.space	12
 2554      00000000 
 2554      00000000 
 2555              		.section	.bss.ib.6093,"aw",%nobits
 2556              		.align	2
 2557              		.set	.LANCHOR2,. + 0
 2558              		.type	ib.6093, %object
 2559              		.size	ib.6093, 16
 2560              	ib.6093:
 2561 0000 00000000 		.space	16
 2561      00000000 
 2561      00000000 
 2561      00000000 
 2562              		.section	.rodata.testbmk1,"a",%progbits
 2563              		.align	2
 2564              		.type	testbmk1, %object
 2565              		.size	testbmk1, 16
 2566              	testbmk1:
 2567 0000 B0020000 		.word	.LC32
 2568 0004 00000000 		.word	0
 2569 0008 00000000 		.word	0
 2570 000c 00000000 		.word	bmk1_execute
 2571              		.section	.rodata.testbmk11,"a",%progbits
 2572              		.align	2
 2573              		.type	testbmk11, %object
 2574              		.size	testbmk11, 16
 2575              	testbmk11:
 2576 0000 64010000 		.word	.LC22
 2577 0004 00000000 		.word	bmk11_setup
 2578 0008 00000000 		.word	0
 2579 000c 00000000 		.word	bmk11_execute
 2580              		.section	.rodata.testbmk12,"a",%progbits
 2581              		.align	2
 2582              		.type	testbmk12, %object
 2583              		.size	testbmk12, 16
 2584              	testbmk12:
 2585 0000 44010000 		.word	.LC21
 2586 0004 00000000 		.word	bmk12_setup
 2587 0008 00000000 		.word	0
 2588 000c 00000000 		.word	bmk12_execute
 2589              		.section	.rodata.testbmk13,"a",%progbits
 2590              		.align	2
 2591              		.type	testbmk13, %object
 2592              		.size	testbmk13, 16
 2593              	testbmk13:
 2594 0000 28010000 		.word	.LC20
 2595 0004 00000000 		.word	0
 2596 0008 00000000 		.word	0
 2597 000c 00000000 		.word	bmk13_execute
 2598              		.section	.bss.vt2.6105,"aw",%nobits
ARM GAS  /tmp/ccstjkpx.s 			page 49


 2599              		.align	2
 2600              		.set	.LANCHOR4,. + 0
 2601              		.type	vt2.6105, %object
 2602              		.size	vt2.6105, 20
 2603              	vt2.6105:
 2604 0000 00000000 		.space	20
 2604      00000000 
 2604      00000000 
 2604      00000000 
 2604      00000000 
 2605              		.section	.rodata.testbmk6,"a",%progbits
 2606              		.align	2
 2607              		.type	testbmk6, %object
 2608              		.size	testbmk6, 16
 2609              	testbmk6:
 2610 0000 24020000 		.word	.LC27
 2611 0004 00000000 		.word	0
 2612 0008 00000000 		.word	0
 2613 000c 00000000 		.word	bmk6_execute
 2614              		.section	.rodata.testbmk7,"a",%progbits
 2615              		.align	2
 2616              		.type	testbmk7, %object
 2617              		.size	testbmk7, 16
 2618              	testbmk7:
 2619 0000 FC010000 		.word	.LC26
 2620 0004 00000000 		.word	bmk7_setup
 2621 0008 00000000 		.word	0
 2622 000c 00000000 		.word	bmk7_execute
 2623              		.text
 2624              	.Letext0:
 2625              		.file 5 "/usr/lib/gcc/arm-none-eabi/4.9.3/include/stddef.h"
 2626              		.file 6 "/usr/include/newlib/machine/_default_types.h"
 2627              		.file 7 "/usr/include/newlib/stdint.h"
 2628              		.file 8 "/home/peter/ChibiOS_16.1.4/os/rt/ports/ARMCMx/compilers/GCC/chtypes.h"
 2629              		.file 9 "/home/peter/ChibiOS_16.1.4/os/rt/include/chsystypes.h"
 2630              		.file 10 "/home/peter/ChibiOS_16.1.4/os/rt/include/chschd.h"
 2631              		.file 11 "/home/peter/ChibiOS_16.1.4/os/rt/ports/ARMCMx/chcore.h"
 2632              		.file 12 "/home/peter/ChibiOS_16.1.4/os/rt/ports/ARMCMx/chcore_v7m.h"
 2633              		.file 13 "/home/peter/ChibiOS_16.1.4/os/rt/include/chtm.h"
 2634              		.file 14 "/home/peter/ChibiOS_16.1.4/os/rt/include/chsem.h"
 2635              		.file 15 "/home/peter/ChibiOS_16.1.4/os/rt/include/chmtx.h"
 2636              		.file 16 "/home/peter/ChibiOS_16.1.4/test/rt/test.h"
 2637              		.file 17 "/home/peter/ChibiOS_16.1.4/os/rt/include/chsys.h"
 2638              		.file 18 "/home/peter/ChibiOS_16.1.4/os/rt/include/chmsg.h"
 2639              		.file 19 "/home/peter/ChibiOS_16.1.4/os/ext/CMSIS/include/core_cm3.h"
 2640              		.file 20 "/home/peter/ChibiOS_16.1.4/os/rt/include/chvt.h"