ARM GAS  /tmp/ccJPYHb9.s 			page 1


   1              		.syntax unified
   2              		.cpu cortex-m3
   3              		.fpu softvfp
   4              		.eabi_attribute 20, 1
   5              		.eabi_attribute 21, 1
   6              		.eabi_attribute 23, 3
   7              		.eabi_attribute 24, 1
   8              		.eabi_attribute 25, 1
   9              		.eabi_attribute 26, 1
  10              		.eabi_attribute 30, 2
  11              		.eabi_attribute 34, 1
  12              		.eabi_attribute 18, 4
  13              		.thumb
  14              		.file	"testdyn.c"
  15              		.text
  16              	.Ltext0:
  17              		.cfi_sections	.debug_frame
  18              		.section	.text.dyn1_execute,"ax",%progbits
  19              		.align	2
  20              		.p2align 4,,15
  21              		.thumb
  22              		.thumb_func
  23              		.type	dyn1_execute, %function
  24              	dyn1_execute:
  25              	.LFB172:
  26              		.file 1 "/home/peter/ChibiOS_16.1.4/test/rt/testdyn.c"
  27              		.loc 1 82 0
  28              		.cfi_startproc
  29              		@ args = 0, pretend = 0, frame = 8
  30              		@ frame_needed = 0, uses_anonymous_args = 0
  31 0000 70B5     		push	{r4, r5, r6, lr}
  32              		.cfi_def_cfa_offset 16
  33              		.cfi_offset 4, -16
  34              		.cfi_offset 5, -12
  35              		.cfi_offset 6, -8
  36              		.cfi_offset 14, -4
  37              	.LBB16:
  38              	.LBB17:
  39              	.LBB18:
  40              	.LBB19:
  41              		.file 2 "/home/peter/ChibiOS_16.1.4/os/rt/include/chthreads.h"
  42              		.loc 2 176 0
  43 0002 344B     		ldr	r3, .L13
  44              	.LBE19:
  45              	.LBE18:
  46              	.LBE17:
  47              	.LBE16:
  48              		.loc 1 82 0
  49 0004 84B0     		sub	sp, sp, #16
  50              		.cfi_def_cfa_offset 32
  51              	.LBB22:
  52              	.LBB20:
  53              		.loc 2 189 0
  54 0006 9B69     		ldr	r3, [r3, #24]
  55              	.LBE20:
  56              	.LBE22:
  57              		.loc 1 87 0
ARM GAS  /tmp/ccJPYHb9.s 			page 2


  58 0008 03A9     		add	r1, sp, #12
  59 000a 3348     		ldr	r0, .L13+4
  60              	.LBB23:
  61              	.LBB21:
  62              		.loc 2 189 0
  63 000c 9D68     		ldr	r5, [r3, #8]
  64              	.LBE21:
  65              	.LBE23:
  66              		.loc 1 87 0
  67 000e FFF7FEFF 		bl	chHeapStatus
  68              	.LVL0:
  69              		.loc 1 89 0
  70 0012 324B     		ldr	r3, .L13+8
  71 0014 6A1E     		subs	r2, r5, #1
  72 0016 0093     		str	r3, [sp]
  73 0018 4FF4A471 		mov	r1, #328
  74 001c 304B     		ldr	r3, .L13+12
  75 001e 2E48     		ldr	r0, .L13+4
  76 0020 FFF7FEFF 		bl	chThdCreateFromHeap
  77              	.LVL1:
  78 0024 2F4C     		ldr	r4, .L13+16
  79              		.loc 1 92 0
  80 0026 304B     		ldr	r3, .L13+20
  81 0028 AA1E     		subs	r2, r5, #2
  82              		.loc 1 89 0
  83 002a 2060     		str	r0, [r4]
  84              		.loc 1 92 0
  85 002c 0093     		str	r3, [sp]
  86 002e 4FF4A471 		mov	r1, #328
  87 0032 2B4B     		ldr	r3, .L13+12
  88 0034 2848     		ldr	r0, .L13+4
  89 0036 FFF7FEFF 		bl	chThdCreateFromHeap
  90              	.LVL2:
  91              		.loc 1 96 0
  92 003a 02A9     		add	r1, sp, #8
  93              		.loc 1 92 0
  94 003c 6060     		str	r0, [r4, #4]
  95              		.loc 1 96 0
  96 003e 2648     		ldr	r0, .L13+4
  97 0040 FFF7FEFF 		bl	chHeapStatus
  98              	.LVL3:
  99              		.loc 1 97 0
 100 0044 0299     		ldr	r1, [sp, #8]
 101 0046 2448     		ldr	r0, .L13+4
 102 0048 FFF7FEFF 		bl	chHeapAlloc
 103              	.LVL4:
 104              		.loc 1 98 0
 105 004c 274B     		ldr	r3, .L13+24
 106 004e 4FF4A471 		mov	r1, #328
 107              		.loc 1 97 0
 108 0052 0646     		mov	r6, r0
 109              	.LVL5:
 110              		.loc 1 98 0
 111 0054 EA1E     		subs	r2, r5, #3
 112 0056 0093     		str	r3, [sp]
 113 0058 1F48     		ldr	r0, .L13+4
 114              	.LVL6:
ARM GAS  /tmp/ccJPYHb9.s 			page 3


 115 005a 214B     		ldr	r3, .L13+12
 116 005c FFF7FEFF 		bl	chThdCreateFromHeap
 117              	.LVL7:
 118 0060 A060     		str	r0, [r4, #8]
 119              		.loc 1 101 0
 120 0062 3046     		mov	r0, r6
 121 0064 FFF7FEFF 		bl	chHeapFree
 122              	.LVL8:
 123              		.loc 1 103 0
 124 0068 2168     		ldr	r1, [r4]
 125 006a 21B1     		cbz	r1, .L2
 126              		.loc 1 103 0 is_stmt 0 discriminator 1
 127 006c 6168     		ldr	r1, [r4, #4]
 128 006e 11B1     		cbz	r1, .L2
 129              		.loc 1 103 0 discriminator 3
 130 0070 A168     		ldr	r1, [r4, #8]
 131 0072 31B3     		cbz	r1, .L11
 132 0074 0021     		movs	r1, #0
 133              	.L2:
 134              		.loc 1 103 0 discriminator 12
 135 0076 0120     		movs	r0, #1
 136 0078 FFF7FEFF 		bl	_test_assert
 137              	.LVL9:
 138 007c 08B1     		cbz	r0, .L12
 139              	.L1:
 140              		.loc 1 117 0 is_stmt 1
 141 007e 04B0     		add	sp, sp, #16
 142              		.cfi_remember_state
 143              		.cfi_def_cfa_offset 16
 144              		@ sp needed
 145 0080 70BD     		pop	{r4, r5, r6, pc}
 146              	.LVL10:
 147              	.L12:
 148              		.cfi_restore_state
 149              		.loc 1 111 0
 150 0082 FFF7FEFF 		bl	test_wait_threads
 151              	.LVL11:
 152              		.loc 1 112 0
 153 0086 0220     		movs	r0, #2
 154 0088 1949     		ldr	r1, .L13+28
 155 008a FFF7FEFF 		bl	_test_assert_sequence
 156              	.LVL12:
 157 008e 0028     		cmp	r0, #0
 158 0090 F5D1     		bne	.L1
 159              		.loc 1 115 0
 160 0092 02A9     		add	r1, sp, #8
 161 0094 1048     		ldr	r0, .L13+4
 162 0096 FFF7FEFF 		bl	chHeapStatus
 163              	.LVL13:
 164 009a A0F10101 		sub	r1, r0, #1
 165 009e B1FA81F1 		clz	r1, r1
 166 00a2 0320     		movs	r0, #3
 167 00a4 4909     		lsrs	r1, r1, #5
 168 00a6 FFF7FEFF 		bl	_test_assert
 169              	.LVL14:
 170 00aa 0028     		cmp	r0, #0
 171 00ac E7D1     		bne	.L1
ARM GAS  /tmp/ccJPYHb9.s 			page 4


 172              		.loc 1 116 0
 173 00ae 0299     		ldr	r1, [sp, #8]
 174 00b0 039B     		ldr	r3, [sp, #12]
 175 00b2 0420     		movs	r0, #4
 176 00b4 C91A     		subs	r1, r1, r3
 177 00b6 B1FA81F1 		clz	r1, r1
 178 00ba 4909     		lsrs	r1, r1, #5
 179 00bc FFF7FEFF 		bl	_test_assert
 180              	.LVL15:
 181 00c0 DDE7     		b	.L1
 182              	.L11:
 183              		.loc 1 103 0 discriminator 5
 184 00c2 E368     		ldr	r3, [r4, #12]
 185 00c4 002B     		cmp	r3, #0
 186 00c6 D6D1     		bne	.L2
 187              		.loc 1 103 0 is_stmt 0 discriminator 7
 188 00c8 2169     		ldr	r1, [r4, #16]
 189 00ca B1FA81F1 		clz	r1, r1
 190 00ce 4909     		lsrs	r1, r1, #5
 191 00d0 D1E7     		b	.L2
 192              	.L14:
 193 00d2 00BF     		.align	2
 194              	.L13:
 195 00d4 00000000 		.word	ch
 196 00d8 00000000 		.word	.LANCHOR0
 197 00dc 00000000 		.word	.LC0
 198 00e0 00000000 		.word	thread
 199 00e4 00000000 		.word	threads
 200 00e8 04000000 		.word	.LC1
 201 00ec 08000000 		.word	.LC2
 202 00f0 0C000000 		.word	.LC3
 203              		.cfi_endproc
 204              	.LFE172:
 205              		.size	dyn1_execute, .-dyn1_execute
 206 00f4 AFF30080 		.section	.text.thread,"ax",%progbits
 206      AFF30080 
 206      AFF30080 
 207              		.align	2
 208              		.p2align 4,,15
 209              		.thumb
 210              		.thumb_func
 211              		.type	thread, %function
 212              	thread:
 213              	.LFB170:
 214              		.loc 1 71 0 is_stmt 1
 215              		.cfi_startproc
 216              		@ args = 0, pretend = 0, frame = 0
 217              		@ frame_needed = 0, uses_anonymous_args = 0
 218              		@ link register save eliminated.
 219              	.LVL16:
 220              		.loc 1 73 0
 221 0000 0078     		ldrb	r0, [r0]	@ zero_extendqisi2
 222              	.LVL17:
 223 0002 FFF7FEBF 		b	test_emit_token
 224              	.LVL18:
 225              		.cfi_endproc
 226              	.LFE170:
ARM GAS  /tmp/ccJPYHb9.s 			page 5


 227              		.size	thread, .-thread
 228 0006 00BFAFF3 		.section	.text.dyn1_setup,"ax",%progbits
 228      0080AFF3 
 228      0080
 229              		.align	2
 230              		.p2align 4,,15
 231              		.thumb
 232              		.thumb_func
 233              		.type	dyn1_setup, %function
 234              	dyn1_setup:
 235              	.LFB171:
 236              		.loc 1 77 0
 237              		.cfi_startproc
 238              		@ args = 0, pretend = 0, frame = 0
 239              		@ frame_needed = 0, uses_anonymous_args = 0
 240              		@ link register save eliminated.
 241              		.loc 1 79 0
 242 0000 0248     		ldr	r0, .L17
 243 0002 0349     		ldr	r1, .L17+4
 244 0004 4FF4CD62 		mov	r2, #1640
 245 0008 FFF7FEBF 		b	chHeapObjectInit
 246              	.LVL19:
 247              	.L18:
 248              		.align	2
 249              	.L17:
 250 000c 00000000 		.word	.LANCHOR0
 251 0010 00000000 		.word	test
 252              		.cfi_endproc
 253              	.LFE171:
 254              		.size	dyn1_setup, .-dyn1_setup
 255 0014 AFF30080 		.section	.text.dyn3_setup,"ax",%progbits
 255      AFF30080 
 255      AFF30080 
 256              		.align	2
 257              		.p2align 4,,15
 258              		.thumb
 259              		.thumb_func
 260              		.type	dyn3_setup, %function
 261              	dyn3_setup:
 262              	.LFB176:
 263              		.loc 1 204 0
 264              		.cfi_startproc
 265              		@ args = 0, pretend = 0, frame = 0
 266              		@ frame_needed = 0, uses_anonymous_args = 0
 267              		@ link register save eliminated.
 268              		.loc 1 206 0
 269 0000 0248     		ldr	r0, .L20
 270 0002 0349     		ldr	r1, .L20+4
 271 0004 4FF4CD62 		mov	r2, #1640
 272 0008 FFF7FEBF 		b	chHeapObjectInit
 273              	.LVL20:
 274              	.L21:
 275              		.align	2
 276              	.L20:
 277 000c 00000000 		.word	.LANCHOR0
 278 0010 00000000 		.word	test
 279              		.cfi_endproc
ARM GAS  /tmp/ccJPYHb9.s 			page 6


 280              	.LFE176:
 281              		.size	dyn3_setup, .-dyn3_setup
 282 0014 AFF30080 		.section	.text.dyn2_execute,"ax",%progbits
 282      AFF30080 
 282      AFF30080 
 283              		.align	2
 284              		.p2align 4,,15
 285              		.thumb
 286              		.thumb_func
 287              		.type	dyn2_execute, %function
 288              	dyn2_execute:
 289              	.LFB174:
 290              		.loc 1 143 0
 291              		.cfi_startproc
 292              		@ args = 0, pretend = 0, frame = 0
 293              		@ frame_needed = 0, uses_anonymous_args = 0
 294              	.LBB24:
 295              	.LBB25:
 296              	.LBB26:
 297              	.LBB27:
 298              		.loc 2 176 0
 299 0000 314B     		ldr	r3, .L37
 300              	.LBE27:
 301              	.LBE26:
 302              	.LBE25:
 303              	.LBE24:
 304              		.loc 1 143 0
 305 0002 70B5     		push	{r4, r5, r6, lr}
 306              		.cfi_def_cfa_offset 16
 307              		.cfi_offset 4, -16
 308              		.cfi_offset 5, -12
 309              		.cfi_offset 6, -8
 310              		.cfi_offset 14, -4
 311              	.LBB29:
 312              	.LBB28:
 313              		.loc 2 189 0
 314 0004 9B69     		ldr	r3, [r3, #24]
 315 0006 314C     		ldr	r4, .L37+4
 316 0008 9D68     		ldr	r5, [r3, #8]
 317              	.LVL21:
 318 000a 04F11006 		add	r6, r4, #16
 319              	.LVL22:
 320              	.L23:
 321              	.LBE28:
 322              	.LBE29:
 323              		.loc 1 149 0 discriminator 3
 324 000e 54F8041B 		ldr	r1, [r4], #4
 325 0012 2F48     		ldr	r0, .L37+8
 326 0014 FFF7FEFF 		bl	chPoolFree
 327              	.LVL23:
 328              		.loc 1 148 0 discriminator 3
 329 0018 B442     		cmp	r4, r6
 330 001a F8D1     		bne	.L23
 331              		.loc 1 152 0
 332 001c 691E     		subs	r1, r5, #1
 333 001e 2D4A     		ldr	r2, .L37+12
 334 0020 2D4B     		ldr	r3, .L37+16
ARM GAS  /tmp/ccJPYHb9.s 			page 7


 335 0022 2B48     		ldr	r0, .L37+8
 336 0024 FFF7FEFF 		bl	chThdCreateFromMemoryPool
 337              	.LVL24:
 338 0028 2C4C     		ldr	r4, .L37+20
 339              		.loc 1 153 0
 340 002a A91E     		subs	r1, r5, #2
 341              		.loc 1 152 0
 342 002c 2060     		str	r0, [r4]
 343              		.loc 1 153 0
 344 002e 294A     		ldr	r2, .L37+12
 345 0030 2B4B     		ldr	r3, .L37+24
 346 0032 2748     		ldr	r0, .L37+8
 347 0034 FFF7FEFF 		bl	chThdCreateFromMemoryPool
 348              	.LVL25:
 349              		.loc 1 154 0
 350 0038 E91E     		subs	r1, r5, #3
 351              		.loc 1 153 0
 352 003a 6060     		str	r0, [r4, #4]
 353              		.loc 1 154 0
 354 003c 254A     		ldr	r2, .L37+12
 355 003e 294B     		ldr	r3, .L37+28
 356 0040 2348     		ldr	r0, .L37+8
 357 0042 FFF7FEFF 		bl	chThdCreateFromMemoryPool
 358              	.LVL26:
 359              		.loc 1 155 0
 360 0046 291F     		subs	r1, r5, #4
 361              		.loc 1 154 0
 362 0048 A060     		str	r0, [r4, #8]
 363              		.loc 1 155 0
 364 004a 224A     		ldr	r2, .L37+12
 365 004c 264B     		ldr	r3, .L37+32
 366 004e 2048     		ldr	r0, .L37+8
 367 0050 FFF7FEFF 		bl	chThdCreateFromMemoryPool
 368              	.LVL27:
 369              		.loc 1 156 0
 370 0054 691F     		subs	r1, r5, #5
 371              		.loc 1 155 0
 372 0056 E060     		str	r0, [r4, #12]
 373              		.loc 1 156 0
 374 0058 1E4A     		ldr	r2, .L37+12
 375 005a 1D48     		ldr	r0, .L37+8
 376 005c 234B     		ldr	r3, .L37+36
 377 005e FFF7FEFF 		bl	chThdCreateFromMemoryPool
 378              	.LVL28:
 379              		.loc 1 158 0
 380 0062 2168     		ldr	r1, [r4]
 381              		.loc 1 156 0
 382 0064 2061     		str	r0, [r4, #16]
 383              		.loc 1 158 0
 384 0066 41B1     		cbz	r1, .L24
 385              		.loc 1 158 0 is_stmt 0 discriminator 1
 386 0068 6168     		ldr	r1, [r4, #4]
 387 006a 31B1     		cbz	r1, .L24
 388              		.loc 1 158 0 discriminator 3
 389 006c A168     		ldr	r1, [r4, #8]
 390 006e 21B1     		cbz	r1, .L24
 391              		.loc 1 158 0 discriminator 5
ARM GAS  /tmp/ccJPYHb9.s 			page 8


 392 0070 E168     		ldr	r1, [r4, #12]
 393 0072 11B1     		cbz	r1, .L24
 394              		.loc 1 158 0 discriminator 7
 395 0074 B0FA80F1 		clz	r1, r0
 396 0078 4909     		lsrs	r1, r1, #5
 397              	.L24:
 398              		.loc 1 158 0 discriminator 12
 399 007a 0120     		movs	r0, #1
 400 007c FFF7FEFF 		bl	_test_assert
 401              	.LVL29:
 402 0080 00B1     		cbz	r0, .L36
 403              	.L22:
 404 0082 70BD     		pop	{r4, r5, r6, pc}
 405              	.L36:
 406              		.loc 1 166 0 is_stmt 1
 407 0084 FFF7FEFF 		bl	test_wait_threads
 408              	.LVL30:
 409              		.loc 1 167 0
 410 0088 0220     		movs	r0, #2
 411 008a 1949     		ldr	r1, .L37+40
 412 008c FFF7FEFF 		bl	_test_assert_sequence
 413              	.LVL31:
 414 0090 0028     		cmp	r0, #0
 415 0092 F6D1     		bne	.L22
 416 0094 0424     		movs	r4, #4
 417              	.L28:
 418              	.LVL32:
 419              		.loc 1 171 0
 420 0096 0E48     		ldr	r0, .L37+8
 421 0098 FFF7FEFF 		bl	chPoolAlloc
 422              	.LVL33:
 423 009c 011C     		adds	r1, r0, #0
 424 009e 18BF     		it	ne
 425 00a0 0121     		movne	r1, #1
 426 00a2 0320     		movs	r0, #3
 427 00a4 FFF7FEFF 		bl	_test_assert
 428              	.LVL34:
 429 00a8 0028     		cmp	r0, #0
 430 00aa EAD1     		bne	.L22
 431              		.loc 1 170 0 discriminator 2
 432 00ac 013C     		subs	r4, r4, #1
 433              	.LVL35:
 434 00ae F2D1     		bne	.L28
 435              		.loc 1 172 0
 436 00b0 0748     		ldr	r0, .L37+8
 437 00b2 FFF7FEFF 		bl	chPoolAlloc
 438              	.LVL36:
 439              		.loc 1 173 0
 440 00b6 BDE87040 		pop	{r4, r5, r6, lr}
 441              		.cfi_restore 14
 442              		.cfi_restore 6
 443              		.cfi_restore 5
 444              		.cfi_restore 4
 445              		.cfi_def_cfa_offset 0
 446              	.LVL37:
 447              		.loc 1 172 0
 448 00ba B0FA80F1 		clz	r1, r0
ARM GAS  /tmp/ccJPYHb9.s 			page 9


 449 00be 0420     		movs	r0, #4
 450 00c0 4909     		lsrs	r1, r1, #5
 451 00c2 FFF7FEBF 		b	_test_assert
 452              	.LVL38:
 453              	.L38:
 454 00c6 00BF     		.align	2
 455              	.L37:
 456 00c8 00000000 		.word	ch
 457 00cc 00000000 		.word	wa
 458 00d0 00000000 		.word	.LANCHOR1
 459 00d4 00000000 		.word	thread
 460 00d8 00000000 		.word	.LC0
 461 00dc 00000000 		.word	threads
 462 00e0 04000000 		.word	.LC1
 463 00e4 08000000 		.word	.LC2
 464 00e8 10000000 		.word	.LC4
 465 00ec 14000000 		.word	.LC5
 466 00f0 18000000 		.word	.LC6
 467              		.cfi_endproc
 468              	.LFE174:
 469              		.size	dyn2_execute, .-dyn2_execute
 470 00f4 AFF30080 		.section	.text.dyn2_setup,"ax",%progbits
 470      AFF30080 
 470      AFF30080 
 471              		.align	2
 472              		.p2align 4,,15
 473              		.thumb
 474              		.thumb_func
 475              		.type	dyn2_setup, %function
 476              	dyn2_setup:
 477              	.LFB173:
 478              		.loc 1 138 0
 479              		.cfi_startproc
 480              		@ args = 0, pretend = 0, frame = 0
 481              		@ frame_needed = 0, uses_anonymous_args = 0
 482              		@ link register save eliminated.
 483              		.loc 1 140 0
 484 0000 0248     		ldr	r0, .L40
 485 0002 4FF4A471 		mov	r1, #328
 486 0006 0022     		movs	r2, #0
 487 0008 FFF7FEBF 		b	chPoolObjectInit
 488              	.LVL39:
 489              	.L41:
 490              		.align	2
 491              	.L40:
 492 000c 00000000 		.word	.LANCHOR1
 493              		.cfi_endproc
 494              	.LFE173:
 495              		.size	dyn2_setup, .-dyn2_setup
 496              		.section	.text.regfind,"ax",%progbits
 497              		.align	2
 498              		.p2align 4,,15
 499              		.thumb
 500              		.thumb_func
 501              		.type	regfind, %function
 502              	regfind:
 503              	.LFB175:
ARM GAS  /tmp/ccJPYHb9.s 			page 10


 504              		.loc 1 192 0
 505              		.cfi_startproc
 506              		@ args = 0, pretend = 0, frame = 0
 507              		@ frame_needed = 0, uses_anonymous_args = 0
 508              	.LVL40:
 509 0000 38B5     		push	{r3, r4, r5, lr}
 510              		.cfi_def_cfa_offset 16
 511              		.cfi_offset 3, -16
 512              		.cfi_offset 4, -12
 513              		.cfi_offset 5, -8
 514              		.cfi_offset 14, -4
 515              		.loc 1 192 0
 516 0002 0546     		mov	r5, r0
 517              		.loc 1 196 0
 518 0004 FFF7FEFF 		bl	chRegFirstThread
 519              	.LVL41:
 520 0008 0346     		mov	r3, r0
 521              	.LVL42:
 522              		.loc 1 194 0
 523 000a 0024     		movs	r4, #0
 524              	.LVL43:
 525              	.L43:
 526              		.loc 1 199 0 discriminator 1
 527 000c 1846     		mov	r0, r3
 528              		.loc 1 198 0 discriminator 1
 529 000e AB42     		cmp	r3, r5
 530 0010 08BF     		it	eq
 531 0012 44F00104 		orreq	r4, r4, #1
 532              	.LVL44:
 533              		.loc 1 199 0 discriminator 1
 534 0016 FFF7FEFF 		bl	chRegNextThread
 535              	.LVL45:
 536              		.loc 1 200 0 discriminator 1
 537 001a 0346     		mov	r3, r0
 538 001c 0028     		cmp	r0, #0
 539 001e F5D1     		bne	.L43
 540              		.loc 1 202 0
 541 0020 2046     		mov	r0, r4
 542              	.LVL46:
 543 0022 38BD     		pop	{r3, r4, r5, pc}
 544              		.cfi_endproc
 545              	.LFE175:
 546              		.size	regfind, .-regfind
 547 0024 AFF30080 		.section	.text.dyn3_execute,"ax",%progbits
 547      AFF30080 
 547      AFF30080 
 548              		.align	2
 549              		.p2align 4,,15
 550              		.thumb
 551              		.thumb_func
 552              		.type	dyn3_execute, %function
 553              	dyn3_execute:
 554              	.LFB177:
 555              		.loc 1 209 0
 556              		.cfi_startproc
 557              		@ args = 0, pretend = 0, frame = 0
 558              		@ frame_needed = 0, uses_anonymous_args = 0
ARM GAS  /tmp/ccJPYHb9.s 			page 11


 559 0000 10B5     		push	{r4, lr}
 560              		.cfi_def_cfa_offset 8
 561              		.cfi_offset 4, -8
 562              		.cfi_offset 14, -4
 563              	.LBB30:
 564              	.LBB31:
 565              	.LBB32:
 566              	.LBB33:
 567              		.loc 2 176 0
 568 0002 484A     		ldr	r2, .L52
 569              	.LBE33:
 570              	.LBE32:
 571              	.LBE31:
 572              	.LBE30:
 573              		.loc 1 214 0
 574 0004 484B     		ldr	r3, .L52+4
 575              	.LBB35:
 576              	.LBB34:
 577              		.loc 2 189 0
 578 0006 9269     		ldr	r2, [r2, #24]
 579              	.LBE34:
 580              	.LBE35:
 581              		.loc 1 209 0
 582 0008 82B0     		sub	sp, sp, #8
 583              		.cfi_def_cfa_offset 16
 584              		.loc 1 214 0
 585 000a 9268     		ldr	r2, [r2, #8]
 586 000c 4FF4A471 		mov	r1, #328
 587 0010 0093     		str	r3, [sp]
 588 0012 4648     		ldr	r0, .L52+8
 589 0014 013A     		subs	r2, r2, #1
 590 0016 464B     		ldr	r3, .L52+12
 591 0018 FFF7FEFF 		bl	chThdCreateFromHeap
 592              	.LVL47:
 593              		.loc 1 215 0
 594 001c 817F     		ldrb	r1, [r0, #30]	@ zero_extendqisi2
 595              		.loc 1 214 0
 596 001e 0446     		mov	r4, r0
 597              	.LVL48:
 598              		.loc 1 215 0
 599 0020 0120     		movs	r0, #1
 600              	.LVL49:
 601 0022 091A     		subs	r1, r1, r0
 602 0024 B1FA81F1 		clz	r1, r1
 603 0028 4909     		lsrs	r1, r1, #5
 604 002a FFF7FEFF 		bl	_test_assert
 605              	.LVL50:
 606 002e 08B1     		cbz	r0, .L51
 607              	.L46:
 608              		.loc 1 237 0
 609 0030 02B0     		add	sp, sp, #8
 610              		.cfi_remember_state
 611              		.cfi_def_cfa_offset 8
 612              		@ sp needed
 613 0032 10BD     		pop	{r4, pc}
 614              	.LVL51:
 615              	.L51:
ARM GAS  /tmp/ccJPYHb9.s 			page 12


 616              		.cfi_restore_state
 617              		.loc 1 216 0
 618 0034 2046     		mov	r0, r4
 619 0036 FFF7FEFF 		bl	chThdAddRef
 620              	.LVL52:
 621              		.loc 1 217 0
 622 003a A17F     		ldrb	r1, [r4, #30]	@ zero_extendqisi2
 623 003c 0220     		movs	r0, #2
 624 003e 091A     		subs	r1, r1, r0
 625 0040 B1FA81F1 		clz	r1, r1
 626 0044 4909     		lsrs	r1, r1, #5
 627 0046 FFF7FEFF 		bl	_test_assert
 628              	.LVL53:
 629 004a 0028     		cmp	r0, #0
 630 004c F0D1     		bne	.L46
 631              		.loc 1 218 0
 632 004e 2046     		mov	r0, r4
 633 0050 FFF7FEFF 		bl	chThdRelease
 634              	.LVL54:
 635              		.loc 1 219 0
 636 0054 A17F     		ldrb	r1, [r4, #30]	@ zero_extendqisi2
 637 0056 0320     		movs	r0, #3
 638 0058 A1F10101 		sub	r1, #1
 639 005c B1FA81F1 		clz	r1, r1
 640 0060 4909     		lsrs	r1, r1, #5
 641 0062 FFF7FEFF 		bl	_test_assert
 642              	.LVL55:
 643 0066 0028     		cmp	r0, #0
 644 0068 E2D1     		bne	.L46
 645              		.loc 1 222 0
 646 006a 2046     		mov	r0, r4
 647 006c FFF7FEFF 		bl	regfind
 648              	.LVL56:
 649 0070 0146     		mov	r1, r0
 650 0072 0420     		movs	r0, #4
 651 0074 FFF7FEFF 		bl	_test_assert
 652              	.LVL57:
 653 0078 0028     		cmp	r0, #0
 654 007a D9D1     		bne	.L46
 655              		.loc 1 223 0
 656 007c 2046     		mov	r0, r4
 657 007e FFF7FEFF 		bl	regfind
 658              	.LVL58:
 659 0082 0146     		mov	r1, r0
 660 0084 0520     		movs	r0, #5
 661 0086 FFF7FEFF 		bl	_test_assert
 662              	.LVL59:
 663 008a 0028     		cmp	r0, #0
 664 008c D0D1     		bne	.L46
 665              		.loc 1 226 0
 666 008e 2046     		mov	r0, r4
 667 0090 FFF7FEFF 		bl	chThdRelease
 668              	.LVL60:
 669              		.loc 1 227 0
 670 0094 A17F     		ldrb	r1, [r4, #30]	@ zero_extendqisi2
 671 0096 0620     		movs	r0, #6
 672 0098 B1FA81F1 		clz	r1, r1
ARM GAS  /tmp/ccJPYHb9.s 			page 13


 673 009c 4909     		lsrs	r1, r1, #5
 674 009e FFF7FEFF 		bl	_test_assert
 675              	.LVL61:
 676 00a2 0028     		cmp	r0, #0
 677 00a4 C4D1     		bne	.L46
 678              		.loc 1 228 0
 679 00a6 217F     		ldrb	r1, [r4, #28]	@ zero_extendqisi2
 680 00a8 0720     		movs	r0, #7
 681 00aa B1FA81F1 		clz	r1, r1
 682 00ae 4909     		lsrs	r1, r1, #5
 683 00b0 FFF7FEFF 		bl	_test_assert
 684              	.LVL62:
 685 00b4 0028     		cmp	r0, #0
 686 00b6 BBD1     		bne	.L46
 687              		.loc 1 229 0
 688 00b8 2046     		mov	r0, r4
 689 00ba FFF7FEFF 		bl	regfind
 690              	.LVL63:
 691 00be 0146     		mov	r1, r0
 692 00c0 0820     		movs	r0, #8
 693 00c2 FFF7FEFF 		bl	_test_assert
 694              	.LVL64:
 695 00c6 0028     		cmp	r0, #0
 696 00c8 B2D1     		bne	.L46
 697              		.loc 1 230 0
 698 00ca 2046     		mov	r0, r4
 699 00cc FFF7FEFF 		bl	regfind
 700              	.LVL65:
 701 00d0 0146     		mov	r1, r0
 702 00d2 0920     		movs	r0, #9
 703 00d4 FFF7FEFF 		bl	_test_assert
 704              	.LVL66:
 705 00d8 0028     		cmp	r0, #0
 706 00da A9D1     		bne	.L46
 707              		.loc 1 231 0
 708 00dc 4FF4FA70 		mov	r0, #500
 709 00e0 FFF7FEFF 		bl	chThdSleep
 710              	.LVL67:
 711              		.loc 1 232 0
 712 00e4 217F     		ldrb	r1, [r4, #28]	@ zero_extendqisi2
 713 00e6 0A20     		movs	r0, #10
 714 00e8 A1F10F03 		sub	r3, r1, #15
 715 00ec 5942     		rsbs	r1, r3, #0
 716 00ee 5941     		adcs	r1, r1, r3
 717 00f0 FFF7FEFF 		bl	_test_assert
 718              	.LVL68:
 719 00f4 0028     		cmp	r0, #0
 720 00f6 9BD1     		bne	.L46
 721              		.loc 1 235 0
 722 00f8 2046     		mov	r0, r4
 723 00fa FFF7FEFF 		bl	regfind
 724              	.LVL69:
 725 00fe 0146     		mov	r1, r0
 726 0100 0B20     		movs	r0, #11
 727 0102 FFF7FEFF 		bl	_test_assert
 728              	.LVL70:
 729 0106 0028     		cmp	r0, #0
ARM GAS  /tmp/ccJPYHb9.s 			page 14


 730 0108 92D1     		bne	.L46
 731              		.loc 1 236 0
 732 010a 2046     		mov	r0, r4
 733 010c FFF7FEFF 		bl	regfind
 734              	.LVL71:
 735 0110 80F00101 		eor	r1, r0, #1
 736 0114 C9B2     		uxtb	r1, r1
 737 0116 0C20     		movs	r0, #12
 738              		.loc 1 237 0
 739 0118 02B0     		add	sp, sp, #8
 740              		.cfi_def_cfa_offset 8
 741              		@ sp needed
 742 011a BDE81040 		pop	{r4, lr}
 743              		.cfi_restore 14
 744              		.cfi_restore 4
 745              		.cfi_def_cfa_offset 0
 746              	.LVL72:
 747              		.loc 1 236 0
 748 011e FFF7FEBF 		b	_test_assert
 749              	.LVL73:
 750              	.L53:
 751 0122 00BF     		.align	2
 752              	.L52:
 753 0124 00000000 		.word	ch
 754 0128 00000000 		.word	.LC0
 755 012c 00000000 		.word	.LANCHOR0
 756 0130 00000000 		.word	thread
 757              		.cfi_endproc
 758              	.LFE177:
 759              		.size	dyn3_execute, .-dyn3_execute
 760              		.global	patterndyn
 761              		.global	testdyn3
 762              		.global	testdyn2
 763              		.global	testdyn1
 764 0134 AFF30080 		.section	.rodata.testdyn1,"a",%progbits
 764      AFF30080 
 764      AFF30080 
 765              		.align	2
 766              		.type	testdyn1, %object
 767              		.size	testdyn1, 16
 768              	testdyn1:
 769 0000 78000000 		.word	.LC9
 770 0004 00000000 		.word	dyn1_setup
 771 0008 00000000 		.word	0
 772 000c 00000000 		.word	dyn1_execute
 773              		.section	.rodata.testdyn2,"a",%progbits
 774              		.align	2
 775              		.type	testdyn2, %object
 776              		.size	testdyn2, 16
 777              	testdyn2:
 778 0000 48000000 		.word	.LC8
 779 0004 00000000 		.word	dyn2_setup
 780 0008 00000000 		.word	0
 781 000c 00000000 		.word	dyn2_execute
 782              		.section	.rodata.testdyn3,"a",%progbits
 783              		.align	2
 784              		.type	testdyn3, %object
ARM GAS  /tmp/ccJPYHb9.s 			page 15


 785              		.size	testdyn3, 16
 786              	testdyn3:
 787 0000 20000000 		.word	.LC7
 788 0004 00000000 		.word	dyn3_setup
 789 0008 00000000 		.word	0
 790 000c 00000000 		.word	dyn3_execute
 791              		.section	.bss.mp1,"aw",%nobits
 792              		.align	2
 793              		.set	.LANCHOR1,. + 0
 794              		.type	mp1, %object
 795              		.size	mp1, 12
 796              	mp1:
 797 0000 00000000 		.space	12
 797      00000000 
 797      00000000 
 798              		.section	.rodata.str1.4,"aMS",%progbits,1
 799              		.align	2
 800              	.LC0:
 801 0000 4100     		.ascii	"A\000"
 802 0002 0000     		.space	2
 803              	.LC1:
 804 0004 4200     		.ascii	"B\000"
 805 0006 0000     		.space	2
 806              	.LC2:
 807 0008 4300     		.ascii	"C\000"
 808 000a 0000     		.space	2
 809              	.LC3:
 810 000c 414200   		.ascii	"AB\000"
 811 000f 00       		.space	1
 812              	.LC4:
 813 0010 4400     		.ascii	"D\000"
 814 0012 0000     		.space	2
 815              	.LC5:
 816 0014 4500     		.ascii	"E\000"
 817 0016 0000     		.space	2
 818              	.LC6:
 819 0018 41424344 		.ascii	"ABCD\000"
 819      00
 820 001d 000000   		.space	3
 821              	.LC7:
 822 0020 44796E61 		.ascii	"Dynamic APIs, registry and references\000"
 822      6D696320 
 822      41504973 
 822      2C207265 
 822      67697374 
 823 0046 0000     		.space	2
 824              	.LC8:
 825 0048 44796E61 		.ascii	"Dynamic APIs, threads creation from memory pool\000"
 825      6D696320 
 825      41504973 
 825      2C207468 
 825      72656164 
 826              	.LC9:
 827 0078 44796E61 		.ascii	"Dynamic APIs, threads creation from heap\000"
 827      6D696320 
 827      41504973 
 827      2C207468 
ARM GAS  /tmp/ccJPYHb9.s 			page 16


 827      72656164 
 828 00a1 000000   		.section	.rodata.patterndyn,"a",%progbits
 829              		.align	2
 830              		.type	patterndyn, %object
 831              		.size	patterndyn, 16
 832              	patterndyn:
 833 0000 00000000 		.word	testdyn1
 834 0004 00000000 		.word	testdyn2
 835 0008 00000000 		.word	testdyn3
 836 000c 00000000 		.word	0
 837              		.section	.bss.heap1,"aw",%nobits
 838              		.align	3
 839              		.set	.LANCHOR0,. + 0
 840              		.type	heap1, %object
 841              		.size	heap1, 32
 842              	heap1:
 843 0000 00000000 		.space	32
 843      00000000 
 843      00000000 
 843      00000000 
 843      00000000 
 844              		.text
 845              	.Letext0:
 846              		.file 3 "/usr/lib/gcc/arm-none-eabi/4.9.3/include/stddef.h"
 847              		.file 4 "/usr/include/newlib/machine/_default_types.h"
 848              		.file 5 "/usr/include/newlib/stdint.h"
 849              		.file 6 "/home/peter/ChibiOS_16.1.4/os/rt/ports/ARMCMx/compilers/GCC/chtypes.h"
 850              		.file 7 "/home/peter/ChibiOS_16.1.4/os/rt/include/chsystypes.h"
 851              		.file 8 "/home/peter/ChibiOS_16.1.4/os/rt/include/chschd.h"
 852              		.file 9 "/home/peter/ChibiOS_16.1.4/os/rt/ports/ARMCMx/chcore.h"
 853              		.file 10 "/home/peter/ChibiOS_16.1.4/os/rt/ports/ARMCMx/chcore_v7m.h"
 854              		.file 11 "/home/peter/ChibiOS_16.1.4/os/rt/include/chtm.h"
 855              		.file 12 "/home/peter/ChibiOS_16.1.4/os/rt/include/chsem.h"
 856              		.file 13 "/home/peter/ChibiOS_16.1.4/os/rt/include/chmtx.h"
 857              		.file 14 "/home/peter/ChibiOS_16.1.4/os/rt/include/chmemcore.h"
 858              		.file 15 "/home/peter/ChibiOS_16.1.4/os/rt/include/chheap.h"
 859              		.file 16 "/home/peter/ChibiOS_16.1.4/os/rt/include/chmempools.h"
 860              		.file 17 "/home/peter/ChibiOS_16.1.4/test/rt/test.h"
 861              		.file 18 "/home/peter/ChibiOS_16.1.4/os/ext/CMSIS/include/core_cm3.h"
 862              		.file 19 "/home/peter/ChibiOS_16.1.4/os/rt/include/chdynamic.h"
 863              		.file 20 "/home/peter/ChibiOS_16.1.4/os/rt/include/chregistry.h"