ARM GAS  /tmp/ccerkDPK.s 			page 1


   1              		.syntax unified
   2              		.cpu cortex-m3
   3              		.fpu softvfp
   4              		.eabi_attribute 20, 1
   5              		.eabi_attribute 21, 1
   6              		.eabi_attribute 23, 3
   7              		.eabi_attribute 24, 1
   8              		.eabi_attribute 25, 1
   9              		.eabi_attribute 26, 1
  10              		.eabi_attribute 30, 2
  11              		.eabi_attribute 34, 1
  12              		.eabi_attribute 18, 4
  13              		.thumb
  14              		.file	"testthd.c"
  15              		.text
  16              	.Ltext0:
  17              		.cfi_sections	.debug_frame
  18              		.section	.text.thd1_execute,"ax",%progbits
  19              		.align	2
  20              		.p2align 4,,15
  21              		.thumb
  22              		.thumb_func
  23              		.type	thd1_execute, %function
  24              	thd1_execute:
  25              	.LFB171:
  26              		.file 1 "/home/peter/ChibiOS_16.1.4/test/rt/testthd.c"
  27              		.loc 1 65 0
  28              		.cfi_startproc
  29              		@ args = 0, pretend = 0, frame = 0
  30              		@ frame_needed = 0, uses_anonymous_args = 0
  31 0000 F0B5     		push	{r4, r5, r6, r7, lr}
  32              		.cfi_def_cfa_offset 20
  33              		.cfi_offset 4, -20
  34              		.cfi_offset 5, -16
  35              		.cfi_offset 6, -12
  36              		.cfi_offset 7, -8
  37              		.cfi_offset 14, -4
  38              	.LBB232:
  39              	.LBB233:
  40              	.LBB234:
  41              	.LBB235:
  42              		.file 2 "/home/peter/ChibiOS_16.1.4/os/rt/include/chthreads.h"
  43              		.loc 2 176 0
  44 0002 274F     		ldr	r7, .L3
  45              	.LBE235:
  46              	.LBE234:
  47              	.LBE233:
  48              	.LBE232:
  49              		.loc 1 67 0
  50 0004 274E     		ldr	r6, .L3+4
  51              	.LBB237:
  52              	.LBB236:
  53              		.loc 2 189 0
  54 0006 BB69     		ldr	r3, [r7, #24]
  55              	.LBE236:
  56              	.LBE237:
  57              		.loc 1 67 0
ARM GAS  /tmp/ccerkDPK.s 			page 2


  58 0008 274D     		ldr	r5, .L3+8
  59 000a 9A68     		ldr	r2, [r3, #8]
  60 000c 2749     		ldr	r1, .L3+12
  61              		.loc 1 65 0
  62 000e 83B0     		sub	sp, sp, #12
  63              		.cfi_def_cfa_offset 32
  64              		.loc 1 67 0
  65 0010 2B46     		mov	r3, r5
  66 0012 0091     		str	r1, [sp]
  67 0014 3068     		ldr	r0, [r6]
  68 0016 053A     		subs	r2, r2, #5
  69 0018 4FF4A471 		mov	r1, #328
  70 001c FFF7FEFF 		bl	chThdCreateStatic
  71              	.LVL0:
  72              	.LBB238:
  73              	.LBB239:
  74              		.loc 2 189 0
  75 0020 BB69     		ldr	r3, [r7, #24]
  76              	.LBE239:
  77              	.LBE238:
  78              		.loc 1 67 0
  79 0022 234C     		ldr	r4, .L3+16
  80              		.loc 1 68 0
  81 0024 9A68     		ldr	r2, [r3, #8]
  82 0026 2349     		ldr	r1, .L3+20
  83 0028 7368     		ldr	r3, [r6, #4]
  84              		.loc 1 67 0
  85 002a 2060     		str	r0, [r4]
  86              		.loc 1 68 0
  87 002c 0091     		str	r1, [sp]
  88 002e 043A     		subs	r2, r2, #4
  89 0030 1846     		mov	r0, r3
  90 0032 4FF4A471 		mov	r1, #328
  91 0036 2B46     		mov	r3, r5
  92 0038 FFF7FEFF 		bl	chThdCreateStatic
  93              	.LVL1:
  94              	.LBB240:
  95              	.LBB241:
  96              		.loc 2 189 0
  97 003c BA69     		ldr	r2, [r7, #24]
  98              	.LBE241:
  99              	.LBE240:
 100              		.loc 1 69 0
 101 003e B368     		ldr	r3, [r6, #8]
 102 0040 9268     		ldr	r2, [r2, #8]
 103 0042 1D49     		ldr	r1, .L3+24
 104              		.loc 1 68 0
 105 0044 6060     		str	r0, [r4, #4]
 106              		.loc 1 69 0
 107 0046 0091     		str	r1, [sp]
 108 0048 033A     		subs	r2, r2, #3
 109 004a 1846     		mov	r0, r3
 110 004c 4FF4A471 		mov	r1, #328
 111 0050 2B46     		mov	r3, r5
 112 0052 FFF7FEFF 		bl	chThdCreateStatic
 113              	.LVL2:
 114              	.LBB242:
ARM GAS  /tmp/ccerkDPK.s 			page 3


 115              	.LBB243:
 116              		.loc 2 189 0
 117 0056 BA69     		ldr	r2, [r7, #24]
 118              	.LBE243:
 119              	.LBE242:
 120              		.loc 1 70 0
 121 0058 F368     		ldr	r3, [r6, #12]
 122 005a 9268     		ldr	r2, [r2, #8]
 123 005c 1749     		ldr	r1, .L3+28
 124              		.loc 1 69 0
 125 005e A060     		str	r0, [r4, #8]
 126              		.loc 1 70 0
 127 0060 0091     		str	r1, [sp]
 128 0062 023A     		subs	r2, r2, #2
 129 0064 1846     		mov	r0, r3
 130 0066 4FF4A471 		mov	r1, #328
 131 006a 2B46     		mov	r3, r5
 132 006c FFF7FEFF 		bl	chThdCreateStatic
 133              	.LVL3:
 134              	.LBB244:
 135              	.LBB245:
 136              		.loc 2 189 0
 137 0070 BA69     		ldr	r2, [r7, #24]
 138              	.LBE245:
 139              	.LBE244:
 140              		.loc 1 71 0
 141 0072 3369     		ldr	r3, [r6, #16]
 142 0074 9268     		ldr	r2, [r2, #8]
 143 0076 1249     		ldr	r1, .L3+32
 144              		.loc 1 70 0
 145 0078 E060     		str	r0, [r4, #12]
 146              		.loc 1 71 0
 147 007a 013A     		subs	r2, r2, #1
 148 007c 0091     		str	r1, [sp]
 149 007e 1846     		mov	r0, r3
 150 0080 4FF4A471 		mov	r1, #328
 151 0084 2B46     		mov	r3, r5
 152 0086 FFF7FEFF 		bl	chThdCreateStatic
 153              	.LVL4:
 154 008a 2061     		str	r0, [r4, #16]
 155              		.loc 1 72 0
 156 008c FFF7FEFF 		bl	test_wait_threads
 157              	.LVL5:
 158              		.loc 1 73 0
 159 0090 0C49     		ldr	r1, .L3+36
 160 0092 0120     		movs	r0, #1
 161              		.loc 1 74 0
 162 0094 03B0     		add	sp, sp, #12
 163              		.cfi_def_cfa_offset 20
 164              		@ sp needed
 165 0096 BDE8F040 		pop	{r4, r5, r6, r7, lr}
 166              		.cfi_restore 14
 167              		.cfi_restore 7
 168              		.cfi_restore 6
 169              		.cfi_restore 5
 170              		.cfi_restore 4
 171              		.cfi_def_cfa_offset 0
ARM GAS  /tmp/ccerkDPK.s 			page 4


 172              		.loc 1 73 0
 173 009a FFF7FEBF 		b	_test_assert_sequence
 174              	.LVL6:
 175              	.L4:
 176 009e 00BF     		.align	2
 177              	.L3:
 178 00a0 00000000 		.word	ch
 179 00a4 00000000 		.word	wa
 180 00a8 00000000 		.word	thread
 181 00ac 00000000 		.word	.LC0
 182 00b0 00000000 		.word	threads
 183 00b4 04000000 		.word	.LC1
 184 00b8 08000000 		.word	.LC2
 185 00bc 0C000000 		.word	.LC3
 186 00c0 10000000 		.word	.LC4
 187 00c4 14000000 		.word	.LC5
 188              		.cfi_endproc
 189              	.LFE171:
 190              		.size	thd1_execute, .-thd1_execute
 191 00c8 AFF30080 		.section	.text.thread,"ax",%progbits
 191      AFF30080 
 192              		.align	2
 193              		.p2align 4,,15
 194              		.thumb
 195              		.thumb_func
 196              		.type	thread, %function
 197              	thread:
 198              	.LFB170:
 199              		.loc 1 60 0
 200              		.cfi_startproc
 201              		@ args = 0, pretend = 0, frame = 0
 202              		@ frame_needed = 0, uses_anonymous_args = 0
 203              		@ link register save eliminated.
 204              	.LVL7:
 205              		.loc 1 62 0
 206 0000 0078     		ldrb	r0, [r0]	@ zero_extendqisi2
 207              	.LVL8:
 208 0002 FFF7FEBF 		b	test_emit_token
 209              	.LVL9:
 210              		.cfi_endproc
 211              	.LFE170:
 212              		.size	thread, .-thread
 213 0006 00BFAFF3 		.section	.text.thd2_execute,"ax",%progbits
 213      0080AFF3 
 213      0080
 214              		.align	2
 215              		.p2align 4,,15
 216              		.thumb
 217              		.thumb_func
 218              		.type	thd2_execute, %function
 219              	thd2_execute:
 220              	.LFB172:
 221              		.loc 1 93 0
 222              		.cfi_startproc
 223              		@ args = 0, pretend = 0, frame = 0
 224              		@ frame_needed = 0, uses_anonymous_args = 0
 225 0000 F0B5     		push	{r4, r5, r6, r7, lr}
ARM GAS  /tmp/ccerkDPK.s 			page 5


 226              		.cfi_def_cfa_offset 20
 227              		.cfi_offset 4, -20
 228              		.cfi_offset 5, -16
 229              		.cfi_offset 6, -12
 230              		.cfi_offset 7, -8
 231              		.cfi_offset 14, -4
 232              	.LBB246:
 233              	.LBB247:
 234              	.LBB248:
 235              	.LBB249:
 236              		.loc 2 176 0
 237 0002 2B4F     		ldr	r7, .L8
 238              	.LBE249:
 239              	.LBE248:
 240              	.LBE247:
 241              	.LBE246:
 242              		.loc 1 95 0
 243 0004 2B4E     		ldr	r6, .L8+4
 244              	.LBB251:
 245              	.LBB250:
 246              		.loc 2 189 0
 247 0006 BB69     		ldr	r3, [r7, #24]
 248              	.LBE250:
 249              	.LBE251:
 250              		.loc 1 95 0
 251 0008 2B4D     		ldr	r5, .L8+8
 252 000a 9A68     		ldr	r2, [r3, #8]
 253 000c 2B49     		ldr	r1, .L8+12
 254              		.loc 1 93 0
 255 000e 83B0     		sub	sp, sp, #12
 256              		.cfi_def_cfa_offset 32
 257              		.loc 1 95 0
 258 0010 2B46     		mov	r3, r5
 259 0012 0091     		str	r1, [sp]
 260 0014 7068     		ldr	r0, [r6, #4]
 261 0016 043A     		subs	r2, r2, #4
 262 0018 4FF4A471 		mov	r1, #328
 263 001c FFF7FEFF 		bl	chThdCreateStatic
 264              	.LVL10:
 265              	.LBB252:
 266              	.LBB253:
 267              		.loc 2 189 0
 268 0020 BB69     		ldr	r3, [r7, #24]
 269              	.LBE253:
 270              	.LBE252:
 271              		.loc 1 95 0
 272 0022 274C     		ldr	r4, .L8+16
 273              		.loc 1 96 0
 274 0024 9A68     		ldr	r2, [r3, #8]
 275 0026 2749     		ldr	r1, .L8+20
 276 0028 3368     		ldr	r3, [r6]
 277              		.loc 1 95 0
 278 002a 6060     		str	r0, [r4, #4]
 279              		.loc 1 96 0
 280 002c 0091     		str	r1, [sp]
 281 002e 053A     		subs	r2, r2, #5
 282 0030 1846     		mov	r0, r3
ARM GAS  /tmp/ccerkDPK.s 			page 6


 283 0032 4FF4A471 		mov	r1, #328
 284 0036 2B46     		mov	r3, r5
 285 0038 FFF7FEFF 		bl	chThdCreateStatic
 286              	.LVL11:
 287              	.LBB254:
 288              	.LBB255:
 289              		.loc 2 189 0
 290 003c BA69     		ldr	r2, [r7, #24]
 291              	.LBE255:
 292              	.LBE254:
 293              		.loc 1 97 0
 294 003e 3369     		ldr	r3, [r6, #16]
 295 0040 9268     		ldr	r2, [r2, #8]
 296 0042 2149     		ldr	r1, .L8+24
 297              		.loc 1 96 0
 298 0044 2060     		str	r0, [r4]
 299              		.loc 1 97 0
 300 0046 0091     		str	r1, [sp]
 301 0048 013A     		subs	r2, r2, #1
 302 004a 1846     		mov	r0, r3
 303 004c 4FF4A471 		mov	r1, #328
 304 0050 2B46     		mov	r3, r5
 305 0052 FFF7FEFF 		bl	chThdCreateStatic
 306              	.LVL12:
 307              	.LBB256:
 308              	.LBB257:
 309              		.loc 2 189 0
 310 0056 BA69     		ldr	r2, [r7, #24]
 311              	.LBE257:
 312              	.LBE256:
 313              		.loc 1 98 0
 314 0058 F368     		ldr	r3, [r6, #12]
 315 005a 9268     		ldr	r2, [r2, #8]
 316 005c 1B49     		ldr	r1, .L8+28
 317              		.loc 1 97 0
 318 005e 2061     		str	r0, [r4, #16]
 319              		.loc 1 98 0
 320 0060 0091     		str	r1, [sp]
 321 0062 023A     		subs	r2, r2, #2
 322 0064 1846     		mov	r0, r3
 323 0066 4FF4A471 		mov	r1, #328
 324 006a 2B46     		mov	r3, r5
 325 006c FFF7FEFF 		bl	chThdCreateStatic
 326              	.LVL13:
 327              	.LBB258:
 328              	.LBB259:
 329              	.LBB260:
 330              	.LBB261:
 331              		.file 3 "/home/peter/ChibiOS_16.1.4/os/ext/CMSIS/include/core_cmFunc.h"
 332              		.loc 3 548 0
 333 0070 2023     		movs	r3, #32
 334              	.LBE261:
 335              	.LBE260:
 336              	.LBE259:
 337              	.LBE258:
 338              		.loc 1 98 0
 339 0072 E060     		str	r0, [r4, #12]
ARM GAS  /tmp/ccerkDPK.s 			page 7


 340              	.LVL14:
 341              	.LBB265:
 342              	.LBB264:
 343              	.LBB263:
 344              	.LBB262:
 345              		.loc 3 548 0
 346              	@ 548 "/home/peter/ChibiOS_16.1.4/os/ext/CMSIS/include/core_cmFunc.h" 1
 347 0074 83F31188 		MSR basepri, r3
 348              	@ 0 "" 2
 349              		.thumb
 350              	.LBE262:
 351              	.LBE263:
 352              	.LBE264:
 353              	.LBE265:
 354              	.LBB266:
 355              	.LBB267:
 356              		.loc 2 189 0
 357 0078 BB69     		ldr	r3, [r7, #24]
 358              	.LBE267:
 359              	.LBE266:
 360              		.loc 1 101 0
 361 007a 1549     		ldr	r1, .L8+32
 362 007c 9A68     		ldr	r2, [r3, #8]
 363 007e B068     		ldr	r0, [r6, #8]
 364 0080 2B46     		mov	r3, r5
 365 0082 0091     		str	r1, [sp]
 366 0084 033A     		subs	r2, r2, #3
 367 0086 4FF4A471 		mov	r1, #328
 368 008a FFF7FEFF 		bl	chThdCreateI
 369              	.LVL15:
 370              	.LBB268:
 371              	.LBB269:
 372              	.LBB270:
 373              	.LBB271:
 374              	.LBB272:
 375              		.loc 3 548 0
 376 008e 0023     		movs	r3, #0
 377              	.LBE272:
 378              	.LBE271:
 379              	.LBE270:
 380              	.LBE269:
 381              	.LBE268:
 382              		.loc 1 101 0
 383 0090 A060     		str	r0, [r4, #8]
 384              	.LVL16:
 385              	.LBB277:
 386              	.LBB276:
 387              	.LBB275:
 388              	.LBB274:
 389              	.LBB273:
 390              		.loc 3 548 0
 391              	@ 548 "/home/peter/ChibiOS_16.1.4/os/ext/CMSIS/include/core_cmFunc.h" 1
 392 0092 83F31188 		MSR basepri, r3
 393              	@ 0 "" 2
 394              		.thumb
 395              	.LBE273:
 396              	.LBE274:
ARM GAS  /tmp/ccerkDPK.s 			page 8


 397              	.LBE275:
 398              	.LBE276:
 399              	.LBE277:
 400              		.loc 1 103 0
 401 0096 A068     		ldr	r0, [r4, #8]
 402 0098 FFF7FEFF 		bl	chThdStart
 403              	.LVL17:
 404              		.loc 1 104 0
 405 009c FFF7FEFF 		bl	test_wait_threads
 406              	.LVL18:
 407              		.loc 1 105 0
 408 00a0 0C49     		ldr	r1, .L8+36
 409 00a2 0120     		movs	r0, #1
 410              		.loc 1 106 0
 411 00a4 03B0     		add	sp, sp, #12
 412              		.cfi_def_cfa_offset 20
 413              		@ sp needed
 414 00a6 BDE8F040 		pop	{r4, r5, r6, r7, lr}
 415              		.cfi_restore 14
 416              		.cfi_restore 7
 417              		.cfi_restore 6
 418              		.cfi_restore 5
 419              		.cfi_restore 4
 420              		.cfi_def_cfa_offset 0
 421              		.loc 1 105 0
 422 00aa FFF7FEBF 		b	_test_assert_sequence
 423              	.LVL19:
 424              	.L9:
 425 00ae 00BF     		.align	2
 426              	.L8:
 427 00b0 00000000 		.word	ch
 428 00b4 00000000 		.word	wa
 429 00b8 00000000 		.word	thread
 430 00bc 04000000 		.word	.LC1
 431 00c0 00000000 		.word	threads
 432 00c4 00000000 		.word	.LC0
 433 00c8 10000000 		.word	.LC4
 434 00cc 0C000000 		.word	.LC3
 435 00d0 08000000 		.word	.LC2
 436 00d4 14000000 		.word	.LC5
 437              		.cfi_endproc
 438              	.LFE172:
 439              		.size	thd2_execute, .-thd2_execute
 440 00d8 AFF30080 		.section	.text.thd3_execute,"ax",%progbits
 440      AFF30080 
 441              		.align	2
 442              		.p2align 4,,15
 443              		.thumb
 444              		.thumb_func
 445              		.type	thd3_execute, %function
 446              	thd3_execute:
 447              	.LFB173:
 448              		.loc 1 125 0
 449              		.cfi_startproc
 450              		@ args = 0, pretend = 0, frame = 0
 451              		@ frame_needed = 0, uses_anonymous_args = 0
 452 0000 F8B5     		push	{r3, r4, r5, r6, r7, lr}
ARM GAS  /tmp/ccerkDPK.s 			page 9


 453              		.cfi_def_cfa_offset 24
 454              		.cfi_offset 3, -24
 455              		.cfi_offset 4, -20
 456              		.cfi_offset 5, -16
 457              		.cfi_offset 6, -12
 458              		.cfi_offset 7, -8
 459              		.cfi_offset 14, -4
 460              	.LBB278:
 461              	.LBB279:
 462              	.LBB280:
 463              	.LBB281:
 464              		.loc 2 176 0
 465 0002 494E     		ldr	r6, .L17
 466              	.LBE281:
 467              	.LBE280:
 468              		.loc 2 189 0
 469 0004 B369     		ldr	r3, [r6, #24]
 470 0006 9C68     		ldr	r4, [r3, #8]
 471              	.LBE279:
 472              	.LBE278:
 473              		.loc 1 129 0
 474 0008 651C     		adds	r5, r4, #1
 475 000a 2846     		mov	r0, r5
 476 000c FFF7FEFF 		bl	chThdSetPriority
 477              	.LVL20:
 478 0010 0746     		mov	r7, r0
 479              	.LVL21:
 480              		.loc 1 130 0
 481 0012 391B     		subs	r1, r7, r4
 482 0014 B1FA81F1 		clz	r1, r1
 483 0018 0120     		movs	r0, #1
 484              	.LVL22:
 485 001a 4909     		lsrs	r1, r1, #5
 486 001c FFF7FEFF 		bl	_test_assert
 487              	.LVL23:
 488 0020 00B1     		cbz	r0, .L16
 489              	.LVL24:
 490              	.L10:
 491 0022 F8BD     		pop	{r3, r4, r5, r6, r7, pc}
 492              	.LVL25:
 493              	.L16:
 494              	.LBB282:
 495              	.LBB283:
 496              		.loc 2 189 0
 497 0024 B369     		ldr	r3, [r6, #24]
 498              	.LBE283:
 499              	.LBE282:
 500              		.loc 1 132 0
 501 0026 0220     		movs	r0, #2
 502 0028 9968     		ldr	r1, [r3, #8]
 503 002a 691A     		subs	r1, r5, r1
 504 002c B1FA81F1 		clz	r1, r1
 505 0030 4909     		lsrs	r1, r1, #5
 506 0032 FFF7FEFF 		bl	_test_assert
 507              	.LVL26:
 508 0036 0028     		cmp	r0, #0
 509 0038 F3D1     		bne	.L10
ARM GAS  /tmp/ccerkDPK.s 			page 10


 510              		.loc 1 134 0
 511 003a 3846     		mov	r0, r7
 512 003c FFF7FEFF 		bl	chThdSetPriority
 513              	.LVL27:
 514              		.loc 1 135 0
 515 0040 291A     		subs	r1, r5, r0
 516 0042 B1FA81F1 		clz	r1, r1
 517 0046 0320     		movs	r0, #3
 518              	.LVL28:
 519 0048 4909     		lsrs	r1, r1, #5
 520 004a FFF7FEFF 		bl	_test_assert
 521              	.LVL29:
 522 004e 0028     		cmp	r0, #0
 523 0050 E7D1     		bne	.L10
 524              	.LBB284:
 525              	.LBB285:
 526              		.loc 2 189 0
 527 0052 B369     		ldr	r3, [r6, #24]
 528              	.LBE285:
 529              	.LBE284:
 530              		.loc 1 137 0
 531 0054 0420     		movs	r0, #4
 532 0056 9968     		ldr	r1, [r3, #8]
 533 0058 611A     		subs	r1, r4, r1
 534 005a B1FA81F1 		clz	r1, r1
 535 005e 4909     		lsrs	r1, r1, #5
 536 0060 FFF7FEFF 		bl	_test_assert
 537              	.LVL30:
 538 0064 0028     		cmp	r0, #0
 539 0066 DCD1     		bne	.L10
 540              	.LVL31:
 541              	.LBB286:
 542              	.LBB287:
 543              	.LBB288:
 544              	.LBB289:
 545              		.loc 3 548 0
 546 0068 2023     		movs	r3, #32
 547              	@ 548 "/home/peter/ChibiOS_16.1.4/os/ext/CMSIS/include/core_cmFunc.h" 1
 548 006a 83F31188 		MSR basepri, r3
 549              	@ 0 "" 2
 550              		.thumb
 551              	.LBE289:
 552              	.LBE288:
 553              	.LBE287:
 554              	.LBE286:
 555              	.LBB290:
 556              	.LBB291:
 557              		.loc 2 176 0
 558 006e B269     		ldr	r2, [r6, #24]
 559              	.LBE291:
 560              	.LBE290:
 561              		.loc 1 143 0
 562 0070 9368     		ldr	r3, [r2, #8]
 563 0072 0233     		adds	r3, r3, #2
 564 0074 9360     		str	r3, [r2, #8]
 565              	.LVL32:
 566              	.LBB292:
ARM GAS  /tmp/ccerkDPK.s 			page 11


 567              	.LBB293:
 568              	.LBB294:
 569              	.LBB295:
 570              	.LBB296:
 571              		.loc 3 548 0
 572              	@ 548 "/home/peter/ChibiOS_16.1.4/os/ext/CMSIS/include/core_cmFunc.h" 1
 573 0076 80F31188 		MSR basepri, r0
 574              	@ 0 "" 2
 575              		.thumb
 576              	.LBE296:
 577              	.LBE295:
 578              	.LBE294:
 579              	.LBE293:
 580              	.LBE292:
 581              	.LBB297:
 582              	.LBB298:
 583              		.loc 2 189 0
 584 007a B369     		ldr	r3, [r6, #24]
 585              	.LBE298:
 586              	.LBE297:
 587              		.loc 1 145 0
 588 007c A71C     		adds	r7, r4, #2
 589 007e 9968     		ldr	r1, [r3, #8]
 590 0080 0520     		movs	r0, #5
 591 0082 791A     		subs	r1, r7, r1
 592 0084 B1FA81F1 		clz	r1, r1
 593 0088 4909     		lsrs	r1, r1, #5
 594 008a FFF7FEFF 		bl	_test_assert
 595              	.LVL33:
 596 008e 0028     		cmp	r0, #0
 597 0090 C7D1     		bne	.L10
 598              		.loc 1 149 0
 599 0092 2846     		mov	r0, r5
 600 0094 FFF7FEFF 		bl	chThdSetPriority
 601              	.LVL34:
 602              		.loc 1 150 0
 603 0098 011B     		subs	r1, r0, r4
 604 009a B1FA81F1 		clz	r1, r1
 605 009e 0620     		movs	r0, #6
 606              	.LVL35:
 607 00a0 4909     		lsrs	r1, r1, #5
 608 00a2 FFF7FEFF 		bl	_test_assert
 609              	.LVL36:
 610 00a6 0028     		cmp	r0, #0
 611 00a8 BBD1     		bne	.L10
 612              		.loc 1 152 0
 613 00aa B369     		ldr	r3, [r6, #24]
 614 00ac 0720     		movs	r0, #7
 615 00ae 9968     		ldr	r1, [r3, #8]
 616 00b0 791A     		subs	r1, r7, r1
 617 00b2 B1FA81F1 		clz	r1, r1
 618 00b6 4909     		lsrs	r1, r1, #5
 619 00b8 FFF7FEFF 		bl	_test_assert
 620              	.LVL37:
 621 00bc 0028     		cmp	r0, #0
 622 00be B0D1     		bne	.L10
 623              		.loc 1 154 0
ARM GAS  /tmp/ccerkDPK.s 			page 12


 624 00c0 B369     		ldr	r3, [r6, #24]
 625 00c2 0820     		movs	r0, #8
 626 00c4 D96B     		ldr	r1, [r3, #60]
 627 00c6 691A     		subs	r1, r5, r1
 628 00c8 B1FA81F1 		clz	r1, r1
 629 00cc 4909     		lsrs	r1, r1, #5
 630 00ce FFF7FEFF 		bl	_test_assert
 631              	.LVL38:
 632 00d2 0028     		cmp	r0, #0
 633 00d4 A5D1     		bne	.L10
 634              		.loc 1 158 0
 635 00d6 E71C     		adds	r7, r4, #3
 636 00d8 3846     		mov	r0, r7
 637 00da FFF7FEFF 		bl	chThdSetPriority
 638              	.LVL39:
 639              		.loc 1 159 0
 640 00de 281A     		subs	r0, r5, r0
 641              	.LVL40:
 642 00e0 4142     		rsbs	r1, r0, #0
 643 00e2 4141     		adcs	r1, r1, r0
 644 00e4 0920     		movs	r0, #9
 645 00e6 FFF7FEFF 		bl	_test_assert
 646              	.LVL41:
 647 00ea 0028     		cmp	r0, #0
 648 00ec 99D1     		bne	.L10
 649              		.loc 1 161 0
 650 00ee B369     		ldr	r3, [r6, #24]
 651 00f0 0A20     		movs	r0, #10
 652 00f2 9968     		ldr	r1, [r3, #8]
 653 00f4 7A1A     		subs	r2, r7, r1
 654 00f6 5142     		rsbs	r1, r2, #0
 655 00f8 5141     		adcs	r1, r1, r2
 656 00fa FFF7FEFF 		bl	_test_assert
 657              	.LVL42:
 658 00fe 0028     		cmp	r0, #0
 659 0100 8FD1     		bne	.L10
 660              		.loc 1 163 0
 661 0102 B369     		ldr	r3, [r6, #24]
 662 0104 0B20     		movs	r0, #11
 663 0106 D96B     		ldr	r1, [r3, #60]
 664 0108 7B1A     		subs	r3, r7, r1
 665 010a 5942     		rsbs	r1, r3, #0
 666 010c 5941     		adcs	r1, r1, r3
 667 010e FFF7FEFF 		bl	_test_assert
 668              	.LVL43:
 669 0112 0028     		cmp	r0, #0
 670 0114 85D1     		bne	.L10
 671              	.LVL44:
 672              	.LBB299:
 673              	.LBB300:
 674              	.LBB301:
 675              	.LBB302:
 676              		.loc 3 548 0
 677 0116 2023     		movs	r3, #32
 678              	@ 548 "/home/peter/ChibiOS_16.1.4/os/ext/CMSIS/include/core_cmFunc.h" 1
 679 0118 83F31188 		MSR basepri, r3
 680              	@ 0 "" 2
ARM GAS  /tmp/ccerkDPK.s 			page 13


 681              		.thumb
 682              	.LBE302:
 683              	.LBE301:
 684              	.LBE300:
 685              	.LBE299:
 686              	.LBB303:
 687              	.LBB304:
 688              		.loc 2 176 0
 689 011c B369     		ldr	r3, [r6, #24]
 690              	.LBE304:
 691              	.LBE303:
 692              		.loc 1 167 0
 693 011e 9C60     		str	r4, [r3, #8]
 694              		.loc 1 168 0
 695 0120 DC63     		str	r4, [r3, #60]
 696              	.LVL45:
 697              	.LBB305:
 698              	.LBB306:
 699              	.LBB307:
 700              	.LBB308:
 701              	.LBB309:
 702              		.loc 3 548 0
 703              	@ 548 "/home/peter/ChibiOS_16.1.4/os/ext/CMSIS/include/core_cmFunc.h" 1
 704 0122 80F31188 		MSR basepri, r0
 705              	@ 0 "" 2
 706              		.thumb
 707 0126 7CE7     		b	.L10
 708              	.L18:
 709              		.align	2
 710              	.L17:
 711 0128 00000000 		.word	ch
 712              	.LBE309:
 713              	.LBE308:
 714              	.LBE307:
 715              	.LBE306:
 716              	.LBE305:
 717              		.cfi_endproc
 718              	.LFE173:
 719              		.size	thd3_execute, .-thd3_execute
 720 012c AFF30080 		.section	.text.thd4_execute,"ax",%progbits
 721              		.align	2
 722              		.p2align 4,,15
 723              		.thumb
 724              		.thumb_func
 725              		.type	thd4_execute, %function
 726              	thd4_execute:
 727              	.LFB174:
 728              		.loc 1 188 0
 729              		.cfi_startproc
 730              		@ args = 0, pretend = 0, frame = 0
 731              		@ frame_needed = 0, uses_anonymous_args = 0
 732 0000 70B5     		push	{r4, r5, r6, lr}
 733              		.cfi_def_cfa_offset 16
 734              		.cfi_offset 4, -16
 735              		.cfi_offset 5, -12
 736              		.cfi_offset 6, -8
 737              		.cfi_offset 14, -4
ARM GAS  /tmp/ccerkDPK.s 			page 14


 738              		.loc 1 191 0
 739 0002 FFF7FEFF 		bl	test_wait_tick
 740              	.LVL46:
 741              	.LBB390:
 742              	.LBB391:
 743              	.LBB392:
 744              	.LBB393:
 745              	.LBB394:
 746              	.LBB395:
 747              		.loc 3 548 0
 748 0006 2026     		movs	r6, #32
 749              	@ 548 "/home/peter/ChibiOS_16.1.4/os/ext/CMSIS/include/core_cmFunc.h" 1
 750 0008 86F31188 		MSR basepri, r6
 751              	@ 0 "" 2
 752              		.thumb
 753              	.LBE395:
 754              	.LBE394:
 755              	.LBE393:
 756              	.LBE392:
 757              	.LBB396:
 758              	.LBB397:
 759              		.file 4 "/home/peter/ChibiOS_16.1.4/os/rt/include/chvt.h"
 760              		.loc 4 231 0
 761 000c 244D     		ldr	r5, .L25
 762              	.LBE397:
 763              	.LBE396:
 764              	.LBB399:
 765              	.LBB400:
 766              	.LBB401:
 767              	.LBB402:
 768              	.LBB403:
 769              		.loc 3 548 0
 770 000e 0023     		movs	r3, #0
 771              	.LBE403:
 772              	.LBE402:
 773              	.LBE401:
 774              	.LBE400:
 775              	.LBE399:
 776              	.LBB408:
 777              	.LBB398:
 778              		.loc 4 231 0
 779 0010 AC6A     		ldr	r4, [r5, #40]
 780              	.LVL47:
 781              	.LBE398:
 782              	.LBE408:
 783              	.LBB409:
 784              	.LBB407:
 785              	.LBB406:
 786              	.LBB405:
 787              	.LBB404:
 788              		.loc 3 548 0
 789              	@ 548 "/home/peter/ChibiOS_16.1.4/os/ext/CMSIS/include/core_cmFunc.h" 1
 790 0012 83F31188 		MSR basepri, r3
 791              	@ 0 "" 2
 792              		.thumb
 793              	.LBE404:
 794              	.LBE405:
ARM GAS  /tmp/ccerkDPK.s 			page 15


 795              	.LBE406:
 796              	.LBE407:
 797              	.LBE409:
 798              	.LBE391:
 799              	.LBE390:
 800              		.loc 1 195 0
 801 0016 4FF47A70 		mov	r0, #1000
 802 001a FFF7FEFF 		bl	chThdSleep
 803              	.LVL48:
 804              		.loc 1 196 0
 805 001e 04F57A71 		add	r1, r4, #1000
 806 0022 04F2E932 		addw	r2, r4, #1001
 807 0026 0120     		movs	r0, #1
 808 0028 FFF7FEFF 		bl	_test_assert_time_window
 809              	.LVL49:
 810 002c 00B1     		cbz	r0, .L24
 811              	.L19:
 812 002e 70BD     		pop	{r4, r5, r6, pc}
 813              	.L24:
 814              	.LVL50:
 815              	.LBB410:
 816              	.LBB411:
 817              	.LBB412:
 818              	.LBB413:
 819              	.LBB414:
 820              	.LBB415:
 821              		.loc 3 548 0
 822              	@ 548 "/home/peter/ChibiOS_16.1.4/os/ext/CMSIS/include/core_cmFunc.h" 1
 823 0030 86F31188 		MSR basepri, r6
 824              	@ 0 "" 2
 825              		.thumb
 826              	.LBE415:
 827              	.LBE414:
 828              	.LBE413:
 829              	.LBE412:
 830              	.LBB416:
 831              	.LBB417:
 832              		.loc 4 231 0
 833 0034 AC6A     		ldr	r4, [r5, #40]
 834              	.LVL51:
 835              	.LBE417:
 836              	.LBE416:
 837              	.LBB418:
 838              	.LBB419:
 839              	.LBB420:
 840              	.LBB421:
 841              	.LBB422:
 842              		.loc 3 548 0
 843              	@ 548 "/home/peter/ChibiOS_16.1.4/os/ext/CMSIS/include/core_cmFunc.h" 1
 844 0036 80F31188 		MSR basepri, r0
 845              	@ 0 "" 2
 846              		.thumb
 847              	.LBE422:
 848              	.LBE421:
 849              	.LBE420:
 850              	.LBE419:
 851              	.LBE418:
ARM GAS  /tmp/ccerkDPK.s 			page 16


 852              	.LBE411:
 853              	.LBE410:
 854              		.loc 1 202 0
 855 003a 4FF47A70 		mov	r0, #1000
 856 003e FFF7FEFF 		bl	chThdSleep
 857              	.LVL52:
 858              		.loc 1 203 0
 859 0042 04F57A71 		add	r1, r4, #1000
 860 0046 04F2E932 		addw	r2, r4, #1001
 861 004a 0220     		movs	r0, #2
 862 004c FFF7FEFF 		bl	_test_assert_time_window
 863              	.LVL53:
 864 0050 0028     		cmp	r0, #0
 865 0052 ECD1     		bne	.L19
 866              	.LVL54:
 867              	.LBB423:
 868              	.LBB424:
 869              	.LBB425:
 870              	.LBB426:
 871              	.LBB427:
 872              	.LBB428:
 873              	.LBB429:
 874              	.LBB430:
 875              		.loc 3 548 0
 876              	@ 548 "/home/peter/ChibiOS_16.1.4/os/ext/CMSIS/include/core_cmFunc.h" 1
 877 0054 86F31188 		MSR basepri, r6
 878              	@ 0 "" 2
 879              		.thumb
 880              	.LBE430:
 881              	.LBE429:
 882              	.LBE428:
 883              	.LBE427:
 884              	.LBB431:
 885              	.LBB432:
 886              		.loc 4 231 0
 887 0058 AC6A     		ldr	r4, [r5, #40]
 888              	.LVL55:
 889              	.LBE432:
 890              	.LBE431:
 891              	.LBB433:
 892              	.LBB434:
 893              	.LBB435:
 894              	.LBB436:
 895              	.LBB437:
 896              		.loc 3 548 0
 897              	@ 548 "/home/peter/ChibiOS_16.1.4/os/ext/CMSIS/include/core_cmFunc.h" 1
 898 005a 80F31188 		MSR basepri, r0
 899              	@ 0 "" 2
 900              		.thumb
 901              	.LBE437:
 902              	.LBE436:
 903              	.LBE435:
 904              	.LBE434:
 905              	.LBE433:
 906              	.LBE426:
 907              	.LBE425:
 908              		.loc 1 209 0
ARM GAS  /tmp/ccerkDPK.s 			page 17


 909 005e 42F21070 		movw	r0, #10000
 910 0062 FFF7FEFF 		bl	chThdSleep
 911              	.LVL56:
 912              		.loc 1 210 0
 913 0066 04F51C51 		add	r1, r4, #9984
 914 006a 0A46     		mov	r2, r1
 915 006c 0320     		movs	r0, #3
 916 006e 1031     		adds	r1, r1, #16
 917 0070 1132     		adds	r2, r2, #17
 918 0072 FFF7FEFF 		bl	_test_assert_time_window
 919              	.LVL57:
 920 0076 0028     		cmp	r0, #0
 921 0078 D9D1     		bne	.L19
 922              	.LVL58:
 923              	.LBB438:
 924              	.LBB439:
 925              	.LBB440:
 926              	.LBB441:
 927              	.LBB442:
 928              	.LBB443:
 929              		.loc 3 548 0
 930              	@ 548 "/home/peter/ChibiOS_16.1.4/os/ext/CMSIS/include/core_cmFunc.h" 1
 931 007a 86F31188 		MSR basepri, r6
 932              	@ 0 "" 2
 933              		.thumb
 934              	.LBE443:
 935              	.LBE442:
 936              	.LBE441:
 937              	.LBE440:
 938              	.LBB444:
 939              	.LBB445:
 940              		.loc 4 231 0
 941 007e AC6A     		ldr	r4, [r5, #40]
 942              	.LVL59:
 943              	.LBE445:
 944              	.LBE444:
 945              	.LBB446:
 946              	.LBB447:
 947              	.LBB448:
 948              	.LBB449:
 949              	.LBB450:
 950              		.loc 3 548 0
 951              	@ 548 "/home/peter/ChibiOS_16.1.4/os/ext/CMSIS/include/core_cmFunc.h" 1
 952 0080 80F31188 		MSR basepri, r0
 953              	@ 0 "" 2
 954              		.thumb
 955              	.LBE450:
 956              	.LBE449:
 957              	.LBE448:
 958              	.LBE447:
 959              	.LBE446:
 960              	.LBE439:
 961              	.LBE438:
 962              		.loc 1 215 0
 963 0084 04F57A75 		add	r5, r4, #1000
 964              	.LVL60:
 965              		.loc 1 216 0
ARM GAS  /tmp/ccerkDPK.s 			page 18


 966 0088 2846     		mov	r0, r5
 967 008a FFF7FEFF 		bl	chThdSleepUntil
 968              	.LVL61:
 969              		.loc 1 217 0
 970 008e 2946     		mov	r1, r5
 971 0090 04F2E932 		addw	r2, r4, #1001
 972 0094 0420     		movs	r0, #4
 973              	.LBE424:
 974              	.LBE423:
 975              		.loc 1 220 0
 976 0096 BDE87040 		pop	{r4, r5, r6, lr}
 977              		.cfi_restore 14
 978              		.cfi_restore 6
 979              		.cfi_restore 5
 980              		.cfi_restore 4
 981              		.cfi_def_cfa_offset 0
 982              	.LVL62:
 983              	.LBB452:
 984              	.LBB451:
 985              		.loc 1 217 0
 986 009a FFF7FEBF 		b	_test_assert_time_window
 987              	.LVL63:
 988              	.L26:
 989 009e 00BF     		.align	2
 990              	.L25:
 991 00a0 00000000 		.word	ch
 992              	.LBE451:
 993              	.LBE452:
 994              		.cfi_endproc
 995              	.LFE174:
 996              		.size	thd4_execute, .-thd4_execute
 997              		.global	patternthd
 998              		.global	testthd4
 999              		.global	testthd3
 1000              		.global	testthd2
 1001              		.global	testthd1
 1002 00a4 AFF30080 		.section	.rodata.testthd1,"a",%progbits
 1002      AFF30080 
 1002      AFF30080 
 1003              		.align	2
 1004              		.type	testthd1, %object
 1005              		.size	testthd1, 16
 1006              	testthd1:
 1007 0000 64000000 		.word	.LC9
 1008 0004 00000000 		.word	0
 1009 0008 00000000 		.word	0
 1010 000c 00000000 		.word	thd1_execute
 1011              		.section	.rodata.testthd2,"a",%progbits
 1012              		.align	2
 1013              		.type	testthd2, %object
 1014              		.size	testthd2, 16
 1015              	testthd2:
 1016 0000 48000000 		.word	.LC8
 1017 0004 00000000 		.word	0
 1018 0008 00000000 		.word	0
 1019 000c 00000000 		.word	thd2_execute
 1020              		.section	.rodata.testthd3,"a",%progbits
ARM GAS  /tmp/ccerkDPK.s 			page 19


 1021              		.align	2
 1022              		.type	testthd3, %object
 1023              		.size	testthd3, 16
 1024              	testthd3:
 1025 0000 2C000000 		.word	.LC7
 1026 0004 00000000 		.word	0
 1027 0008 00000000 		.word	0
 1028 000c 00000000 		.word	thd3_execute
 1029              		.section	.rodata.testthd4,"a",%progbits
 1030              		.align	2
 1031              		.type	testthd4, %object
 1032              		.size	testthd4, 16
 1033              	testthd4:
 1034 0000 1C000000 		.word	.LC6
 1035 0004 00000000 		.word	0
 1036 0008 00000000 		.word	0
 1037 000c 00000000 		.word	thd4_execute
 1038              		.section	.rodata.patternthd,"a",%progbits
 1039              		.align	2
 1040              		.type	patternthd, %object
 1041              		.size	patternthd, 20
 1042              	patternthd:
 1043 0000 00000000 		.word	testthd1
 1044 0004 00000000 		.word	testthd2
 1045 0008 00000000 		.word	testthd3
 1046 000c 00000000 		.word	testthd4
 1047 0010 00000000 		.word	0
 1048              		.section	.rodata.str1.4,"aMS",%progbits,1
 1049              		.align	2
 1050              	.LC0:
 1051 0000 4500     		.ascii	"E\000"
 1052 0002 0000     		.space	2
 1053              	.LC1:
 1054 0004 4400     		.ascii	"D\000"
 1055 0006 0000     		.space	2
 1056              	.LC2:
 1057 0008 4300     		.ascii	"C\000"
 1058 000a 0000     		.space	2
 1059              	.LC3:
 1060 000c 4200     		.ascii	"B\000"
 1061 000e 0000     		.space	2
 1062              	.LC4:
 1063 0010 4100     		.ascii	"A\000"
 1064 0012 0000     		.space	2
 1065              	.LC5:
 1066 0014 41424344 		.ascii	"ABCDE\000"
 1066      4500
 1067 001a 0000     		.space	2
 1068              	.LC6:
 1069 001c 54687265 		.ascii	"Threads, delays\000"
 1069      6164732C 
 1069      2064656C 
 1069      61797300 
 1070              	.LC7:
 1071 002c 54687265 		.ascii	"Threads, priority change\000"
 1071      6164732C 
 1071      20707269 
ARM GAS  /tmp/ccerkDPK.s 			page 20


 1071      6F726974 
 1071      79206368 
 1072 0045 000000   		.space	3
 1073              	.LC8:
 1074 0048 54687265 		.ascii	"Threads, enqueuing test #2\000"
 1074      6164732C 
 1074      20656E71 
 1074      75657569 
 1074      6E672074 
 1075 0063 00       		.space	1
 1076              	.LC9:
 1077 0064 54687265 		.ascii	"Threads, enqueuing test #1\000"
 1077      6164732C 
 1077      20656E71 
 1077      75657569 
 1077      6E672074 
 1078 007f 00       		.text
 1079              	.Letext0:
 1080              		.file 5 "/usr/lib/gcc/arm-none-eabi/4.9.3/include/stddef.h"
 1081              		.file 6 "/usr/include/newlib/machine/_default_types.h"
 1082              		.file 7 "/usr/include/newlib/stdint.h"
 1083              		.file 8 "/home/peter/ChibiOS_16.1.4/os/rt/ports/ARMCMx/compilers/GCC/chtypes.h"
 1084              		.file 9 "/home/peter/ChibiOS_16.1.4/os/rt/include/chsystypes.h"
 1085              		.file 10 "/home/peter/ChibiOS_16.1.4/os/rt/include/chschd.h"
 1086              		.file 11 "/home/peter/ChibiOS_16.1.4/os/rt/ports/ARMCMx/chcore.h"
 1087              		.file 12 "/home/peter/ChibiOS_16.1.4/os/rt/ports/ARMCMx/chcore_v7m.h"
 1088              		.file 13 "/home/peter/ChibiOS_16.1.4/os/rt/include/chtm.h"
 1089              		.file 14 "/home/peter/ChibiOS_16.1.4/os/rt/include/chsem.h"
 1090              		.file 15 "/home/peter/ChibiOS_16.1.4/os/rt/include/chmtx.h"
 1091              		.file 16 "/home/peter/ChibiOS_16.1.4/test/rt/test.h"
 1092              		.file 17 "/home/peter/ChibiOS_16.1.4/os/rt/include/chsys.h"
 1093              		.file 18 "/home/peter/ChibiOS_16.1.4/os/ext/CMSIS/include/core_cm3.h"